ARM GAS  C:\Users\samue\AppData\Local\Temp\ccXLBDBx.s 			page 1


   1              		.syntax unified
   2              		.cpu cortex-m3
   3              		.fpu softvfp
   4              		.eabi_attribute 20, 1
   5              		.eabi_attribute 21, 1
   6              		.eabi_attribute 23, 3
   7              		.eabi_attribute 24, 1
   8              		.eabi_attribute 25, 1
   9              		.eabi_attribute 26, 1
  10              		.eabi_attribute 30, 1
  11              		.eabi_attribute 34, 1
  12              		.eabi_attribute 18, 4
  13              		.thumb
  14              		.syntax unified
  15              		.file	"debug_uart.c"
  16              		.text
  17              	.Ltext0:
  18              		.cfi_sections	.debug_frame
  19              		.section	.text.process_command,"ax",%progbits
  20              		.align	2
  21              		.thumb
  22              		.thumb_func
  23              		.type	process_command, %function
  24              	process_command:
  25              	.LFB80:
  26              		.file 1 "ZumoLibrary\\debug_uart.c"
   1:ZumoLibrary/debug_uart.c **** /* ========================================
   2:ZumoLibrary/debug_uart.c ****  *
   3:ZumoLibrary/debug_uart.c ****  * Copyright YOUR COMPANY, THE YEAR
   4:ZumoLibrary/debug_uart.c ****  * All Rights Reserved
   5:ZumoLibrary/debug_uart.c ****  * UNPUBLISHED, LICENSED SOFTWARE.
   6:ZumoLibrary/debug_uart.c ****  *
   7:ZumoLibrary/debug_uart.c ****  * CONFIDENTIAL AND PROPRIETARY INFORMATION
   8:ZumoLibrary/debug_uart.c ****  * WHICH IS THE PROPERTY OF your company.
   9:ZumoLibrary/debug_uart.c ****  *
  10:ZumoLibrary/debug_uart.c ****  * ========================================
  11:ZumoLibrary/debug_uart.c **** */
  12:ZumoLibrary/debug_uart.c **** #include <project.h>
  13:ZumoLibrary/debug_uart.c **** #include <stdio.h>
  14:ZumoLibrary/debug_uart.c **** #include <stdbool.h>
  15:ZumoLibrary/debug_uart.c **** /* RTOS includes. */
  16:ZumoLibrary/debug_uart.c **** #include "FreeRTOS.h"
  17:ZumoLibrary/debug_uart.c **** #include "task.h"
  18:ZumoLibrary/debug_uart.c **** #include "queue.h"
  19:ZumoLibrary/debug_uart.c **** #include "semphr.h"
  20:ZumoLibrary/debug_uart.c **** #include "debug_uart.h"
  21:ZumoLibrary/debug_uart.c **** #include "zumo_config.h"
  22:ZumoLibrary/debug_uart.c **** #include "serial1.h"
  23:ZumoLibrary/debug_uart.c **** 
  24:ZumoLibrary/debug_uart.c **** #include "esp8266_socket.h"
  25:ZumoLibrary/debug_uart.c **** 
  26:ZumoLibrary/debug_uart.c **** static int process_command(char *cmd);
  27:ZumoLibrary/debug_uart.c **** static int cmd_help(char *arg);
  28:ZumoLibrary/debug_uart.c **** static int cmd_socket(char *cmd);
  29:ZumoLibrary/debug_uart.c **** static int cmd_connect(char *cmd);
  30:ZumoLibrary/debug_uart.c **** static int cmd_close(char *cmd);
  31:ZumoLibrary/debug_uart.c **** static int cmd_read(char *cmd);
ARM GAS  C:\Users\samue\AppData\Local\Temp\ccXLBDBx.s 			page 2


  32:ZumoLibrary/debug_uart.c **** static int cmd_write(char *cmd);
  33:ZumoLibrary/debug_uart.c **** static int cmd_tasklist(char *cmd);
  34:ZumoLibrary/debug_uart.c **** static int cmd_stats(char *cmd);
  35:ZumoLibrary/debug_uart.c **** 
  36:ZumoLibrary/debug_uart.c **** static const struct cmdtable_ {
  37:ZumoLibrary/debug_uart.c ****   char *name;
  38:ZumoLibrary/debug_uart.c ****   int (*cmd)(char *);
  39:ZumoLibrary/debug_uart.c ****   const char *help;
  40:ZumoLibrary/debug_uart.c **** } cmdtable[] = {
  41:ZumoLibrary/debug_uart.c ****   { "?",     cmd_help, "help [command]\n" },
  42:ZumoLibrary/debug_uart.c ****   { "help",  cmd_help, "help [command]\n" },
  43:ZumoLibrary/debug_uart.c ****   { "socket",  cmd_socket, "socket - starts ESP8266 socket task\n" },
  44:ZumoLibrary/debug_uart.c ****   { "connect",  cmd_connect, "connect - connect to a server\n" },
  45:ZumoLibrary/debug_uart.c ****   { "close",  cmd_close, "close - close connection\n" },
  46:ZumoLibrary/debug_uart.c ****   { "read",  cmd_read, "read from socket\n" },
  47:ZumoLibrary/debug_uart.c ****   { "write",  cmd_write, "write <data> - writes <data> to socket\n" },
  48:ZumoLibrary/debug_uart.c ****   { "list",  cmd_tasklist, "list - list currently running tasks\n" },
  49:ZumoLibrary/debug_uart.c ****   { "stat",  cmd_stats, "stat - print runtime statistics\n" },
  50:ZumoLibrary/debug_uart.c **** 
  51:ZumoLibrary/debug_uart.c ****   { "", NULL, "" } /* terminating entry - do not remove */
  52:ZumoLibrary/debug_uart.c **** };
  53:ZumoLibrary/debug_uart.c **** 
  54:ZumoLibrary/debug_uart.c **** 
  55:ZumoLibrary/debug_uart.c **** static QueueHandle_t xSerialTxQueue = NULL;
  56:ZumoLibrary/debug_uart.c **** static const int uxQueueLength = 256;
  57:ZumoLibrary/debug_uart.c **** static SemaphoreHandle_t u1_mutex = NULL;
  58:ZumoLibrary/debug_uart.c **** 
  59:ZumoLibrary/debug_uart.c **** void DebugUartTask( void *pvParameters )
  60:ZumoLibrary/debug_uart.c **** {
  61:ZumoLibrary/debug_uart.c ****     (void) pvParameters; //quiet the compiler warning
  62:ZumoLibrary/debug_uart.c ****     char c;
  63:ZumoLibrary/debug_uart.c ****     while(1) vTaskDelay(100);
  64:ZumoLibrary/debug_uart.c ****     
  65:ZumoLibrary/debug_uart.c ****     while(true) {
  66:ZumoLibrary/debug_uart.c ****     	if( pdTRUE == xQueueReceive( xSerialTxQueue, &c, portMAX_DELAY ) )
  67:ZumoLibrary/debug_uart.c ****     	{
  68:ZumoLibrary/debug_uart.c ****     		/* Picked up a character. */
  69:ZumoLibrary/debug_uart.c ****             xSemaphoreTake(u1_mutex, portMAX_DELAY);
  70:ZumoLibrary/debug_uart.c ****             //UART_1_PutChar(c);
  71:ZumoLibrary/debug_uart.c ****             xSemaphoreGive(u1_mutex);
  72:ZumoLibrary/debug_uart.c ****     	}
  73:ZumoLibrary/debug_uart.c ****     }
  74:ZumoLibrary/debug_uart.c ****     
  75:ZumoLibrary/debug_uart.c **** }
  76:ZumoLibrary/debug_uart.c **** 
  77:ZumoLibrary/debug_uart.c **** 
  78:ZumoLibrary/debug_uart.c **** void DebugUartTaskInit(void)
  79:ZumoLibrary/debug_uart.c **** {
  80:ZumoLibrary/debug_uart.c **** 	/* Configure Tx */
  81:ZumoLibrary/debug_uart.c **** 	xSerialTxQueue = xQueueCreate( uxQueueLength, sizeof( signed char ) );
  82:ZumoLibrary/debug_uart.c ****     u1_mutex = xSemaphoreCreateMutex();
  83:ZumoLibrary/debug_uart.c **** }    
  84:ZumoLibrary/debug_uart.c **** 
  85:ZumoLibrary/debug_uart.c **** #if 0
  86:ZumoLibrary/debug_uart.c **** int _write(int file, const char *ptr, int len)
  87:ZumoLibrary/debug_uart.c **** {
  88:ZumoLibrary/debug_uart.c ****     (void)file; /* Parameter is not used, suppress unused argument warning */
ARM GAS  C:\Users\samue\AppData\Local\Temp\ccXLBDBx.s 			page 3


  89:ZumoLibrary/debug_uart.c **** 	int n;
  90:ZumoLibrary/debug_uart.c **** 	for(n = 0; n < len; n++) {
  91:ZumoLibrary/debug_uart.c ****         if(*ptr == '\n') {
  92:ZumoLibrary/debug_uart.c ****             const char cr = '\r';
  93:ZumoLibrary/debug_uart.c ****     		xQueueSend( xSerialTxQueue, &cr, portMAX_DELAY); //UART_1_PutChar('\r');
  94:ZumoLibrary/debug_uart.c ****         }
  95:ZumoLibrary/debug_uart.c **** 		xQueueSend( xSerialTxQueue, ptr++, portMAX_DELAY); //UART_1_PutChar(*ptr++);
  96:ZumoLibrary/debug_uart.c **** 	}
  97:ZumoLibrary/debug_uart.c **** 	return len;
  98:ZumoLibrary/debug_uart.c **** 
  99:ZumoLibrary/debug_uart.c **** }
 100:ZumoLibrary/debug_uart.c **** #endif
 101:ZumoLibrary/debug_uart.c **** 
 102:ZumoLibrary/debug_uart.c **** void ds(const char *s) 
 103:ZumoLibrary/debug_uart.c **** {
 104:ZumoLibrary/debug_uart.c ****     //_write(0, s, strlen(s));   
 105:ZumoLibrary/debug_uart.c **** }
 106:ZumoLibrary/debug_uart.c **** 
 107:ZumoLibrary/debug_uart.c **** #define CMD_MAX_SIZE 64
 108:ZumoLibrary/debug_uart.c **** void DebugCommandTask( void *pvParameters )
 109:ZumoLibrary/debug_uart.c **** {
 110:ZumoLibrary/debug_uart.c ****     (void) pvParameters; //quiet the compiler warning
 111:ZumoLibrary/debug_uart.c ****     char c;
 112:ZumoLibrary/debug_uart.c ****     char cmd[CMD_MAX_SIZE];
 113:ZumoLibrary/debug_uart.c ****     int pos = 0;
 114:ZumoLibrary/debug_uart.c **** 
 115:ZumoLibrary/debug_uart.c ****     while(true) {
 116:ZumoLibrary/debug_uart.c ****         xSemaphoreTake(u1_mutex, portMAX_DELAY);
 117:ZumoLibrary/debug_uart.c ****         //c = UART_1_GetChar();
 118:ZumoLibrary/debug_uart.c ****         c = 0;
 119:ZumoLibrary/debug_uart.c ****         xSemaphoreGive(u1_mutex);
 120:ZumoLibrary/debug_uart.c ****         if(c != 0) {
 121:ZumoLibrary/debug_uart.c ****             if(c == '\n' || c == '\r') {
 122:ZumoLibrary/debug_uart.c ****                 if(pos > 0) {
 123:ZumoLibrary/debug_uart.c **** 		            xQueueSend( xSerialTxQueue, &c, portMAX_DELAY);
 124:ZumoLibrary/debug_uart.c ****                     pos = 0;
 125:ZumoLibrary/debug_uart.c ****                     process_command(cmd);
 126:ZumoLibrary/debug_uart.c ****                 }
 127:ZumoLibrary/debug_uart.c ****             }
 128:ZumoLibrary/debug_uart.c ****             else if(pos < CMD_MAX_SIZE - 1) {
 129:ZumoLibrary/debug_uart.c ****                 cmd[pos++] = c;
 130:ZumoLibrary/debug_uart.c ****                 cmd[pos] = 0;
 131:ZumoLibrary/debug_uart.c **** 		        xQueueSend( xSerialTxQueue, &c, portMAX_DELAY);
 132:ZumoLibrary/debug_uart.c ****             }
 133:ZumoLibrary/debug_uart.c ****         }
 134:ZumoLibrary/debug_uart.c ****         else {
 135:ZumoLibrary/debug_uart.c ****             vTaskDelay(1);
 136:ZumoLibrary/debug_uart.c ****         }
 137:ZumoLibrary/debug_uart.c ****     }
 138:ZumoLibrary/debug_uart.c ****     
 139:ZumoLibrary/debug_uart.c **** }
 140:ZumoLibrary/debug_uart.c **** 
 141:ZumoLibrary/debug_uart.c **** static int cmd_socket(char *cmd)
 142:ZumoLibrary/debug_uart.c **** {
 143:ZumoLibrary/debug_uart.c ****     (void) cmd;
 144:ZumoLibrary/debug_uart.c ****     
 145:ZumoLibrary/debug_uart.c ****     esp_socket(NETWORK_SSID, NETWORK_PASSWORD);
ARM GAS  C:\Users\samue\AppData\Local\Temp\ccXLBDBx.s 			page 4


 146:ZumoLibrary/debug_uart.c ****     
 147:ZumoLibrary/debug_uart.c ****     return 0;
 148:ZumoLibrary/debug_uart.c **** }
 149:ZumoLibrary/debug_uart.c **** 
 150:ZumoLibrary/debug_uart.c **** static int cmd_connect(char *cmd)
 151:ZumoLibrary/debug_uart.c **** {
 152:ZumoLibrary/debug_uart.c ****     (void) cmd;
 153:ZumoLibrary/debug_uart.c ****     
 154:ZumoLibrary/debug_uart.c ****     esp_connect(0, MQTT_BROKER, 5000); // connect to echo server
 155:ZumoLibrary/debug_uart.c ****     
 156:ZumoLibrary/debug_uart.c ****     return 0;
 157:ZumoLibrary/debug_uart.c **** }
 158:ZumoLibrary/debug_uart.c **** 
 159:ZumoLibrary/debug_uart.c **** static int cmd_close(char *cmd)
 160:ZumoLibrary/debug_uart.c **** {
 161:ZumoLibrary/debug_uart.c ****     (void) cmd;
 162:ZumoLibrary/debug_uart.c ****     
 163:ZumoLibrary/debug_uart.c ****     esp_close(0);
 164:ZumoLibrary/debug_uart.c ****     
 165:ZumoLibrary/debug_uart.c ****     return 0;
 166:ZumoLibrary/debug_uart.c **** }
 167:ZumoLibrary/debug_uart.c **** 
 168:ZumoLibrary/debug_uart.c **** static int cmd_read(char *cmd)
 169:ZumoLibrary/debug_uart.c **** {
 170:ZumoLibrary/debug_uart.c ****     (void) cmd;
 171:ZumoLibrary/debug_uart.c ****     static char buffer[64];
 172:ZumoLibrary/debug_uart.c ****     
 173:ZumoLibrary/debug_uart.c ****     int count = esp_read(0, buffer, 63);
 174:ZumoLibrary/debug_uart.c ****     if(count > 0) {
 175:ZumoLibrary/debug_uart.c ****         buffer[count] = '\0';
 176:ZumoLibrary/debug_uart.c ****         ds(buffer);
 177:ZumoLibrary/debug_uart.c ****     }
 178:ZumoLibrary/debug_uart.c ****     
 179:ZumoLibrary/debug_uart.c ****     return 0;    
 180:ZumoLibrary/debug_uart.c **** }
 181:ZumoLibrary/debug_uart.c **** 
 182:ZumoLibrary/debug_uart.c **** static int cmd_write(char *cmd)
 183:ZumoLibrary/debug_uart.c **** {
 184:ZumoLibrary/debug_uart.c ****     esp_write(0, cmd, strlen(cmd));
 185:ZumoLibrary/debug_uart.c ****     return 0;    
 186:ZumoLibrary/debug_uart.c **** }
 187:ZumoLibrary/debug_uart.c **** 
 188:ZumoLibrary/debug_uart.c **** static char prt_buffer[1024];
 189:ZumoLibrary/debug_uart.c **** 
 190:ZumoLibrary/debug_uart.c **** static int cmd_tasklist(char *cmd)
 191:ZumoLibrary/debug_uart.c **** {
 192:ZumoLibrary/debug_uart.c ****     (void) cmd;
 193:ZumoLibrary/debug_uart.c **** 
 194:ZumoLibrary/debug_uart.c ****     vTaskList(prt_buffer);
 195:ZumoLibrary/debug_uart.c ****     ds(prt_buffer);
 196:ZumoLibrary/debug_uart.c ****     
 197:ZumoLibrary/debug_uart.c ****     return 0;
 198:ZumoLibrary/debug_uart.c **** }
 199:ZumoLibrary/debug_uart.c **** 
 200:ZumoLibrary/debug_uart.c **** static int cmd_stats(char *cmd)
 201:ZumoLibrary/debug_uart.c **** {
 202:ZumoLibrary/debug_uart.c ****     (void) cmd;
ARM GAS  C:\Users\samue\AppData\Local\Temp\ccXLBDBx.s 			page 5


 203:ZumoLibrary/debug_uart.c **** 
 204:ZumoLibrary/debug_uart.c ****     vTaskGetRunTimeStats(prt_buffer);
 205:ZumoLibrary/debug_uart.c ****     ds(prt_buffer);
 206:ZumoLibrary/debug_uart.c ****     
 207:ZumoLibrary/debug_uart.c ****     return 0;
 208:ZumoLibrary/debug_uart.c **** }
 209:ZumoLibrary/debug_uart.c **** 
 210:ZumoLibrary/debug_uart.c **** static int process_command(char *cmd)
 211:ZumoLibrary/debug_uart.c **** {
  27              		.loc 1 211 0
  28              		.cfi_startproc
  29              		@ args = 0, pretend = 0, frame = 0
  30              		@ frame_needed = 0, uses_anonymous_args = 0
  31              	.LVL0:
  32 0000 F8B5     		push	{r3, r4, r5, r6, r7, lr}
  33              		.cfi_def_cfa_offset 24
  34              		.cfi_offset 3, -24
  35              		.cfi_offset 4, -20
  36              		.cfi_offset 5, -16
  37              		.cfi_offset 6, -12
  38              		.cfi_offset 7, -8
  39              		.cfi_offset 14, -4
 212:ZumoLibrary/debug_uart.c ****   int i;
 213:ZumoLibrary/debug_uart.c ****   char *args, *cmdend;
 214:ZumoLibrary/debug_uart.c **** 
 215:ZumoLibrary/debug_uart.c ****   /* skip white space in the beginning */
 216:ZumoLibrary/debug_uart.c ****   while((*cmd != '\0') && (*cmd == ' ')) {
  40              		.loc 1 216 0
  41 0002 00E0     		b	.L2
  42              	.L3:
 217:ZumoLibrary/debug_uart.c ****     cmd++;
  43              		.loc 1 217 0
  44 0004 0130     		adds	r0, r0, #1
  45              	.LVL1:
  46              	.L2:
 216:ZumoLibrary/debug_uart.c ****     cmd++;
  47              		.loc 1 216 0
  48 0006 0378     		ldrb	r3, [r0]	@ zero_extendqisi2
  49 0008 202B     		cmp	r3, #32
  50 000a FBD0     		beq	.L3
  51 000c 0346     		mov	r3, r0
  52 000e 00E0     		b	.L4
  53              	.LVL2:
  54              	.L6:
 218:ZumoLibrary/debug_uart.c ****   }
 219:ZumoLibrary/debug_uart.c ****   cmdend = cmd;
 220:ZumoLibrary/debug_uart.c ****   /* skip command */
 221:ZumoLibrary/debug_uart.c ****   while((*cmdend != '\0') && (*cmdend != ' ')) {
 222:ZumoLibrary/debug_uart.c ****     cmdend++;
  55              		.loc 1 222 0
  56 0010 0133     		adds	r3, r3, #1
  57              	.LVL3:
  58              	.L4:
 221:ZumoLibrary/debug_uart.c ****     cmdend++;
  59              		.loc 1 221 0
  60 0012 1A78     		ldrb	r2, [r3]	@ zero_extendqisi2
  61 0014 0AB1     		cbz	r2, .L5
ARM GAS  C:\Users\samue\AppData\Local\Temp\ccXLBDBx.s 			page 6


 221:ZumoLibrary/debug_uart.c ****     cmdend++;
  62              		.loc 1 221 0 is_stmt 0 discriminator 1
  63 0016 202A     		cmp	r2, #32
  64 0018 FAD1     		bne	.L6
  65              	.L5:
  66              	.LVL4:
 223:ZumoLibrary/debug_uart.c ****   }
 224:ZumoLibrary/debug_uart.c ****   args = cmdend;
 225:ZumoLibrary/debug_uart.c ****   if(*args != '\0') {
  67              		.loc 1 225 0 is_stmt 1
  68 001a 22B9     		cbnz	r2, .L16
 224:ZumoLibrary/debug_uart.c ****   if(*args != '\0') {
  69              		.loc 1 224 0
  70 001c 9E46     		mov	lr, r3
  71 001e 07E0     		b	.L8
  72              	.LVL5:
  73              	.L9:
 226:ZumoLibrary/debug_uart.c ****     /* skip white space */
 227:ZumoLibrary/debug_uart.c ****     while((*args != '\0') && (*args == ' ')) {
 228:ZumoLibrary/debug_uart.c ****       args++;
  74              		.loc 1 228 0
  75 0020 0EF1010E 		add	lr, lr, #1
  76              	.LVL6:
  77 0024 00E0     		b	.L7
  78              	.LVL7:
  79              	.L16:
  80 0026 9E46     		mov	lr, r3
  81              	.LVL8:
  82              	.L7:
 227:ZumoLibrary/debug_uart.c ****       args++;
  83              		.loc 1 227 0
  84 0028 9EF80020 		ldrb	r2, [lr]	@ zero_extendqisi2
  85 002c 202A     		cmp	r2, #32
  86 002e F7D0     		beq	.L9
  87              	.L8:
 229:ZumoLibrary/debug_uart.c ****     }
 230:ZumoLibrary/debug_uart.c ****   }
 231:ZumoLibrary/debug_uart.c ****   *cmdend = '\0';
  88              		.loc 1 231 0
  89 0030 0022     		movs	r2, #0
  90 0032 1A70     		strb	r2, [r3]
 232:ZumoLibrary/debug_uart.c **** 
 233:ZumoLibrary/debug_uart.c ****   if(cmd[0] == '\0') return 0;
  91              		.loc 1 233 0
  92 0034 0378     		ldrb	r3, [r0]	@ zero_extendqisi2
  93              	.LVL9:
  94 0036 3BB3     		cbz	r3, .L17
  95 0038 1546     		mov	r5, r2
  96 003a 1BE0     		b	.L11
  97              	.LVL10:
  98              	.L13:
  99              	.LBB2:
 234:ZumoLibrary/debug_uart.c **** 
 235:ZumoLibrary/debug_uart.c ****   for(i=0; cmdtable[i].cmd != NULL; i++) {
 236:ZumoLibrary/debug_uart.c ****     int k;
 237:ZumoLibrary/debug_uart.c ****     for(k = 0; cmd[k] != '\0' && cmdtable[i].name[k] != '\0'; k++) {
 238:ZumoLibrary/debug_uart.c ****       if(cmdtable[i].name[k] != cmd[k]) break;
ARM GAS  C:\Users\samue\AppData\Local\Temp\ccXLBDBx.s 			page 7


 100              		.loc 1 238 0
 101 003c 8A42     		cmp	r2, r1
 102 003e 0DD1     		bne	.L12
 237:ZumoLibrary/debug_uart.c ****       if(cmdtable[i].name[k] != cmd[k]) break;
 103              		.loc 1 237 0 discriminator 2
 104 0040 0133     		adds	r3, r3, #1
 105              	.LVL11:
 106 0042 00E0     		b	.L15
 107              	.LVL12:
 108              	.L18:
 109              	.LBE2:
 110 0044 0023     		movs	r3, #0
 111              	.L15:
 112              	.LVL13:
 113              	.LBB3:
 237:ZumoLibrary/debug_uart.c ****       if(cmdtable[i].name[k] != cmd[k]) break;
 114              		.loc 1 237 0 is_stmt 0 discriminator 1
 115 0046 1E46     		mov	r6, r3
 116 0048 C25C     		ldrb	r2, [r0, r3]	@ zero_extendqisi2
 117 004a 3AB1     		cbz	r2, .L12
 237:ZumoLibrary/debug_uart.c ****       if(cmdtable[i].name[k] != cmd[k]) break;
 118              		.loc 1 237 0 discriminator 3
 119 004c 05EB4504 		add	r4, r5, r5, lsl #1
 120 0050 A100     		lsls	r1, r4, #2
 121 0052 0E4C     		ldr	r4, .L20
 122 0054 6158     		ldr	r1, [r4, r1]
 123 0056 C95C     		ldrb	r1, [r1, r3]	@ zero_extendqisi2
 124 0058 0029     		cmp	r1, #0
 125 005a EFD1     		bne	.L13
 126              	.L12:
 239:ZumoLibrary/debug_uart.c ****     }
 240:ZumoLibrary/debug_uart.c ****     if(cmd[k] == '\0' && cmdtable[i].name[k] == '\0') {
 127              		.loc 1 240 0 is_stmt 1
 128 005c 4AB9     		cbnz	r2, .L14
 129              		.loc 1 240 0 is_stmt 0 discriminator 1
 130 005e 05EB4502 		add	r2, r5, r5, lsl #1
 131 0062 9300     		lsls	r3, r2, #2
 132              	.LVL14:
 133 0064 094A     		ldr	r2, .L20
 134 0066 D358     		ldr	r3, [r2, r3]
 135 0068 9B5D     		ldrb	r3, [r3, r6]	@ zero_extendqisi2
 136 006a 13B9     		cbnz	r3, .L14
 241:ZumoLibrary/debug_uart.c ****       return (*cmdtable[i].cmd)(args);
 137              		.loc 1 241 0 is_stmt 1
 138 006c 7046     		mov	r0, lr
 139              	.LVL15:
 140 006e B847     		blx	r7
 141              	.LVL16:
 142 0070 F8BD     		pop	{r3, r4, r5, r6, r7, pc}
 143              	.LVL17:
 144              	.L14:
 145              	.LBE3:
 235:ZumoLibrary/debug_uart.c ****     int k;
 146              		.loc 1 235 0 discriminator 2
 147 0072 0135     		adds	r5, r5, #1
 148              	.LVL18:
 149              	.L11:
ARM GAS  C:\Users\samue\AppData\Local\Temp\ccXLBDBx.s 			page 8


 235:ZumoLibrary/debug_uart.c ****     int k;
 150              		.loc 1 235 0 is_stmt 0 discriminator 1
 151 0074 05EB4502 		add	r2, r5, r5, lsl #1
 152 0078 9300     		lsls	r3, r2, #2
 153 007a 044A     		ldr	r2, .L20
 154 007c 1344     		add	r3, r3, r2
 155 007e 5F68     		ldr	r7, [r3, #4]
 156 0080 002F     		cmp	r7, #0
 157 0082 DFD1     		bne	.L18
 242:ZumoLibrary/debug_uart.c ****     }
 243:ZumoLibrary/debug_uart.c ****   }
 244:ZumoLibrary/debug_uart.c **** 
 245:ZumoLibrary/debug_uart.c ****   return 0;
 158              		.loc 1 245 0 is_stmt 1
 159 0084 0020     		movs	r0, #0
 160              	.LVL19:
 161 0086 F8BD     		pop	{r3, r4, r5, r6, r7, pc}
 162              	.LVL20:
 163              	.L17:
 233:ZumoLibrary/debug_uart.c **** 
 164              		.loc 1 233 0
 165 0088 0020     		movs	r0, #0
 166              	.LVL21:
 246:ZumoLibrary/debug_uart.c **** }
 167              		.loc 1 246 0
 168 008a F8BD     		pop	{r3, r4, r5, r6, r7, pc}
 169              	.L21:
 170              		.align	2
 171              	.L20:
 172 008c 00000000 		.word	.LANCHOR0
 173              		.cfi_endproc
 174              	.LFE80:
 175              		.size	process_command, .-process_command
 176              		.section	.text.print_command_list,"ax",%progbits
 177              		.align	2
 178              		.thumb
 179              		.thumb_func
 180              		.type	print_command_list, %function
 181              	print_command_list:
 182              	.LFB81:
 247:ZumoLibrary/debug_uart.c **** 
 248:ZumoLibrary/debug_uart.c **** 
 249:ZumoLibrary/debug_uart.c **** 
 250:ZumoLibrary/debug_uart.c **** 
 251:ZumoLibrary/debug_uart.c **** static void print_command_list(void)
 252:ZumoLibrary/debug_uart.c **** {
 183              		.loc 1 252 0
 184              		.cfi_startproc
 185              		@ args = 0, pretend = 0, frame = 0
 186              		@ frame_needed = 0, uses_anonymous_args = 0
 187 0000 10B5     		push	{r4, lr}
 188              		.cfi_def_cfa_offset 8
 189              		.cfi_offset 4, -8
 190              		.cfi_offset 14, -4
 191              	.LVL22:
 253:ZumoLibrary/debug_uart.c ****   int i;
 254:ZumoLibrary/debug_uart.c **** 
ARM GAS  C:\Users\samue\AppData\Local\Temp\ccXLBDBx.s 			page 9


 255:ZumoLibrary/debug_uart.c ****   ds("commands: \n");
 256:ZumoLibrary/debug_uart.c ****   for(i=0; cmdtable[i].cmd != NULL; i++) {
 192              		.loc 1 256 0
 193 0002 0024     		movs	r4, #0
 194 0004 03E0     		b	.L23
 195              	.LVL23:
 196              	.L24:
 257:ZumoLibrary/debug_uart.c ****     ds(cmdtable[i].name);
 258:ZumoLibrary/debug_uart.c ****     if((i>0) && (i%5==0)) ds("\n");
 259:ZumoLibrary/debug_uart.c ****     else ds(" ");
 260:ZumoLibrary/debug_uart.c ****     vTaskDelay(5);
 197              		.loc 1 260 0 discriminator 2
 198 0006 0520     		movs	r0, #5
 199 0008 FFF7FEFF 		bl	vTaskDelay
 200              	.LVL24:
 256:ZumoLibrary/debug_uart.c ****     ds(cmdtable[i].name);
 201              		.loc 1 256 0 discriminator 2
 202 000c 0134     		adds	r4, r4, #1
 203              	.LVL25:
 204              	.L23:
 256:ZumoLibrary/debug_uart.c ****     ds(cmdtable[i].name);
 205              		.loc 1 256 0 is_stmt 0 discriminator 1
 206 000e 04EB4402 		add	r2, r4, r4, lsl #1
 207 0012 9300     		lsls	r3, r2, #2
 208 0014 024A     		ldr	r2, .L26
 209 0016 1344     		add	r3, r3, r2
 210 0018 5B68     		ldr	r3, [r3, #4]
 211 001a 002B     		cmp	r3, #0
 212 001c F3D1     		bne	.L24
 261:ZumoLibrary/debug_uart.c ****   }
 262:ZumoLibrary/debug_uart.c ****   ds("\n");
 263:ZumoLibrary/debug_uart.c **** }
 213              		.loc 1 263 0 is_stmt 1
 214 001e 10BD     		pop	{r4, pc}
 215              	.LVL26:
 216              	.L27:
 217              		.align	2
 218              	.L26:
 219 0020 00000000 		.word	.LANCHOR0
 220              		.cfi_endproc
 221              	.LFE81:
 222              		.size	print_command_list, .-print_command_list
 223              		.section	.text.cmd_help,"ax",%progbits
 224              		.align	2
 225              		.thumb
 226              		.thumb_func
 227              		.type	cmd_help, %function
 228              	cmd_help:
 229              	.LFB82:
 264:ZumoLibrary/debug_uart.c **** 
 265:ZumoLibrary/debug_uart.c **** static int cmd_help(char *arg)
 266:ZumoLibrary/debug_uart.c **** {
 230              		.loc 1 266 0
 231              		.cfi_startproc
 232              		@ args = 0, pretend = 0, frame = 0
 233              		@ frame_needed = 0, uses_anonymous_args = 0
 234              	.LVL27:
ARM GAS  C:\Users\samue\AppData\Local\Temp\ccXLBDBx.s 			page 10


 235 0000 38B5     		push	{r3, r4, r5, lr}
 236              		.cfi_def_cfa_offset 16
 237              		.cfi_offset 3, -16
 238              		.cfi_offset 4, -12
 239              		.cfi_offset 5, -8
 240              		.cfi_offset 14, -4
 241              	.LVL28:
 267:ZumoLibrary/debug_uart.c ****   int i;
 268:ZumoLibrary/debug_uart.c **** 
 269:ZumoLibrary/debug_uart.c ****   /* check argument */
 270:ZumoLibrary/debug_uart.c ****   for(i=0; arg[i] != '\0' && arg[i] != ' '; i++);
 242              		.loc 1 270 0
 243 0002 0023     		movs	r3, #0
 244 0004 00E0     		b	.L29
 245              	.LVL29:
 246              	.L31:
 247              		.loc 1 270 0 is_stmt 0 discriminator 4
 248 0006 0133     		adds	r3, r3, #1
 249              	.LVL30:
 250              	.L29:
 251              		.loc 1 270 0 discriminator 1
 252 0008 C118     		adds	r1, r0, r3
 253 000a C25C     		ldrb	r2, [r0, r3]	@ zero_extendqisi2
 254 000c 0AB1     		cbz	r2, .L30
 255              		.loc 1 270 0 discriminator 3
 256 000e 202A     		cmp	r2, #32
 257 0010 F9D1     		bne	.L31
 258              	.L30:
 271:ZumoLibrary/debug_uart.c ****   if(i != 0) {
 259              		.loc 1 271 0 is_stmt 1
 260 0012 DBB1     		cbz	r3, .L32
 272:ZumoLibrary/debug_uart.c ****     arg[i] = '\0';
 261              		.loc 1 272 0
 262 0014 0025     		movs	r5, #0
 263 0016 0D70     		strb	r5, [r1]
 264              	.LVL31:
 273:ZumoLibrary/debug_uart.c ****     for(i=0; cmdtable[i].cmd != NULL; i++) {
 265              		.loc 1 273 0
 266 0018 0FE0     		b	.L33
 267              	.LVL32:
 268              	.L35:
 269              	.LBB4:
 274:ZumoLibrary/debug_uart.c ****       int k;
 275:ZumoLibrary/debug_uart.c ****       for(k = 0; arg[k] != '\0' && cmdtable[i].name[k] != '\0'; k++) {
 276:ZumoLibrary/debug_uart.c ****     	if(cmdtable[i].name[k] != arg[k]) break;
 270              		.loc 1 276 0
 271 001a 8A42     		cmp	r2, r1
 272 001c 0CD1     		bne	.L34
 275:ZumoLibrary/debug_uart.c ****     	if(cmdtable[i].name[k] != arg[k]) break;
 273              		.loc 1 275 0 discriminator 2
 274 001e 0133     		adds	r3, r3, #1
 275              	.LVL33:
 276 0020 00E0     		b	.L36
 277              	.LVL34:
 278              	.L38:
 279              	.LBE4:
 280 0022 0023     		movs	r3, #0
ARM GAS  C:\Users\samue\AppData\Local\Temp\ccXLBDBx.s 			page 11


 281              	.L36:
 282              	.LVL35:
 283              	.LBB5:
 275:ZumoLibrary/debug_uart.c ****     	if(cmdtable[i].name[k] != arg[k]) break;
 284              		.loc 1 275 0 is_stmt 0 discriminator 1
 285 0024 C25C     		ldrb	r2, [r0, r3]	@ zero_extendqisi2
 286 0026 3AB1     		cbz	r2, .L34
 275:ZumoLibrary/debug_uart.c ****     	if(cmdtable[i].name[k] != arg[k]) break;
 287              		.loc 1 275 0 discriminator 3
 288 0028 05EB4504 		add	r4, r5, r5, lsl #1
 289 002c A100     		lsls	r1, r4, #2
 290 002e 094C     		ldr	r4, .L40
 291 0030 6158     		ldr	r1, [r4, r1]
 292 0032 C95C     		ldrb	r1, [r1, r3]	@ zero_extendqisi2
 293 0034 0029     		cmp	r1, #0
 294 0036 F0D1     		bne	.L35
 295              	.L34:
 296              	.LBE5:
 273:ZumoLibrary/debug_uart.c ****     for(i=0; cmdtable[i].cmd != NULL; i++) {
 297              		.loc 1 273 0 is_stmt 1 discriminator 2
 298 0038 0135     		adds	r5, r5, #1
 299              	.LVL36:
 300              	.L33:
 273:ZumoLibrary/debug_uart.c ****     for(i=0; cmdtable[i].cmd != NULL; i++) {
 301              		.loc 1 273 0 is_stmt 0 discriminator 1
 302 003a 05EB4502 		add	r2, r5, r5, lsl #1
 303 003e 9300     		lsls	r3, r2, #2
 304 0040 044A     		ldr	r2, .L40
 305 0042 1344     		add	r3, r3, r2
 306 0044 5B68     		ldr	r3, [r3, #4]
 307 0046 002B     		cmp	r3, #0
 308 0048 EBD1     		bne	.L38
 309 004a 01E0     		b	.L37
 310              	.LVL37:
 311              	.L32:
 277:ZumoLibrary/debug_uart.c ****       }
 278:ZumoLibrary/debug_uart.c ****       if(arg[k] == '\0' && cmdtable[i].name[k] == '\0') {
 279:ZumoLibrary/debug_uart.c **** 	    ds(cmdtable[i].help);
 280:ZumoLibrary/debug_uart.c **** 	    ds("\n");
 281:ZumoLibrary/debug_uart.c ****       }
 282:ZumoLibrary/debug_uart.c ****     }
 283:ZumoLibrary/debug_uart.c ****   }
 284:ZumoLibrary/debug_uart.c ****   else {
 285:ZumoLibrary/debug_uart.c ****     ds("help [command]\n");
 286:ZumoLibrary/debug_uart.c ****     print_command_list();
 312              		.loc 1 286 0 is_stmt 1
 313 004c FFF7FEFF 		bl	print_command_list
 314              	.LVL38:
 315              	.L37:
 287:ZumoLibrary/debug_uart.c ****   }
 288:ZumoLibrary/debug_uart.c **** 
 289:ZumoLibrary/debug_uart.c ****   return 0;
 290:ZumoLibrary/debug_uart.c **** }
 316              		.loc 1 290 0
 317 0050 0020     		movs	r0, #0
 318 0052 38BD     		pop	{r3, r4, r5, pc}
 319              	.L41:
ARM GAS  C:\Users\samue\AppData\Local\Temp\ccXLBDBx.s 			page 12


 320              		.align	2
 321              	.L40:
 322 0054 00000000 		.word	.LANCHOR0
 323              		.cfi_endproc
 324              	.LFE82:
 325              		.size	cmd_help, .-cmd_help
 326              		.section	.text.cmd_stats,"ax",%progbits
 327              		.align	2
 328              		.thumb
 329              		.thumb_func
 330              		.type	cmd_stats, %function
 331              	cmd_stats:
 332              	.LFB79:
 201:ZumoLibrary/debug_uart.c ****     (void) cmd;
 333              		.loc 1 201 0
 334              		.cfi_startproc
 335              		@ args = 0, pretend = 0, frame = 0
 336              		@ frame_needed = 0, uses_anonymous_args = 0
 337              	.LVL39:
 338 0000 08B5     		push	{r3, lr}
 339              		.cfi_def_cfa_offset 8
 340              		.cfi_offset 3, -8
 341              		.cfi_offset 14, -4
 204:ZumoLibrary/debug_uart.c ****     ds(prt_buffer);
 342              		.loc 1 204 0
 343 0002 0248     		ldr	r0, .L44
 344              	.LVL40:
 345 0004 FFF7FEFF 		bl	vTaskGetRunTimeStats
 346              	.LVL41:
 208:ZumoLibrary/debug_uart.c **** 
 347              		.loc 1 208 0
 348 0008 0020     		movs	r0, #0
 349 000a 08BD     		pop	{r3, pc}
 350              	.L45:
 351              		.align	2
 352              	.L44:
 353 000c 00000000 		.word	.LANCHOR1
 354              		.cfi_endproc
 355              	.LFE79:
 356              		.size	cmd_stats, .-cmd_stats
 357              		.section	.text.cmd_tasklist,"ax",%progbits
 358              		.align	2
 359              		.thumb
 360              		.thumb_func
 361              		.type	cmd_tasklist, %function
 362              	cmd_tasklist:
 363              	.LFB78:
 191:ZumoLibrary/debug_uart.c ****     (void) cmd;
 364              		.loc 1 191 0
 365              		.cfi_startproc
 366              		@ args = 0, pretend = 0, frame = 0
 367              		@ frame_needed = 0, uses_anonymous_args = 0
 368              	.LVL42:
 369 0000 08B5     		push	{r3, lr}
 370              		.cfi_def_cfa_offset 8
 371              		.cfi_offset 3, -8
 372              		.cfi_offset 14, -4
ARM GAS  C:\Users\samue\AppData\Local\Temp\ccXLBDBx.s 			page 13


 194:ZumoLibrary/debug_uart.c ****     ds(prt_buffer);
 373              		.loc 1 194 0
 374 0002 0248     		ldr	r0, .L48
 375              	.LVL43:
 376 0004 FFF7FEFF 		bl	vTaskList
 377              	.LVL44:
 198:ZumoLibrary/debug_uart.c **** 
 378              		.loc 1 198 0
 379 0008 0020     		movs	r0, #0
 380 000a 08BD     		pop	{r3, pc}
 381              	.L49:
 382              		.align	2
 383              	.L48:
 384 000c 00000000 		.word	.LANCHOR1
 385              		.cfi_endproc
 386              	.LFE78:
 387              		.size	cmd_tasklist, .-cmd_tasklist
 388              		.section	.text.cmd_write,"ax",%progbits
 389              		.align	2
 390              		.thumb
 391              		.thumb_func
 392              		.type	cmd_write, %function
 393              	cmd_write:
 394              	.LFB77:
 183:ZumoLibrary/debug_uart.c ****     esp_write(0, cmd, strlen(cmd));
 395              		.loc 1 183 0
 396              		.cfi_startproc
 397              		@ args = 0, pretend = 0, frame = 0
 398              		@ frame_needed = 0, uses_anonymous_args = 0
 399              	.LVL45:
 400 0000 10B5     		push	{r4, lr}
 401              		.cfi_def_cfa_offset 8
 402              		.cfi_offset 4, -8
 403              		.cfi_offset 14, -4
 404 0002 0446     		mov	r4, r0
 184:ZumoLibrary/debug_uart.c ****     return 0;    
 405              		.loc 1 184 0
 406 0004 FFF7FEFF 		bl	strlen
 407              	.LVL46:
 408 0008 0246     		mov	r2, r0
 409 000a 2146     		mov	r1, r4
 410 000c 0020     		movs	r0, #0
 411 000e FFF7FEFF 		bl	esp_write
 412              	.LVL47:
 186:ZumoLibrary/debug_uart.c **** 
 413              		.loc 1 186 0
 414 0012 0020     		movs	r0, #0
 415 0014 10BD     		pop	{r4, pc}
 416              		.cfi_endproc
 417              	.LFE77:
 418              		.size	cmd_write, .-cmd_write
 419 0016 00BF     		.section	.text.cmd_read,"ax",%progbits
 420              		.align	2
 421              		.thumb
 422              		.thumb_func
 423              		.type	cmd_read, %function
 424              	cmd_read:
ARM GAS  C:\Users\samue\AppData\Local\Temp\ccXLBDBx.s 			page 14


 425              	.LFB76:
 169:ZumoLibrary/debug_uart.c ****     (void) cmd;
 426              		.loc 1 169 0
 427              		.cfi_startproc
 428              		@ args = 0, pretend = 0, frame = 0
 429              		@ frame_needed = 0, uses_anonymous_args = 0
 430              	.LVL48:
 431 0000 08B5     		push	{r3, lr}
 432              		.cfi_def_cfa_offset 8
 433              		.cfi_offset 3, -8
 434              		.cfi_offset 14, -4
 173:ZumoLibrary/debug_uart.c ****     if(count > 0) {
 435              		.loc 1 173 0
 436 0002 3F22     		movs	r2, #63
 437 0004 0649     		ldr	r1, .L55
 438 0006 0020     		movs	r0, #0
 439              	.LVL49:
 440 0008 FFF7FEFF 		bl	esp_read
 441              	.LVL50:
 174:ZumoLibrary/debug_uart.c ****         buffer[count] = '\0';
 442              		.loc 1 174 0
 443 000c 0028     		cmp	r0, #0
 444 000e 04DD     		ble	.L53
 175:ZumoLibrary/debug_uart.c ****         ds(buffer);
 445              		.loc 1 175 0
 446 0010 044B     		ldr	r3, .L55+4
 447 0012 1844     		add	r0, r0, r3
 448              	.LVL51:
 449 0014 0023     		movs	r3, #0
 450 0016 80F80034 		strb	r3, [r0, #1024]
 451              	.LVL52:
 452              	.L53:
 180:ZumoLibrary/debug_uart.c **** 
 453              		.loc 1 180 0
 454 001a 0020     		movs	r0, #0
 455 001c 08BD     		pop	{r3, pc}
 456              	.L56:
 457 001e 00BF     		.align	2
 458              	.L55:
 459 0020 00040000 		.word	.LANCHOR1+1024
 460 0024 00000000 		.word	.LANCHOR1
 461              		.cfi_endproc
 462              	.LFE76:
 463              		.size	cmd_read, .-cmd_read
 464              		.section	.text.cmd_close,"ax",%progbits
 465              		.align	2
 466              		.thumb
 467              		.thumb_func
 468              		.type	cmd_close, %function
 469              	cmd_close:
 470              	.LFB75:
 160:ZumoLibrary/debug_uart.c ****     (void) cmd;
 471              		.loc 1 160 0
 472              		.cfi_startproc
 473              		@ args = 0, pretend = 0, frame = 0
 474              		@ frame_needed = 0, uses_anonymous_args = 0
 475              	.LVL53:
ARM GAS  C:\Users\samue\AppData\Local\Temp\ccXLBDBx.s 			page 15


 476 0000 08B5     		push	{r3, lr}
 477              		.cfi_def_cfa_offset 8
 478              		.cfi_offset 3, -8
 479              		.cfi_offset 14, -4
 163:ZumoLibrary/debug_uart.c ****     
 480              		.loc 1 163 0
 481 0002 0020     		movs	r0, #0
 482              	.LVL54:
 483 0004 FFF7FEFF 		bl	esp_close
 484              	.LVL55:
 166:ZumoLibrary/debug_uart.c **** 
 485              		.loc 1 166 0
 486 0008 0020     		movs	r0, #0
 487 000a 08BD     		pop	{r3, pc}
 488              		.cfi_endproc
 489              	.LFE75:
 490              		.size	cmd_close, .-cmd_close
 491              		.section	.text.cmd_connect,"ax",%progbits
 492              		.align	2
 493              		.thumb
 494              		.thumb_func
 495              		.type	cmd_connect, %function
 496              	cmd_connect:
 497              	.LFB74:
 151:ZumoLibrary/debug_uart.c ****     (void) cmd;
 498              		.loc 1 151 0
 499              		.cfi_startproc
 500              		@ args = 0, pretend = 0, frame = 0
 501              		@ frame_needed = 0, uses_anonymous_args = 0
 502              	.LVL56:
 503 0000 08B5     		push	{r3, lr}
 504              		.cfi_def_cfa_offset 8
 505              		.cfi_offset 3, -8
 506              		.cfi_offset 14, -4
 154:ZumoLibrary/debug_uart.c ****     
 507              		.loc 1 154 0
 508 0002 41F28832 		movw	r2, #5000
 509 0006 0349     		ldr	r1, .L61
 510 0008 0020     		movs	r0, #0
 511              	.LVL57:
 512 000a FFF7FEFF 		bl	esp_connect
 513              	.LVL58:
 157:ZumoLibrary/debug_uart.c **** 
 514              		.loc 1 157 0
 515 000e 0020     		movs	r0, #0
 516 0010 08BD     		pop	{r3, pc}
 517              	.L62:
 518 0012 00BF     		.align	2
 519              	.L61:
 520 0014 00000000 		.word	.LC0
 521              		.cfi_endproc
 522              	.LFE74:
 523              		.size	cmd_connect, .-cmd_connect
 524              		.section	.text.cmd_socket,"ax",%progbits
 525              		.align	2
 526              		.thumb
 527              		.thumb_func
ARM GAS  C:\Users\samue\AppData\Local\Temp\ccXLBDBx.s 			page 16


 528              		.type	cmd_socket, %function
 529              	cmd_socket:
 530              	.LFB73:
 142:ZumoLibrary/debug_uart.c ****     (void) cmd;
 531              		.loc 1 142 0
 532              		.cfi_startproc
 533              		@ args = 0, pretend = 0, frame = 0
 534              		@ frame_needed = 0, uses_anonymous_args = 0
 535              	.LVL59:
 536 0000 08B5     		push	{r3, lr}
 537              		.cfi_def_cfa_offset 8
 538              		.cfi_offset 3, -8
 539              		.cfi_offset 14, -4
 145:ZumoLibrary/debug_uart.c ****     
 540              		.loc 1 145 0
 541 0002 0349     		ldr	r1, .L65
 542 0004 0348     		ldr	r0, .L65+4
 543              	.LVL60:
 544 0006 FFF7FEFF 		bl	esp_socket
 545              	.LVL61:
 148:ZumoLibrary/debug_uart.c **** 
 546              		.loc 1 148 0
 547 000a 0020     		movs	r0, #0
 548 000c 08BD     		pop	{r3, pc}
 549              	.L66:
 550 000e 00BF     		.align	2
 551              	.L65:
 552 0010 10000000 		.word	.LC1
 553 0014 1C000000 		.word	.LC2
 554              		.cfi_endproc
 555              	.LFE73:
 556              		.size	cmd_socket, .-cmd_socket
 557              		.section	.text.DebugUartTask,"ax",%progbits
 558              		.align	2
 559              		.global	DebugUartTask
 560              		.thumb
 561              		.thumb_func
 562              		.type	DebugUartTask, %function
 563              	DebugUartTask:
 564              	.LFB69:
  60:ZumoLibrary/debug_uart.c ****     (void) pvParameters; //quiet the compiler warning
 565              		.loc 1 60 0
 566              		.cfi_startproc
 567              		@ Volatile: function does not return.
 568              		@ args = 0, pretend = 0, frame = 0
 569              		@ frame_needed = 0, uses_anonymous_args = 0
 570              	.LVL62:
 571 0000 08B5     		push	{r3, lr}
 572              		.cfi_def_cfa_offset 8
 573              		.cfi_offset 3, -8
 574              		.cfi_offset 14, -4
 575              	.LVL63:
 576              	.L68:
  63:ZumoLibrary/debug_uart.c ****     
 577              		.loc 1 63 0 discriminator 1
 578 0002 6420     		movs	r0, #100
 579 0004 FFF7FEFF 		bl	vTaskDelay
ARM GAS  C:\Users\samue\AppData\Local\Temp\ccXLBDBx.s 			page 17


 580              	.LVL64:
 581 0008 FBE7     		b	.L68
 582              		.cfi_endproc
 583              	.LFE69:
 584              		.size	DebugUartTask, .-DebugUartTask
 585 000a 00BF     		.section	.text.DebugUartTaskInit,"ax",%progbits
 586              		.align	2
 587              		.global	DebugUartTaskInit
 588              		.thumb
 589              		.thumb_func
 590              		.type	DebugUartTaskInit, %function
 591              	DebugUartTaskInit:
 592              	.LFB70:
  79:ZumoLibrary/debug_uart.c **** 	/* Configure Tx */
 593              		.loc 1 79 0
 594              		.cfi_startproc
 595              		@ args = 0, pretend = 0, frame = 0
 596              		@ frame_needed = 0, uses_anonymous_args = 0
 597 0000 10B5     		push	{r4, lr}
 598              		.cfi_def_cfa_offset 8
 599              		.cfi_offset 4, -8
 600              		.cfi_offset 14, -4
  81:ZumoLibrary/debug_uart.c ****     u1_mutex = xSemaphoreCreateMutex();
 601              		.loc 1 81 0
 602 0002 0022     		movs	r2, #0
 603 0004 0121     		movs	r1, #1
 604 0006 4FF48070 		mov	r0, #256
 605 000a FFF7FEFF 		bl	xQueueGenericCreate
 606              	.LVL65:
 607 000e 044C     		ldr	r4, .L72
 608 0010 C4F84004 		str	r0, [r4, #1088]
  82:ZumoLibrary/debug_uart.c **** }    
 609              		.loc 1 82 0
 610 0014 0120     		movs	r0, #1
 611 0016 FFF7FEFF 		bl	xQueueCreateMutex
 612              	.LVL66:
 613 001a C4F84404 		str	r0, [r4, #1092]
 614 001e 10BD     		pop	{r4, pc}
 615              	.L73:
 616              		.align	2
 617              	.L72:
 618 0020 00000000 		.word	.LANCHOR1
 619              		.cfi_endproc
 620              	.LFE70:
 621              		.size	DebugUartTaskInit, .-DebugUartTaskInit
 622              		.section	.text.ds,"ax",%progbits
 623              		.align	2
 624              		.global	ds
 625              		.thumb
 626              		.thumb_func
 627              		.type	ds, %function
 628              	ds:
 629              	.LFB71:
 103:ZumoLibrary/debug_uart.c ****     //_write(0, s, strlen(s));   
 630              		.loc 1 103 0
 631              		.cfi_startproc
 632              		@ args = 0, pretend = 0, frame = 0
ARM GAS  C:\Users\samue\AppData\Local\Temp\ccXLBDBx.s 			page 18


 633              		@ frame_needed = 0, uses_anonymous_args = 0
 634              		@ link register save eliminated.
 635              	.LVL67:
 636 0000 7047     		bx	lr
 637              		.cfi_endproc
 638              	.LFE71:
 639              		.size	ds, .-ds
 640 0002 00BF     		.section	.text.DebugCommandTask,"ax",%progbits
 641              		.align	2
 642              		.global	DebugCommandTask
 643              		.thumb
 644              		.thumb_func
 645              		.type	DebugCommandTask, %function
 646              	DebugCommandTask:
 647              	.LFB72:
 109:ZumoLibrary/debug_uart.c ****     (void) pvParameters; //quiet the compiler warning
 648              		.loc 1 109 0
 649              		.cfi_startproc
 650              		@ args = 0, pretend = 0, frame = 72
 651              		@ frame_needed = 0, uses_anonymous_args = 0
 652              	.LVL68:
 109:ZumoLibrary/debug_uart.c ****     (void) pvParameters; //quiet the compiler warning
 653              		.loc 1 109 0
 654 0000 30B5     		push	{r4, r5, lr}
 655              		.cfi_def_cfa_offset 12
 656              		.cfi_offset 4, -12
 657              		.cfi_offset 5, -8
 658              		.cfi_offset 14, -4
 659 0002 93B0     		sub	sp, sp, #76
 660              		.cfi_def_cfa_offset 88
 661              	.LVL69:
 113:ZumoLibrary/debug_uart.c **** 
 662              		.loc 1 113 0
 663 0004 0025     		movs	r5, #0
 664              	.LVL70:
 665              	.L76:
 116:ZumoLibrary/debug_uart.c ****         //c = UART_1_GetChar();
 666              		.loc 1 116 0
 667 0006 214C     		ldr	r4, .L82
 668 0008 4FF0FF31 		mov	r1, #-1
 669 000c D4F84404 		ldr	r0, [r4, #1092]
 670 0010 FFF7FEFF 		bl	xQueueSemaphoreTake
 671              	.LVL71:
 118:ZumoLibrary/debug_uart.c ****         xSemaphoreGive(u1_mutex);
 672              		.loc 1 118 0
 673 0014 0021     		movs	r1, #0
 674 0016 8DF84710 		strb	r1, [sp, #71]
 119:ZumoLibrary/debug_uart.c ****         if(c != 0) {
 675              		.loc 1 119 0
 676 001a 0B46     		mov	r3, r1
 677 001c 0A46     		mov	r2, r1
 678 001e D4F84404 		ldr	r0, [r4, #1092]
 679 0022 FFF7FEFF 		bl	xQueueGenericSend
 680              	.LVL72:
 120:ZumoLibrary/debug_uart.c ****             if(c == '\n' || c == '\r') {
 681              		.loc 1 120 0
 682 0026 9DF84730 		ldrb	r3, [sp, #71]	@ zero_extendqisi2
ARM GAS  C:\Users\samue\AppData\Local\Temp\ccXLBDBx.s 			page 19


 683 002a 53B3     		cbz	r3, .L77
 121:ZumoLibrary/debug_uart.c ****                 if(pos > 0) {
 684              		.loc 1 121 0
 685 002c 0A2B     		cmp	r3, #10
 686 002e 01D0     		beq	.L78
 121:ZumoLibrary/debug_uart.c ****                 if(pos > 0) {
 687              		.loc 1 121 0 is_stmt 0 discriminator 1
 688 0030 0D2B     		cmp	r3, #13
 689 0032 10D1     		bne	.L79
 690              	.L78:
 122:ZumoLibrary/debug_uart.c **** 		            xQueueSend( xSerialTxQueue, &c, portMAX_DELAY);
 691              		.loc 1 122 0 is_stmt 1
 692 0034 002D     		cmp	r5, #0
 693 0036 E6DD     		ble	.L76
 123:ZumoLibrary/debug_uart.c ****                     pos = 0;
 694              		.loc 1 123 0
 695 0038 0023     		movs	r3, #0
 696 003a 4FF0FF32 		mov	r2, #-1
 697 003e 0DF14701 		add	r1, sp, #71
 698 0042 1248     		ldr	r0, .L82
 699 0044 D0F84004 		ldr	r0, [r0, #1088]
 700 0048 FFF7FEFF 		bl	xQueueGenericSend
 701              	.LVL73:
 125:ZumoLibrary/debug_uart.c ****                 }
 702              		.loc 1 125 0
 703 004c 01A8     		add	r0, sp, #4
 704 004e FFF7FEFF 		bl	process_command
 705              	.LVL74:
 124:ZumoLibrary/debug_uart.c ****                     process_command(cmd);
 706              		.loc 1 124 0
 707 0052 0025     		movs	r5, #0
 708 0054 D7E7     		b	.L76
 709              	.LVL75:
 710              	.L79:
 128:ZumoLibrary/debug_uart.c ****                 cmd[pos++] = c;
 711              		.loc 1 128 0
 712 0056 3E2D     		cmp	r5, #62
 713 0058 D5DC     		bgt	.L76
 129:ZumoLibrary/debug_uart.c ****                 cmd[pos] = 0;
 714              		.loc 1 129 0
 715 005a 6C1C     		adds	r4, r5, #1
 716              	.LVL76:
 717 005c 12AA     		add	r2, sp, #72
 718 005e 1544     		add	r5, r5, r2
 719 0060 05F8443C 		strb	r3, [r5, #-68]
 130:ZumoLibrary/debug_uart.c **** 		        xQueueSend( xSerialTxQueue, &c, portMAX_DELAY);
 720              		.loc 1 130 0
 721 0064 2244     		add	r2, r2, r4
 722 0066 0023     		movs	r3, #0
 723 0068 02F8443C 		strb	r3, [r2, #-68]
 131:ZumoLibrary/debug_uart.c ****             }
 724              		.loc 1 131 0
 725 006c 4FF0FF32 		mov	r2, #-1
 726 0070 0DF14701 		add	r1, sp, #71
 727 0074 0548     		ldr	r0, .L82
 728 0076 D0F84004 		ldr	r0, [r0, #1088]
 729 007a FFF7FEFF 		bl	xQueueGenericSend
ARM GAS  C:\Users\samue\AppData\Local\Temp\ccXLBDBx.s 			page 20


 730              	.LVL77:
 129:ZumoLibrary/debug_uart.c ****                 cmd[pos] = 0;
 731              		.loc 1 129 0
 732 007e 2546     		mov	r5, r4
 733 0080 C1E7     		b	.L76
 734              	.LVL78:
 735              	.L77:
 135:ZumoLibrary/debug_uart.c ****         }
 736              		.loc 1 135 0
 737 0082 0120     		movs	r0, #1
 738 0084 FFF7FEFF 		bl	vTaskDelay
 739              	.LVL79:
 740 0088 BDE7     		b	.L76
 741              	.L83:
 742 008a 00BF     		.align	2
 743              	.L82:
 744 008c 00000000 		.word	.LANCHOR1
 745              		.cfi_endproc
 746              	.LFE72:
 747              		.size	DebugCommandTask, .-DebugCommandTask
 748              		.section	.rodata
 749              		.align	2
 750              		.set	.LANCHOR0,. + 0
 751              		.type	cmdtable, %object
 752              		.size	cmdtable, 120
 753              	cmdtable:
 754 0000 2C000000 		.word	.LC3
 755 0004 00000000 		.word	cmd_help
 756 0008 30000000 		.word	.LC4
 757 000c 40000000 		.word	.LC5
 758 0010 00000000 		.word	cmd_help
 759 0014 30000000 		.word	.LC4
 760 0018 48000000 		.word	.LC6
 761 001c 00000000 		.word	cmd_socket
 762 0020 50000000 		.word	.LC7
 763 0024 78000000 		.word	.LC8
 764 0028 00000000 		.word	cmd_connect
 765 002c 80000000 		.word	.LC9
 766 0030 A0000000 		.word	.LC10
 767 0034 00000000 		.word	cmd_close
 768 0038 A8000000 		.word	.LC11
 769 003c C4000000 		.word	.LC12
 770 0040 00000000 		.word	cmd_read
 771 0044 CC000000 		.word	.LC13
 772 0048 E0000000 		.word	.LC14
 773 004c 00000000 		.word	cmd_write
 774 0050 E8000000 		.word	.LC15
 775 0054 10010000 		.word	.LC16
 776 0058 00000000 		.word	cmd_tasklist
 777 005c 18010000 		.word	.LC17
 778 0060 40010000 		.word	.LC18
 779 0064 00000000 		.word	cmd_stats
 780 0068 48010000 		.word	.LC19
 781 006c 6C010000 		.word	.LC20
 782 0070 00000000 		.word	0
 783 0074 6C010000 		.word	.LC20
 784              		.section	.rodata.str1.4,"aMS",%progbits,1
ARM GAS  C:\Users\samue\AppData\Local\Temp\ccXLBDBx.s 			page 21


 785              		.align	2
 786              	.LC0:
 787 0000 3139322E 		.ascii	"192.168.1.254\000"
 787      3136382E 
 787      312E3235 
 787      3400
 788 000e 0000     		.space	2
 789              	.LC1:
 790 0010 536D6172 		.ascii	"SmartIot\000"
 790      74496F74 
 790      00
 791 0019 000000   		.space	3
 792              	.LC2:
 793 001c 536D6172 		.ascii	"SmartIotMQTT\000"
 793      74496F74 
 793      4D515454 
 793      00
 794 0029 000000   		.space	3
 795              	.LC3:
 796 002c 3F00     		.ascii	"?\000"
 797 002e 0000     		.space	2
 798              	.LC4:
 799 0030 68656C70 		.ascii	"help [command]\012\000"
 799      205B636F 
 799      6D6D616E 
 799      645D0A00 
 800              	.LC5:
 801 0040 68656C70 		.ascii	"help\000"
 801      00
 802 0045 000000   		.space	3
 803              	.LC6:
 804 0048 736F636B 		.ascii	"socket\000"
 804      657400
 805 004f 00       		.space	1
 806              	.LC7:
 807 0050 736F636B 		.ascii	"socket - starts ESP8266 socket task\012\000"
 807      6574202D 
 807      20737461 
 807      72747320 
 807      45535038 
 808 0075 000000   		.space	3
 809              	.LC8:
 810 0078 636F6E6E 		.ascii	"connect\000"
 810      65637400 
 811              	.LC9:
 812 0080 636F6E6E 		.ascii	"connect - connect to a server\012\000"
 812      65637420 
 812      2D20636F 
 812      6E6E6563 
 812      7420746F 
 813 009f 00       		.space	1
 814              	.LC10:
 815 00a0 636C6F73 		.ascii	"close\000"
 815      6500
 816 00a6 0000     		.space	2
 817              	.LC11:
 818 00a8 636C6F73 		.ascii	"close - close connection\012\000"
ARM GAS  C:\Users\samue\AppData\Local\Temp\ccXLBDBx.s 			page 22


 818      65202D20 
 818      636C6F73 
 818      6520636F 
 818      6E6E6563 
 819 00c2 0000     		.space	2
 820              	.LC12:
 821 00c4 72656164 		.ascii	"read\000"
 821      00
 822 00c9 000000   		.space	3
 823              	.LC13:
 824 00cc 72656164 		.ascii	"read from socket\012\000"
 824      2066726F 
 824      6D20736F 
 824      636B6574 
 824      0A00
 825 00de 0000     		.space	2
 826              	.LC14:
 827 00e0 77726974 		.ascii	"write\000"
 827      6500
 828 00e6 0000     		.space	2
 829              	.LC15:
 830 00e8 77726974 		.ascii	"write <data> - writes <data> to socket\012\000"
 830      65203C64 
 830      6174613E 
 830      202D2077 
 830      72697465 
 831              	.LC16:
 832 0110 6C697374 		.ascii	"list\000"
 832      00
 833 0115 000000   		.space	3
 834              	.LC17:
 835 0118 6C697374 		.ascii	"list - list currently running tasks\012\000"
 835      202D206C 
 835      69737420 
 835      63757272 
 835      656E746C 
 836 013d 000000   		.space	3
 837              	.LC18:
 838 0140 73746174 		.ascii	"stat\000"
 838      00
 839 0145 000000   		.space	3
 840              	.LC19:
 841 0148 73746174 		.ascii	"stat - print runtime statistics\012\000"
 841      202D2070 
 841      72696E74 
 841      2072756E 
 841      74696D65 
 842 0169 000000   		.space	3
 843              	.LC20:
 844 016c 00       		.ascii	"\000"
 845              		.bss
 846              		.align	2
 847              		.set	.LANCHOR1,. + 0
 848              		.type	prt_buffer, %object
 849              		.size	prt_buffer, 1024
 850              	prt_buffer:
 851 0000 00000000 		.space	1024
ARM GAS  C:\Users\samue\AppData\Local\Temp\ccXLBDBx.s 			page 23


 851      00000000 
 851      00000000 
 851      00000000 
 851      00000000 
 852              		.type	buffer.8493, %object
 853              		.size	buffer.8493, 64
 854              	buffer.8493:
 855 0400 00000000 		.space	64
 855      00000000 
 855      00000000 
 855      00000000 
 855      00000000 
 856              		.type	xSerialTxQueue, %object
 857              		.size	xSerialTxQueue, 4
 858              	xSerialTxQueue:
 859 0440 00000000 		.space	4
 860              		.type	u1_mutex, %object
 861              		.size	u1_mutex, 4
 862              	u1_mutex:
 863 0444 00000000 		.space	4
 864              		.text
 865              	.Letext0:
 866              		.file 2 "c:\\program files (x86)\\cypress\\psoc creator\\4.2\\psoc creator\\import\\gnu\\arm\\5.4.
 867              		.file 3 "c:\\program files (x86)\\cypress\\psoc creator\\4.2\\psoc creator\\import\\gnu\\arm\\5.4.
 868              		.file 4 "..\\FreeRTOS\\Source\\portable\\GCC\\ARM_CM3/portmacro.h"
 869              		.file 5 "..\\FreeRTOS\\Source\\include/queue.h"
 870              		.file 6 "..\\FreeRTOS\\Source\\include/semphr.h"
 871              		.file 7 "..\\FreeRTOS\\Source\\include/task.h"
 872              		.file 8 "c:\\program files (x86)\\cypress\\psoc creator\\4.2\\psoc creator\\import\\gnu\\arm\\5.4.
 873              		.file 9 "ZumoLibrary\\esp8266_socket.h"
 874              		.file 10 "Generated_Source\\PSoC5/core_cm3.h"