ARM GAS  C:\Users\samue\AppData\Local\Temp\ccJDNHzo.s 			page 1


   1              		.syntax unified
   2              		.cpu cortex-m3
   3              		.fpu softvfp
   4              		.eabi_attribute 20, 1
   5              		.eabi_attribute 21, 1
   6              		.eabi_attribute 23, 3
   7              		.eabi_attribute 24, 1
   8              		.eabi_attribute 25, 1
   9              		.eabi_attribute 26, 1
  10              		.eabi_attribute 30, 1
  11              		.eabi_attribute 34, 1
  12              		.eabi_attribute 18, 4
  13              		.thumb
  14              		.syntax unified
  15              		.file	"esp8266_socket.c"
  16              		.text
  17              	.Ltext0:
  18              		.cfi_sections	.debug_frame
  19              		.section	.text.port2str,"ax",%progbits
  20              		.align	2
  21              		.thumb
  22              		.thumb_func
  23              		.type	port2str, %function
  24              	port2str:
  25              	.LFB72:
  26              		.file 1 "ZumoLibrary\\esp8266_socket.c"
   1:ZumoLibrary/esp8266_socket.c **** /* ========================================
   2:ZumoLibrary/esp8266_socket.c ****  *
   3:ZumoLibrary/esp8266_socket.c ****  * Copyright YOUR COMPANY, THE YEAR
   4:ZumoLibrary/esp8266_socket.c ****  * All Rights Reserved
   5:ZumoLibrary/esp8266_socket.c ****  * UNPUBLISHED, LICENSED SOFTWARE.
   6:ZumoLibrary/esp8266_socket.c ****  *
   7:ZumoLibrary/esp8266_socket.c ****  * CONFIDENTIAL AND PROPRIETARY INFORMATION
   8:ZumoLibrary/esp8266_socket.c ****  * WHICH IS THE PROPERTY OF your company.
   9:ZumoLibrary/esp8266_socket.c ****  *
  10:ZumoLibrary/esp8266_socket.c ****  * ========================================
  11:ZumoLibrary/esp8266_socket.c **** */
  12:ZumoLibrary/esp8266_socket.c **** #include <stdbool.h>
  13:ZumoLibrary/esp8266_socket.c **** #include <stdio.h>
  14:ZumoLibrary/esp8266_socket.c **** #include <stdlib.h>
  15:ZumoLibrary/esp8266_socket.c **** #include <ctype.h>
  16:ZumoLibrary/esp8266_socket.c **** #include "FreeRTOS.h"
  17:ZumoLibrary/esp8266_socket.c **** #include "task.h"
  18:ZumoLibrary/esp8266_socket.c **** #include "semphr.h"
  19:ZumoLibrary/esp8266_socket.c **** #include "queue.h"
  20:ZumoLibrary/esp8266_socket.c **** #include "timers.h"
  21:ZumoLibrary/esp8266_socket.c **** #include "serial.h"
  22:ZumoLibrary/esp8266_socket.c **** 
  23:ZumoLibrary/esp8266_socket.c **** #include "esp8266_socket.h"
  24:ZumoLibrary/esp8266_socket.c **** 
  25:ZumoLibrary/esp8266_socket.c **** typedef int EspSocket_t;
  26:ZumoLibrary/esp8266_socket.c **** 
  27:ZumoLibrary/esp8266_socket.c **** static const int EspQueueLength = 32;
  28:ZumoLibrary/esp8266_socket.c **** 
  29:ZumoLibrary/esp8266_socket.c **** 
  30:ZumoLibrary/esp8266_socket.c **** #define I_DONT_USE(x) (void) x
  31:ZumoLibrary/esp8266_socket.c **** #define DEBUGP( ... ) printf( __VA_ARGS__ )
ARM GAS  C:\Users\samue\AppData\Local\Temp\ccJDNHzo.s 			page 2


  32:ZumoLibrary/esp8266_socket.c **** 
  33:ZumoLibrary/esp8266_socket.c **** // macro for changing state. Correct operation requires that ctx is a pointer to state machine inst
  34:ZumoLibrary/esp8266_socket.c **** #define TRAN(st) ctx->next_state = st
  35:ZumoLibrary/esp8266_socket.c **** 
  36:ZumoLibrary/esp8266_socket.c **** typedef enum eventTypes { eEnter, eExit, eTick, eReceive, eConnect, eDisconnect, eSend } EventType;
  37:ZumoLibrary/esp8266_socket.c **** 
  38:ZumoLibrary/esp8266_socket.c **** typedef struct event_ {
  39:ZumoLibrary/esp8266_socket.c **** 	EventType ev; // event type (= what happened)
  40:ZumoLibrary/esp8266_socket.c ****     int length;
  41:ZumoLibrary/esp8266_socket.c **** 	void *data;
  42:ZumoLibrary/esp8266_socket.c ****     void (*handled)(void *); // pointer for callback
  43:ZumoLibrary/esp8266_socket.c **** } event;
  44:ZumoLibrary/esp8266_socket.c **** 
  45:ZumoLibrary/esp8266_socket.c **** typedef struct smi_ smi;
  46:ZumoLibrary/esp8266_socket.c **** 
  47:ZumoLibrary/esp8266_socket.c **** typedef void (*smf)(smi *, const event *);  // prototype of state handler function pointer
  48:ZumoLibrary/esp8266_socket.c **** 
  49:ZumoLibrary/esp8266_socket.c **** #define SMI_BUFSIZE 80
  50:ZumoLibrary/esp8266_socket.c **** #define RC_NOT_AVAILABLE  -1
  51:ZumoLibrary/esp8266_socket.c **** #define RC_OK     0
  52:ZumoLibrary/esp8266_socket.c **** #define RC_ERROR  1
  53:ZumoLibrary/esp8266_socket.c **** 
  54:ZumoLibrary/esp8266_socket.c **** struct smi_ {
  55:ZumoLibrary/esp8266_socket.c **** 	smf state;  // current state (function pointer)
  56:ZumoLibrary/esp8266_socket.c **** 	smf next_state; // next state (function pointer)
  57:ZumoLibrary/esp8266_socket.c **** 	SemaphoreHandle_t Access; // interface number
  58:ZumoLibrary/esp8266_socket.c ****     QueueHandle_t EspEventQ;
  59:ZumoLibrary/esp8266_socket.c ****     xComPortHandle ComPort;
  60:ZumoLibrary/esp8266_socket.c ****     int timer;
  61:ZumoLibrary/esp8266_socket.c ****     int count;
  62:ZumoLibrary/esp8266_socket.c ****     int pos;
  63:ZumoLibrary/esp8266_socket.c ****     char buffer[SMI_BUFSIZE];
  64:ZumoLibrary/esp8266_socket.c ****     char ssid[32]; // SSID
  65:ZumoLibrary/esp8266_socket.c ****     char pwd[32]; // password
  66:ZumoLibrary/esp8266_socket.c ****     char sa_data[14]; // ip address
  67:ZumoLibrary/esp8266_socket.c ****     char sa_port[14]; // port number (string)
  68:ZumoLibrary/esp8266_socket.c **** };
  69:ZumoLibrary/esp8266_socket.c **** 
  70:ZumoLibrary/esp8266_socket.c **** void stInit(smi *ctx, const event *e);
  71:ZumoLibrary/esp8266_socket.c **** void stEchoOff(smi *ctx, const event *e);
  72:ZumoLibrary/esp8266_socket.c **** void stStationModeCheck(smi *ctx, const event *e);
  73:ZumoLibrary/esp8266_socket.c **** void stStationModeSet(smi *ctx, const event *e);
  74:ZumoLibrary/esp8266_socket.c **** void stConnectAP(smi *ctx, const event *e);
  75:ZumoLibrary/esp8266_socket.c **** void stReady(smi *ctx, const event *e);
  76:ZumoLibrary/esp8266_socket.c **** void stConnectTCP(smi *ctx, const event *e);
  77:ZumoLibrary/esp8266_socket.c **** void stConnected(smi *ctx, const event *e);
  78:ZumoLibrary/esp8266_socket.c **** void stSend(smi *ctx, const event *e);
  79:ZumoLibrary/esp8266_socket.c **** void stReceiveLength(smi *ctx, const event *e);
  80:ZumoLibrary/esp8266_socket.c **** void stReceiveData(smi *ctx, const event *e);
  81:ZumoLibrary/esp8266_socket.c **** void stCloseTCP(smi *ctx, const event *e);
  82:ZumoLibrary/esp8266_socket.c **** void stPassthrough(smi *ctx, const event *e);
  83:ZumoLibrary/esp8266_socket.c **** void stPassthroughOK(smi *ctx, const event *e);
  84:ZumoLibrary/esp8266_socket.c **** void stAT(smi *ctx, const event *e);
  85:ZumoLibrary/esp8266_socket.c **** void stCommandMode(smi *ctx, const event *e);
  86:ZumoLibrary/esp8266_socket.c **** 
  87:ZumoLibrary/esp8266_socket.c **** void vEspSocketTask(void *pvParameters) ;
  88:ZumoLibrary/esp8266_socket.c **** void vEspEventTask(void *pvParameters) ;
ARM GAS  C:\Users\samue\AppData\Local\Temp\ccJDNHzo.s 			page 3


  89:ZumoLibrary/esp8266_socket.c **** void vEspTickTask( void * pvParameters );
  90:ZumoLibrary/esp8266_socket.c **** 
  91:ZumoLibrary/esp8266_socket.c **** 
  92:ZumoLibrary/esp8266_socket.c **** static inline void serial_write_buf(smi *ctx, const char *buf, int len)
  93:ZumoLibrary/esp8266_socket.c **** {
  94:ZumoLibrary/esp8266_socket.c ****     while(len-- > 0) {
  95:ZumoLibrary/esp8266_socket.c ****         xSerialPutChar(ctx->ComPort,*buf++,portMAX_DELAY);
  96:ZumoLibrary/esp8266_socket.c ****         //UART_1_PutChar(*buf++);
  97:ZumoLibrary/esp8266_socket.c ****     }
  98:ZumoLibrary/esp8266_socket.c **** }    
  99:ZumoLibrary/esp8266_socket.c **** 
 100:ZumoLibrary/esp8266_socket.c **** static inline void serial_write_str(smi *ctx, const char *s)
 101:ZumoLibrary/esp8266_socket.c **** {
 102:ZumoLibrary/esp8266_socket.c ****     //vSerialPutString(ctx->ComPort, (const signed char *) s, strlen(s));
 103:ZumoLibrary/esp8266_socket.c ****     while(*s) {
 104:ZumoLibrary/esp8266_socket.c ****         xSerialPutChar(ctx->ComPort,*s++,portMAX_DELAY);
 105:ZumoLibrary/esp8266_socket.c ****         //UART_1_PutChar(*s++);
 106:ZumoLibrary/esp8266_socket.c ****     }
 107:ZumoLibrary/esp8266_socket.c **** }    
 108:ZumoLibrary/esp8266_socket.c **** 
 109:ZumoLibrary/esp8266_socket.c **** static inline bool serial_get(smi *ctx, char *p)
 110:ZumoLibrary/esp8266_socket.c **** {
 111:ZumoLibrary/esp8266_socket.c ****     return xSerialGetChar(ctx->ComPort, (signed char *) p, 10);
 112:ZumoLibrary/esp8266_socket.c **** }
 113:ZumoLibrary/esp8266_socket.c **** 
 114:ZumoLibrary/esp8266_socket.c **** 
 115:ZumoLibrary/esp8266_socket.c **** smi EspSocketInstance;
 116:ZumoLibrary/esp8266_socket.c **** 
 117:ZumoLibrary/esp8266_socket.c **** static void port2str(int i, char *str)
 118:ZumoLibrary/esp8266_socket.c **** {
  27              		.loc 1 118 0
  28              		.cfi_startproc
  29              		@ args = 0, pretend = 0, frame = 0
  30              		@ frame_needed = 0, uses_anonymous_args = 0
  31              		@ link register save eliminated.
  32              	.LVL0:
  33 0000 10B4     		push	{r4}
  34              		.cfi_def_cfa_offset 4
  35              		.cfi_offset 4, -4
  36              	.LVL1:
 119:ZumoLibrary/esp8266_socket.c ****     int m = 10000;
 120:ZumoLibrary/esp8266_socket.c ****     i %= m; // limit integer size to max 5 digits.
  37              		.loc 1 120 0
  38 0002 154A     		ldr	r2, .L7
  39 0004 82FB0032 		smull	r3, r2, r2, r0
  40 0008 C317     		asrs	r3, r0, #31
  41 000a C3EB2232 		rsb	r2, r3, r2, asr #12
  42 000e 42F21073 		movw	r3, #10000
  43 0012 03FB1202 		mls	r2, r3, r2, r0
  44              	.LVL2:
 121:ZumoLibrary/esp8266_socket.c ****     while(i / m == 0) m/=10;
  45              		.loc 1 121 0
  46 0016 05E0     		b	.L2
  47              	.LVL3:
  48              	.L3:
  49              		.loc 1 121 0 is_stmt 0 discriminator 2
  50 0018 1048     		ldr	r0, .L7+4
ARM GAS  C:\Users\samue\AppData\Local\Temp\ccJDNHzo.s 			page 4


  51 001a 80FB0340 		smull	r4, r0, r0, r3
  52 001e DB17     		asrs	r3, r3, #31
  53              	.LVL4:
  54 0020 C3EBA003 		rsb	r3, r3, r0, asr #2
  55              	.LVL5:
  56              	.L2:
  57              		.loc 1 121 0 discriminator 1
  58 0024 92FBF3F0 		sdiv	r0, r2, r3
  59 0028 0028     		cmp	r0, #0
  60 002a F5D0     		beq	.L3
  61 002c 0DE0     		b	.L4
  62              	.L5:
  63              	.LVL6:
 122:ZumoLibrary/esp8266_socket.c ****     while(m > 0) {
 123:ZumoLibrary/esp8266_socket.c ****         *str++ = '0' + i / m;
  64              		.loc 1 123 0 is_stmt 1
  65 002e 92FBF3F0 		sdiv	r0, r2, r3
  66 0032 00F13004 		add	r4, r0, #48
  67 0036 0C70     		strb	r4, [r1]
 124:ZumoLibrary/esp8266_socket.c ****         i %= m;
  68              		.loc 1 124 0
  69 0038 03FB1022 		mls	r2, r3, r0, r2
  70              	.LVL7:
 125:ZumoLibrary/esp8266_socket.c ****         m /= 10;
  71              		.loc 1 125 0
  72 003c 0748     		ldr	r0, .L7+4
  73 003e 80FB0340 		smull	r4, r0, r0, r3
  74 0042 DB17     		asrs	r3, r3, #31
  75              	.LVL8:
  76 0044 C3EBA003 		rsb	r3, r3, r0, asr #2
  77              	.LVL9:
 123:ZumoLibrary/esp8266_socket.c ****         i %= m;
  78              		.loc 1 123 0
  79 0048 0131     		adds	r1, r1, #1
  80              	.LVL10:
  81              	.L4:
 122:ZumoLibrary/esp8266_socket.c ****         *str++ = '0' + i / m;
  82              		.loc 1 122 0
  83 004a 002B     		cmp	r3, #0
  84 004c EFDC     		bgt	.L5
 126:ZumoLibrary/esp8266_socket.c ****     }
 127:ZumoLibrary/esp8266_socket.c ****     *str='\0';
  85              		.loc 1 127 0
  86 004e 0023     		movs	r3, #0
  87              	.LVL11:
  88 0050 0B70     		strb	r3, [r1]
 128:ZumoLibrary/esp8266_socket.c **** }
  89              		.loc 1 128 0
  90 0052 10BC     		pop	{r4}
  91              		.cfi_restore 4
  92              		.cfi_def_cfa_offset 0
  93 0054 7047     		bx	lr
  94              	.L8:
  95 0056 00BF     		.align	2
  96              	.L7:
  97 0058 AD8BDB68 		.word	1759218605
  98 005c 67666666 		.word	1717986919
ARM GAS  C:\Users\samue\AppData\Local\Temp\ccJDNHzo.s 			page 5


  99              		.cfi_endproc
 100              	.LFE72:
 101              		.size	port2str, .-port2str
 102              		.section	.text.dispatch_event,"ax",%progbits
 103              		.align	2
 104              		.thumb
 105              		.thumb_func
 106              		.type	dispatch_event, %function
 107              	dispatch_event:
 108              	.LFB102:
 129:ZumoLibrary/esp8266_socket.c **** 
 130:ZumoLibrary/esp8266_socket.c **** void smi_init(smi *ctx) 
 131:ZumoLibrary/esp8266_socket.c **** {
 132:ZumoLibrary/esp8266_socket.c ****     memset(ctx, 0, sizeof(smi));
 133:ZumoLibrary/esp8266_socket.c ****     ctx->state = stInit;
 134:ZumoLibrary/esp8266_socket.c ****     ctx->next_state = stInit;
 135:ZumoLibrary/esp8266_socket.c **** }
 136:ZumoLibrary/esp8266_socket.c **** 
 137:ZumoLibrary/esp8266_socket.c ****     
 138:ZumoLibrary/esp8266_socket.c **** int esp_socket(const char *ssid, const char *password)
 139:ZumoLibrary/esp8266_socket.c **** {
 140:ZumoLibrary/esp8266_socket.c ****     smi_init(&EspSocketInstance);
 141:ZumoLibrary/esp8266_socket.c ****     
 142:ZumoLibrary/esp8266_socket.c ****     EspSocketInstance.EspEventQ = xQueueCreate( EspQueueLength, sizeof( event ) );
 143:ZumoLibrary/esp8266_socket.c ****     EspSocketInstance.Access = xSemaphoreCreateMutex();
 144:ZumoLibrary/esp8266_socket.c ****     EspSocketInstance.ComPort = xSerialPortInitMinimal(115200, 256);
 145:ZumoLibrary/esp8266_socket.c ****     
 146:ZumoLibrary/esp8266_socket.c ****     strcpy(EspSocketInstance.ssid, ssid);
 147:ZumoLibrary/esp8266_socket.c ****     strcpy(EspSocketInstance.pwd, password);
 148:ZumoLibrary/esp8266_socket.c ****     
 149:ZumoLibrary/esp8266_socket.c ****     ( void ) xTaskCreate( vEspSocketTask, "ESP_sock", configMINIMAL_STACK_SIZE * 6, &EspSocketInsta
 150:ZumoLibrary/esp8266_socket.c ****   	( void ) xTaskCreate( vEspEventTask, "ESP_rxe", configMINIMAL_STACK_SIZE, &EspSocketInstance, ts
 151:ZumoLibrary/esp8266_socket.c ****   	( void ) xTaskCreate( vEspTickTask, "ESP_tick", configMINIMAL_STACK_SIZE, &EspSocketInstance, ts
 152:ZumoLibrary/esp8266_socket.c ****     
 153:ZumoLibrary/esp8266_socket.c ****     while(EspSocketInstance.state != stReady) {
 154:ZumoLibrary/esp8266_socket.c ****         vTaskDelay(50);
 155:ZumoLibrary/esp8266_socket.c ****     }
 156:ZumoLibrary/esp8266_socket.c ****    
 157:ZumoLibrary/esp8266_socket.c ****     return 0;    
 158:ZumoLibrary/esp8266_socket.c **** }
 159:ZumoLibrary/esp8266_socket.c **** 
 160:ZumoLibrary/esp8266_socket.c **** 
 161:ZumoLibrary/esp8266_socket.c **** 
 162:ZumoLibrary/esp8266_socket.c **** int esp_connect(int sockfd, const char *addr, int port)
 163:ZumoLibrary/esp8266_socket.c **** {
 164:ZumoLibrary/esp8266_socket.c ****     I_DONT_USE(sockfd);
 165:ZumoLibrary/esp8266_socket.c **** 
 166:ZumoLibrary/esp8266_socket.c ****     strcpy(EspSocketInstance.sa_data,addr);
 167:ZumoLibrary/esp8266_socket.c ****     port2str(port, EspSocketInstance.sa_port);
 168:ZumoLibrary/esp8266_socket.c **** 
 169:ZumoLibrary/esp8266_socket.c ****     const event e = { eConnect, 0, NULL, NULL };
 170:ZumoLibrary/esp8266_socket.c ****     
 171:ZumoLibrary/esp8266_socket.c ****     xQueueSendToBack(EspSocketInstance.EspEventQ, &e, portMAX_DELAY);
 172:ZumoLibrary/esp8266_socket.c **** 
 173:ZumoLibrary/esp8266_socket.c ****     int rc = -1;
 174:ZumoLibrary/esp8266_socket.c ****     if(xSemaphoreTake(EspSocketInstance.Access, configTICK_RATE_HZ * 3) == pdTRUE) {
 175:ZumoLibrary/esp8266_socket.c ****         xSemaphoreGive(EspSocketInstance.Access);
ARM GAS  C:\Users\samue\AppData\Local\Temp\ccJDNHzo.s 			page 6


 176:ZumoLibrary/esp8266_socket.c ****         rc = 0;
 177:ZumoLibrary/esp8266_socket.c ****     }
 178:ZumoLibrary/esp8266_socket.c ****     
 179:ZumoLibrary/esp8266_socket.c ****     return rc;
 180:ZumoLibrary/esp8266_socket.c **** }
 181:ZumoLibrary/esp8266_socket.c **** 
 182:ZumoLibrary/esp8266_socket.c **** int esp_read(int sockfd, void *data, int length) 
 183:ZumoLibrary/esp8266_socket.c **** {
 184:ZumoLibrary/esp8266_socket.c ****     I_DONT_USE(sockfd);
 185:ZumoLibrary/esp8266_socket.c ****     int count = 0;
 186:ZumoLibrary/esp8266_socket.c ****     
 187:ZumoLibrary/esp8266_socket.c ****     if(xSemaphoreTake(EspSocketInstance.Access, configTICK_RATE_HZ / 10) == pdTRUE) {
 188:ZumoLibrary/esp8266_socket.c ****         // read data
 189:ZumoLibrary/esp8266_socket.c ****         while(count < length && serial_get(&EspSocketInstance, data)) {
 190:ZumoLibrary/esp8266_socket.c ****             ++count;
 191:ZumoLibrary/esp8266_socket.c ****             ++data;
 192:ZumoLibrary/esp8266_socket.c ****         }
 193:ZumoLibrary/esp8266_socket.c ****         xSemaphoreGive(EspSocketInstance.Access);
 194:ZumoLibrary/esp8266_socket.c ****     }
 195:ZumoLibrary/esp8266_socket.c ****     
 196:ZumoLibrary/esp8266_socket.c ****     return count;
 197:ZumoLibrary/esp8266_socket.c **** }
 198:ZumoLibrary/esp8266_socket.c **** 
 199:ZumoLibrary/esp8266_socket.c **** int esp_write(int sockfd, void *data, int length) 
 200:ZumoLibrary/esp8266_socket.c **** {
 201:ZumoLibrary/esp8266_socket.c ****     I_DONT_USE(sockfd);
 202:ZumoLibrary/esp8266_socket.c **** 
 203:ZumoLibrary/esp8266_socket.c ****     if(xSemaphoreTake(EspSocketInstance.Access, configTICK_RATE_HZ / 10) == pdTRUE) {
 204:ZumoLibrary/esp8266_socket.c ****         // write data
 205:ZumoLibrary/esp8266_socket.c ****         serial_write_buf(&EspSocketInstance, data, length);
 206:ZumoLibrary/esp8266_socket.c ****         xSemaphoreGive(EspSocketInstance.Access);
 207:ZumoLibrary/esp8266_socket.c ****     }
 208:ZumoLibrary/esp8266_socket.c ****     
 209:ZumoLibrary/esp8266_socket.c ****     return length;
 210:ZumoLibrary/esp8266_socket.c **** }
 211:ZumoLibrary/esp8266_socket.c **** 
 212:ZumoLibrary/esp8266_socket.c **** int esp_close(int sockfd)
 213:ZumoLibrary/esp8266_socket.c **** {
 214:ZumoLibrary/esp8266_socket.c ****     return esp_shutdown(sockfd, -1);
 215:ZumoLibrary/esp8266_socket.c **** }
 216:ZumoLibrary/esp8266_socket.c **** 
 217:ZumoLibrary/esp8266_socket.c **** int esp_shutdown(int sockfd, int how)
 218:ZumoLibrary/esp8266_socket.c **** {
 219:ZumoLibrary/esp8266_socket.c ****     I_DONT_USE(sockfd);
 220:ZumoLibrary/esp8266_socket.c ****     I_DONT_USE(how);
 221:ZumoLibrary/esp8266_socket.c ****     const event e = { eDisconnect, 0, NULL, NULL };
 222:ZumoLibrary/esp8266_socket.c ****     
 223:ZumoLibrary/esp8266_socket.c ****     xQueueSendToBack(EspSocketInstance.EspEventQ, &e, portMAX_DELAY);
 224:ZumoLibrary/esp8266_socket.c **** 
 225:ZumoLibrary/esp8266_socket.c ****     return 0;
 226:ZumoLibrary/esp8266_socket.c **** }
 227:ZumoLibrary/esp8266_socket.c **** 
 228:ZumoLibrary/esp8266_socket.c **** 
 229:ZumoLibrary/esp8266_socket.c **** static const event evEnter = { eEnter, 0, NULL, NULL };
 230:ZumoLibrary/esp8266_socket.c **** static const event evExit = { eExit, 0, NULL, NULL };
 231:ZumoLibrary/esp8266_socket.c **** 
 232:ZumoLibrary/esp8266_socket.c **** #if 0
ARM GAS  C:\Users\samue\AppData\Local\Temp\ccJDNHzo.s 			page 7


 233:ZumoLibrary/esp8266_socket.c **** /* this is state template */
 234:ZumoLibrary/esp8266_socket.c **** void stStateTemplate(smi *ctx, const event *e)
 235:ZumoLibrary/esp8266_socket.c **** {
 236:ZumoLibrary/esp8266_socket.c **** 	switch(e->ev) {
 237:ZumoLibrary/esp8266_socket.c **** 	case eEnter:
 238:ZumoLibrary/esp8266_socket.c **** 		break;
 239:ZumoLibrary/esp8266_socket.c **** 	case eExit:
 240:ZumoLibrary/esp8266_socket.c **** 		break;
 241:ZumoLibrary/esp8266_socket.c **** 	case eTick:
 242:ZumoLibrary/esp8266_socket.c **** 		break;
 243:ZumoLibrary/esp8266_socket.c **** 	case eReceive:
 244:ZumoLibrary/esp8266_socket.c **** 		break;
 245:ZumoLibrary/esp8266_socket.c **** 	default:
 246:ZumoLibrary/esp8266_socket.c **** 		break;
 247:ZumoLibrary/esp8266_socket.c **** 	}
 248:ZumoLibrary/esp8266_socket.c **** }
 249:ZumoLibrary/esp8266_socket.c **** #endif
 250:ZumoLibrary/esp8266_socket.c **** 
 251:ZumoLibrary/esp8266_socket.c **** void init_counters(smi *ctx) {
 252:ZumoLibrary/esp8266_socket.c ****     ctx->count = 0;
 253:ZumoLibrary/esp8266_socket.c ****     ctx->pos = 0;
 254:ZumoLibrary/esp8266_socket.c ****     ctx->timer = 0;
 255:ZumoLibrary/esp8266_socket.c **** }
 256:ZumoLibrary/esp8266_socket.c **** 
 257:ZumoLibrary/esp8266_socket.c **** /* Read and store characters upto specified length. 
 258:ZumoLibrary/esp8266_socket.c ****  * Returns true when specified amount of characters have been accumulated. */
 259:ZumoLibrary/esp8266_socket.c **** void sm_flush(smi *ctx) 
 260:ZumoLibrary/esp8266_socket.c **** {
 261:ZumoLibrary/esp8266_socket.c ****     //DEBUGP("flush: %d\n", (int)xSerialRxWaiting(ctx->ComPort));
 262:ZumoLibrary/esp8266_socket.c ****     while(serial_get(ctx, ctx->buffer));
 263:ZumoLibrary/esp8266_socket.c **** }
 264:ZumoLibrary/esp8266_socket.c **** 
 265:ZumoLibrary/esp8266_socket.c **** 
 266:ZumoLibrary/esp8266_socket.c **** /* Read and store characters upto specified length. 
 267:ZumoLibrary/esp8266_socket.c ****  * Returns true when specified amount of characters have been accumulated. */
 268:ZumoLibrary/esp8266_socket.c **** bool sm_read_buffer(smi *ctx, int count) 
 269:ZumoLibrary/esp8266_socket.c **** {
 270:ZumoLibrary/esp8266_socket.c ****     while(ctx->pos < (SMI_BUFSIZE - 1) && ctx->pos < count && serial_get(ctx, ctx->buffer + ctx->po
 271:ZumoLibrary/esp8266_socket.c ****         //putchar(ctx->buffer[ctx->pos]); // debugging
 272:ZumoLibrary/esp8266_socket.c ****         ++ctx->pos;
 273:ZumoLibrary/esp8266_socket.c ****     }
 274:ZumoLibrary/esp8266_socket.c ****     return (ctx->pos >= count);
 275:ZumoLibrary/esp8266_socket.c **** }
 276:ZumoLibrary/esp8266_socket.c **** 
 277:ZumoLibrary/esp8266_socket.c **** 
 278:ZumoLibrary/esp8266_socket.c **** /* Read an integer.
 279:ZumoLibrary/esp8266_socket.c ****  * Consumes characters until a non-nondigit is received. The nondigit is also consumed. */
 280:ZumoLibrary/esp8266_socket.c **** bool sm_read_int(smi *ctx, int *value) 
 281:ZumoLibrary/esp8266_socket.c **** {
 282:ZumoLibrary/esp8266_socket.c ****     bool result = false;
 283:ZumoLibrary/esp8266_socket.c ****     while(ctx->pos < (SMI_BUFSIZE - 1) && serial_get(ctx, ctx->buffer + ctx->pos)) {
 284:ZumoLibrary/esp8266_socket.c ****         if(!isdigit(ctx->buffer[ctx->pos])) {
 285:ZumoLibrary/esp8266_socket.c ****             ctx->buffer[ctx->pos] = '\0';
 286:ZumoLibrary/esp8266_socket.c ****             *value = atoi(ctx->buffer);
 287:ZumoLibrary/esp8266_socket.c ****             result = true;
 288:ZumoLibrary/esp8266_socket.c ****             break;
 289:ZumoLibrary/esp8266_socket.c ****         }
ARM GAS  C:\Users\samue\AppData\Local\Temp\ccJDNHzo.s 			page 8


 290:ZumoLibrary/esp8266_socket.c ****         else {
 291:ZumoLibrary/esp8266_socket.c ****             ++ctx->pos;
 292:ZumoLibrary/esp8266_socket.c ****         }
 293:ZumoLibrary/esp8266_socket.c ****     }
 294:ZumoLibrary/esp8266_socket.c ****     return result;
 295:ZumoLibrary/esp8266_socket.c **** }
 296:ZumoLibrary/esp8266_socket.c **** 
 297:ZumoLibrary/esp8266_socket.c **** 
 298:ZumoLibrary/esp8266_socket.c **** 
 299:ZumoLibrary/esp8266_socket.c **** /* Read and store data until one of the specified strings is received.
 300:ZumoLibrary/esp8266_socket.c ****  * The matched string is also included in the data .*/
 301:ZumoLibrary/esp8266_socket.c **** int sm_read_until(smi *ctx, const char **p) 
 302:ZumoLibrary/esp8266_socket.c **** {
 303:ZumoLibrary/esp8266_socket.c ****     int result = RC_NOT_AVAILABLE;
 304:ZumoLibrary/esp8266_socket.c ****     while(result < 0 && ctx->pos < (SMI_BUFSIZE - 1) && serial_get(ctx, ctx->buffer + ctx->pos)) {
 305:ZumoLibrary/esp8266_socket.c ****         ++ctx->pos;
 306:ZumoLibrary/esp8266_socket.c ****         ctx->buffer[ctx->pos] = '\0';
 307:ZumoLibrary/esp8266_socket.c ****         for(int i = 0; result < 0 && p[i] != NULL; ++i) {
 308:ZumoLibrary/esp8266_socket.c ****             if(strstr(ctx->buffer, p[i]) != NULL) {
 309:ZumoLibrary/esp8266_socket.c ****                 result = i;
 310:ZumoLibrary/esp8266_socket.c ****             }
 311:ZumoLibrary/esp8266_socket.c ****         }
 312:ZumoLibrary/esp8266_socket.c ****     }
 313:ZumoLibrary/esp8266_socket.c ****     return result;
 314:ZumoLibrary/esp8266_socket.c ****     
 315:ZumoLibrary/esp8266_socket.c **** }
 316:ZumoLibrary/esp8266_socket.c **** 
 317:ZumoLibrary/esp8266_socket.c **** /* read and store data until result is received */
 318:ZumoLibrary/esp8266_socket.c **** int sm_read_result(smi *ctx) 
 319:ZumoLibrary/esp8266_socket.c **** {
 320:ZumoLibrary/esp8266_socket.c ****     static const char *result_list[] = { "OK\r\n", "ERROR\r\n", NULL };
 321:ZumoLibrary/esp8266_socket.c ****     return sm_read_until(ctx, result_list);
 322:ZumoLibrary/esp8266_socket.c **** }
 323:ZumoLibrary/esp8266_socket.c **** 
 324:ZumoLibrary/esp8266_socket.c **** /* read and consume characters until specified string occurs */
 325:ZumoLibrary/esp8266_socket.c **** bool sm_wait_for(smi *ctx, const char *p)
 326:ZumoLibrary/esp8266_socket.c **** {
 327:ZumoLibrary/esp8266_socket.c ****     bool result = false;
 328:ZumoLibrary/esp8266_socket.c ****     int len = strlen(p);
 329:ZumoLibrary/esp8266_socket.c **** 
 330:ZumoLibrary/esp8266_socket.c ****     while(sm_read_buffer(ctx, len)) {
 331:ZumoLibrary/esp8266_socket.c ****         ctx->buffer[ctx->pos] = '\0';
 332:ZumoLibrary/esp8266_socket.c ****         if(strstr(ctx->buffer, p) != NULL) {
 333:ZumoLibrary/esp8266_socket.c ****             result = true;
 334:ZumoLibrary/esp8266_socket.c ****             break;
 335:ZumoLibrary/esp8266_socket.c ****         }
 336:ZumoLibrary/esp8266_socket.c ****         else {
 337:ZumoLibrary/esp8266_socket.c ****             memmove(ctx->buffer, ctx->buffer + 1, ctx->pos);
 338:ZumoLibrary/esp8266_socket.c ****             --ctx->pos;
 339:ZumoLibrary/esp8266_socket.c ****         }
 340:ZumoLibrary/esp8266_socket.c ****     }
 341:ZumoLibrary/esp8266_socket.c ****     return result;
 342:ZumoLibrary/esp8266_socket.c **** }
 343:ZumoLibrary/esp8266_socket.c **** 
 344:ZumoLibrary/esp8266_socket.c **** void stInit(smi *ctx, const event *e)
 345:ZumoLibrary/esp8266_socket.c **** {
 346:ZumoLibrary/esp8266_socket.c **** 	switch(e->ev) {
ARM GAS  C:\Users\samue\AppData\Local\Temp\ccJDNHzo.s 			page 9


 347:ZumoLibrary/esp8266_socket.c **** 	case eEnter:
 348:ZumoLibrary/esp8266_socket.c ****         DEBUGP("stInit\n");
 349:ZumoLibrary/esp8266_socket.c ****         sm_flush(ctx);
 350:ZumoLibrary/esp8266_socket.c ****         init_counters(ctx);
 351:ZumoLibrary/esp8266_socket.c ****         serial_write_str(ctx, "AT\r\n");
 352:ZumoLibrary/esp8266_socket.c **** 		break;
 353:ZumoLibrary/esp8266_socket.c **** 	case eExit:
 354:ZumoLibrary/esp8266_socket.c **** 		break;
 355:ZumoLibrary/esp8266_socket.c **** 	case eTick:
 356:ZumoLibrary/esp8266_socket.c ****         ++ctx->timer;
 357:ZumoLibrary/esp8266_socket.c ****         //if(ctx->timer == 5) DEBUGP("[%s]", ctx->buffer);
 358:ZumoLibrary/esp8266_socket.c ****         if(ctx->timer >= 10) {
 359:ZumoLibrary/esp8266_socket.c ****             ctx->timer = 0;
 360:ZumoLibrary/esp8266_socket.c ****             ++ctx->count;
 361:ZumoLibrary/esp8266_socket.c ****             if(ctx->count < 5) {
 362:ZumoLibrary/esp8266_socket.c ****                 serial_write_str(ctx, "AT\r\n");
 363:ZumoLibrary/esp8266_socket.c ****             }
 364:ZumoLibrary/esp8266_socket.c ****             else {
 365:ZumoLibrary/esp8266_socket.c ****                 DEBUGP("Error: Module not responding\n");
 366:ZumoLibrary/esp8266_socket.c ****                 TRAN(stAT);
 367:ZumoLibrary/esp8266_socket.c ****             }
 368:ZumoLibrary/esp8266_socket.c ****         }
 369:ZumoLibrary/esp8266_socket.c **** 		break;
 370:ZumoLibrary/esp8266_socket.c ****     case eReceive:
 371:ZumoLibrary/esp8266_socket.c ****         if(sm_wait_for(ctx, "OK\r\n")) {
 372:ZumoLibrary/esp8266_socket.c ****             TRAN(stEchoOff);
 373:ZumoLibrary/esp8266_socket.c ****         }
 374:ZumoLibrary/esp8266_socket.c ****         break;
 375:ZumoLibrary/esp8266_socket.c **** 	default:
 376:ZumoLibrary/esp8266_socket.c **** 		break;
 377:ZumoLibrary/esp8266_socket.c **** 	}
 378:ZumoLibrary/esp8266_socket.c **** }
 379:ZumoLibrary/esp8266_socket.c **** 
 380:ZumoLibrary/esp8266_socket.c **** void stAT(smi *ctx, const event *e)
 381:ZumoLibrary/esp8266_socket.c **** {
 382:ZumoLibrary/esp8266_socket.c **** 	switch(e->ev) {
 383:ZumoLibrary/esp8266_socket.c **** 	case eEnter:
 384:ZumoLibrary/esp8266_socket.c ****         DEBUGP("stAT\n");
 385:ZumoLibrary/esp8266_socket.c ****         init_counters(ctx);
 386:ZumoLibrary/esp8266_socket.c **** 		break;
 387:ZumoLibrary/esp8266_socket.c **** 	case eExit:
 388:ZumoLibrary/esp8266_socket.c **** 		break;
 389:ZumoLibrary/esp8266_socket.c **** 	case eTick:
 390:ZumoLibrary/esp8266_socket.c ****         ++ctx->timer;
 391:ZumoLibrary/esp8266_socket.c ****         if(ctx->timer == 10) serial_write_str(ctx, "+++");
 392:ZumoLibrary/esp8266_socket.c ****         if(ctx->timer == 25) TRAN(stInit);
 393:ZumoLibrary/esp8266_socket.c **** 		break;
 394:ZumoLibrary/esp8266_socket.c ****     case eReceive:
 395:ZumoLibrary/esp8266_socket.c ****         break;
 396:ZumoLibrary/esp8266_socket.c **** 	default:
 397:ZumoLibrary/esp8266_socket.c **** 		break;
 398:ZumoLibrary/esp8266_socket.c **** 	}
 399:ZumoLibrary/esp8266_socket.c **** }
 400:ZumoLibrary/esp8266_socket.c **** 
 401:ZumoLibrary/esp8266_socket.c **** void stEchoOff(smi *ctx, const event *e)
 402:ZumoLibrary/esp8266_socket.c **** {
 403:ZumoLibrary/esp8266_socket.c **** 	switch(e->ev) {
ARM GAS  C:\Users\samue\AppData\Local\Temp\ccJDNHzo.s 			page 10


 404:ZumoLibrary/esp8266_socket.c **** 	case eEnter:
 405:ZumoLibrary/esp8266_socket.c ****         DEBUGP("stEchoOff\n");
 406:ZumoLibrary/esp8266_socket.c ****         sm_flush(ctx);
 407:ZumoLibrary/esp8266_socket.c ****         init_counters(ctx);
 408:ZumoLibrary/esp8266_socket.c ****         serial_write_str(ctx, "ATE0\r\n");
 409:ZumoLibrary/esp8266_socket.c **** 		break;
 410:ZumoLibrary/esp8266_socket.c **** 	case eExit:
 411:ZumoLibrary/esp8266_socket.c **** 		break;
 412:ZumoLibrary/esp8266_socket.c **** 	case eTick:
 413:ZumoLibrary/esp8266_socket.c ****         ++ctx->timer;
 414:ZumoLibrary/esp8266_socket.c ****         if(ctx->timer >= 10) {
 415:ZumoLibrary/esp8266_socket.c ****             ++ctx->count;
 416:ZumoLibrary/esp8266_socket.c ****             if(ctx->count < 3) {
 417:ZumoLibrary/esp8266_socket.c ****                 serial_write_str(ctx, "ATE0\r\n");
 418:ZumoLibrary/esp8266_socket.c ****             }
 419:ZumoLibrary/esp8266_socket.c ****             else {
 420:ZumoLibrary/esp8266_socket.c ****                 DEBUGP("Error: setting local echo off failed\n");
 421:ZumoLibrary/esp8266_socket.c ****                 TRAN(stInit);
 422:ZumoLibrary/esp8266_socket.c ****             }
 423:ZumoLibrary/esp8266_socket.c ****         }
 424:ZumoLibrary/esp8266_socket.c **** 		break;
 425:ZumoLibrary/esp8266_socket.c ****     case eReceive:
 426:ZumoLibrary/esp8266_socket.c ****         if(sm_wait_for(ctx, "OK\r\n")) {
 427:ZumoLibrary/esp8266_socket.c ****             TRAN(stStationModeCheck);
 428:ZumoLibrary/esp8266_socket.c ****         }
 429:ZumoLibrary/esp8266_socket.c ****         break;
 430:ZumoLibrary/esp8266_socket.c **** 	default:
 431:ZumoLibrary/esp8266_socket.c **** 		break;
 432:ZumoLibrary/esp8266_socket.c **** 	}
 433:ZumoLibrary/esp8266_socket.c **** }
 434:ZumoLibrary/esp8266_socket.c **** 
 435:ZumoLibrary/esp8266_socket.c **** 
 436:ZumoLibrary/esp8266_socket.c **** void stStationModeCheck(smi *ctx, const event *e)
 437:ZumoLibrary/esp8266_socket.c **** {
 438:ZumoLibrary/esp8266_socket.c ****     int rc = -1;
 439:ZumoLibrary/esp8266_socket.c **** 	switch(e->ev) {
 440:ZumoLibrary/esp8266_socket.c **** 	case eEnter:
 441:ZumoLibrary/esp8266_socket.c ****         DEBUGP("stStationModeCheck\n");
 442:ZumoLibrary/esp8266_socket.c ****         init_counters(ctx);
 443:ZumoLibrary/esp8266_socket.c ****         serial_write_str(ctx, "AT+CWMODE_CUR?\r\n");
 444:ZumoLibrary/esp8266_socket.c **** 		break;
 445:ZumoLibrary/esp8266_socket.c **** 	case eExit:
 446:ZumoLibrary/esp8266_socket.c **** 		break;
 447:ZumoLibrary/esp8266_socket.c **** 	case eTick:
 448:ZumoLibrary/esp8266_socket.c **** 		break;
 449:ZumoLibrary/esp8266_socket.c ****     case eReceive:
 450:ZumoLibrary/esp8266_socket.c ****         rc = sm_read_result(ctx);
 451:ZumoLibrary/esp8266_socket.c ****         if(rc == RC_OK) {
 452:ZumoLibrary/esp8266_socket.c ****             DEBUGP("%d: %s", rc, ctx->buffer);
 453:ZumoLibrary/esp8266_socket.c ****             if(strstr(ctx->buffer, "+CWMODE_CUR:1\r\n") != NULL) {
 454:ZumoLibrary/esp8266_socket.c ****                 TRAN(stConnectAP);
 455:ZumoLibrary/esp8266_socket.c ****             }
 456:ZumoLibrary/esp8266_socket.c ****             else {
 457:ZumoLibrary/esp8266_socket.c ****                 TRAN(stStationModeSet);
 458:ZumoLibrary/esp8266_socket.c ****             }
 459:ZumoLibrary/esp8266_socket.c ****         }
 460:ZumoLibrary/esp8266_socket.c ****         else if(rc == RC_ERROR) {
ARM GAS  C:\Users\samue\AppData\Local\Temp\ccJDNHzo.s 			page 11


 461:ZumoLibrary/esp8266_socket.c ****         }
 462:ZumoLibrary/esp8266_socket.c ****         break;
 463:ZumoLibrary/esp8266_socket.c **** 	default:
 464:ZumoLibrary/esp8266_socket.c **** 		break;
 465:ZumoLibrary/esp8266_socket.c **** 	}
 466:ZumoLibrary/esp8266_socket.c **** }
 467:ZumoLibrary/esp8266_socket.c **** 
 468:ZumoLibrary/esp8266_socket.c **** 
 469:ZumoLibrary/esp8266_socket.c **** void stStationModeSet(smi *ctx, const event *e)
 470:ZumoLibrary/esp8266_socket.c **** {
 471:ZumoLibrary/esp8266_socket.c **** 	switch(e->ev) {
 472:ZumoLibrary/esp8266_socket.c **** 	case eEnter:
 473:ZumoLibrary/esp8266_socket.c ****         DEBUGP("stStationModeSet\n");
 474:ZumoLibrary/esp8266_socket.c ****         init_counters(ctx);
 475:ZumoLibrary/esp8266_socket.c ****         serial_write_str(ctx, "AT+CWMODE_CUR=1\r\n");
 476:ZumoLibrary/esp8266_socket.c **** 		break;
 477:ZumoLibrary/esp8266_socket.c **** 	case eExit:
 478:ZumoLibrary/esp8266_socket.c **** 		break;
 479:ZumoLibrary/esp8266_socket.c **** 	case eTick:
 480:ZumoLibrary/esp8266_socket.c **** 		break;
 481:ZumoLibrary/esp8266_socket.c ****     case eReceive:
 482:ZumoLibrary/esp8266_socket.c ****         if(sm_wait_for(ctx, "OK\r\n")) {
 483:ZumoLibrary/esp8266_socket.c ****             TRAN(stStationModeCheck);
 484:ZumoLibrary/esp8266_socket.c ****         }
 485:ZumoLibrary/esp8266_socket.c ****         break;
 486:ZumoLibrary/esp8266_socket.c **** 	default:
 487:ZumoLibrary/esp8266_socket.c **** 		break;
 488:ZumoLibrary/esp8266_socket.c **** 	}
 489:ZumoLibrary/esp8266_socket.c **** }
 490:ZumoLibrary/esp8266_socket.c **** 
 491:ZumoLibrary/esp8266_socket.c **** static void connect_ssid(smi *ctx) 
 492:ZumoLibrary/esp8266_socket.c **** {
 493:ZumoLibrary/esp8266_socket.c ****     serial_write_str(ctx, "AT+CWJAP_CUR=\"");
 494:ZumoLibrary/esp8266_socket.c ****     serial_write_str(ctx, ctx->ssid);
 495:ZumoLibrary/esp8266_socket.c ****     serial_write_str(ctx, "\",\"");
 496:ZumoLibrary/esp8266_socket.c ****     serial_write_str(ctx, ctx->pwd);
 497:ZumoLibrary/esp8266_socket.c ****     serial_write_str(ctx, "\"\r\n");
 498:ZumoLibrary/esp8266_socket.c **** }
 499:ZumoLibrary/esp8266_socket.c **** 
 500:ZumoLibrary/esp8266_socket.c **** void stConnectAP(smi *ctx, const event *e)
 501:ZumoLibrary/esp8266_socket.c **** {
 502:ZumoLibrary/esp8266_socket.c ****     int rc;
 503:ZumoLibrary/esp8266_socket.c **** 	switch(e->ev) {
 504:ZumoLibrary/esp8266_socket.c **** 	case eEnter:
 505:ZumoLibrary/esp8266_socket.c ****         DEBUGP("stConnectAP\n");
 506:ZumoLibrary/esp8266_socket.c ****         init_counters(ctx);
 507:ZumoLibrary/esp8266_socket.c **** 		break;
 508:ZumoLibrary/esp8266_socket.c **** 	case eExit:
 509:ZumoLibrary/esp8266_socket.c **** 		break;
 510:ZumoLibrary/esp8266_socket.c **** 	case eTick:
 511:ZumoLibrary/esp8266_socket.c ****         // may take upto 7 seconds. do we need a timeout?
 512:ZumoLibrary/esp8266_socket.c ****         ++ctx->timer;
 513:ZumoLibrary/esp8266_socket.c ****         if(ctx->timer == 1) {
 514:ZumoLibrary/esp8266_socket.c ****             connect_ssid(ctx);
 515:ZumoLibrary/esp8266_socket.c ****         }
 516:ZumoLibrary/esp8266_socket.c ****         if(ctx->timer >= 70) {
 517:ZumoLibrary/esp8266_socket.c ****             ctx->timer = 0;
ARM GAS  C:\Users\samue\AppData\Local\Temp\ccJDNHzo.s 			page 12


 518:ZumoLibrary/esp8266_socket.c ****         }
 519:ZumoLibrary/esp8266_socket.c **** 		break;
 520:ZumoLibrary/esp8266_socket.c ****     case eReceive:
 521:ZumoLibrary/esp8266_socket.c ****         rc = sm_read_result(ctx);
 522:ZumoLibrary/esp8266_socket.c ****         if(rc == RC_OK) {
 523:ZumoLibrary/esp8266_socket.c ****             //DEBUGP("%d: %s", rc, ctx->buffer);
 524:ZumoLibrary/esp8266_socket.c ****             TRAN(stReady);
 525:ZumoLibrary/esp8266_socket.c ****         }
 526:ZumoLibrary/esp8266_socket.c ****         else if(rc == RC_ERROR) {
 527:ZumoLibrary/esp8266_socket.c ****             // failed: what to do now?
 528:ZumoLibrary/esp8266_socket.c ****         }
 529:ZumoLibrary/esp8266_socket.c ****         break;
 530:ZumoLibrary/esp8266_socket.c **** 	default:
 531:ZumoLibrary/esp8266_socket.c **** 		break;
 532:ZumoLibrary/esp8266_socket.c **** 	}
 533:ZumoLibrary/esp8266_socket.c **** }
 534:ZumoLibrary/esp8266_socket.c **** 
 535:ZumoLibrary/esp8266_socket.c **** 
 536:ZumoLibrary/esp8266_socket.c **** void stReady(smi *ctx, const event *e)
 537:ZumoLibrary/esp8266_socket.c **** {
 538:ZumoLibrary/esp8266_socket.c **** 	switch(e->ev) {
 539:ZumoLibrary/esp8266_socket.c **** 	case eEnter:
 540:ZumoLibrary/esp8266_socket.c ****         DEBUGP("stReady\n");
 541:ZumoLibrary/esp8266_socket.c ****         init_counters(ctx);
 542:ZumoLibrary/esp8266_socket.c **** 		break;
 543:ZumoLibrary/esp8266_socket.c **** 	case eExit:
 544:ZumoLibrary/esp8266_socket.c **** 		break;
 545:ZumoLibrary/esp8266_socket.c **** 	case eTick:
 546:ZumoLibrary/esp8266_socket.c **** #if 0        
 547:ZumoLibrary/esp8266_socket.c ****         ++ctx->timer;
 548:ZumoLibrary/esp8266_socket.c ****         if(ctx->timer == 25) {
 549:ZumoLibrary/esp8266_socket.c ****             DEBUGP("Connecting...\n");
 550:ZumoLibrary/esp8266_socket.c ****             TRAN(stConnectTCP);
 551:ZumoLibrary/esp8266_socket.c ****         }
 552:ZumoLibrary/esp8266_socket.c **** #endif        
 553:ZumoLibrary/esp8266_socket.c **** 		break;
 554:ZumoLibrary/esp8266_socket.c ****     case eReceive:
 555:ZumoLibrary/esp8266_socket.c ****         break;
 556:ZumoLibrary/esp8266_socket.c ****     case eConnect:
 557:ZumoLibrary/esp8266_socket.c ****         TRAN(stConnectTCP);
 558:ZumoLibrary/esp8266_socket.c ****         break;
 559:ZumoLibrary/esp8266_socket.c **** 	default:
 560:ZumoLibrary/esp8266_socket.c **** 		break;
 561:ZumoLibrary/esp8266_socket.c **** 	}
 562:ZumoLibrary/esp8266_socket.c ****     
 563:ZumoLibrary/esp8266_socket.c **** }
 564:ZumoLibrary/esp8266_socket.c **** 
 565:ZumoLibrary/esp8266_socket.c **** 
 566:ZumoLibrary/esp8266_socket.c **** 
 567:ZumoLibrary/esp8266_socket.c **** static void connect_tcp(smi *ctx) 
 568:ZumoLibrary/esp8266_socket.c **** {
 569:ZumoLibrary/esp8266_socket.c ****     serial_write_str(ctx, "AT+CIPSTART=\"TCP\",\"");
 570:ZumoLibrary/esp8266_socket.c ****     serial_write_str(ctx, ctx->sa_data);
 571:ZumoLibrary/esp8266_socket.c ****     serial_write_str(ctx, "\",");
 572:ZumoLibrary/esp8266_socket.c ****     serial_write_str(ctx, ctx->sa_port);
 573:ZumoLibrary/esp8266_socket.c ****     serial_write_str(ctx, "\r\n");
 574:ZumoLibrary/esp8266_socket.c **** }
ARM GAS  C:\Users\samue\AppData\Local\Temp\ccJDNHzo.s 			page 13


 575:ZumoLibrary/esp8266_socket.c **** 
 576:ZumoLibrary/esp8266_socket.c **** void stConnectTCP(smi *ctx, const event *e)
 577:ZumoLibrary/esp8266_socket.c **** {
 578:ZumoLibrary/esp8266_socket.c ****     int rc;
 579:ZumoLibrary/esp8266_socket.c **** 	switch(e->ev) {
 580:ZumoLibrary/esp8266_socket.c **** 	case eEnter:
 581:ZumoLibrary/esp8266_socket.c ****         DEBUGP("stConnectTCP\n");
 582:ZumoLibrary/esp8266_socket.c ****         init_counters(ctx);
 583:ZumoLibrary/esp8266_socket.c ****         connect_tcp(ctx);
 584:ZumoLibrary/esp8266_socket.c **** 		break;
 585:ZumoLibrary/esp8266_socket.c **** 	case eExit:
 586:ZumoLibrary/esp8266_socket.c **** 		break;
 587:ZumoLibrary/esp8266_socket.c **** 	case eTick:
 588:ZumoLibrary/esp8266_socket.c **** 		break;
 589:ZumoLibrary/esp8266_socket.c ****     case eReceive:
 590:ZumoLibrary/esp8266_socket.c ****         rc = sm_read_result(ctx);
 591:ZumoLibrary/esp8266_socket.c ****         if(rc == RC_OK) {
 592:ZumoLibrary/esp8266_socket.c ****             //DEBUGP("%d: %s", rc, ctx->buffer);
 593:ZumoLibrary/esp8266_socket.c ****             if(strstr(ctx->buffer, "CONNECT\r\n") != NULL) {
 594:ZumoLibrary/esp8266_socket.c ****                 TRAN(stPassthrough);
 595:ZumoLibrary/esp8266_socket.c ****             }
 596:ZumoLibrary/esp8266_socket.c ****             else {
 597:ZumoLibrary/esp8266_socket.c ****                 // what else can we get with OK??
 598:ZumoLibrary/esp8266_socket.c ****             }
 599:ZumoLibrary/esp8266_socket.c ****         }
 600:ZumoLibrary/esp8266_socket.c ****         else if(rc == RC_ERROR) {
 601:ZumoLibrary/esp8266_socket.c ****             // failed: what to do now?
 602:ZumoLibrary/esp8266_socket.c ****             DEBUGP("Connect failed\n");
 603:ZumoLibrary/esp8266_socket.c ****             connect_tcp(ctx);
 604:ZumoLibrary/esp8266_socket.c ****         }
 605:ZumoLibrary/esp8266_socket.c ****         break;
 606:ZumoLibrary/esp8266_socket.c **** 	default:
 607:ZumoLibrary/esp8266_socket.c **** 		break;
 608:ZumoLibrary/esp8266_socket.c **** 	}
 609:ZumoLibrary/esp8266_socket.c **** }
 610:ZumoLibrary/esp8266_socket.c **** 
 611:ZumoLibrary/esp8266_socket.c **** 
 612:ZumoLibrary/esp8266_socket.c **** void stPassthrough(smi *ctx, const event *e)
 613:ZumoLibrary/esp8266_socket.c **** {
 614:ZumoLibrary/esp8266_socket.c ****     int rc;
 615:ZumoLibrary/esp8266_socket.c **** 	switch(e->ev) {
 616:ZumoLibrary/esp8266_socket.c **** 	case eEnter:
 617:ZumoLibrary/esp8266_socket.c ****         DEBUGP("stPassthrough\n");
 618:ZumoLibrary/esp8266_socket.c ****         init_counters(ctx);
 619:ZumoLibrary/esp8266_socket.c ****         serial_write_str(ctx, "AT+CIPMODE=1\r\n");
 620:ZumoLibrary/esp8266_socket.c **** 		break;
 621:ZumoLibrary/esp8266_socket.c **** 	case eExit:
 622:ZumoLibrary/esp8266_socket.c **** 		break;
 623:ZumoLibrary/esp8266_socket.c **** 	case eTick:
 624:ZumoLibrary/esp8266_socket.c **** 		break;
 625:ZumoLibrary/esp8266_socket.c ****     case eReceive:
 626:ZumoLibrary/esp8266_socket.c ****         rc = sm_read_result(ctx);
 627:ZumoLibrary/esp8266_socket.c ****         if(rc == RC_OK) {
 628:ZumoLibrary/esp8266_socket.c ****             TRAN(stPassthroughOK);
 629:ZumoLibrary/esp8266_socket.c ****         }
 630:ZumoLibrary/esp8266_socket.c ****         else if(rc == RC_ERROR) {
 631:ZumoLibrary/esp8266_socket.c ****             // failed: what to do now?
ARM GAS  C:\Users\samue\AppData\Local\Temp\ccJDNHzo.s 			page 14


 632:ZumoLibrary/esp8266_socket.c ****         }
 633:ZumoLibrary/esp8266_socket.c ****         break;
 634:ZumoLibrary/esp8266_socket.c **** 	default:
 635:ZumoLibrary/esp8266_socket.c **** 		break;
 636:ZumoLibrary/esp8266_socket.c **** 	}
 637:ZumoLibrary/esp8266_socket.c ****     
 638:ZumoLibrary/esp8266_socket.c **** }
 639:ZumoLibrary/esp8266_socket.c **** 
 640:ZumoLibrary/esp8266_socket.c **** void stPassthroughOK(smi *ctx, const event *e)
 641:ZumoLibrary/esp8266_socket.c **** {
 642:ZumoLibrary/esp8266_socket.c **** 	switch(e->ev) {
 643:ZumoLibrary/esp8266_socket.c **** 	case eEnter:
 644:ZumoLibrary/esp8266_socket.c ****         DEBUGP("stPassthroughOK\n");
 645:ZumoLibrary/esp8266_socket.c ****         init_counters(ctx);
 646:ZumoLibrary/esp8266_socket.c ****         serial_write_str(ctx, "AT+CIPSEND\r\n");
 647:ZumoLibrary/esp8266_socket.c **** 		break;
 648:ZumoLibrary/esp8266_socket.c **** 	case eExit:
 649:ZumoLibrary/esp8266_socket.c **** 		break;
 650:ZumoLibrary/esp8266_socket.c **** 	case eTick:
 651:ZumoLibrary/esp8266_socket.c **** 		break;
 652:ZumoLibrary/esp8266_socket.c ****     case eReceive:
 653:ZumoLibrary/esp8266_socket.c ****         if(sm_wait_for(ctx, ">")) {
 654:ZumoLibrary/esp8266_socket.c ****             TRAN(stConnected);
 655:ZumoLibrary/esp8266_socket.c ****         }
 656:ZumoLibrary/esp8266_socket.c ****         break;
 657:ZumoLibrary/esp8266_socket.c **** 	default:
 658:ZumoLibrary/esp8266_socket.c **** 		break;
 659:ZumoLibrary/esp8266_socket.c **** 	}
 660:ZumoLibrary/esp8266_socket.c ****     
 661:ZumoLibrary/esp8266_socket.c **** }
 662:ZumoLibrary/esp8266_socket.c **** 
 663:ZumoLibrary/esp8266_socket.c **** #if 1
 664:ZumoLibrary/esp8266_socket.c **** void stConnected(smi *ctx, const event *e)
 665:ZumoLibrary/esp8266_socket.c **** {
 666:ZumoLibrary/esp8266_socket.c **** 	switch(e->ev) {
 667:ZumoLibrary/esp8266_socket.c **** 	case eEnter:
 668:ZumoLibrary/esp8266_socket.c ****         DEBUGP("stConnected\n");
 669:ZumoLibrary/esp8266_socket.c ****         init_counters(ctx);
 670:ZumoLibrary/esp8266_socket.c ****         xSemaphoreGive(ctx->Access);
 671:ZumoLibrary/esp8266_socket.c ****         break;
 672:ZumoLibrary/esp8266_socket.c **** 	case eExit:
 673:ZumoLibrary/esp8266_socket.c ****         xSemaphoreTake(ctx->Access, portMAX_DELAY);
 674:ZumoLibrary/esp8266_socket.c **** 		break;
 675:ZumoLibrary/esp8266_socket.c **** 	case eTick:
 676:ZumoLibrary/esp8266_socket.c **** #if 0        
 677:ZumoLibrary/esp8266_socket.c ****         ++ctx->timer;
 678:ZumoLibrary/esp8266_socket.c ****         if(ctx->timer == 50) {
 679:ZumoLibrary/esp8266_socket.c ****             DEBUGP("Count: %d\n", ctx->count);
 680:ZumoLibrary/esp8266_socket.c ****             ctx->count = 0;
 681:ZumoLibrary/esp8266_socket.c ****             serial_write_str(ctx, "get\r\n");
 682:ZumoLibrary/esp8266_socket.c ****         }
 683:ZumoLibrary/esp8266_socket.c ****         if(ctx->timer > 50)  {
 684:ZumoLibrary/esp8266_socket.c ****             ctx->timer = 0;
 685:ZumoLibrary/esp8266_socket.c ****         }
 686:ZumoLibrary/esp8266_socket.c **** #endif        
 687:ZumoLibrary/esp8266_socket.c **** 		break;
 688:ZumoLibrary/esp8266_socket.c ****     case eReceive:
ARM GAS  C:\Users\samue\AppData\Local\Temp\ccJDNHzo.s 			page 15


 689:ZumoLibrary/esp8266_socket.c **** #if 0
 690:ZumoLibrary/esp8266_socket.c ****         ++ctx->count;
 691:ZumoLibrary/esp8266_socket.c ****         ctx->pos = 0;
 692:ZumoLibrary/esp8266_socket.c ****         while(ctx->pos < SMI_BUFSIZE - 1 && serial_get(ctx, ctx->buffer + ctx->pos)) {
 693:ZumoLibrary/esp8266_socket.c ****             ++ctx->pos;
 694:ZumoLibrary/esp8266_socket.c ****         }
 695:ZumoLibrary/esp8266_socket.c ****         if(ctx->pos > 0) {
 696:ZumoLibrary/esp8266_socket.c ****             ctx->buffer[ctx->pos] = '\0';
 697:ZumoLibrary/esp8266_socket.c ****             DEBUGP("%s", ctx->buffer);
 698:ZumoLibrary/esp8266_socket.c ****         }
 699:ZumoLibrary/esp8266_socket.c **** #endif        
 700:ZumoLibrary/esp8266_socket.c ****         break;
 701:ZumoLibrary/esp8266_socket.c ****     case eDisconnect:
 702:ZumoLibrary/esp8266_socket.c ****         TRAN(stCommandMode);
 703:ZumoLibrary/esp8266_socket.c ****         break;
 704:ZumoLibrary/esp8266_socket.c **** 	default:
 705:ZumoLibrary/esp8266_socket.c **** 		break;
 706:ZumoLibrary/esp8266_socket.c **** 	}
 707:ZumoLibrary/esp8266_socket.c ****     
 708:ZumoLibrary/esp8266_socket.c **** }
 709:ZumoLibrary/esp8266_socket.c **** 
 710:ZumoLibrary/esp8266_socket.c **** void stCommandMode(smi *ctx, const event *e)
 711:ZumoLibrary/esp8266_socket.c **** {
 712:ZumoLibrary/esp8266_socket.c **** 	switch(e->ev) {
 713:ZumoLibrary/esp8266_socket.c **** 	case eEnter:
 714:ZumoLibrary/esp8266_socket.c ****         DEBUGP("stCommandMode\n");
 715:ZumoLibrary/esp8266_socket.c ****         init_counters(ctx);
 716:ZumoLibrary/esp8266_socket.c **** 		break;
 717:ZumoLibrary/esp8266_socket.c **** 	case eExit:
 718:ZumoLibrary/esp8266_socket.c **** 		break;
 719:ZumoLibrary/esp8266_socket.c **** 	case eTick:
 720:ZumoLibrary/esp8266_socket.c ****         ++ctx->timer;
 721:ZumoLibrary/esp8266_socket.c ****         if(ctx->timer == 10) serial_write_str(ctx, "+++");
 722:ZumoLibrary/esp8266_socket.c ****         if(ctx->timer == 25) TRAN(stCloseTCP);
 723:ZumoLibrary/esp8266_socket.c **** 		break;
 724:ZumoLibrary/esp8266_socket.c ****     case eReceive:
 725:ZumoLibrary/esp8266_socket.c ****         break;
 726:ZumoLibrary/esp8266_socket.c **** 	default:
 727:ZumoLibrary/esp8266_socket.c **** 		break;
 728:ZumoLibrary/esp8266_socket.c **** 	}
 729:ZumoLibrary/esp8266_socket.c **** }
 730:ZumoLibrary/esp8266_socket.c **** 
 731:ZumoLibrary/esp8266_socket.c **** 
 732:ZumoLibrary/esp8266_socket.c **** void stCloseTCP(smi *ctx, const event *e)
 733:ZumoLibrary/esp8266_socket.c **** {
 734:ZumoLibrary/esp8266_socket.c ****     int rc = -1;
 735:ZumoLibrary/esp8266_socket.c **** 	switch(e->ev) {
 736:ZumoLibrary/esp8266_socket.c **** 	case eEnter:
 737:ZumoLibrary/esp8266_socket.c ****         DEBUGP("stCloseTCP\n");
 738:ZumoLibrary/esp8266_socket.c ****         init_counters(ctx);
 739:ZumoLibrary/esp8266_socket.c ****         serial_write_str(ctx, "AT+CIPMODE=0\r\n");;
 740:ZumoLibrary/esp8266_socket.c ****         break;
 741:ZumoLibrary/esp8266_socket.c **** 	case eReceive:
 742:ZumoLibrary/esp8266_socket.c ****         rc = sm_read_result(ctx);
 743:ZumoLibrary/esp8266_socket.c ****         if(rc == RC_OK) {
 744:ZumoLibrary/esp8266_socket.c ****             if(strstr(ctx->buffer, "CLOSED") != NULL) {
 745:ZumoLibrary/esp8266_socket.c ****                 TRAN(stReady);
ARM GAS  C:\Users\samue\AppData\Local\Temp\ccJDNHzo.s 			page 16


 746:ZumoLibrary/esp8266_socket.c ****             }
 747:ZumoLibrary/esp8266_socket.c ****             else {
 748:ZumoLibrary/esp8266_socket.c ****                 init_counters(ctx);
 749:ZumoLibrary/esp8266_socket.c ****                 serial_write_str(ctx, "AT+CIPCLOSE\r\n");;
 750:ZumoLibrary/esp8266_socket.c ****             }
 751:ZumoLibrary/esp8266_socket.c ****         }
 752:ZumoLibrary/esp8266_socket.c ****         else if(rc == RC_ERROR) {
 753:ZumoLibrary/esp8266_socket.c ****         }
 754:ZumoLibrary/esp8266_socket.c **** 		break;
 755:ZumoLibrary/esp8266_socket.c **** 	case eExit:
 756:ZumoLibrary/esp8266_socket.c **** 		break;
 757:ZumoLibrary/esp8266_socket.c **** 	case eTick:
 758:ZumoLibrary/esp8266_socket.c **** 		break;
 759:ZumoLibrary/esp8266_socket.c **** 	default:
 760:ZumoLibrary/esp8266_socket.c **** 		break;
 761:ZumoLibrary/esp8266_socket.c **** 	}
 762:ZumoLibrary/esp8266_socket.c **** }
 763:ZumoLibrary/esp8266_socket.c **** 
 764:ZumoLibrary/esp8266_socket.c **** 
 765:ZumoLibrary/esp8266_socket.c **** 
 766:ZumoLibrary/esp8266_socket.c **** 
 767:ZumoLibrary/esp8266_socket.c **** #else
 768:ZumoLibrary/esp8266_socket.c **** 
 769:ZumoLibrary/esp8266_socket.c **** // todo: enter passthough mode for easier data handling
 770:ZumoLibrary/esp8266_socket.c **** void stConnected(smi *ctx, const event *e)
 771:ZumoLibrary/esp8266_socket.c **** {
 772:ZumoLibrary/esp8266_socket.c **** 	switch(e->ev) {
 773:ZumoLibrary/esp8266_socket.c **** 	case eEnter:
 774:ZumoLibrary/esp8266_socket.c ****         DEBUGP("stConnected\n");
 775:ZumoLibrary/esp8266_socket.c ****         init_counters(ctx);
 776:ZumoLibrary/esp8266_socket.c **** 		break;
 777:ZumoLibrary/esp8266_socket.c **** 	case eExit:
 778:ZumoLibrary/esp8266_socket.c **** 		break;
 779:ZumoLibrary/esp8266_socket.c **** 	case eTick:
 780:ZumoLibrary/esp8266_socket.c ****         ++ctx->timer;
 781:ZumoLibrary/esp8266_socket.c ****         if(ctx->timer == 1) serial_write_str(ctx, "AT+CIPSEND=3\r\n");
 782:ZumoLibrary/esp8266_socket.c ****         if(ctx->timer == 10) serial_write_str(ctx, "get");
 783:ZumoLibrary/esp8266_socket.c ****         if(ctx->timer >= 50)  {
 784:ZumoLibrary/esp8266_socket.c ****             ctx->timer = 0;
 785:ZumoLibrary/esp8266_socket.c ****         }
 786:ZumoLibrary/esp8266_socket.c **** 		break;
 787:ZumoLibrary/esp8266_socket.c ****     case eReceive:
 788:ZumoLibrary/esp8266_socket.c ****         if(sm_wait_for(ctx, "+IPD,")) {
 789:ZumoLibrary/esp8266_socket.c ****             TRAN(stReceiveLength);
 790:ZumoLibrary/esp8266_socket.c ****         }
 791:ZumoLibrary/esp8266_socket.c ****         break;
 792:ZumoLibrary/esp8266_socket.c **** 	default:
 793:ZumoLibrary/esp8266_socket.c **** 		break;
 794:ZumoLibrary/esp8266_socket.c **** 	}
 795:ZumoLibrary/esp8266_socket.c ****     
 796:ZumoLibrary/esp8266_socket.c **** }
 797:ZumoLibrary/esp8266_socket.c **** 
 798:ZumoLibrary/esp8266_socket.c **** void stSend(smi *ctx, const event *e)
 799:ZumoLibrary/esp8266_socket.c **** {
 800:ZumoLibrary/esp8266_socket.c **** 	switch(e->ev) {
 801:ZumoLibrary/esp8266_socket.c **** 	case eEnter:
 802:ZumoLibrary/esp8266_socket.c ****         DEBUGP("stSend\n");
ARM GAS  C:\Users\samue\AppData\Local\Temp\ccJDNHzo.s 			page 17


 803:ZumoLibrary/esp8266_socket.c ****         init_counters(ctx);
 804:ZumoLibrary/esp8266_socket.c ****         //serial_write_str(ctx, "AT+CIPSEND=3\r\n"); // set data length
 805:ZumoLibrary/esp8266_socket.c **** 		break;
 806:ZumoLibrary/esp8266_socket.c **** 	case eExit:
 807:ZumoLibrary/esp8266_socket.c **** 		break;
 808:ZumoLibrary/esp8266_socket.c **** 	case eTick:
 809:ZumoLibrary/esp8266_socket.c **** 		break;
 810:ZumoLibrary/esp8266_socket.c ****     case eReceive:
 811:ZumoLibrary/esp8266_socket.c ****         // wait for OK
 812:ZumoLibrary/esp8266_socket.c ****         // we may possibly receive +IPD ???
 813:ZumoLibrary/esp8266_socket.c ****         if(sm_wait_for(ctx, "OK\r\n")) {
 814:ZumoLibrary/esp8266_socket.c ****             TRAN(stConnectTCP);
 815:ZumoLibrary/esp8266_socket.c ****         }
 816:ZumoLibrary/esp8266_socket.c ****         break;
 817:ZumoLibrary/esp8266_socket.c **** 	default:
 818:ZumoLibrary/esp8266_socket.c **** 		break;
 819:ZumoLibrary/esp8266_socket.c **** 	}
 820:ZumoLibrary/esp8266_socket.c **** }
 821:ZumoLibrary/esp8266_socket.c **** 
 822:ZumoLibrary/esp8266_socket.c **** 
 823:ZumoLibrary/esp8266_socket.c **** 
 824:ZumoLibrary/esp8266_socket.c **** void stReceiveLength(smi *ctx, const event *e)
 825:ZumoLibrary/esp8266_socket.c **** {
 826:ZumoLibrary/esp8266_socket.c **** 	switch(e->ev) {
 827:ZumoLibrary/esp8266_socket.c **** 	case eEnter:
 828:ZumoLibrary/esp8266_socket.c ****         DEBUGP("stReceiveLength\n");
 829:ZumoLibrary/esp8266_socket.c ****         init_counters(ctx);
 830:ZumoLibrary/esp8266_socket.c **** 		break;
 831:ZumoLibrary/esp8266_socket.c **** 	case eExit:
 832:ZumoLibrary/esp8266_socket.c **** 		break;
 833:ZumoLibrary/esp8266_socket.c **** 	case eTick:
 834:ZumoLibrary/esp8266_socket.c **** 		break;
 835:ZumoLibrary/esp8266_socket.c **** 	case eReceive:
 836:ZumoLibrary/esp8266_socket.c ****         if(sm_read_int(ctx, &ctx->count)) {
 837:ZumoLibrary/esp8266_socket.c ****             TRAN(stReceiveData);
 838:ZumoLibrary/esp8266_socket.c ****         }
 839:ZumoLibrary/esp8266_socket.c **** 		break;
 840:ZumoLibrary/esp8266_socket.c **** 	default:
 841:ZumoLibrary/esp8266_socket.c **** 		break;
 842:ZumoLibrary/esp8266_socket.c **** 	}
 843:ZumoLibrary/esp8266_socket.c **** }
 844:ZumoLibrary/esp8266_socket.c **** 
 845:ZumoLibrary/esp8266_socket.c **** 
 846:ZumoLibrary/esp8266_socket.c **** void stReceiveData(smi *ctx, const event *e)
 847:ZumoLibrary/esp8266_socket.c **** {
 848:ZumoLibrary/esp8266_socket.c **** 	switch(e->ev) {
 849:ZumoLibrary/esp8266_socket.c **** 	case eEnter:
 850:ZumoLibrary/esp8266_socket.c ****         DEBUGP("stReceiveData\n");
 851:ZumoLibrary/esp8266_socket.c ****         ctx->pos = 0;
 852:ZumoLibrary/esp8266_socket.c ****         ctx->timer = 0;
 853:ZumoLibrary/esp8266_socket.c ****         // note: count carries data length so it is not zeroed
 854:ZumoLibrary/esp8266_socket.c ****          break;
 855:ZumoLibrary/esp8266_socket.c **** 	case eReceive:
 856:ZumoLibrary/esp8266_socket.c ****         if(sm_read_buffer(ctx, ctx->count)) {
 857:ZumoLibrary/esp8266_socket.c ****             // handle data
 858:ZumoLibrary/esp8266_socket.c ****             ctx->buffer[ctx->pos] = '\0';
 859:ZumoLibrary/esp8266_socket.c ****             DEBUGP("%s", ctx->buffer);
ARM GAS  C:\Users\samue\AppData\Local\Temp\ccJDNHzo.s 			page 18


 860:ZumoLibrary/esp8266_socket.c ****             TRAN(stConnected);
 861:ZumoLibrary/esp8266_socket.c ****         }
 862:ZumoLibrary/esp8266_socket.c **** 		break;
 863:ZumoLibrary/esp8266_socket.c **** 	case eExit:
 864:ZumoLibrary/esp8266_socket.c **** 		break;
 865:ZumoLibrary/esp8266_socket.c **** 	case eTick:
 866:ZumoLibrary/esp8266_socket.c **** 		break;
 867:ZumoLibrary/esp8266_socket.c **** 	default:
 868:ZumoLibrary/esp8266_socket.c **** 		break;
 869:ZumoLibrary/esp8266_socket.c **** 	}
 870:ZumoLibrary/esp8266_socket.c **** }
 871:ZumoLibrary/esp8266_socket.c **** #endif
 872:ZumoLibrary/esp8266_socket.c **** 
 873:ZumoLibrary/esp8266_socket.c **** 
 874:ZumoLibrary/esp8266_socket.c **** static void dispatch_event(smi *ctx, const event *e)
 875:ZumoLibrary/esp8266_socket.c **** {
 109              		.loc 1 875 0
 110              		.cfi_startproc
 111              		@ args = 0, pretend = 0, frame = 0
 112              		@ frame_needed = 0, uses_anonymous_args = 0
 113              	.LVL12:
 114 0000 38B5     		push	{r3, r4, r5, lr}
 115              		.cfi_def_cfa_offset 16
 116              		.cfi_offset 3, -16
 117              		.cfi_offset 4, -12
 118              		.cfi_offset 5, -8
 119              		.cfi_offset 14, -4
 120 0002 0446     		mov	r4, r0
 876:ZumoLibrary/esp8266_socket.c **** 	ctx->state(ctx, e); // dispatch event to current state
 121              		.loc 1 876 0
 122 0004 0368     		ldr	r3, [r0]
 123 0006 9847     		blx	r3
 124              	.LVL13:
 877:ZumoLibrary/esp8266_socket.c **** 	if(ctx->state != ctx->next_state) { // check if state was changed
 125              		.loc 1 877 0
 126 0008 2368     		ldr	r3, [r4]
 127 000a 6268     		ldr	r2, [r4, #4]
 128 000c 9342     		cmp	r3, r2
 129 000e 09D0     		beq	.L9
 878:ZumoLibrary/esp8266_socket.c **** 		ctx->state(ctx, &evExit); // exit old state (cleanup)
 130              		.loc 1 878 0
 131 0010 054D     		ldr	r5, .L12
 132 0012 2946     		mov	r1, r5
 133 0014 2046     		mov	r0, r4
 134 0016 9847     		blx	r3
 135              	.LVL14:
 879:ZumoLibrary/esp8266_socket.c **** 		ctx->state = ctx->next_state; // change state
 136              		.loc 1 879 0
 137 0018 6368     		ldr	r3, [r4, #4]
 138 001a 2360     		str	r3, [r4]
 880:ZumoLibrary/esp8266_socket.c **** 		ctx->state(ctx, &evEnter); // enter new state
 139              		.loc 1 880 0
 140 001c 05F11001 		add	r1, r5, #16
 141 0020 2046     		mov	r0, r4
 142 0022 9847     		blx	r3
 143              	.LVL15:
 144              	.L9:
ARM GAS  C:\Users\samue\AppData\Local\Temp\ccJDNHzo.s 			page 19


 145 0024 38BD     		pop	{r3, r4, r5, pc}
 146              	.LVL16:
 147              	.L13:
 148 0026 00BF     		.align	2
 149              	.L12:
 150 0028 00000000 		.word	.LANCHOR0
 151              		.cfi_endproc
 152              	.LFE102:
 153              		.size	dispatch_event, .-dispatch_event
 154              		.section	.text.connect_ssid,"ax",%progbits
 155              		.align	2
 156              		.thumb
 157              		.thumb_func
 158              		.type	connect_ssid, %function
 159              	connect_ssid:
 160              	.LFB92:
 492:ZumoLibrary/esp8266_socket.c ****     serial_write_str(ctx, "AT+CWJAP_CUR=\"");
 161              		.loc 1 492 0
 162              		.cfi_startproc
 163              		@ args = 0, pretend = 0, frame = 0
 164              		@ frame_needed = 0, uses_anonymous_args = 0
 165              	.LVL17:
 166 0000 38B5     		push	{r3, r4, r5, lr}
 167              		.cfi_def_cfa_offset 16
 168              		.cfi_offset 3, -16
 169              		.cfi_offset 4, -12
 170              		.cfi_offset 5, -8
 171              		.cfi_offset 14, -4
 172 0002 0446     		mov	r4, r0
 173              	.LVL18:
 492:ZumoLibrary/esp8266_socket.c ****     serial_write_str(ctx, "AT+CWJAP_CUR=\"");
 174              		.loc 1 492 0
 175 0004 1F4D     		ldr	r5, .L26
 176 0006 06E0     		b	.L15
 177              	.LVL19:
 178              	.L16:
 179              	.LBB59:
 180              	.LBB60:
 104:ZumoLibrary/esp8266_socket.c ****         //UART_1_PutChar(*s++);
 181              		.loc 1 104 0
 182 0008 0135     		adds	r5, r5, #1
 183              	.LVL20:
 184 000a 4FF0FF32 		mov	r2, #-1
 185 000e 49B2     		sxtb	r1, r1
 186 0010 2069     		ldr	r0, [r4, #16]
 187 0012 FFF7FEFF 		bl	xSerialPutChar
 188              	.LVL21:
 189              	.L15:
 103:ZumoLibrary/esp8266_socket.c ****         xSerialPutChar(ctx->ComPort,*s++,portMAX_DELAY);
 190              		.loc 1 103 0
 191 0016 2978     		ldrb	r1, [r5]	@ zero_extendqisi2
 192 0018 0029     		cmp	r1, #0
 193 001a F5D1     		bne	.L16
 194              	.LVL22:
 195              	.LBE60:
 196              	.LBE59:
 494:ZumoLibrary/esp8266_socket.c ****     serial_write_str(ctx, "\",\"");
ARM GAS  C:\Users\samue\AppData\Local\Temp\ccJDNHzo.s 			page 20


 197              		.loc 1 494 0
 198 001c 04F17005 		add	r5, r4, #112
 199              	.LVL23:
 200 0020 06E0     		b	.L17
 201              	.L18:
 202              	.LBB61:
 203              	.LBB62:
 104:ZumoLibrary/esp8266_socket.c ****         //UART_1_PutChar(*s++);
 204              		.loc 1 104 0
 205 0022 0135     		adds	r5, r5, #1
 206              	.LVL24:
 207 0024 4FF0FF32 		mov	r2, #-1
 208 0028 49B2     		sxtb	r1, r1
 209 002a 2069     		ldr	r0, [r4, #16]
 210 002c FFF7FEFF 		bl	xSerialPutChar
 211              	.LVL25:
 212              	.L17:
 103:ZumoLibrary/esp8266_socket.c ****         xSerialPutChar(ctx->ComPort,*s++,portMAX_DELAY);
 213              		.loc 1 103 0
 214 0030 2978     		ldrb	r1, [r5]	@ zero_extendqisi2
 215 0032 0029     		cmp	r1, #0
 216 0034 F5D1     		bne	.L18
 217 0036 144D     		ldr	r5, .L26+4
 218              	.LVL26:
 219 0038 06E0     		b	.L19
 220              	.LVL27:
 221              	.L20:
 222              	.LBE62:
 223              	.LBE61:
 224              	.LBB63:
 225              	.LBB64:
 104:ZumoLibrary/esp8266_socket.c ****         //UART_1_PutChar(*s++);
 226              		.loc 1 104 0
 227 003a 0135     		adds	r5, r5, #1
 228              	.LVL28:
 229 003c 4FF0FF32 		mov	r2, #-1
 230 0040 49B2     		sxtb	r1, r1
 231 0042 2069     		ldr	r0, [r4, #16]
 232 0044 FFF7FEFF 		bl	xSerialPutChar
 233              	.LVL29:
 234              	.L19:
 103:ZumoLibrary/esp8266_socket.c ****         xSerialPutChar(ctx->ComPort,*s++,portMAX_DELAY);
 235              		.loc 1 103 0
 236 0048 2978     		ldrb	r1, [r5]	@ zero_extendqisi2
 237 004a 0029     		cmp	r1, #0
 238 004c F5D1     		bne	.L20
 239              	.LVL30:
 240              	.LBE64:
 241              	.LBE63:
 496:ZumoLibrary/esp8266_socket.c ****     serial_write_str(ctx, "\"\r\n");
 242              		.loc 1 496 0
 243 004e 04F19005 		add	r5, r4, #144
 244              	.LVL31:
 245 0052 06E0     		b	.L21
 246              	.L22:
 247              	.LBB65:
 248              	.LBB66:
ARM GAS  C:\Users\samue\AppData\Local\Temp\ccJDNHzo.s 			page 21


 104:ZumoLibrary/esp8266_socket.c ****         //UART_1_PutChar(*s++);
 249              		.loc 1 104 0
 250 0054 0135     		adds	r5, r5, #1
 251              	.LVL32:
 252 0056 4FF0FF32 		mov	r2, #-1
 253 005a 49B2     		sxtb	r1, r1
 254 005c 2069     		ldr	r0, [r4, #16]
 255 005e FFF7FEFF 		bl	xSerialPutChar
 256              	.LVL33:
 257              	.L21:
 103:ZumoLibrary/esp8266_socket.c ****         xSerialPutChar(ctx->ComPort,*s++,portMAX_DELAY);
 258              		.loc 1 103 0
 259 0062 2978     		ldrb	r1, [r5]	@ zero_extendqisi2
 260 0064 0029     		cmp	r1, #0
 261 0066 F5D1     		bne	.L22
 262 0068 084D     		ldr	r5, .L26+8
 263              	.LVL34:
 264 006a 06E0     		b	.L23
 265              	.LVL35:
 266              	.L24:
 267              	.LBE66:
 268              	.LBE65:
 269              	.LBB67:
 270              	.LBB68:
 104:ZumoLibrary/esp8266_socket.c ****         //UART_1_PutChar(*s++);
 271              		.loc 1 104 0
 272 006c 0135     		adds	r5, r5, #1
 273              	.LVL36:
 274 006e 4FF0FF32 		mov	r2, #-1
 275 0072 49B2     		sxtb	r1, r1
 276 0074 2069     		ldr	r0, [r4, #16]
 277 0076 FFF7FEFF 		bl	xSerialPutChar
 278              	.LVL37:
 279              	.L23:
 103:ZumoLibrary/esp8266_socket.c ****         xSerialPutChar(ctx->ComPort,*s++,portMAX_DELAY);
 280              		.loc 1 103 0
 281 007a 2978     		ldrb	r1, [r5]	@ zero_extendqisi2
 282 007c 0029     		cmp	r1, #0
 283 007e F5D1     		bne	.L24
 284              	.LBE68:
 285              	.LBE67:
 498:ZumoLibrary/esp8266_socket.c **** 
 286              		.loc 1 498 0
 287 0080 38BD     		pop	{r3, r4, r5, pc}
 288              	.LVL38:
 289              	.L27:
 290 0082 00BF     		.align	2
 291              	.L26:
 292 0084 00000000 		.word	.LC0
 293 0088 10000000 		.word	.LC1
 294 008c 14000000 		.word	.LC2
 295              		.cfi_endproc
 296              	.LFE92:
 297              		.size	connect_ssid, .-connect_ssid
 298              		.section	.text.connect_tcp,"ax",%progbits
 299              		.align	2
 300              		.thumb
ARM GAS  C:\Users\samue\AppData\Local\Temp\ccJDNHzo.s 			page 22


 301              		.thumb_func
 302              		.type	connect_tcp, %function
 303              	connect_tcp:
 304              	.LFB95:
 568:ZumoLibrary/esp8266_socket.c ****     serial_write_str(ctx, "AT+CIPSTART=\"TCP\",\"");
 305              		.loc 1 568 0
 306              		.cfi_startproc
 307              		@ args = 0, pretend = 0, frame = 0
 308              		@ frame_needed = 0, uses_anonymous_args = 0
 309              	.LVL39:
 310 0000 38B5     		push	{r3, r4, r5, lr}
 311              		.cfi_def_cfa_offset 16
 312              		.cfi_offset 3, -16
 313              		.cfi_offset 4, -12
 314              		.cfi_offset 5, -8
 315              		.cfi_offset 14, -4
 316 0002 0446     		mov	r4, r0
 317              	.LVL40:
 568:ZumoLibrary/esp8266_socket.c ****     serial_write_str(ctx, "AT+CIPSTART=\"TCP\",\"");
 318              		.loc 1 568 0
 319 0004 1F4D     		ldr	r5, .L40
 320 0006 06E0     		b	.L29
 321              	.LVL41:
 322              	.L30:
 323              	.LBB69:
 324              	.LBB70:
 104:ZumoLibrary/esp8266_socket.c ****         //UART_1_PutChar(*s++);
 325              		.loc 1 104 0
 326 0008 0135     		adds	r5, r5, #1
 327              	.LVL42:
 328 000a 4FF0FF32 		mov	r2, #-1
 329 000e 49B2     		sxtb	r1, r1
 330 0010 2069     		ldr	r0, [r4, #16]
 331 0012 FFF7FEFF 		bl	xSerialPutChar
 332              	.LVL43:
 333              	.L29:
 103:ZumoLibrary/esp8266_socket.c ****         xSerialPutChar(ctx->ComPort,*s++,portMAX_DELAY);
 334              		.loc 1 103 0
 335 0016 2978     		ldrb	r1, [r5]	@ zero_extendqisi2
 336 0018 0029     		cmp	r1, #0
 337 001a F5D1     		bne	.L30
 338              	.LVL44:
 339              	.LBE70:
 340              	.LBE69:
 570:ZumoLibrary/esp8266_socket.c ****     serial_write_str(ctx, "\",");
 341              		.loc 1 570 0
 342 001c 04F1B005 		add	r5, r4, #176
 343              	.LVL45:
 344 0020 06E0     		b	.L31
 345              	.L32:
 346              	.LBB71:
 347              	.LBB72:
 104:ZumoLibrary/esp8266_socket.c ****         //UART_1_PutChar(*s++);
 348              		.loc 1 104 0
 349 0022 0135     		adds	r5, r5, #1
 350              	.LVL46:
 351 0024 4FF0FF32 		mov	r2, #-1
ARM GAS  C:\Users\samue\AppData\Local\Temp\ccJDNHzo.s 			page 23


 352 0028 49B2     		sxtb	r1, r1
 353 002a 2069     		ldr	r0, [r4, #16]
 354 002c FFF7FEFF 		bl	xSerialPutChar
 355              	.LVL47:
 356              	.L31:
 103:ZumoLibrary/esp8266_socket.c ****         xSerialPutChar(ctx->ComPort,*s++,portMAX_DELAY);
 357              		.loc 1 103 0
 358 0030 2978     		ldrb	r1, [r5]	@ zero_extendqisi2
 359 0032 0029     		cmp	r1, #0
 360 0034 F5D1     		bne	.L32
 361 0036 144D     		ldr	r5, .L40+4
 362              	.LVL48:
 363 0038 06E0     		b	.L33
 364              	.LVL49:
 365              	.L34:
 366              	.LBE72:
 367              	.LBE71:
 368              	.LBB73:
 369              	.LBB74:
 104:ZumoLibrary/esp8266_socket.c ****         //UART_1_PutChar(*s++);
 370              		.loc 1 104 0
 371 003a 0135     		adds	r5, r5, #1
 372              	.LVL50:
 373 003c 4FF0FF32 		mov	r2, #-1
 374 0040 49B2     		sxtb	r1, r1
 375 0042 2069     		ldr	r0, [r4, #16]
 376 0044 FFF7FEFF 		bl	xSerialPutChar
 377              	.LVL51:
 378              	.L33:
 103:ZumoLibrary/esp8266_socket.c ****         xSerialPutChar(ctx->ComPort,*s++,portMAX_DELAY);
 379              		.loc 1 103 0
 380 0048 2978     		ldrb	r1, [r5]	@ zero_extendqisi2
 381 004a 0029     		cmp	r1, #0
 382 004c F5D1     		bne	.L34
 383              	.LVL52:
 384              	.LBE74:
 385              	.LBE73:
 572:ZumoLibrary/esp8266_socket.c ****     serial_write_str(ctx, "\r\n");
 386              		.loc 1 572 0
 387 004e 04F1BE05 		add	r5, r4, #190
 388              	.LVL53:
 389 0052 06E0     		b	.L35
 390              	.L36:
 391              	.LBB75:
 392              	.LBB76:
 104:ZumoLibrary/esp8266_socket.c ****         //UART_1_PutChar(*s++);
 393              		.loc 1 104 0
 394 0054 0135     		adds	r5, r5, #1
 395              	.LVL54:
 396 0056 4FF0FF32 		mov	r2, #-1
 397 005a 49B2     		sxtb	r1, r1
 398 005c 2069     		ldr	r0, [r4, #16]
 399 005e FFF7FEFF 		bl	xSerialPutChar
 400              	.LVL55:
 401              	.L35:
 103:ZumoLibrary/esp8266_socket.c ****         xSerialPutChar(ctx->ComPort,*s++,portMAX_DELAY);
 402              		.loc 1 103 0
ARM GAS  C:\Users\samue\AppData\Local\Temp\ccJDNHzo.s 			page 24


 403 0062 2978     		ldrb	r1, [r5]	@ zero_extendqisi2
 404 0064 0029     		cmp	r1, #0
 405 0066 F5D1     		bne	.L36
 406 0068 084D     		ldr	r5, .L40+8
 407              	.LVL56:
 408 006a 06E0     		b	.L37
 409              	.LVL57:
 410              	.L38:
 411              	.LBE76:
 412              	.LBE75:
 413              	.LBB77:
 414              	.LBB78:
 104:ZumoLibrary/esp8266_socket.c ****         //UART_1_PutChar(*s++);
 415              		.loc 1 104 0
 416 006c 0135     		adds	r5, r5, #1
 417              	.LVL58:
 418 006e 4FF0FF32 		mov	r2, #-1
 419 0072 49B2     		sxtb	r1, r1
 420 0074 2069     		ldr	r0, [r4, #16]
 421 0076 FFF7FEFF 		bl	xSerialPutChar
 422              	.LVL59:
 423              	.L37:
 103:ZumoLibrary/esp8266_socket.c ****         xSerialPutChar(ctx->ComPort,*s++,portMAX_DELAY);
 424              		.loc 1 103 0
 425 007a 2978     		ldrb	r1, [r5]	@ zero_extendqisi2
 426 007c 0029     		cmp	r1, #0
 427 007e F5D1     		bne	.L38
 428              	.LBE78:
 429              	.LBE77:
 574:ZumoLibrary/esp8266_socket.c **** 
 430              		.loc 1 574 0
 431 0080 38BD     		pop	{r3, r4, r5, pc}
 432              	.LVL60:
 433              	.L41:
 434 0082 00BF     		.align	2
 435              	.L40:
 436 0084 18000000 		.word	.LC3
 437 0088 2C000000 		.word	.LC4
 438 008c 30000000 		.word	.LC5
 439              		.cfi_endproc
 440              	.LFE95:
 441              		.size	connect_tcp, .-connect_tcp
 442              		.section	.text.vEspTickTask,"ax",%progbits
 443              		.align	2
 444              		.global	vEspTickTask
 445              		.thumb
 446              		.thumb_func
 447              		.type	vEspTickTask, %function
 448              	vEspTickTask:
 449              	.LFB104:
 881:ZumoLibrary/esp8266_socket.c **** 	}
 882:ZumoLibrary/esp8266_socket.c **** }
 883:ZumoLibrary/esp8266_socket.c **** 
 884:ZumoLibrary/esp8266_socket.c **** 
 885:ZumoLibrary/esp8266_socket.c **** void EspTimerCallback( TimerHandle_t xTimer )
 886:ZumoLibrary/esp8266_socket.c **** {
 887:ZumoLibrary/esp8266_socket.c ****     I_DONT_USE(xTimer);
ARM GAS  C:\Users\samue\AppData\Local\Temp\ccJDNHzo.s 			page 25


 888:ZumoLibrary/esp8266_socket.c **** }
 889:ZumoLibrary/esp8266_socket.c **** 
 890:ZumoLibrary/esp8266_socket.c **** // Perform an action every 100 milliseconds.
 891:ZumoLibrary/esp8266_socket.c **** void vEspTickTask( void * pvParameters )
 892:ZumoLibrary/esp8266_socket.c **** {
 450              		.loc 1 892 0
 451              		.cfi_startproc
 452              		@ args = 0, pretend = 0, frame = 24
 453              		@ frame_needed = 0, uses_anonymous_args = 0
 454              	.LVL61:
 455 0000 10B5     		push	{r4, lr}
 456              		.cfi_def_cfa_offset 8
 457              		.cfi_offset 4, -8
 458              		.cfi_offset 14, -4
 459 0002 86B0     		sub	sp, sp, #24
 460              		.cfi_def_cfa_offset 32
 893:ZumoLibrary/esp8266_socket.c ****     QueueHandle_t eq = ((smi *) pvParameters)->EspEventQ;
 461              		.loc 1 893 0
 462 0004 C468     		ldr	r4, [r0, #12]
 463              	.LVL62:
 894:ZumoLibrary/esp8266_socket.c ****     const event e = { eTick, 0, NULL, NULL };    
 464              		.loc 1 894 0
 465 0006 0223     		movs	r3, #2
 466 0008 8DF80830 		strb	r3, [sp, #8]
 467 000c 0023     		movs	r3, #0
 468 000e 0393     		str	r3, [sp, #12]
 469 0010 0493     		str	r3, [sp, #16]
 470 0012 0593     		str	r3, [sp, #20]
 471              	.LVL63:
 895:ZumoLibrary/esp8266_socket.c ****     TickType_t xLastWakeTime;
 896:ZumoLibrary/esp8266_socket.c ****     const TickType_t xFrequency = configTICK_RATE_HZ / 10;
 897:ZumoLibrary/esp8266_socket.c **** 
 898:ZumoLibrary/esp8266_socket.c ****     // Initialise the xLastWakeTime variable with the current time.
 899:ZumoLibrary/esp8266_socket.c ****     xLastWakeTime = xTaskGetTickCount();
 472              		.loc 1 899 0
 473 0014 FFF7FEFF 		bl	xTaskGetTickCount
 474              	.LVL64:
 475 0018 0190     		str	r0, [sp, #4]
 476              	.L43:
 900:ZumoLibrary/esp8266_socket.c **** 
 901:ZumoLibrary/esp8266_socket.c ****     for( ;; )
 902:ZumoLibrary/esp8266_socket.c ****     {
 903:ZumoLibrary/esp8266_socket.c ****         // Wait for the next cycle.
 904:ZumoLibrary/esp8266_socket.c ****         vTaskDelayUntil( &xLastWakeTime, xFrequency );
 477              		.loc 1 904 0 discriminator 1
 478 001a 6421     		movs	r1, #100
 479 001c 01A8     		add	r0, sp, #4
 480 001e FFF7FEFF 		bl	vTaskDelayUntil
 481              	.LVL65:
 905:ZumoLibrary/esp8266_socket.c **** 
 906:ZumoLibrary/esp8266_socket.c ****         // Perform action here.
 907:ZumoLibrary/esp8266_socket.c ****         xQueueSendToBack(eq, &e, 0);
 482              		.loc 1 907 0 discriminator 1
 483 0022 0023     		movs	r3, #0
 484 0024 1A46     		mov	r2, r3
 485 0026 02A9     		add	r1, sp, #8
 486 0028 2046     		mov	r0, r4
ARM GAS  C:\Users\samue\AppData\Local\Temp\ccJDNHzo.s 			page 26


 487 002a FFF7FEFF 		bl	xQueueGenericSend
 488              	.LVL66:
 489 002e F4E7     		b	.L43
 490              		.cfi_endproc
 491              	.LFE104:
 492              		.size	vEspTickTask, .-vEspTickTask
 493              		.section	.text.vEspEventTask,"ax",%progbits
 494              		.align	2
 495              		.global	vEspEventTask
 496              		.thumb
 497              		.thumb_func
 498              		.type	vEspEventTask, %function
 499              	vEspEventTask:
 500              	.LFB105:
 908:ZumoLibrary/esp8266_socket.c ****     }
 909:ZumoLibrary/esp8266_socket.c **** }
 910:ZumoLibrary/esp8266_socket.c **** 
 911:ZumoLibrary/esp8266_socket.c **** void vEspEventTask(void *pvParameters) {
 501              		.loc 1 911 0
 502              		.cfi_startproc
 503              		@ args = 0, pretend = 0, frame = 16
 504              		@ frame_needed = 0, uses_anonymous_args = 0
 505              	.LVL67:
 506 0000 30B5     		push	{r4, r5, lr}
 507              		.cfi_def_cfa_offset 12
 508              		.cfi_offset 4, -12
 509              		.cfi_offset 5, -8
 510              		.cfi_offset 14, -4
 511 0002 85B0     		sub	sp, sp, #20
 512              		.cfi_def_cfa_offset 32
 912:ZumoLibrary/esp8266_socket.c ****     QueueHandle_t eq = ((smi *) pvParameters)->EspEventQ;
 513              		.loc 1 912 0
 514 0004 C568     		ldr	r5, [r0, #12]
 515              	.LVL68:
 913:ZumoLibrary/esp8266_socket.c ****     xComPortHandle port = ((smi *) pvParameters)->ComPort;
 516              		.loc 1 913 0
 517 0006 0469     		ldr	r4, [r0, #16]
 518              	.LVL69:
 914:ZumoLibrary/esp8266_socket.c ****     // todo: fix serial port stuff
 915:ZumoLibrary/esp8266_socket.c ****     // todo: use direct to task notification instead of binary semaphore??
 916:ZumoLibrary/esp8266_socket.c ****     const event e = { eReceive, 0, NULL, NULL };
 519              		.loc 1 916 0
 520 0008 0323     		movs	r3, #3
 521 000a 8DF80030 		strb	r3, [sp]
 522 000e 0020     		movs	r0, #0
 523              	.LVL70:
 524 0010 0190     		str	r0, [sp, #4]
 525 0012 0290     		str	r0, [sp, #8]
 526 0014 0390     		str	r0, [sp, #12]
 917:ZumoLibrary/esp8266_socket.c ****     
 918:ZumoLibrary/esp8266_socket.c ****     // reset ESP-01
 919:ZumoLibrary/esp8266_socket.c ****     RST_E_Write(0);
 527              		.loc 1 919 0
 528 0016 FFF7FEFF 		bl	RST_E_Write
 529              	.LVL71:
 920:ZumoLibrary/esp8266_socket.c ****     vTaskDelay(20); 
 530              		.loc 1 920 0
ARM GAS  C:\Users\samue\AppData\Local\Temp\ccJDNHzo.s 			page 27


 531 001a 1420     		movs	r0, #20
 532 001c FFF7FEFF 		bl	vTaskDelay
 533              	.LVL72:
 921:ZumoLibrary/esp8266_socket.c ****     RST_E_Write(1);
 534              		.loc 1 921 0
 535 0020 0120     		movs	r0, #1
 536 0022 FFF7FEFF 		bl	RST_E_Write
 537              	.LVL73:
 922:ZumoLibrary/esp8266_socket.c ****     
 923:ZumoLibrary/esp8266_socket.c ****     // todo: proper synchronized start
 924:ZumoLibrary/esp8266_socket.c ****     vTaskDelay(20); 
 538              		.loc 1 924 0
 539 0026 1420     		movs	r0, #20
 540 0028 FFF7FEFF 		bl	vTaskDelay
 541              	.LVL74:
 542              	.L46:
 925:ZumoLibrary/esp8266_socket.c ****     
 926:ZumoLibrary/esp8266_socket.c ****     while(true) {
 927:ZumoLibrary/esp8266_socket.c **** #if 1
 928:ZumoLibrary/esp8266_socket.c ****         if(xSerialWaitForRxEvent( port, 50 ) == pdTRUE) {
 543              		.loc 1 928 0
 544 002c 3221     		movs	r1, #50
 545 002e 2046     		mov	r0, r4
 546 0030 FFF7FEFF 		bl	xSerialWaitForRxEvent
 547              	.LVL75:
 548 0034 0128     		cmp	r0, #1
 549 0036 06D1     		bne	.L47
 929:ZumoLibrary/esp8266_socket.c ****             xQueueSendToBack(eq, &e, 0);
 550              		.loc 1 929 0
 551 0038 0023     		movs	r3, #0
 552 003a 1A46     		mov	r2, r3
 553 003c 6946     		mov	r1, sp
 554 003e 2846     		mov	r0, r5
 555 0040 FFF7FEFF 		bl	xQueueGenericSend
 556              	.LVL76:
 557 0044 F2E7     		b	.L46
 558              	.L47:
 930:ZumoLibrary/esp8266_socket.c ****         }
 931:ZumoLibrary/esp8266_socket.c ****         else {
 932:ZumoLibrary/esp8266_socket.c ****              // if nothing was received but there is data in the buffers then send received data no
 933:ZumoLibrary/esp8266_socket.c ****             if(xSerialRxWaiting(port) > 0) {
 559              		.loc 1 933 0
 560 0046 2046     		mov	r0, r4
 561 0048 FFF7FEFF 		bl	xSerialRxWaiting
 562              	.LVL77:
 563 004c 0028     		cmp	r0, #0
 564 004e EDDD     		ble	.L46
 934:ZumoLibrary/esp8266_socket.c ****                 xQueueSendToBack(eq, &e, 0);
 565              		.loc 1 934 0
 566 0050 0023     		movs	r3, #0
 567 0052 1A46     		mov	r2, r3
 568 0054 6946     		mov	r1, sp
 569 0056 2846     		mov	r0, r5
 570 0058 FFF7FEFF 		bl	xQueueGenericSend
 571              	.LVL78:
 572 005c E6E7     		b	.L46
 573              		.cfi_endproc
ARM GAS  C:\Users\samue\AppData\Local\Temp\ccJDNHzo.s 			page 28


 574              	.LFE105:
 575              		.size	vEspEventTask, .-vEspEventTask
 576 005e 00BF     		.section	.text.vEspSocketTask,"ax",%progbits
 577              		.align	2
 578              		.global	vEspSocketTask
 579              		.thumb
 580              		.thumb_func
 581              		.type	vEspSocketTask, %function
 582              	vEspSocketTask:
 583              	.LFB106:
 935:ZumoLibrary/esp8266_socket.c ****             }
 936:ZumoLibrary/esp8266_socket.c ****             else {
 937:ZumoLibrary/esp8266_socket.c ****             }                
 938:ZumoLibrary/esp8266_socket.c ****         }
 939:ZumoLibrary/esp8266_socket.c **** #else
 940:ZumoLibrary/esp8266_socket.c ****             if(xSerialRxWaiting(port) > 0) {
 941:ZumoLibrary/esp8266_socket.c ****                 xQueueSendToBack(eq, &e, 0);
 942:ZumoLibrary/esp8266_socket.c ****             }
 943:ZumoLibrary/esp8266_socket.c ****             vTaskDelay(3);    
 944:ZumoLibrary/esp8266_socket.c **** #endif    
 945:ZumoLibrary/esp8266_socket.c ****     }
 946:ZumoLibrary/esp8266_socket.c **** }
 947:ZumoLibrary/esp8266_socket.c **** 
 948:ZumoLibrary/esp8266_socket.c **** /**
 949:ZumoLibrary/esp8266_socket.c ****  * Receive events from queue and dispatch them to state machine
 950:ZumoLibrary/esp8266_socket.c ****  */
 951:ZumoLibrary/esp8266_socket.c **** void vEspSocketTask(void *pvParameters) {
 584              		.loc 1 951 0
 585              		.cfi_startproc
 586              		@ args = 0, pretend = 0, frame = 16
 587              		@ frame_needed = 0, uses_anonymous_args = 0
 588              	.LVL79:
 589 0000 10B5     		push	{r4, lr}
 590              		.cfi_def_cfa_offset 8
 591              		.cfi_offset 4, -8
 592              		.cfi_offset 14, -4
 593 0002 84B0     		sub	sp, sp, #16
 594              		.cfi_def_cfa_offset 24
 595 0004 0446     		mov	r4, r0
 596              	.LVL80:
 952:ZumoLibrary/esp8266_socket.c ****     smi *ctx = (smi *) pvParameters;
 953:ZumoLibrary/esp8266_socket.c ****     
 954:ZumoLibrary/esp8266_socket.c **** 	event e;
 955:ZumoLibrary/esp8266_socket.c **** 
 956:ZumoLibrary/esp8266_socket.c ****     xSemaphoreTake(ctx->Access, portMAX_DELAY);
 597              		.loc 1 956 0
 598 0006 4FF0FF31 		mov	r1, #-1
 599 000a 8068     		ldr	r0, [r0, #8]
 600              	.LVL81:
 601 000c FFF7FEFF 		bl	xQueueSemaphoreTake
 602              	.LVL82:
 957:ZumoLibrary/esp8266_socket.c ****     
 958:ZumoLibrary/esp8266_socket.c **** 	dispatch_event(ctx, &evEnter); // enter initial state
 603              		.loc 1 958 0
 604 0010 0749     		ldr	r1, .L53
 605 0012 2046     		mov	r0, r4
 606 0014 FFF7FEFF 		bl	dispatch_event
ARM GAS  C:\Users\samue\AppData\Local\Temp\ccJDNHzo.s 			page 29


 607              	.LVL83:
 608              	.L51:
 959:ZumoLibrary/esp8266_socket.c **** 
 960:ZumoLibrary/esp8266_socket.c **** 	while (1) {
 961:ZumoLibrary/esp8266_socket.c **** 		// read queue
 962:ZumoLibrary/esp8266_socket.c **** 		xQueueReceive(ctx->EspEventQ, &e, portMAX_DELAY);
 609              		.loc 1 962 0 discriminator 1
 610 0018 4FF0FF32 		mov	r2, #-1
 611 001c 6946     		mov	r1, sp
 612 001e E068     		ldr	r0, [r4, #12]
 613 0020 FFF7FEFF 		bl	xQueueReceive
 614              	.LVL84:
 963:ZumoLibrary/esp8266_socket.c **** 		dispatch_event(ctx, &e); // dispatch event to current state
 615              		.loc 1 963 0 discriminator 1
 616 0024 6946     		mov	r1, sp
 617 0026 2046     		mov	r0, r4
 618 0028 FFF7FEFF 		bl	dispatch_event
 619              	.LVL85:
 620 002c F4E7     		b	.L51
 621              	.L54:
 622 002e 00BF     		.align	2
 623              	.L53:
 624 0030 10000000 		.word	.LANCHOR0+16
 625              		.cfi_endproc
 626              	.LFE106:
 627              		.size	vEspSocketTask, .-vEspSocketTask
 628              		.section	.text.smi_init,"ax",%progbits
 629              		.align	2
 630              		.global	smi_init
 631              		.thumb
 632              		.thumb_func
 633              		.type	smi_init, %function
 634              	smi_init:
 635              	.LFB73:
 131:ZumoLibrary/esp8266_socket.c ****     memset(ctx, 0, sizeof(smi));
 636              		.loc 1 131 0
 637              		.cfi_startproc
 638              		@ args = 0, pretend = 0, frame = 0
 639              		@ frame_needed = 0, uses_anonymous_args = 0
 640              	.LVL86:
 641 0000 10B5     		push	{r4, lr}
 642              		.cfi_def_cfa_offset 8
 643              		.cfi_offset 4, -8
 644              		.cfi_offset 14, -4
 645 0002 0446     		mov	r4, r0
 132:ZumoLibrary/esp8266_socket.c ****     ctx->state = stInit;
 646              		.loc 1 132 0
 647 0004 CC22     		movs	r2, #204
 648 0006 0021     		movs	r1, #0
 649 0008 FFF7FEFF 		bl	memset
 650              	.LVL87:
 133:ZumoLibrary/esp8266_socket.c ****     ctx->next_state = stInit;
 651              		.loc 1 133 0
 652 000c 014B     		ldr	r3, .L57
 653 000e 2360     		str	r3, [r4]
 134:ZumoLibrary/esp8266_socket.c **** }
 654              		.loc 1 134 0
ARM GAS  C:\Users\samue\AppData\Local\Temp\ccJDNHzo.s 			page 30


 655 0010 6360     		str	r3, [r4, #4]
 656 0012 10BD     		pop	{r4, pc}
 657              	.LVL88:
 658              	.L58:
 659              		.align	2
 660              	.L57:
 661 0014 00000000 		.word	stInit
 662              		.cfi_endproc
 663              	.LFE73:
 664              		.size	smi_init, .-smi_init
 665              		.section	.text.esp_socket,"ax",%progbits
 666              		.align	2
 667              		.global	esp_socket
 668              		.thumb
 669              		.thumb_func
 670              		.type	esp_socket, %function
 671              	esp_socket:
 672              	.LFB74:
 139:ZumoLibrary/esp8266_socket.c ****     smi_init(&EspSocketInstance);
 673              		.loc 1 139 0
 674              		.cfi_startproc
 675              		@ args = 0, pretend = 0, frame = 0
 676              		@ frame_needed = 0, uses_anonymous_args = 0
 677              	.LVL89:
 678 0000 70B5     		push	{r4, r5, r6, lr}
 679              		.cfi_def_cfa_offset 16
 680              		.cfi_offset 4, -16
 681              		.cfi_offset 5, -12
 682              		.cfi_offset 6, -8
 683              		.cfi_offset 14, -4
 684 0002 82B0     		sub	sp, sp, #8
 685              		.cfi_def_cfa_offset 24
 686 0004 0646     		mov	r6, r0
 687 0006 0D46     		mov	r5, r1
 140:ZumoLibrary/esp8266_socket.c ****     
 688              		.loc 1 140 0
 689 0008 224C     		ldr	r4, .L63
 690 000a 2046     		mov	r0, r4
 691              	.LVL90:
 692 000c FFF7FEFF 		bl	smi_init
 693              	.LVL91:
 142:ZumoLibrary/esp8266_socket.c ****     EspSocketInstance.Access = xSemaphoreCreateMutex();
 694              		.loc 1 142 0
 695 0010 0022     		movs	r2, #0
 696 0012 1021     		movs	r1, #16
 697 0014 2020     		movs	r0, #32
 698 0016 FFF7FEFF 		bl	xQueueGenericCreate
 699              	.LVL92:
 700 001a E060     		str	r0, [r4, #12]
 143:ZumoLibrary/esp8266_socket.c ****     EspSocketInstance.ComPort = xSerialPortInitMinimal(115200, 256);
 701              		.loc 1 143 0
 702 001c 0120     		movs	r0, #1
 703 001e FFF7FEFF 		bl	xQueueCreateMutex
 704              	.LVL93:
 705 0022 A060     		str	r0, [r4, #8]
 144:ZumoLibrary/esp8266_socket.c ****     
 706              		.loc 1 144 0
ARM GAS  C:\Users\samue\AppData\Local\Temp\ccJDNHzo.s 			page 31


 707 0024 4FF48071 		mov	r1, #256
 708 0028 4FF4E130 		mov	r0, #115200
 709 002c FFF7FEFF 		bl	xSerialPortInitMinimal
 710              	.LVL94:
 711 0030 2061     		str	r0, [r4, #16]
 146:ZumoLibrary/esp8266_socket.c ****     strcpy(EspSocketInstance.pwd, password);
 712              		.loc 1 146 0
 713 0032 3146     		mov	r1, r6
 714 0034 04F17000 		add	r0, r4, #112
 715 0038 FFF7FEFF 		bl	strcpy
 716              	.LVL95:
 147:ZumoLibrary/esp8266_socket.c ****     
 717              		.loc 1 147 0
 718 003c 2946     		mov	r1, r5
 719 003e 04F19000 		add	r0, r4, #144
 720 0042 FFF7FEFF 		bl	strcpy
 721              	.LVL96:
 149:ZumoLibrary/esp8266_socket.c ****   	( void ) xTaskCreate( vEspEventTask, "ESP_rxe", configMINIMAL_STACK_SIZE, &EspSocketInstance, ts
 722              		.loc 1 149 0
 723 0046 0026     		movs	r6, #0
 724              	.LVL97:
 725 0048 0196     		str	r6, [sp, #4]
 726 004a 0225     		movs	r5, #2
 727              	.LVL98:
 728 004c 0095     		str	r5, [sp]
 729 004e 2346     		mov	r3, r4
 730 0050 4FF41672 		mov	r2, #600
 731 0054 1049     		ldr	r1, .L63+4
 732 0056 1148     		ldr	r0, .L63+8
 733 0058 FFF7FEFF 		bl	xTaskCreate
 734              	.LVL99:
 150:ZumoLibrary/esp8266_socket.c ****   	( void ) xTaskCreate( vEspTickTask, "ESP_tick", configMINIMAL_STACK_SIZE, &EspSocketInstance, ts
 735              		.loc 1 150 0
 736 005c 0196     		str	r6, [sp, #4]
 737 005e 0095     		str	r5, [sp]
 738 0060 2346     		mov	r3, r4
 739 0062 6422     		movs	r2, #100
 740 0064 0E49     		ldr	r1, .L63+12
 741 0066 0F48     		ldr	r0, .L63+16
 742 0068 FFF7FEFF 		bl	xTaskCreate
 743              	.LVL100:
 151:ZumoLibrary/esp8266_socket.c ****     
 744              		.loc 1 151 0
 745 006c 0196     		str	r6, [sp, #4]
 746 006e 0095     		str	r5, [sp]
 747 0070 2346     		mov	r3, r4
 748 0072 6422     		movs	r2, #100
 749 0074 0C49     		ldr	r1, .L63+20
 750 0076 0D48     		ldr	r0, .L63+24
 751 0078 FFF7FEFF 		bl	xTaskCreate
 752              	.LVL101:
 153:ZumoLibrary/esp8266_socket.c ****         vTaskDelay(50);
 753              		.loc 1 153 0
 754 007c 02E0     		b	.L60
 755              	.L61:
 154:ZumoLibrary/esp8266_socket.c ****     }
 756              		.loc 1 154 0
ARM GAS  C:\Users\samue\AppData\Local\Temp\ccJDNHzo.s 			page 32


 757 007e 3220     		movs	r0, #50
 758 0080 FFF7FEFF 		bl	vTaskDelay
 759              	.LVL102:
 760              	.L60:
 153:ZumoLibrary/esp8266_socket.c ****         vTaskDelay(50);
 761              		.loc 1 153 0
 762 0084 034B     		ldr	r3, .L63
 763 0086 1A68     		ldr	r2, [r3]
 764 0088 094B     		ldr	r3, .L63+28
 765 008a 9A42     		cmp	r2, r3
 766 008c F7D1     		bne	.L61
 158:ZumoLibrary/esp8266_socket.c **** 
 767              		.loc 1 158 0
 768 008e 0020     		movs	r0, #0
 769 0090 02B0     		add	sp, sp, #8
 770              		.cfi_def_cfa_offset 16
 771              		@ sp needed
 772 0092 70BD     		pop	{r4, r5, r6, pc}
 773              	.L64:
 774              		.align	2
 775              	.L63:
 776 0094 00000000 		.word	EspSocketInstance
 777 0098 34000000 		.word	.LC6
 778 009c 00000000 		.word	vEspSocketTask
 779 00a0 40000000 		.word	.LC7
 780 00a4 00000000 		.word	vEspEventTask
 781 00a8 48000000 		.word	.LC8
 782 00ac 00000000 		.word	vEspTickTask
 783 00b0 00000000 		.word	stReady
 784              		.cfi_endproc
 785              	.LFE74:
 786              		.size	esp_socket, .-esp_socket
 787              		.section	.text.esp_connect,"ax",%progbits
 788              		.align	2
 789              		.global	esp_connect
 790              		.thumb
 791              		.thumb_func
 792              		.type	esp_connect, %function
 793              	esp_connect:
 794              	.LFB75:
 163:ZumoLibrary/esp8266_socket.c ****     I_DONT_USE(sockfd);
 795              		.loc 1 163 0
 796              		.cfi_startproc
 797              		@ args = 0, pretend = 0, frame = 16
 798              		@ frame_needed = 0, uses_anonymous_args = 0
 799              	.LVL103:
 800 0000 30B5     		push	{r4, r5, lr}
 801              		.cfi_def_cfa_offset 12
 802              		.cfi_offset 4, -12
 803              		.cfi_offset 5, -8
 804              		.cfi_offset 14, -4
 805 0002 85B0     		sub	sp, sp, #20
 806              		.cfi_def_cfa_offset 32
 807 0004 1546     		mov	r5, r2
 166:ZumoLibrary/esp8266_socket.c ****     port2str(port, EspSocketInstance.sa_port);
 808              		.loc 1 166 0
 809 0006 164C     		ldr	r4, .L69
ARM GAS  C:\Users\samue\AppData\Local\Temp\ccJDNHzo.s 			page 33


 810 0008 2046     		mov	r0, r4
 811              	.LVL104:
 812 000a FFF7FEFF 		bl	strcpy
 813              	.LVL105:
 167:ZumoLibrary/esp8266_socket.c **** 
 814              		.loc 1 167 0
 815 000e 04F10E01 		add	r1, r4, #14
 816 0012 2846     		mov	r0, r5
 817 0014 FFF7FEFF 		bl	port2str
 818              	.LVL106:
 169:ZumoLibrary/esp8266_socket.c ****     
 819              		.loc 1 169 0
 820 0018 0423     		movs	r3, #4
 821 001a 8DF80030 		strb	r3, [sp]
 822 001e 0023     		movs	r3, #0
 823 0020 0193     		str	r3, [sp, #4]
 824 0022 0293     		str	r3, [sp, #8]
 825 0024 0393     		str	r3, [sp, #12]
 171:ZumoLibrary/esp8266_socket.c **** 
 826              		.loc 1 171 0
 827 0026 4FF0FF32 		mov	r2, #-1
 828 002a 6946     		mov	r1, sp
 829 002c 54F8A40C 		ldr	r0, [r4, #-164]
 830 0030 FFF7FEFF 		bl	xQueueGenericSend
 831              	.LVL107:
 174:ZumoLibrary/esp8266_socket.c ****         xSemaphoreGive(EspSocketInstance.Access);
 832              		.loc 1 174 0
 833 0034 40F6B831 		movw	r1, #3000
 834 0038 54F8A80C 		ldr	r0, [r4, #-168]
 835 003c FFF7FEFF 		bl	xQueueSemaphoreTake
 836              	.LVL108:
 837 0040 0128     		cmp	r0, #1
 838 0042 08D1     		bne	.L67
 839 0044 B03C     		subs	r4, r4, #176
 175:ZumoLibrary/esp8266_socket.c ****         rc = 0;
 840              		.loc 1 175 0
 841 0046 0023     		movs	r3, #0
 842 0048 1A46     		mov	r2, r3
 843 004a 1946     		mov	r1, r3
 844 004c A068     		ldr	r0, [r4, #8]
 845 004e FFF7FEFF 		bl	xQueueGenericSend
 846              	.LVL109:
 176:ZumoLibrary/esp8266_socket.c ****     }
 847              		.loc 1 176 0
 848 0052 0020     		movs	r0, #0
 849 0054 01E0     		b	.L66
 850              	.LVL110:
 851              	.L67:
 173:ZumoLibrary/esp8266_socket.c ****     if(xSemaphoreTake(EspSocketInstance.Access, configTICK_RATE_HZ * 3) == pdTRUE) {
 852              		.loc 1 173 0
 853 0056 4FF0FF30 		mov	r0, #-1
 854              	.LVL111:
 855              	.L66:
 180:ZumoLibrary/esp8266_socket.c **** 
 856              		.loc 1 180 0
 857 005a 05B0     		add	sp, sp, #20
 858              		.cfi_def_cfa_offset 12
ARM GAS  C:\Users\samue\AppData\Local\Temp\ccJDNHzo.s 			page 34


 859              		@ sp needed
 860 005c 30BD     		pop	{r4, r5, pc}
 861              	.LVL112:
 862              	.L70:
 863 005e 00BF     		.align	2
 864              	.L69:
 865 0060 B0000000 		.word	EspSocketInstance+176
 866              		.cfi_endproc
 867              	.LFE75:
 868              		.size	esp_connect, .-esp_connect
 869              		.section	.text.esp_read,"ax",%progbits
 870              		.align	2
 871              		.global	esp_read
 872              		.thumb
 873              		.thumb_func
 874              		.type	esp_read, %function
 875              	esp_read:
 876              	.LFB76:
 183:ZumoLibrary/esp8266_socket.c ****     I_DONT_USE(sockfd);
 877              		.loc 1 183 0
 878              		.cfi_startproc
 879              		@ args = 0, pretend = 0, frame = 0
 880              		@ frame_needed = 0, uses_anonymous_args = 0
 881              	.LVL113:
 882 0000 70B5     		push	{r4, r5, r6, lr}
 883              		.cfi_def_cfa_offset 16
 884              		.cfi_offset 4, -16
 885              		.cfi_offset 5, -12
 886              		.cfi_offset 6, -8
 887              		.cfi_offset 14, -4
 888 0002 0D46     		mov	r5, r1
 889 0004 1646     		mov	r6, r2
 890              	.LVL114:
 187:ZumoLibrary/esp8266_socket.c ****         // read data
 891              		.loc 1 187 0
 892 0006 6421     		movs	r1, #100
 893              	.LVL115:
 894 0008 0F4B     		ldr	r3, .L78
 895 000a 9868     		ldr	r0, [r3, #8]
 896              	.LVL116:
 897 000c FFF7FEFF 		bl	xQueueSemaphoreTake
 898              	.LVL117:
 899 0010 0128     		cmp	r0, #1
 900 0012 04D0     		beq	.L76
 185:ZumoLibrary/esp8266_socket.c ****     
 901              		.loc 1 185 0
 902 0014 0024     		movs	r4, #0
 903 0016 14E0     		b	.L73
 904              	.LVL118:
 905              	.L75:
 190:ZumoLibrary/esp8266_socket.c ****             ++data;
 906              		.loc 1 190 0
 907 0018 0134     		adds	r4, r4, #1
 908              	.LVL119:
 191:ZumoLibrary/esp8266_socket.c ****         }
 909              		.loc 1 191 0
 910 001a 0135     		adds	r5, r5, #1
ARM GAS  C:\Users\samue\AppData\Local\Temp\ccJDNHzo.s 			page 35


 911              	.LVL120:
 912 001c 00E0     		b	.L72
 913              	.LVL121:
 914              	.L76:
 915 001e 0024     		movs	r4, #0
 916              	.LVL122:
 917              	.L72:
 189:ZumoLibrary/esp8266_socket.c ****             ++count;
 918              		.loc 1 189 0
 919 0020 B442     		cmp	r4, r6
 920 0022 07DA     		bge	.L74
 921              	.LVL123:
 922              	.LBB79:
 923              	.LBB80:
 111:ZumoLibrary/esp8266_socket.c **** }
 924              		.loc 1 111 0
 925 0024 0A22     		movs	r2, #10
 926 0026 2946     		mov	r1, r5
 927 0028 074B     		ldr	r3, .L78
 928 002a 1869     		ldr	r0, [r3, #16]
 929 002c FFF7FEFF 		bl	xSerialGetChar
 930              	.LVL124:
 931              	.LBE80:
 932              	.LBE79:
 189:ZumoLibrary/esp8266_socket.c ****             ++count;
 933              		.loc 1 189 0
 934 0030 0028     		cmp	r0, #0
 935 0032 F1D1     		bne	.L75
 936              	.L74:
 193:ZumoLibrary/esp8266_socket.c ****     }
 937              		.loc 1 193 0
 938 0034 0023     		movs	r3, #0
 939 0036 1A46     		mov	r2, r3
 940 0038 1946     		mov	r1, r3
 941 003a 0348     		ldr	r0, .L78
 942 003c 8068     		ldr	r0, [r0, #8]
 943 003e FFF7FEFF 		bl	xQueueGenericSend
 944              	.LVL125:
 945              	.L73:
 197:ZumoLibrary/esp8266_socket.c **** 
 946              		.loc 1 197 0
 947 0042 2046     		mov	r0, r4
 948 0044 70BD     		pop	{r4, r5, r6, pc}
 949              	.LVL126:
 950              	.L79:
 951 0046 00BF     		.align	2
 952              	.L78:
 953 0048 00000000 		.word	EspSocketInstance
 954              		.cfi_endproc
 955              	.LFE76:
 956              		.size	esp_read, .-esp_read
 957              		.section	.text.esp_write,"ax",%progbits
 958              		.align	2
 959              		.global	esp_write
 960              		.thumb
 961              		.thumb_func
 962              		.type	esp_write, %function
ARM GAS  C:\Users\samue\AppData\Local\Temp\ccJDNHzo.s 			page 36


 963              	esp_write:
 964              	.LFB77:
 200:ZumoLibrary/esp8266_socket.c ****     I_DONT_USE(sockfd);
 965              		.loc 1 200 0
 966              		.cfi_startproc
 967              		@ args = 0, pretend = 0, frame = 0
 968              		@ frame_needed = 0, uses_anonymous_args = 0
 969              	.LVL127:
 970 0000 F8B5     		push	{r3, r4, r5, r6, r7, lr}
 971              		.cfi_def_cfa_offset 24
 972              		.cfi_offset 3, -24
 973              		.cfi_offset 4, -20
 974              		.cfi_offset 5, -16
 975              		.cfi_offset 6, -12
 976              		.cfi_offset 7, -8
 977              		.cfi_offset 14, -4
 978 0002 0C46     		mov	r4, r1
 979 0004 1746     		mov	r7, r2
 203:ZumoLibrary/esp8266_socket.c ****         // write data
 980              		.loc 1 203 0
 981 0006 6421     		movs	r1, #100
 982              	.LVL128:
 983 0008 0F4B     		ldr	r3, .L86
 984 000a 9868     		ldr	r0, [r3, #8]
 985              	.LVL129:
 986 000c FFF7FEFF 		bl	xQueueSemaphoreTake
 987              	.LVL130:
 988 0010 0128     		cmp	r0, #1
 989 0012 17D1     		bne	.L82
 990 0014 0BE0     		b	.L84
 991              	.LVL131:
 992              	.L83:
 993              	.LBB81:
 994              	.LBB82:
  95:ZumoLibrary/esp8266_socket.c ****         //UART_1_PutChar(*buf++);
 995              		.loc 1 95 0
 996 0016 661C     		adds	r6, r4, #1
 997              	.LVL132:
 998 0018 4FF0FF32 		mov	r2, #-1
 999 001c 94F90010 		ldrsb	r1, [r4]
 1000 0020 094B     		ldr	r3, .L86
 1001 0022 1869     		ldr	r0, [r3, #16]
 1002 0024 FFF7FEFF 		bl	xSerialPutChar
 1003              	.LVL133:
  94:ZumoLibrary/esp8266_socket.c ****         xSerialPutChar(ctx->ComPort,*buf++,portMAX_DELAY);
 1004              		.loc 1 94 0
 1005 0028 2B46     		mov	r3, r5
  95:ZumoLibrary/esp8266_socket.c ****         //UART_1_PutChar(*buf++);
 1006              		.loc 1 95 0
 1007 002a 3446     		mov	r4, r6
 1008 002c 00E0     		b	.L81
 1009              	.LVL134:
 1010              	.L84:
 1011              	.LBE82:
 1012              	.LBE81:
 1013 002e 3B46     		mov	r3, r7
 1014              	.LVL135:
ARM GAS  C:\Users\samue\AppData\Local\Temp\ccJDNHzo.s 			page 37


 1015              	.L81:
 1016              	.LBB84:
 1017              	.LBB83:
  94:ZumoLibrary/esp8266_socket.c ****         xSerialPutChar(ctx->ComPort,*buf++,portMAX_DELAY);
 1018              		.loc 1 94 0
 1019 0030 5D1E     		subs	r5, r3, #1
 1020              	.LVL136:
 1021 0032 002B     		cmp	r3, #0
 1022 0034 EFDC     		bgt	.L83
 1023              	.LVL137:
 1024              	.LBE83:
 1025              	.LBE84:
 206:ZumoLibrary/esp8266_socket.c ****     }
 1026              		.loc 1 206 0
 1027 0036 0023     		movs	r3, #0
 1028 0038 1A46     		mov	r2, r3
 1029 003a 1946     		mov	r1, r3
 1030 003c 0248     		ldr	r0, .L86
 1031 003e 8068     		ldr	r0, [r0, #8]
 1032 0040 FFF7FEFF 		bl	xQueueGenericSend
 1033              	.LVL138:
 1034              	.L82:
 210:ZumoLibrary/esp8266_socket.c **** 
 1035              		.loc 1 210 0
 1036 0044 3846     		mov	r0, r7
 1037 0046 F8BD     		pop	{r3, r4, r5, r6, r7, pc}
 1038              	.LVL139:
 1039              	.L87:
 1040              		.align	2
 1041              	.L86:
 1042 0048 00000000 		.word	EspSocketInstance
 1043              		.cfi_endproc
 1044              	.LFE77:
 1045              		.size	esp_write, .-esp_write
 1046              		.section	.text.esp_shutdown,"ax",%progbits
 1047              		.align	2
 1048              		.global	esp_shutdown
 1049              		.thumb
 1050              		.thumb_func
 1051              		.type	esp_shutdown, %function
 1052              	esp_shutdown:
 1053              	.LFB79:
 218:ZumoLibrary/esp8266_socket.c ****     I_DONT_USE(sockfd);
 1054              		.loc 1 218 0
 1055              		.cfi_startproc
 1056              		@ args = 0, pretend = 0, frame = 16
 1057              		@ frame_needed = 0, uses_anonymous_args = 0
 1058              	.LVL140:
 1059 0000 10B5     		push	{r4, lr}
 1060              		.cfi_def_cfa_offset 8
 1061              		.cfi_offset 4, -8
 1062              		.cfi_offset 14, -4
 1063 0002 84B0     		sub	sp, sp, #16
 1064              		.cfi_def_cfa_offset 24
 221:ZumoLibrary/esp8266_socket.c ****     
 1065              		.loc 1 221 0
 1066 0004 0523     		movs	r3, #5
ARM GAS  C:\Users\samue\AppData\Local\Temp\ccJDNHzo.s 			page 38


 1067 0006 8DF80030 		strb	r3, [sp]
 1068 000a 0024     		movs	r4, #0
 1069 000c 0194     		str	r4, [sp, #4]
 1070 000e 0294     		str	r4, [sp, #8]
 1071 0010 0394     		str	r4, [sp, #12]
 223:ZumoLibrary/esp8266_socket.c **** 
 1072              		.loc 1 223 0
 1073 0012 2346     		mov	r3, r4
 1074 0014 4FF0FF32 		mov	r2, #-1
 1075 0018 6946     		mov	r1, sp
 1076              	.LVL141:
 1077 001a 0348     		ldr	r0, .L90
 1078              	.LVL142:
 1079 001c C068     		ldr	r0, [r0, #12]
 1080 001e FFF7FEFF 		bl	xQueueGenericSend
 1081              	.LVL143:
 226:ZumoLibrary/esp8266_socket.c **** 
 1082              		.loc 1 226 0
 1083 0022 2046     		mov	r0, r4
 1084 0024 04B0     		add	sp, sp, #16
 1085              		.cfi_def_cfa_offset 8
 1086              		@ sp needed
 1087 0026 10BD     		pop	{r4, pc}
 1088              	.L91:
 1089              		.align	2
 1090              	.L90:
 1091 0028 00000000 		.word	EspSocketInstance
 1092              		.cfi_endproc
 1093              	.LFE79:
 1094              		.size	esp_shutdown, .-esp_shutdown
 1095              		.section	.text.esp_close,"ax",%progbits
 1096              		.align	2
 1097              		.global	esp_close
 1098              		.thumb
 1099              		.thumb_func
 1100              		.type	esp_close, %function
 1101              	esp_close:
 1102              	.LFB78:
 213:ZumoLibrary/esp8266_socket.c ****     return esp_shutdown(sockfd, -1);
 1103              		.loc 1 213 0
 1104              		.cfi_startproc
 1105              		@ args = 0, pretend = 0, frame = 0
 1106              		@ frame_needed = 0, uses_anonymous_args = 0
 1107              	.LVL144:
 1108 0000 08B5     		push	{r3, lr}
 1109              		.cfi_def_cfa_offset 8
 1110              		.cfi_offset 3, -8
 1111              		.cfi_offset 14, -4
 214:ZumoLibrary/esp8266_socket.c **** }
 1112              		.loc 1 214 0
 1113 0002 4FF0FF31 		mov	r1, #-1
 1114 0006 FFF7FEFF 		bl	esp_shutdown
 1115              	.LVL145:
 215:ZumoLibrary/esp8266_socket.c **** 
 1116              		.loc 1 215 0
 1117 000a 08BD     		pop	{r3, pc}
 1118              		.cfi_endproc
ARM GAS  C:\Users\samue\AppData\Local\Temp\ccJDNHzo.s 			page 39


 1119              	.LFE78:
 1120              		.size	esp_close, .-esp_close
 1121              		.section	.text.init_counters,"ax",%progbits
 1122              		.align	2
 1123              		.global	init_counters
 1124              		.thumb
 1125              		.thumb_func
 1126              		.type	init_counters, %function
 1127              	init_counters:
 1128              	.LFB80:
 251:ZumoLibrary/esp8266_socket.c ****     ctx->count = 0;
 1129              		.loc 1 251 0
 1130              		.cfi_startproc
 1131              		@ args = 0, pretend = 0, frame = 0
 1132              		@ frame_needed = 0, uses_anonymous_args = 0
 1133              		@ link register save eliminated.
 1134              	.LVL146:
 252:ZumoLibrary/esp8266_socket.c ****     ctx->pos = 0;
 1135              		.loc 1 252 0
 1136 0000 0023     		movs	r3, #0
 1137 0002 8361     		str	r3, [r0, #24]
 253:ZumoLibrary/esp8266_socket.c ****     ctx->timer = 0;
 1138              		.loc 1 253 0
 1139 0004 C361     		str	r3, [r0, #28]
 254:ZumoLibrary/esp8266_socket.c **** }
 1140              		.loc 1 254 0
 1141 0006 4361     		str	r3, [r0, #20]
 1142 0008 7047     		bx	lr
 1143              		.cfi_endproc
 1144              	.LFE80:
 1145              		.size	init_counters, .-init_counters
 1146 000a 00BF     		.section	.text.stAT,"ax",%progbits
 1147              		.align	2
 1148              		.global	stAT
 1149              		.thumb
 1150              		.thumb_func
 1151              		.type	stAT, %function
 1152              	stAT:
 1153              	.LFB88:
 381:ZumoLibrary/esp8266_socket.c **** 	switch(e->ev) {
 1154              		.loc 1 381 0
 1155              		.cfi_startproc
 1156              		@ args = 0, pretend = 0, frame = 0
 1157              		@ frame_needed = 0, uses_anonymous_args = 0
 1158              	.LVL147:
 1159 0000 38B5     		push	{r3, r4, r5, lr}
 1160              		.cfi_def_cfa_offset 16
 1161              		.cfi_offset 3, -16
 1162              		.cfi_offset 4, -12
 1163              		.cfi_offset 5, -8
 1164              		.cfi_offset 14, -4
 1165 0002 0446     		mov	r4, r0
 382:ZumoLibrary/esp8266_socket.c **** 	case eEnter:
 1166              		.loc 1 382 0
 1167 0004 0B78     		ldrb	r3, [r1]	@ zero_extendqisi2
 1168 0006 13B1     		cbz	r3, .L97
 1169 0008 022B     		cmp	r3, #2
ARM GAS  C:\Users\samue\AppData\Local\Temp\ccJDNHzo.s 			page 40


 1170 000a 07D0     		beq	.L98
 1171 000c 38BD     		pop	{r3, r4, r5, pc}
 1172              	.L97:
 384:ZumoLibrary/esp8266_socket.c ****         init_counters(ctx);
 1173              		.loc 1 384 0
 1174 000e 0F48     		ldr	r0, .L104
 1175              	.LVL148:
 1176 0010 FFF7FEFF 		bl	puts
 1177              	.LVL149:
 385:ZumoLibrary/esp8266_socket.c **** 		break;
 1178              		.loc 1 385 0
 1179 0014 2046     		mov	r0, r4
 1180 0016 FFF7FEFF 		bl	init_counters
 1181              	.LVL150:
 386:ZumoLibrary/esp8266_socket.c **** 	case eExit:
 1182              		.loc 1 386 0
 1183 001a 38BD     		pop	{r3, r4, r5, pc}
 1184              	.LVL151:
 1185              	.L98:
 390:ZumoLibrary/esp8266_socket.c ****         if(ctx->timer == 10) serial_write_str(ctx, "+++");
 1186              		.loc 1 390 0
 1187 001c 4369     		ldr	r3, [r0, #20]
 1188 001e 0133     		adds	r3, r3, #1
 1189 0020 4361     		str	r3, [r0, #20]
 391:ZumoLibrary/esp8266_socket.c ****         if(ctx->timer == 25) TRAN(stInit);
 1190              		.loc 1 391 0
 1191 0022 0A2B     		cmp	r3, #10
 1192 0024 0CD1     		bne	.L100
 1193 0026 07E0     		b	.L102
 1194              	.LVL152:
 1195              	.L101:
 1196              	.LBB85:
 1197              	.LBB86:
 104:ZumoLibrary/esp8266_socket.c ****         //UART_1_PutChar(*s++);
 1198              		.loc 1 104 0
 1199 0028 0135     		adds	r5, r5, #1
 1200              	.LVL153:
 1201 002a 4FF0FF32 		mov	r2, #-1
 1202 002e 49B2     		sxtb	r1, r1
 1203 0030 2069     		ldr	r0, [r4, #16]
 1204 0032 FFF7FEFF 		bl	xSerialPutChar
 1205              	.LVL154:
 1206 0036 00E0     		b	.L99
 1207              	.LVL155:
 1208              	.L102:
 1209              	.LBE86:
 1210              	.LBE85:
 1211 0038 054D     		ldr	r5, .L104+4
 1212              	.LVL156:
 1213              	.L99:
 1214              	.LBB88:
 1215              	.LBB87:
 103:ZumoLibrary/esp8266_socket.c ****         xSerialPutChar(ctx->ComPort,*s++,portMAX_DELAY);
 1216              		.loc 1 103 0
 1217 003a 2978     		ldrb	r1, [r5]	@ zero_extendqisi2
 1218 003c 0029     		cmp	r1, #0
 1219 003e F3D1     		bne	.L101
ARM GAS  C:\Users\samue\AppData\Local\Temp\ccJDNHzo.s 			page 41


 1220              	.LVL157:
 1221              	.L100:
 1222              	.LBE87:
 1223              	.LBE88:
 392:ZumoLibrary/esp8266_socket.c **** 		break;
 1224              		.loc 1 392 0
 1225 0040 6369     		ldr	r3, [r4, #20]
 1226 0042 192B     		cmp	r3, #25
 1227 0044 01D1     		bne	.L95
 392:ZumoLibrary/esp8266_socket.c **** 		break;
 1228              		.loc 1 392 0 is_stmt 0 discriminator 1
 1229 0046 034B     		ldr	r3, .L104+8
 1230 0048 6360     		str	r3, [r4, #4]
 1231              	.L95:
 1232 004a 38BD     		pop	{r3, r4, r5, pc}
 1233              	.LVL158:
 1234              	.L105:
 1235              		.align	2
 1236              	.L104:
 1237 004c 58000000 		.word	.LC10
 1238 0050 54000000 		.word	.LC9
 1239 0054 00000000 		.word	stInit
 1240              		.cfi_endproc
 1241              	.LFE88:
 1242              		.size	stAT, .-stAT
 1243              		.section	.text.stReady,"ax",%progbits
 1244              		.align	2
 1245              		.global	stReady
 1246              		.thumb
 1247              		.thumb_func
 1248              		.type	stReady, %function
 1249              	stReady:
 1250              	.LFB94:
 537:ZumoLibrary/esp8266_socket.c **** 	switch(e->ev) {
 1251              		.loc 1 537 0 is_stmt 1
 1252              		.cfi_startproc
 1253              		@ args = 0, pretend = 0, frame = 0
 1254              		@ frame_needed = 0, uses_anonymous_args = 0
 1255              	.LVL159:
 538:ZumoLibrary/esp8266_socket.c **** 	case eEnter:
 1256              		.loc 1 538 0
 1257 0000 0B78     		ldrb	r3, [r1]	@ zero_extendqisi2
 1258 0002 13B1     		cbz	r3, .L108
 1259 0004 042B     		cmp	r3, #4
 1260 0006 09D0     		beq	.L109
 1261 0008 7047     		bx	lr
 1262              	.L108:
 537:ZumoLibrary/esp8266_socket.c **** 	switch(e->ev) {
 1263              		.loc 1 537 0
 1264 000a 10B5     		push	{r4, lr}
 1265              		.cfi_def_cfa_offset 8
 1266              		.cfi_offset 4, -8
 1267              		.cfi_offset 14, -4
 1268 000c 0446     		mov	r4, r0
 540:ZumoLibrary/esp8266_socket.c ****         init_counters(ctx);
 1269              		.loc 1 540 0
 1270 000e 0548     		ldr	r0, .L112
ARM GAS  C:\Users\samue\AppData\Local\Temp\ccJDNHzo.s 			page 42


 1271              	.LVL160:
 1272 0010 FFF7FEFF 		bl	puts
 1273              	.LVL161:
 541:ZumoLibrary/esp8266_socket.c **** 		break;
 1274              		.loc 1 541 0
 1275 0014 2046     		mov	r0, r4
 1276 0016 FFF7FEFF 		bl	init_counters
 1277              	.LVL162:
 542:ZumoLibrary/esp8266_socket.c **** 	case eExit:
 1278              		.loc 1 542 0
 1279 001a 10BD     		pop	{r4, pc}
 1280              	.LVL163:
 1281              	.L109:
 1282              		.cfi_def_cfa_offset 0
 1283              		.cfi_restore 4
 1284              		.cfi_restore 14
 557:ZumoLibrary/esp8266_socket.c ****         break;
 1285              		.loc 1 557 0
 1286 001c 024B     		ldr	r3, .L112+4
 1287 001e 4360     		str	r3, [r0, #4]
 563:ZumoLibrary/esp8266_socket.c **** 
 1288              		.loc 1 563 0
 1289 0020 7047     		bx	lr
 1290              	.L113:
 1291 0022 00BF     		.align	2
 1292              	.L112:
 1293 0024 60000000 		.word	.LC11
 1294 0028 00000000 		.word	stConnectTCP
 1295              		.cfi_endproc
 1296              	.LFE94:
 1297              		.size	stReady, .-stReady
 1298              		.section	.text.stConnected,"ax",%progbits
 1299              		.align	2
 1300              		.global	stConnected
 1301              		.thumb
 1302              		.thumb_func
 1303              		.type	stConnected, %function
 1304              	stConnected:
 1305              	.LFB99:
 665:ZumoLibrary/esp8266_socket.c **** 	switch(e->ev) {
 1306              		.loc 1 665 0
 1307              		.cfi_startproc
 1308              		@ args = 0, pretend = 0, frame = 0
 1309              		@ frame_needed = 0, uses_anonymous_args = 0
 1310              	.LVL164:
 1311 0000 10B5     		push	{r4, lr}
 1312              		.cfi_def_cfa_offset 8
 1313              		.cfi_offset 4, -8
 1314              		.cfi_offset 14, -4
 1315 0002 0446     		mov	r4, r0
 666:ZumoLibrary/esp8266_socket.c **** 	case eEnter:
 1316              		.loc 1 666 0
 1317 0004 0B78     		ldrb	r3, [r1]	@ zero_extendqisi2
 1318 0006 012B     		cmp	r3, #1
 1319 0008 10D0     		beq	.L116
 1320 000a 13B1     		cbz	r3, .L117
 1321 000c 052B     		cmp	r3, #5
ARM GAS  C:\Users\samue\AppData\Local\Temp\ccJDNHzo.s 			page 43


 1322 000e 13D0     		beq	.L118
 1323 0010 10BD     		pop	{r4, pc}
 1324              	.L117:
 668:ZumoLibrary/esp8266_socket.c ****         init_counters(ctx);
 1325              		.loc 1 668 0
 1326 0012 0B48     		ldr	r0, .L120
 1327              	.LVL165:
 1328 0014 FFF7FEFF 		bl	puts
 1329              	.LVL166:
 669:ZumoLibrary/esp8266_socket.c ****         xSemaphoreGive(ctx->Access);
 1330              		.loc 1 669 0
 1331 0018 2046     		mov	r0, r4
 1332 001a FFF7FEFF 		bl	init_counters
 1333              	.LVL167:
 670:ZumoLibrary/esp8266_socket.c ****         break;
 1334              		.loc 1 670 0
 1335 001e 0023     		movs	r3, #0
 1336 0020 1A46     		mov	r2, r3
 1337 0022 1946     		mov	r1, r3
 1338 0024 A068     		ldr	r0, [r4, #8]
 1339 0026 FFF7FEFF 		bl	xQueueGenericSend
 1340              	.LVL168:
 671:ZumoLibrary/esp8266_socket.c **** 	case eExit:
 1341              		.loc 1 671 0
 1342 002a 10BD     		pop	{r4, pc}
 1343              	.LVL169:
 1344              	.L116:
 673:ZumoLibrary/esp8266_socket.c **** 		break;
 1345              		.loc 1 673 0
 1346 002c 4FF0FF31 		mov	r1, #-1
 1347              	.LVL170:
 1348 0030 8068     		ldr	r0, [r0, #8]
 1349              	.LVL171:
 1350 0032 FFF7FEFF 		bl	xQueueSemaphoreTake
 1351              	.LVL172:
 674:ZumoLibrary/esp8266_socket.c **** 	case eTick:
 1352              		.loc 1 674 0
 1353 0036 10BD     		pop	{r4, pc}
 1354              	.LVL173:
 1355              	.L118:
 702:ZumoLibrary/esp8266_socket.c ****         break;
 1356              		.loc 1 702 0
 1357 0038 024B     		ldr	r3, .L120+4
 1358 003a 4360     		str	r3, [r0, #4]
 1359 003c 10BD     		pop	{r4, pc}
 1360              	.L121:
 1361 003e 00BF     		.align	2
 1362              	.L120:
 1363 0040 68000000 		.word	.LC12
 1364 0044 00000000 		.word	stCommandMode
 1365              		.cfi_endproc
 1366              	.LFE99:
 1367              		.size	stConnected, .-stConnected
 1368              		.section	.text.stCommandMode,"ax",%progbits
 1369              		.align	2
 1370              		.global	stCommandMode
 1371              		.thumb
ARM GAS  C:\Users\samue\AppData\Local\Temp\ccJDNHzo.s 			page 44


 1372              		.thumb_func
 1373              		.type	stCommandMode, %function
 1374              	stCommandMode:
 1375              	.LFB100:
 711:ZumoLibrary/esp8266_socket.c **** 	switch(e->ev) {
 1376              		.loc 1 711 0
 1377              		.cfi_startproc
 1378              		@ args = 0, pretend = 0, frame = 0
 1379              		@ frame_needed = 0, uses_anonymous_args = 0
 1380              	.LVL174:
 1381 0000 38B5     		push	{r3, r4, r5, lr}
 1382              		.cfi_def_cfa_offset 16
 1383              		.cfi_offset 3, -16
 1384              		.cfi_offset 4, -12
 1385              		.cfi_offset 5, -8
 1386              		.cfi_offset 14, -4
 1387 0002 0446     		mov	r4, r0
 712:ZumoLibrary/esp8266_socket.c **** 	case eEnter:
 1388              		.loc 1 712 0
 1389 0004 0B78     		ldrb	r3, [r1]	@ zero_extendqisi2
 1390 0006 13B1     		cbz	r3, .L124
 1391 0008 022B     		cmp	r3, #2
 1392 000a 07D0     		beq	.L125
 1393 000c 38BD     		pop	{r3, r4, r5, pc}
 1394              	.L124:
 714:ZumoLibrary/esp8266_socket.c ****         init_counters(ctx);
 1395              		.loc 1 714 0
 1396 000e 0F48     		ldr	r0, .L131
 1397              	.LVL175:
 1398 0010 FFF7FEFF 		bl	puts
 1399              	.LVL176:
 715:ZumoLibrary/esp8266_socket.c **** 		break;
 1400              		.loc 1 715 0
 1401 0014 2046     		mov	r0, r4
 1402 0016 FFF7FEFF 		bl	init_counters
 1403              	.LVL177:
 716:ZumoLibrary/esp8266_socket.c **** 	case eExit:
 1404              		.loc 1 716 0
 1405 001a 38BD     		pop	{r3, r4, r5, pc}
 1406              	.LVL178:
 1407              	.L125:
 720:ZumoLibrary/esp8266_socket.c ****         if(ctx->timer == 10) serial_write_str(ctx, "+++");
 1408              		.loc 1 720 0
 1409 001c 4369     		ldr	r3, [r0, #20]
 1410 001e 0133     		adds	r3, r3, #1
 1411 0020 4361     		str	r3, [r0, #20]
 721:ZumoLibrary/esp8266_socket.c ****         if(ctx->timer == 25) TRAN(stCloseTCP);
 1412              		.loc 1 721 0
 1413 0022 0A2B     		cmp	r3, #10
 1414 0024 0CD1     		bne	.L127
 1415 0026 07E0     		b	.L129
 1416              	.LVL179:
 1417              	.L128:
 1418              	.LBB89:
 1419              	.LBB90:
 104:ZumoLibrary/esp8266_socket.c ****         //UART_1_PutChar(*s++);
 1420              		.loc 1 104 0
ARM GAS  C:\Users\samue\AppData\Local\Temp\ccJDNHzo.s 			page 45


 1421 0028 0135     		adds	r5, r5, #1
 1422              	.LVL180:
 1423 002a 4FF0FF32 		mov	r2, #-1
 1424 002e 49B2     		sxtb	r1, r1
 1425 0030 2069     		ldr	r0, [r4, #16]
 1426 0032 FFF7FEFF 		bl	xSerialPutChar
 1427              	.LVL181:
 1428 0036 00E0     		b	.L126
 1429              	.LVL182:
 1430              	.L129:
 1431              	.LBE90:
 1432              	.LBE89:
 1433 0038 054D     		ldr	r5, .L131+4
 1434              	.LVL183:
 1435              	.L126:
 1436              	.LBB92:
 1437              	.LBB91:
 103:ZumoLibrary/esp8266_socket.c ****         xSerialPutChar(ctx->ComPort,*s++,portMAX_DELAY);
 1438              		.loc 1 103 0
 1439 003a 2978     		ldrb	r1, [r5]	@ zero_extendqisi2
 1440 003c 0029     		cmp	r1, #0
 1441 003e F3D1     		bne	.L128
 1442              	.LVL184:
 1443              	.L127:
 1444              	.LBE91:
 1445              	.LBE92:
 722:ZumoLibrary/esp8266_socket.c **** 		break;
 1446              		.loc 1 722 0
 1447 0040 6369     		ldr	r3, [r4, #20]
 1448 0042 192B     		cmp	r3, #25
 1449 0044 01D1     		bne	.L122
 722:ZumoLibrary/esp8266_socket.c **** 		break;
 1450              		.loc 1 722 0 is_stmt 0 discriminator 1
 1451 0046 034B     		ldr	r3, .L131+8
 1452 0048 6360     		str	r3, [r4, #4]
 1453              	.L122:
 1454 004a 38BD     		pop	{r3, r4, r5, pc}
 1455              	.LVL185:
 1456              	.L132:
 1457              		.align	2
 1458              	.L131:
 1459 004c 74000000 		.word	.LC13
 1460 0050 54000000 		.word	.LC9
 1461 0054 00000000 		.word	stCloseTCP
 1462              		.cfi_endproc
 1463              	.LFE100:
 1464              		.size	stCommandMode, .-stCommandMode
 1465              		.section	.text.sm_flush,"ax",%progbits
 1466              		.align	2
 1467              		.global	sm_flush
 1468              		.thumb
 1469              		.thumb_func
 1470              		.type	sm_flush, %function
 1471              	sm_flush:
 1472              	.LFB81:
 260:ZumoLibrary/esp8266_socket.c ****     //DEBUGP("flush: %d\n", (int)xSerialRxWaiting(ctx->ComPort));
 1473              		.loc 1 260 0 is_stmt 1
ARM GAS  C:\Users\samue\AppData\Local\Temp\ccJDNHzo.s 			page 46


 1474              		.cfi_startproc
 1475              		@ args = 0, pretend = 0, frame = 0
 1476              		@ frame_needed = 0, uses_anonymous_args = 0
 1477              	.LVL186:
 1478 0000 10B5     		push	{r4, lr}
 1479              		.cfi_def_cfa_offset 8
 1480              		.cfi_offset 4, -8
 1481              		.cfi_offset 14, -4
 1482 0002 0446     		mov	r4, r0
 1483              	.LVL187:
 1484              	.L134:
 1485              	.LBB93:
 1486              	.LBB94:
 111:ZumoLibrary/esp8266_socket.c **** }
 1487              		.loc 1 111 0 discriminator 1
 1488 0004 0A22     		movs	r2, #10
 1489 0006 04F12001 		add	r1, r4, #32
 1490              	.LVL188:
 1491 000a 2069     		ldr	r0, [r4, #16]
 1492 000c FFF7FEFF 		bl	xSerialGetChar
 1493              	.LVL189:
 1494              	.LBE94:
 1495              	.LBE93:
 262:ZumoLibrary/esp8266_socket.c **** }
 1496              		.loc 1 262 0 discriminator 1
 1497 0010 0028     		cmp	r0, #0
 1498 0012 F7D1     		bne	.L134
 263:ZumoLibrary/esp8266_socket.c **** 
 1499              		.loc 1 263 0
 1500 0014 10BD     		pop	{r4, pc}
 1501              		.cfi_endproc
 1502              	.LFE81:
 1503              		.size	sm_flush, .-sm_flush
 1504 0016 00BF     		.section	.text.sm_read_buffer,"ax",%progbits
 1505              		.align	2
 1506              		.global	sm_read_buffer
 1507              		.thumb
 1508              		.thumb_func
 1509              		.type	sm_read_buffer, %function
 1510              	sm_read_buffer:
 1511              	.LFB82:
 269:ZumoLibrary/esp8266_socket.c ****     while(ctx->pos < (SMI_BUFSIZE - 1) && ctx->pos < count && serial_get(ctx, ctx->buffer + ctx->po
 1512              		.loc 1 269 0
 1513              		.cfi_startproc
 1514              		@ args = 0, pretend = 0, frame = 0
 1515              		@ frame_needed = 0, uses_anonymous_args = 0
 1516              	.LVL190:
 1517 0000 38B5     		push	{r3, r4, r5, lr}
 1518              		.cfi_def_cfa_offset 16
 1519              		.cfi_offset 3, -16
 1520              		.cfi_offset 4, -12
 1521              		.cfi_offset 5, -8
 1522              		.cfi_offset 14, -4
 1523 0002 0446     		mov	r4, r0
 1524 0004 0D46     		mov	r5, r1
 270:ZumoLibrary/esp8266_socket.c ****         //putchar(ctx->buffer[ctx->pos]); // debugging
 1525              		.loc 1 270 0
ARM GAS  C:\Users\samue\AppData\Local\Temp\ccJDNHzo.s 			page 47


 1526 0006 02E0     		b	.L137
 1527              	.LVL191:
 1528              	.L139:
 272:ZumoLibrary/esp8266_socket.c ****     }
 1529              		.loc 1 272 0
 1530 0008 E369     		ldr	r3, [r4, #28]
 1531 000a 0133     		adds	r3, r3, #1
 1532 000c E361     		str	r3, [r4, #28]
 1533              	.L137:
 270:ZumoLibrary/esp8266_socket.c ****         //putchar(ctx->buffer[ctx->pos]); // debugging
 1534              		.loc 1 270 0
 1535 000e E369     		ldr	r3, [r4, #28]
 1536 0010 4E2B     		cmp	r3, #78
 1537 0012 0ADC     		bgt	.L138
 270:ZumoLibrary/esp8266_socket.c ****         //putchar(ctx->buffer[ctx->pos]); // debugging
 1538              		.loc 1 270 0 is_stmt 0 discriminator 1
 1539 0014 AB42     		cmp	r3, r5
 1540 0016 08DA     		bge	.L138
 270:ZumoLibrary/esp8266_socket.c ****         //putchar(ctx->buffer[ctx->pos]); // debugging
 1541              		.loc 1 270 0 discriminator 2
 1542 0018 04F12001 		add	r1, r4, #32
 1543              	.LVL192:
 1544              	.LBB95:
 1545              	.LBB96:
 111:ZumoLibrary/esp8266_socket.c **** }
 1546              		.loc 1 111 0 is_stmt 1 discriminator 2
 1547 001c 0A22     		movs	r2, #10
 1548 001e 1944     		add	r1, r1, r3
 1549 0020 2069     		ldr	r0, [r4, #16]
 1550 0022 FFF7FEFF 		bl	xSerialGetChar
 1551              	.LVL193:
 1552              	.LBE96:
 1553              	.LBE95:
 270:ZumoLibrary/esp8266_socket.c ****         //putchar(ctx->buffer[ctx->pos]); // debugging
 1554              		.loc 1 270 0 discriminator 2
 1555 0026 0028     		cmp	r0, #0
 1556 0028 EED1     		bne	.L139
 1557              	.L138:
 274:ZumoLibrary/esp8266_socket.c **** }
 1558              		.loc 1 274 0
 1559 002a E069     		ldr	r0, [r4, #28]
 275:ZumoLibrary/esp8266_socket.c **** 
 1560              		.loc 1 275 0
 1561 002c 8542     		cmp	r5, r0
 1562 002e CCBF     		ite	gt
 1563 0030 0020     		movgt	r0, #0
 1564 0032 0120     		movle	r0, #1
 1565 0034 38BD     		pop	{r3, r4, r5, pc}
 1566              		.cfi_endproc
 1567              	.LFE82:
 1568              		.size	sm_read_buffer, .-sm_read_buffer
 1569 0036 00BF     		.section	.text.sm_read_int,"ax",%progbits
 1570              		.align	2
 1571              		.global	sm_read_int
 1572              		.thumb
 1573              		.thumb_func
 1574              		.type	sm_read_int, %function
ARM GAS  C:\Users\samue\AppData\Local\Temp\ccJDNHzo.s 			page 48


 1575              	sm_read_int:
 1576              	.LFB83:
 281:ZumoLibrary/esp8266_socket.c ****     bool result = false;
 1577              		.loc 1 281 0
 1578              		.cfi_startproc
 1579              		@ args = 0, pretend = 0, frame = 0
 1580              		@ frame_needed = 0, uses_anonymous_args = 0
 1581              	.LVL194:
 1582 0000 70B5     		push	{r4, r5, r6, lr}
 1583              		.cfi_def_cfa_offset 16
 1584              		.cfi_offset 4, -16
 1585              		.cfi_offset 5, -12
 1586              		.cfi_offset 6, -8
 1587              		.cfi_offset 14, -4
 1588 0002 0446     		mov	r4, r0
 1589 0004 0D46     		mov	r5, r1
 1590              	.LVL195:
 283:ZumoLibrary/esp8266_socket.c ****         if(!isdigit(ctx->buffer[ctx->pos])) {
 1591              		.loc 1 283 0
 1592 0006 16E0     		b	.L142
 1593              	.LVL196:
 1594              	.L145:
 284:ZumoLibrary/esp8266_socket.c ****             ctx->buffer[ctx->pos] = '\0';
 1595              		.loc 1 284 0
 1596 0008 E369     		ldr	r3, [r4, #28]
 1597 000a E218     		adds	r2, r4, r3
 1598 000c 92F82020 		ldrb	r2, [r2, #32]	@ zero_extendqisi2
 1599 0010 1049     		ldr	r1, .L148
 1600 0012 0968     		ldr	r1, [r1]
 1601 0014 0A44     		add	r2, r2, r1
 1602 0016 5278     		ldrb	r2, [r2, #1]	@ zero_extendqisi2
 1603 0018 12F0040F 		tst	r2, #4
 1604 001c 09D1     		bne	.L143
 285:ZumoLibrary/esp8266_socket.c ****             *value = atoi(ctx->buffer);
 1605              		.loc 1 285 0
 1606 001e 1C44     		add	r4, r4, r3
 1607              	.LVL197:
 1608 0020 0023     		movs	r3, #0
 1609 0022 84F82030 		strb	r3, [r4, #32]
 286:ZumoLibrary/esp8266_socket.c ****             result = true;
 1610              		.loc 1 286 0
 1611 0026 3046     		mov	r0, r6
 1612 0028 FFF7FEFF 		bl	atoi
 1613              	.LVL198:
 1614 002c 2860     		str	r0, [r5]
 1615              	.LVL199:
 287:ZumoLibrary/esp8266_socket.c ****             break;
 1616              		.loc 1 287 0
 1617 002e 0120     		movs	r0, #1
 288:ZumoLibrary/esp8266_socket.c ****         }
 1618              		.loc 1 288 0
 1619 0030 70BD     		pop	{r4, r5, r6, pc}
 1620              	.LVL200:
 1621              	.L143:
 291:ZumoLibrary/esp8266_socket.c ****         }
 1622              		.loc 1 291 0
 1623 0032 0133     		adds	r3, r3, #1
ARM GAS  C:\Users\samue\AppData\Local\Temp\ccJDNHzo.s 			page 49


 1624 0034 E361     		str	r3, [r4, #28]
 1625              	.L142:
 283:ZumoLibrary/esp8266_socket.c ****         if(!isdigit(ctx->buffer[ctx->pos])) {
 1626              		.loc 1 283 0
 1627 0036 E169     		ldr	r1, [r4, #28]
 1628 0038 4E29     		cmp	r1, #78
 1629 003a 09DC     		bgt	.L146
 283:ZumoLibrary/esp8266_socket.c ****         if(!isdigit(ctx->buffer[ctx->pos])) {
 1630              		.loc 1 283 0 is_stmt 0 discriminator 1
 1631 003c 04F12006 		add	r6, r4, #32
 1632              	.LVL201:
 1633              	.LBB97:
 1634              	.LBB98:
 111:ZumoLibrary/esp8266_socket.c **** }
 1635              		.loc 1 111 0 is_stmt 1 discriminator 1
 1636 0040 0A22     		movs	r2, #10
 1637 0042 3144     		add	r1, r1, r6
 1638              	.LVL202:
 1639 0044 2069     		ldr	r0, [r4, #16]
 1640 0046 FFF7FEFF 		bl	xSerialGetChar
 1641              	.LVL203:
 1642              	.LBE98:
 1643              	.LBE97:
 283:ZumoLibrary/esp8266_socket.c ****         if(!isdigit(ctx->buffer[ctx->pos])) {
 1644              		.loc 1 283 0 discriminator 1
 1645 004a 0028     		cmp	r0, #0
 1646 004c DCD1     		bne	.L145
 1647 004e 70BD     		pop	{r4, r5, r6, pc}
 1648              	.LVL204:
 1649              	.L146:
 282:ZumoLibrary/esp8266_socket.c ****     while(ctx->pos < (SMI_BUFSIZE - 1) && serial_get(ctx, ctx->buffer + ctx->pos)) {
 1650              		.loc 1 282 0
 1651 0050 0020     		movs	r0, #0
 1652              	.LVL205:
 295:ZumoLibrary/esp8266_socket.c **** 
 1653              		.loc 1 295 0
 1654 0052 70BD     		pop	{r4, r5, r6, pc}
 1655              	.LVL206:
 1656              	.L149:
 1657              		.align	2
 1658              	.L148:
 1659 0054 00000000 		.word	__ctype_ptr__
 1660              		.cfi_endproc
 1661              	.LFE83:
 1662              		.size	sm_read_int, .-sm_read_int
 1663              		.section	.text.sm_read_until,"ax",%progbits
 1664              		.align	2
 1665              		.global	sm_read_until
 1666              		.thumb
 1667              		.thumb_func
 1668              		.type	sm_read_until, %function
 1669              	sm_read_until:
 1670              	.LFB84:
 302:ZumoLibrary/esp8266_socket.c ****     int result = RC_NOT_AVAILABLE;
 1671              		.loc 1 302 0
 1672              		.cfi_startproc
 1673              		@ args = 0, pretend = 0, frame = 0
ARM GAS  C:\Users\samue\AppData\Local\Temp\ccJDNHzo.s 			page 50


 1674              		@ frame_needed = 0, uses_anonymous_args = 0
 1675              	.LVL207:
 1676 0000 2DE9F041 		push	{r4, r5, r6, r7, r8, lr}
 1677              		.cfi_def_cfa_offset 24
 1678              		.cfi_offset 4, -24
 1679              		.cfi_offset 5, -20
 1680              		.cfi_offset 6, -16
 1681              		.cfi_offset 7, -12
 1682              		.cfi_offset 8, -8
 1683              		.cfi_offset 14, -4
 1684 0004 8046     		mov	r8, r0
 1685 0006 0F46     		mov	r7, r1
 1686              	.LVL208:
 303:ZumoLibrary/esp8266_socket.c ****     while(result < 0 && ctx->pos < (SMI_BUFSIZE - 1) && serial_get(ctx, ctx->buffer + ctx->pos)) {
 1687              		.loc 1 303 0
 1688 0008 4FF0FF35 		mov	r5, #-1
 304:ZumoLibrary/esp8266_socket.c ****         ++ctx->pos;
 1689              		.loc 1 304 0
 1690 000c 15E0     		b	.L151
 1691              	.LVL209:
 1692              	.L156:
 305:ZumoLibrary/esp8266_socket.c ****         ctx->buffer[ctx->pos] = '\0';
 1693              		.loc 1 305 0
 1694 000e D8F81C30 		ldr	r3, [r8, #28]
 1695 0012 0133     		adds	r3, r3, #1
 1696 0014 C8F81C30 		str	r3, [r8, #28]
 306:ZumoLibrary/esp8266_socket.c ****         for(int i = 0; result < 0 && p[i] != NULL; ++i) {
 1697              		.loc 1 306 0
 1698 0018 4344     		add	r3, r3, r8
 1699 001a 0024     		movs	r4, #0
 1700 001c 83F82040 		strb	r4, [r3, #32]
 1701              	.LVL210:
 1702              	.LBB99:
 307:ZumoLibrary/esp8266_socket.c ****             if(strstr(ctx->buffer, p[i]) != NULL) {
 1703              		.loc 1 307 0
 1704 0020 05E0     		b	.L152
 1705              	.LVL211:
 1706              	.L154:
 308:ZumoLibrary/esp8266_socket.c ****                 result = i;
 1707              		.loc 1 308 0
 1708 0022 3046     		mov	r0, r6
 1709 0024 FFF7FEFF 		bl	strstr
 1710              	.LVL212:
 1711 0028 00B1     		cbz	r0, .L153
 309:ZumoLibrary/esp8266_socket.c ****             }
 1712              		.loc 1 309 0
 1713 002a 2546     		mov	r5, r4
 1714              	.LVL213:
 1715              	.L153:
 307:ZumoLibrary/esp8266_socket.c ****             if(strstr(ctx->buffer, p[i]) != NULL) {
 1716              		.loc 1 307 0 discriminator 2
 1717 002c 0134     		adds	r4, r4, #1
 1718              	.LVL214:
 1719              	.L152:
 307:ZumoLibrary/esp8266_socket.c ****             if(strstr(ctx->buffer, p[i]) != NULL) {
 1720              		.loc 1 307 0 is_stmt 0 discriminator 1
 1721 002e 002D     		cmp	r5, #0
ARM GAS  C:\Users\samue\AppData\Local\Temp\ccJDNHzo.s 			page 51


 1722 0030 03DA     		bge	.L151
 307:ZumoLibrary/esp8266_socket.c ****             if(strstr(ctx->buffer, p[i]) != NULL) {
 1723              		.loc 1 307 0 discriminator 3
 1724 0032 57F82410 		ldr	r1, [r7, r4, lsl #2]
 1725 0036 0029     		cmp	r1, #0
 1726 0038 F3D1     		bne	.L154
 1727              	.LVL215:
 1728              	.L151:
 1729              	.LBE99:
 304:ZumoLibrary/esp8266_socket.c ****         ++ctx->pos;
 1730              		.loc 1 304 0 is_stmt 1
 1731 003a 002D     		cmp	r5, #0
 1732 003c 0DDA     		bge	.L155
 304:ZumoLibrary/esp8266_socket.c ****         ++ctx->pos;
 1733              		.loc 1 304 0 is_stmt 0 discriminator 1
 1734 003e D8F81C10 		ldr	r1, [r8, #28]
 1735 0042 4E29     		cmp	r1, #78
 1736 0044 09DC     		bgt	.L155
 304:ZumoLibrary/esp8266_socket.c ****         ++ctx->pos;
 1737              		.loc 1 304 0 discriminator 2
 1738 0046 08F12006 		add	r6, r8, #32
 1739              	.LVL216:
 1740              	.LBB100:
 1741              	.LBB101:
 111:ZumoLibrary/esp8266_socket.c **** }
 1742              		.loc 1 111 0 is_stmt 1 discriminator 2
 1743 004a 0A22     		movs	r2, #10
 1744 004c 3144     		add	r1, r1, r6
 1745              	.LVL217:
 1746 004e D8F81000 		ldr	r0, [r8, #16]
 1747 0052 FFF7FEFF 		bl	xSerialGetChar
 1748              	.LVL218:
 1749              	.LBE101:
 1750              	.LBE100:
 304:ZumoLibrary/esp8266_socket.c ****         ++ctx->pos;
 1751              		.loc 1 304 0 discriminator 2
 1752 0056 0028     		cmp	r0, #0
 1753 0058 D9D1     		bne	.L156
 1754              	.L155:
 315:ZumoLibrary/esp8266_socket.c **** 
 1755              		.loc 1 315 0
 1756 005a 2846     		mov	r0, r5
 1757 005c BDE8F081 		pop	{r4, r5, r6, r7, r8, pc}
 1758              		.cfi_endproc
 1759              	.LFE84:
 1760              		.size	sm_read_until, .-sm_read_until
 1761              		.section	.text.sm_read_result,"ax",%progbits
 1762              		.align	2
 1763              		.global	sm_read_result
 1764              		.thumb
 1765              		.thumb_func
 1766              		.type	sm_read_result, %function
 1767              	sm_read_result:
 1768              	.LFB85:
 319:ZumoLibrary/esp8266_socket.c ****     static const char *result_list[] = { "OK\r\n", "ERROR\r\n", NULL };
 1769              		.loc 1 319 0
 1770              		.cfi_startproc
ARM GAS  C:\Users\samue\AppData\Local\Temp\ccJDNHzo.s 			page 52


 1771              		@ args = 0, pretend = 0, frame = 0
 1772              		@ frame_needed = 0, uses_anonymous_args = 0
 1773              	.LVL219:
 1774 0000 08B5     		push	{r3, lr}
 1775              		.cfi_def_cfa_offset 8
 1776              		.cfi_offset 3, -8
 1777              		.cfi_offset 14, -4
 321:ZumoLibrary/esp8266_socket.c **** }
 1778              		.loc 1 321 0
 1779 0002 0249     		ldr	r1, .L161
 1780 0004 FFF7FEFF 		bl	sm_read_until
 1781              	.LVL220:
 322:ZumoLibrary/esp8266_socket.c **** 
 1782              		.loc 1 322 0
 1783 0008 08BD     		pop	{r3, pc}
 1784              	.L162:
 1785 000a 00BF     		.align	2
 1786              	.L161:
 1787 000c 00000000 		.word	.LANCHOR1
 1788              		.cfi_endproc
 1789              	.LFE85:
 1790              		.size	sm_read_result, .-sm_read_result
 1791              		.section	.text.stStationModeCheck,"ax",%progbits
 1792              		.align	2
 1793              		.global	stStationModeCheck
 1794              		.thumb
 1795              		.thumb_func
 1796              		.type	stStationModeCheck, %function
 1797              	stStationModeCheck:
 1798              	.LFB90:
 437:ZumoLibrary/esp8266_socket.c ****     int rc = -1;
 1799              		.loc 1 437 0
 1800              		.cfi_startproc
 1801              		@ args = 0, pretend = 0, frame = 0
 1802              		@ frame_needed = 0, uses_anonymous_args = 0
 1803              	.LVL221:
 1804 0000 38B5     		push	{r3, r4, r5, lr}
 1805              		.cfi_def_cfa_offset 16
 1806              		.cfi_offset 3, -16
 1807              		.cfi_offset 4, -12
 1808              		.cfi_offset 5, -8
 1809              		.cfi_offset 14, -4
 1810 0002 0546     		mov	r5, r0
 1811              	.LVL222:
 439:ZumoLibrary/esp8266_socket.c **** 	case eEnter:
 1812              		.loc 1 439 0
 1813 0004 0B78     		ldrb	r3, [r1]	@ zero_extendqisi2
 1814 0006 13B1     		cbz	r3, .L165
 1815 0008 032B     		cmp	r3, #3
 1816 000a 13D0     		beq	.L166
 1817 000c 38BD     		pop	{r3, r4, r5, pc}
 1818              	.L165:
 441:ZumoLibrary/esp8266_socket.c ****         init_counters(ctx);
 1819              		.loc 1 441 0
 1820 000e 1448     		ldr	r0, .L171
 1821              	.LVL223:
 1822 0010 FFF7FEFF 		bl	puts
ARM GAS  C:\Users\samue\AppData\Local\Temp\ccJDNHzo.s 			page 53


 1823              	.LVL224:
 442:ZumoLibrary/esp8266_socket.c ****         serial_write_str(ctx, "AT+CWMODE_CUR?\r\n");
 1824              		.loc 1 442 0
 1825 0014 2846     		mov	r0, r5
 1826 0016 FFF7FEFF 		bl	init_counters
 1827              	.LVL225:
 1828 001a 124C     		ldr	r4, .L171+4
 1829 001c 06E0     		b	.L167
 1830              	.LVL226:
 1831              	.L168:
 1832              	.LBB102:
 1833              	.LBB103:
 104:ZumoLibrary/esp8266_socket.c ****         //UART_1_PutChar(*s++);
 1834              		.loc 1 104 0
 1835 001e 0134     		adds	r4, r4, #1
 1836              	.LVL227:
 1837 0020 4FF0FF32 		mov	r2, #-1
 1838 0024 49B2     		sxtb	r1, r1
 1839 0026 2869     		ldr	r0, [r5, #16]
 1840 0028 FFF7FEFF 		bl	xSerialPutChar
 1841              	.LVL228:
 1842              	.L167:
 103:ZumoLibrary/esp8266_socket.c ****         xSerialPutChar(ctx->ComPort,*s++,portMAX_DELAY);
 1843              		.loc 1 103 0
 1844 002c 2178     		ldrb	r1, [r4]	@ zero_extendqisi2
 1845 002e 0029     		cmp	r1, #0
 1846 0030 F5D1     		bne	.L168
 1847 0032 38BD     		pop	{r3, r4, r5, pc}
 1848              	.LVL229:
 1849              	.L166:
 1850              	.LBE103:
 1851              	.LBE102:
 450:ZumoLibrary/esp8266_socket.c ****         if(rc == RC_OK) {
 1852              		.loc 1 450 0
 1853 0034 FFF7FEFF 		bl	sm_read_result
 1854              	.LVL230:
 451:ZumoLibrary/esp8266_socket.c ****             DEBUGP("%d: %s", rc, ctx->buffer);
 1855              		.loc 1 451 0
 1856 0038 0146     		mov	r1, r0
 1857 003a 78B9     		cbnz	r0, .L163
 452:ZumoLibrary/esp8266_socket.c ****             if(strstr(ctx->buffer, "+CWMODE_CUR:1\r\n") != NULL) {
 1858              		.loc 1 452 0
 1859 003c 05F12004 		add	r4, r5, #32
 1860 0040 2246     		mov	r2, r4
 1861 0042 0948     		ldr	r0, .L171+8
 1862              	.LVL231:
 1863 0044 FFF7FEFF 		bl	printf
 1864              	.LVL232:
 453:ZumoLibrary/esp8266_socket.c ****                 TRAN(stConnectAP);
 1865              		.loc 1 453 0
 1866 0048 0849     		ldr	r1, .L171+12
 1867 004a 2046     		mov	r0, r4
 1868 004c FFF7FEFF 		bl	strstr
 1869              	.LVL233:
 1870 0050 10B1     		cbz	r0, .L169
 454:ZumoLibrary/esp8266_socket.c ****             }
 1871              		.loc 1 454 0
ARM GAS  C:\Users\samue\AppData\Local\Temp\ccJDNHzo.s 			page 54


 1872 0052 074B     		ldr	r3, .L171+16
 1873 0054 6B60     		str	r3, [r5, #4]
 1874 0056 38BD     		pop	{r3, r4, r5, pc}
 1875              	.LVL234:
 1876              	.L169:
 457:ZumoLibrary/esp8266_socket.c ****             }
 1877              		.loc 1 457 0
 1878 0058 064B     		ldr	r3, .L171+20
 1879 005a 6B60     		str	r3, [r5, #4]
 1880              	.L163:
 1881 005c 38BD     		pop	{r3, r4, r5, pc}
 1882              	.LVL235:
 1883              	.L172:
 1884 005e 00BF     		.align	2
 1885              	.L171:
 1886 0060 98000000 		.word	.LC15
 1887 0064 84000000 		.word	.LC14
 1888 0068 AC000000 		.word	.LC16
 1889 006c B4000000 		.word	.LC17
 1890 0070 00000000 		.word	stConnectAP
 1891 0074 00000000 		.word	stStationModeSet
 1892              		.cfi_endproc
 1893              	.LFE90:
 1894              		.size	stStationModeCheck, .-stStationModeCheck
 1895              		.section	.text.stConnectAP,"ax",%progbits
 1896              		.align	2
 1897              		.global	stConnectAP
 1898              		.thumb
 1899              		.thumb_func
 1900              		.type	stConnectAP, %function
 1901              	stConnectAP:
 1902              	.LFB93:
 501:ZumoLibrary/esp8266_socket.c ****     int rc;
 1903              		.loc 1 501 0
 1904              		.cfi_startproc
 1905              		@ args = 0, pretend = 0, frame = 0
 1906              		@ frame_needed = 0, uses_anonymous_args = 0
 1907              	.LVL236:
 1908 0000 10B5     		push	{r4, lr}
 1909              		.cfi_def_cfa_offset 8
 1910              		.cfi_offset 4, -8
 1911              		.cfi_offset 14, -4
 1912 0002 0446     		mov	r4, r0
 503:ZumoLibrary/esp8266_socket.c **** 	case eEnter:
 1913              		.loc 1 503 0
 1914 0004 0B78     		ldrb	r3, [r1]	@ zero_extendqisi2
 1915 0006 022B     		cmp	r3, #2
 1916 0008 09D0     		beq	.L175
 1917 000a 032B     		cmp	r3, #3
 1918 000c 14D0     		beq	.L176
 1919 000e C3B9     		cbnz	r3, .L173
 505:ZumoLibrary/esp8266_socket.c ****         init_counters(ctx);
 1920              		.loc 1 505 0
 1921 0010 0C48     		ldr	r0, .L180
 1922              	.LVL237:
 1923 0012 FFF7FEFF 		bl	puts
 1924              	.LVL238:
ARM GAS  C:\Users\samue\AppData\Local\Temp\ccJDNHzo.s 			page 55


 506:ZumoLibrary/esp8266_socket.c **** 		break;
 1925              		.loc 1 506 0
 1926 0016 2046     		mov	r0, r4
 1927 0018 FFF7FEFF 		bl	init_counters
 1928              	.LVL239:
 507:ZumoLibrary/esp8266_socket.c **** 	case eExit:
 1929              		.loc 1 507 0
 1930 001c 10BD     		pop	{r4, pc}
 1931              	.LVL240:
 1932              	.L175:
 512:ZumoLibrary/esp8266_socket.c ****         if(ctx->timer == 1) {
 1933              		.loc 1 512 0
 1934 001e 4369     		ldr	r3, [r0, #20]
 1935 0020 0133     		adds	r3, r3, #1
 1936 0022 4361     		str	r3, [r0, #20]
 513:ZumoLibrary/esp8266_socket.c ****             connect_ssid(ctx);
 1937              		.loc 1 513 0
 1938 0024 012B     		cmp	r3, #1
 1939 0026 01D1     		bne	.L178
 514:ZumoLibrary/esp8266_socket.c ****         }
 1940              		.loc 1 514 0
 1941 0028 FFF7FEFF 		bl	connect_ssid
 1942              	.LVL241:
 1943              	.L178:
 516:ZumoLibrary/esp8266_socket.c ****             ctx->timer = 0;
 1944              		.loc 1 516 0
 1945 002c 6369     		ldr	r3, [r4, #20]
 1946 002e 452B     		cmp	r3, #69
 1947 0030 07DD     		ble	.L173
 517:ZumoLibrary/esp8266_socket.c ****         }
 1948              		.loc 1 517 0
 1949 0032 0023     		movs	r3, #0
 1950 0034 6361     		str	r3, [r4, #20]
 1951 0036 10BD     		pop	{r4, pc}
 1952              	.LVL242:
 1953              	.L176:
 521:ZumoLibrary/esp8266_socket.c ****         if(rc == RC_OK) {
 1954              		.loc 1 521 0
 1955 0038 FFF7FEFF 		bl	sm_read_result
 1956              	.LVL243:
 522:ZumoLibrary/esp8266_socket.c ****             //DEBUGP("%d: %s", rc, ctx->buffer);
 1957              		.loc 1 522 0
 1958 003c 08B9     		cbnz	r0, .L173
 524:ZumoLibrary/esp8266_socket.c ****         }
 1959              		.loc 1 524 0
 1960 003e 024B     		ldr	r3, .L180+4
 1961 0040 6360     		str	r3, [r4, #4]
 1962              	.LVL244:
 1963              	.L173:
 1964 0042 10BD     		pop	{r4, pc}
 1965              	.LVL245:
 1966              	.L181:
 1967              		.align	2
 1968              	.L180:
 1969 0044 C4000000 		.word	.LC18
 1970 0048 00000000 		.word	stReady
 1971              		.cfi_endproc
ARM GAS  C:\Users\samue\AppData\Local\Temp\ccJDNHzo.s 			page 56


 1972              	.LFE93:
 1973              		.size	stConnectAP, .-stConnectAP
 1974              		.section	.text.stConnectTCP,"ax",%progbits
 1975              		.align	2
 1976              		.global	stConnectTCP
 1977              		.thumb
 1978              		.thumb_func
 1979              		.type	stConnectTCP, %function
 1980              	stConnectTCP:
 1981              	.LFB96:
 577:ZumoLibrary/esp8266_socket.c ****     int rc;
 1982              		.loc 1 577 0
 1983              		.cfi_startproc
 1984              		@ args = 0, pretend = 0, frame = 0
 1985              		@ frame_needed = 0, uses_anonymous_args = 0
 1986              	.LVL246:
 1987 0000 10B5     		push	{r4, lr}
 1988              		.cfi_def_cfa_offset 8
 1989              		.cfi_offset 4, -8
 1990              		.cfi_offset 14, -4
 1991 0002 0446     		mov	r4, r0
 579:ZumoLibrary/esp8266_socket.c **** 	case eEnter:
 1992              		.loc 1 579 0
 1993 0004 0B78     		ldrb	r3, [r1]	@ zero_extendqisi2
 1994 0006 13B1     		cbz	r3, .L184
 1995 0008 032B     		cmp	r3, #3
 1996 000a 0AD0     		beq	.L185
 1997 000c 10BD     		pop	{r4, pc}
 1998              	.L184:
 581:ZumoLibrary/esp8266_socket.c ****         init_counters(ctx);
 1999              		.loc 1 581 0
 2000 000e 0F48     		ldr	r0, .L188
 2001              	.LVL247:
 2002 0010 FFF7FEFF 		bl	puts
 2003              	.LVL248:
 582:ZumoLibrary/esp8266_socket.c ****         connect_tcp(ctx);
 2004              		.loc 1 582 0
 2005 0014 2046     		mov	r0, r4
 2006 0016 FFF7FEFF 		bl	init_counters
 2007              	.LVL249:
 583:ZumoLibrary/esp8266_socket.c **** 		break;
 2008              		.loc 1 583 0
 2009 001a 2046     		mov	r0, r4
 2010 001c FFF7FEFF 		bl	connect_tcp
 2011              	.LVL250:
 584:ZumoLibrary/esp8266_socket.c **** 	case eExit:
 2012              		.loc 1 584 0
 2013 0020 10BD     		pop	{r4, pc}
 2014              	.LVL251:
 2015              	.L185:
 590:ZumoLibrary/esp8266_socket.c ****         if(rc == RC_OK) {
 2016              		.loc 1 590 0
 2017 0022 FFF7FEFF 		bl	sm_read_result
 2018              	.LVL252:
 591:ZumoLibrary/esp8266_socket.c ****             //DEBUGP("%d: %s", rc, ctx->buffer);
 2019              		.loc 1 591 0
 2020 0026 40B9     		cbnz	r0, .L186
ARM GAS  C:\Users\samue\AppData\Local\Temp\ccJDNHzo.s 			page 57


 593:ZumoLibrary/esp8266_socket.c ****                 TRAN(stPassthrough);
 2021              		.loc 1 593 0
 2022 0028 0949     		ldr	r1, .L188+4
 2023 002a 04F12000 		add	r0, r4, #32
 2024              	.LVL253:
 2025 002e FFF7FEFF 		bl	strstr
 2026              	.LVL254:
 2027 0032 50B1     		cbz	r0, .L182
 594:ZumoLibrary/esp8266_socket.c ****             }
 2028              		.loc 1 594 0
 2029 0034 074B     		ldr	r3, .L188+8
 2030 0036 6360     		str	r3, [r4, #4]
 2031 0038 10BD     		pop	{r4, pc}
 2032              	.LVL255:
 2033              	.L186:
 600:ZumoLibrary/esp8266_socket.c ****             // failed: what to do now?
 2034              		.loc 1 600 0
 2035 003a 0128     		cmp	r0, #1
 2036 003c 05D1     		bne	.L182
 602:ZumoLibrary/esp8266_socket.c ****             connect_tcp(ctx);
 2037              		.loc 1 602 0
 2038 003e 0648     		ldr	r0, .L188+12
 2039              	.LVL256:
 2040 0040 FFF7FEFF 		bl	puts
 2041              	.LVL257:
 603:ZumoLibrary/esp8266_socket.c ****         }
 2042              		.loc 1 603 0
 2043 0044 2046     		mov	r0, r4
 2044 0046 FFF7FEFF 		bl	connect_tcp
 2045              	.LVL258:
 2046              	.L182:
 2047 004a 10BD     		pop	{r4, pc}
 2048              	.LVL259:
 2049              	.L189:
 2050              		.align	2
 2051              	.L188:
 2052 004c D0000000 		.word	.LC19
 2053 0050 E0000000 		.word	.LC20
 2054 0054 00000000 		.word	stPassthrough
 2055 0058 EC000000 		.word	.LC21
 2056              		.cfi_endproc
 2057              	.LFE96:
 2058              		.size	stConnectTCP, .-stConnectTCP
 2059              		.section	.text.stPassthrough,"ax",%progbits
 2060              		.align	2
 2061              		.global	stPassthrough
 2062              		.thumb
 2063              		.thumb_func
 2064              		.type	stPassthrough, %function
 2065              	stPassthrough:
 2066              	.LFB97:
 613:ZumoLibrary/esp8266_socket.c ****     int rc;
 2067              		.loc 1 613 0
 2068              		.cfi_startproc
 2069              		@ args = 0, pretend = 0, frame = 0
 2070              		@ frame_needed = 0, uses_anonymous_args = 0
 2071              	.LVL260:
ARM GAS  C:\Users\samue\AppData\Local\Temp\ccJDNHzo.s 			page 58


 2072 0000 38B5     		push	{r3, r4, r5, lr}
 2073              		.cfi_def_cfa_offset 16
 2074              		.cfi_offset 3, -16
 2075              		.cfi_offset 4, -12
 2076              		.cfi_offset 5, -8
 2077              		.cfi_offset 14, -4
 2078 0002 0546     		mov	r5, r0
 615:ZumoLibrary/esp8266_socket.c **** 	case eEnter:
 2079              		.loc 1 615 0
 2080 0004 0B78     		ldrb	r3, [r1]	@ zero_extendqisi2
 2081 0006 13B1     		cbz	r3, .L192
 2082 0008 032B     		cmp	r3, #3
 2083 000a 13D0     		beq	.L193
 2084 000c 38BD     		pop	{r3, r4, r5, pc}
 2085              	.L192:
 617:ZumoLibrary/esp8266_socket.c ****         init_counters(ctx);
 2086              		.loc 1 617 0
 2087 000e 0C48     		ldr	r0, .L197
 2088              	.LVL261:
 2089 0010 FFF7FEFF 		bl	puts
 2090              	.LVL262:
 618:ZumoLibrary/esp8266_socket.c ****         serial_write_str(ctx, "AT+CIPMODE=1\r\n");
 2091              		.loc 1 618 0
 2092 0014 2846     		mov	r0, r5
 2093 0016 FFF7FEFF 		bl	init_counters
 2094              	.LVL263:
 2095 001a 0A4C     		ldr	r4, .L197+4
 2096 001c 06E0     		b	.L194
 2097              	.LVL264:
 2098              	.L195:
 2099              	.LBB104:
 2100              	.LBB105:
 104:ZumoLibrary/esp8266_socket.c ****         //UART_1_PutChar(*s++);
 2101              		.loc 1 104 0
 2102 001e 0134     		adds	r4, r4, #1
 2103              	.LVL265:
 2104 0020 4FF0FF32 		mov	r2, #-1
 2105 0024 49B2     		sxtb	r1, r1
 2106 0026 2869     		ldr	r0, [r5, #16]
 2107 0028 FFF7FEFF 		bl	xSerialPutChar
 2108              	.LVL266:
 2109              	.L194:
 103:ZumoLibrary/esp8266_socket.c ****         xSerialPutChar(ctx->ComPort,*s++,portMAX_DELAY);
 2110              		.loc 1 103 0
 2111 002c 2178     		ldrb	r1, [r4]	@ zero_extendqisi2
 2112 002e 0029     		cmp	r1, #0
 2113 0030 F5D1     		bne	.L195
 2114 0032 38BD     		pop	{r3, r4, r5, pc}
 2115              	.LVL267:
 2116              	.L193:
 2117              	.LBE105:
 2118              	.LBE104:
 626:ZumoLibrary/esp8266_socket.c ****         if(rc == RC_OK) {
 2119              		.loc 1 626 0
 2120 0034 FFF7FEFF 		bl	sm_read_result
 2121              	.LVL268:
 627:ZumoLibrary/esp8266_socket.c ****             TRAN(stPassthroughOK);
ARM GAS  C:\Users\samue\AppData\Local\Temp\ccJDNHzo.s 			page 59


 2122              		.loc 1 627 0
 2123 0038 08B9     		cbnz	r0, .L190
 628:ZumoLibrary/esp8266_socket.c ****         }
 2124              		.loc 1 628 0
 2125 003a 034B     		ldr	r3, .L197+8
 2126 003c 6B60     		str	r3, [r5, #4]
 2127              	.L190:
 2128 003e 38BD     		pop	{r3, r4, r5, pc}
 2129              	.LVL269:
 2130              	.L198:
 2131              		.align	2
 2132              	.L197:
 2133 0040 0C010000 		.word	.LC23
 2134 0044 FC000000 		.word	.LC22
 2135 0048 00000000 		.word	stPassthroughOK
 2136              		.cfi_endproc
 2137              	.LFE97:
 2138              		.size	stPassthrough, .-stPassthrough
 2139              		.section	.text.stCloseTCP,"ax",%progbits
 2140              		.align	2
 2141              		.global	stCloseTCP
 2142              		.thumb
 2143              		.thumb_func
 2144              		.type	stCloseTCP, %function
 2145              	stCloseTCP:
 2146              	.LFB101:
 733:ZumoLibrary/esp8266_socket.c ****     int rc = -1;
 2147              		.loc 1 733 0
 2148              		.cfi_startproc
 2149              		@ args = 0, pretend = 0, frame = 0
 2150              		@ frame_needed = 0, uses_anonymous_args = 0
 2151              	.LVL270:
 2152 0000 38B5     		push	{r3, r4, r5, lr}
 2153              		.cfi_def_cfa_offset 16
 2154              		.cfi_offset 3, -16
 2155              		.cfi_offset 4, -12
 2156              		.cfi_offset 5, -8
 2157              		.cfi_offset 14, -4
 2158 0002 0546     		mov	r5, r0
 2159              	.LVL271:
 735:ZumoLibrary/esp8266_socket.c **** 	case eEnter:
 2160              		.loc 1 735 0
 2161 0004 0B78     		ldrb	r3, [r1]	@ zero_extendqisi2
 2162 0006 13B1     		cbz	r3, .L201
 2163 0008 032B     		cmp	r3, #3
 2164 000a 13D0     		beq	.L202
 2165 000c 38BD     		pop	{r3, r4, r5, pc}
 2166              	.L201:
 737:ZumoLibrary/esp8266_socket.c ****         init_counters(ctx);
 2167              		.loc 1 737 0
 2168 000e 1748     		ldr	r0, .L209
 2169              	.LVL272:
 2170 0010 FFF7FEFF 		bl	puts
 2171              	.LVL273:
 738:ZumoLibrary/esp8266_socket.c ****         serial_write_str(ctx, "AT+CIPMODE=0\r\n");;
 2172              		.loc 1 738 0
 2173 0014 2846     		mov	r0, r5
ARM GAS  C:\Users\samue\AppData\Local\Temp\ccJDNHzo.s 			page 60


 2174 0016 FFF7FEFF 		bl	init_counters
 2175              	.LVL274:
 2176 001a 154C     		ldr	r4, .L209+4
 2177 001c 06E0     		b	.L203
 2178              	.LVL275:
 2179              	.L204:
 2180              	.LBB106:
 2181              	.LBB107:
 104:ZumoLibrary/esp8266_socket.c ****         //UART_1_PutChar(*s++);
 2182              		.loc 1 104 0
 2183 001e 0134     		adds	r4, r4, #1
 2184              	.LVL276:
 2185 0020 4FF0FF32 		mov	r2, #-1
 2186 0024 49B2     		sxtb	r1, r1
 2187 0026 2869     		ldr	r0, [r5, #16]
 2188 0028 FFF7FEFF 		bl	xSerialPutChar
 2189              	.LVL277:
 2190              	.L203:
 103:ZumoLibrary/esp8266_socket.c ****         xSerialPutChar(ctx->ComPort,*s++,portMAX_DELAY);
 2191              		.loc 1 103 0
 2192 002c 2178     		ldrb	r1, [r4]	@ zero_extendqisi2
 2193 002e 0029     		cmp	r1, #0
 2194 0030 F5D1     		bne	.L204
 2195 0032 38BD     		pop	{r3, r4, r5, pc}
 2196              	.LVL278:
 2197              	.L202:
 2198              	.LBE107:
 2199              	.LBE106:
 742:ZumoLibrary/esp8266_socket.c ****         if(rc == RC_OK) {
 2200              		.loc 1 742 0
 2201 0034 FFF7FEFF 		bl	sm_read_result
 2202              	.LVL279:
 743:ZumoLibrary/esp8266_socket.c ****             if(strstr(ctx->buffer, "CLOSED") != NULL) {
 2203              		.loc 1 743 0
 2204 0038 B8B9     		cbnz	r0, .L199
 744:ZumoLibrary/esp8266_socket.c ****                 TRAN(stReady);
 2205              		.loc 1 744 0
 2206 003a 0E49     		ldr	r1, .L209+8
 2207 003c 05F12000 		add	r0, r5, #32
 2208              	.LVL280:
 2209 0040 FFF7FEFF 		bl	strstr
 2210              	.LVL281:
 2211 0044 10B1     		cbz	r0, .L205
 745:ZumoLibrary/esp8266_socket.c ****             }
 2212              		.loc 1 745 0
 2213 0046 0C4B     		ldr	r3, .L209+12
 2214 0048 6B60     		str	r3, [r5, #4]
 2215 004a 38BD     		pop	{r3, r4, r5, pc}
 2216              	.LVL282:
 2217              	.L205:
 748:ZumoLibrary/esp8266_socket.c ****                 serial_write_str(ctx, "AT+CIPCLOSE\r\n");;
 2218              		.loc 1 748 0
 2219 004c 2846     		mov	r0, r5
 2220 004e FFF7FEFF 		bl	init_counters
 2221              	.LVL283:
 2222 0052 0A4C     		ldr	r4, .L209+16
 2223 0054 06E0     		b	.L206
ARM GAS  C:\Users\samue\AppData\Local\Temp\ccJDNHzo.s 			page 61


 2224              	.LVL284:
 2225              	.L207:
 2226              	.LBB108:
 2227              	.LBB109:
 104:ZumoLibrary/esp8266_socket.c ****         //UART_1_PutChar(*s++);
 2228              		.loc 1 104 0
 2229 0056 0134     		adds	r4, r4, #1
 2230              	.LVL285:
 2231 0058 4FF0FF32 		mov	r2, #-1
 2232 005c 49B2     		sxtb	r1, r1
 2233 005e 2869     		ldr	r0, [r5, #16]
 2234 0060 FFF7FEFF 		bl	xSerialPutChar
 2235              	.LVL286:
 2236              	.L206:
 103:ZumoLibrary/esp8266_socket.c ****         xSerialPutChar(ctx->ComPort,*s++,portMAX_DELAY);
 2237              		.loc 1 103 0
 2238 0064 2178     		ldrb	r1, [r4]	@ zero_extendqisi2
 2239 0066 0029     		cmp	r1, #0
 2240 0068 F5D1     		bne	.L207
 2241              	.LVL287:
 2242              	.L199:
 2243 006a 38BD     		pop	{r3, r4, r5, pc}
 2244              	.LVL288:
 2245              	.L210:
 2246              		.align	2
 2247              	.L209:
 2248 006c 3C010000 		.word	.LC26
 2249 0070 1C010000 		.word	.LC24
 2250 0074 48010000 		.word	.LC27
 2251 0078 00000000 		.word	stReady
 2252 007c 2C010000 		.word	.LC25
 2253              	.LBE109:
 2254              	.LBE108:
 2255              		.cfi_endproc
 2256              	.LFE101:
 2257              		.size	stCloseTCP, .-stCloseTCP
 2258              		.section	.text.sm_wait_for,"ax",%progbits
 2259              		.align	2
 2260              		.global	sm_wait_for
 2261              		.thumb
 2262              		.thumb_func
 2263              		.type	sm_wait_for, %function
 2264              	sm_wait_for:
 2265              	.LFB86:
 326:ZumoLibrary/esp8266_socket.c ****     bool result = false;
 2266              		.loc 1 326 0
 2267              		.cfi_startproc
 2268              		@ args = 0, pretend = 0, frame = 0
 2269              		@ frame_needed = 0, uses_anonymous_args = 0
 2270              	.LVL289:
 2271 0000 2DE9F041 		push	{r4, r5, r6, r7, r8, lr}
 2272              		.cfi_def_cfa_offset 24
 2273              		.cfi_offset 4, -24
 2274              		.cfi_offset 5, -20
 2275              		.cfi_offset 6, -16
 2276              		.cfi_offset 7, -12
 2277              		.cfi_offset 8, -8
ARM GAS  C:\Users\samue\AppData\Local\Temp\ccJDNHzo.s 			page 62


 2278              		.cfi_offset 14, -4
 2279 0004 0446     		mov	r4, r0
 2280 0006 0F46     		mov	r7, r1
 2281              	.LVL290:
 328:ZumoLibrary/esp8266_socket.c **** 
 2282              		.loc 1 328 0
 2283 0008 0846     		mov	r0, r1
 2284              	.LVL291:
 2285 000a FFF7FEFF 		bl	strlen
 2286              	.LVL292:
 2287 000e 8046     		mov	r8, r0
 2288              	.LVL293:
 330:ZumoLibrary/esp8266_socket.c ****         ctx->buffer[ctx->pos] = '\0';
 2289              		.loc 1 330 0
 2290 0010 13E0     		b	.L212
 2291              	.LVL294:
 2292              	.L214:
 331:ZumoLibrary/esp8266_socket.c ****         if(strstr(ctx->buffer, p) != NULL) {
 2293              		.loc 1 331 0
 2294 0012 E569     		ldr	r5, [r4, #28]
 2295 0014 6319     		adds	r3, r4, r5
 2296 0016 0022     		movs	r2, #0
 2297 0018 83F82020 		strb	r2, [r3, #32]
 332:ZumoLibrary/esp8266_socket.c ****             result = true;
 2298              		.loc 1 332 0
 2299 001c 04F12006 		add	r6, r4, #32
 2300 0020 3946     		mov	r1, r7
 2301 0022 3046     		mov	r0, r6
 2302 0024 FFF7FEFF 		bl	strstr
 2303              	.LVL295:
 2304 0028 78B9     		cbnz	r0, .L215
 337:ZumoLibrary/esp8266_socket.c ****             --ctx->pos;
 2305              		.loc 1 337 0
 2306 002a 2A46     		mov	r2, r5
 2307 002c 04F12101 		add	r1, r4, #33
 2308 0030 3046     		mov	r0, r6
 2309 0032 FFF7FEFF 		bl	memmove
 2310              	.LVL296:
 338:ZumoLibrary/esp8266_socket.c ****         }
 2311              		.loc 1 338 0
 2312 0036 013D     		subs	r5, r5, #1
 2313 0038 E561     		str	r5, [r4, #28]
 2314              	.L212:
 330:ZumoLibrary/esp8266_socket.c ****         ctx->buffer[ctx->pos] = '\0';
 2315              		.loc 1 330 0
 2316 003a 4146     		mov	r1, r8
 2317 003c 2046     		mov	r0, r4
 2318 003e FFF7FEFF 		bl	sm_read_buffer
 2319              	.LVL297:
 2320 0042 0028     		cmp	r0, #0
 2321 0044 E5D1     		bne	.L214
 2322 0046 BDE8F081 		pop	{r4, r5, r6, r7, r8, pc}
 2323              	.LVL298:
 2324              	.L215:
 333:ZumoLibrary/esp8266_socket.c ****             break;
 2325              		.loc 1 333 0
 2326 004a 0120     		movs	r0, #1
ARM GAS  C:\Users\samue\AppData\Local\Temp\ccJDNHzo.s 			page 63


 2327              	.LVL299:
 342:ZumoLibrary/esp8266_socket.c **** 
 2328              		.loc 1 342 0
 2329 004c BDE8F081 		pop	{r4, r5, r6, r7, r8, pc}
 2330              		.cfi_endproc
 2331              	.LFE86:
 2332              		.size	sm_wait_for, .-sm_wait_for
 2333              		.section	.text.stInit,"ax",%progbits
 2334              		.align	2
 2335              		.global	stInit
 2336              		.thumb
 2337              		.thumb_func
 2338              		.type	stInit, %function
 2339              	stInit:
 2340              	.LFB87:
 345:ZumoLibrary/esp8266_socket.c **** 	switch(e->ev) {
 2341              		.loc 1 345 0
 2342              		.cfi_startproc
 2343              		@ args = 0, pretend = 0, frame = 0
 2344              		@ frame_needed = 0, uses_anonymous_args = 0
 2345              	.LVL300:
 2346 0000 38B5     		push	{r3, r4, r5, lr}
 2347              		.cfi_def_cfa_offset 16
 2348              		.cfi_offset 3, -16
 2349              		.cfi_offset 4, -12
 2350              		.cfi_offset 5, -8
 2351              		.cfi_offset 14, -4
 2352 0002 0546     		mov	r5, r0
 346:ZumoLibrary/esp8266_socket.c **** 	case eEnter:
 2353              		.loc 1 346 0
 2354 0004 0B78     		ldrb	r3, [r1]	@ zero_extendqisi2
 2355 0006 022B     		cmp	r3, #2
 2356 0008 19D0     		beq	.L219
 2357 000a 032B     		cmp	r3, #3
 2358 000c 37D0     		beq	.L220
 2359 000e 002B     		cmp	r3, #0
 2360 0010 3BD1     		bne	.L217
 348:ZumoLibrary/esp8266_socket.c ****         sm_flush(ctx);
 2361              		.loc 1 348 0
 2362 0012 1E48     		ldr	r0, .L230
 2363              	.LVL301:
 2364 0014 FFF7FEFF 		bl	puts
 2365              	.LVL302:
 349:ZumoLibrary/esp8266_socket.c ****         init_counters(ctx);
 2366              		.loc 1 349 0
 2367 0018 2846     		mov	r0, r5
 2368 001a FFF7FEFF 		bl	sm_flush
 2369              	.LVL303:
 350:ZumoLibrary/esp8266_socket.c ****         serial_write_str(ctx, "AT\r\n");
 2370              		.loc 1 350 0
 2371 001e 2846     		mov	r0, r5
 2372 0020 FFF7FEFF 		bl	init_counters
 2373              	.LVL304:
 2374 0024 1A4C     		ldr	r4, .L230+4
 2375 0026 06E0     		b	.L222
 2376              	.LVL305:
 2377              	.L223:
ARM GAS  C:\Users\samue\AppData\Local\Temp\ccJDNHzo.s 			page 64


 2378              	.LBB110:
 2379              	.LBB111:
 104:ZumoLibrary/esp8266_socket.c ****         //UART_1_PutChar(*s++);
 2380              		.loc 1 104 0
 2381 0028 0134     		adds	r4, r4, #1
 2382              	.LVL306:
 2383 002a 4FF0FF32 		mov	r2, #-1
 2384 002e 49B2     		sxtb	r1, r1
 2385 0030 2869     		ldr	r0, [r5, #16]
 2386 0032 FFF7FEFF 		bl	xSerialPutChar
 2387              	.LVL307:
 2388              	.L222:
 103:ZumoLibrary/esp8266_socket.c ****         xSerialPutChar(ctx->ComPort,*s++,portMAX_DELAY);
 2389              		.loc 1 103 0
 2390 0036 2178     		ldrb	r1, [r4]	@ zero_extendqisi2
 2391 0038 0029     		cmp	r1, #0
 2392 003a F5D1     		bne	.L223
 2393 003c 38BD     		pop	{r3, r4, r5, pc}
 2394              	.LVL308:
 2395              	.L219:
 2396              	.LBE111:
 2397              	.LBE110:
 356:ZumoLibrary/esp8266_socket.c ****         //if(ctx->timer == 5) DEBUGP("[%s]", ctx->buffer);
 2398              		.loc 1 356 0
 2399 003e 4369     		ldr	r3, [r0, #20]
 2400 0040 0133     		adds	r3, r3, #1
 2401 0042 4361     		str	r3, [r0, #20]
 358:ZumoLibrary/esp8266_socket.c ****             ctx->timer = 0;
 2402              		.loc 1 358 0
 2403 0044 092B     		cmp	r3, #9
 2404 0046 20DD     		ble	.L217
 359:ZumoLibrary/esp8266_socket.c ****             ++ctx->count;
 2405              		.loc 1 359 0
 2406 0048 0023     		movs	r3, #0
 2407 004a 4361     		str	r3, [r0, #20]
 360:ZumoLibrary/esp8266_socket.c ****             if(ctx->count < 5) {
 2408              		.loc 1 360 0
 2409 004c 8369     		ldr	r3, [r0, #24]
 2410 004e 0133     		adds	r3, r3, #1
 2411 0050 8361     		str	r3, [r0, #24]
 361:ZumoLibrary/esp8266_socket.c ****                 serial_write_str(ctx, "AT\r\n");
 2412              		.loc 1 361 0
 2413 0052 042B     		cmp	r3, #4
 2414 0054 08DD     		ble	.L227
 2415 0056 0CE0     		b	.L228
 2416              	.LVL309:
 2417              	.L226:
 2418              	.LBB112:
 2419              	.LBB113:
 104:ZumoLibrary/esp8266_socket.c ****         //UART_1_PutChar(*s++);
 2420              		.loc 1 104 0
 2421 0058 0134     		adds	r4, r4, #1
 2422              	.LVL310:
 2423 005a 4FF0FF32 		mov	r2, #-1
 2424 005e 49B2     		sxtb	r1, r1
 2425 0060 2869     		ldr	r0, [r5, #16]
 2426 0062 FFF7FEFF 		bl	xSerialPutChar
ARM GAS  C:\Users\samue\AppData\Local\Temp\ccJDNHzo.s 			page 65


 2427              	.LVL311:
 2428 0066 00E0     		b	.L224
 2429              	.LVL312:
 2430              	.L227:
 2431              	.LBE113:
 2432              	.LBE112:
 2433 0068 094C     		ldr	r4, .L230+4
 2434              	.LVL313:
 2435              	.L224:
 2436              	.LBB115:
 2437              	.LBB114:
 103:ZumoLibrary/esp8266_socket.c ****         xSerialPutChar(ctx->ComPort,*s++,portMAX_DELAY);
 2438              		.loc 1 103 0
 2439 006a 2178     		ldrb	r1, [r4]	@ zero_extendqisi2
 2440 006c 0029     		cmp	r1, #0
 2441 006e F3D1     		bne	.L226
 2442 0070 38BD     		pop	{r3, r4, r5, pc}
 2443              	.LVL314:
 2444              	.L228:
 2445              	.LBE114:
 2446              	.LBE115:
 365:ZumoLibrary/esp8266_socket.c ****                 TRAN(stAT);
 2447              		.loc 1 365 0
 2448 0072 0848     		ldr	r0, .L230+8
 2449              	.LVL315:
 2450 0074 FFF7FEFF 		bl	puts
 2451              	.LVL316:
 366:ZumoLibrary/esp8266_socket.c ****             }
 2452              		.loc 1 366 0
 2453 0078 074B     		ldr	r3, .L230+12
 2454 007a 6B60     		str	r3, [r5, #4]
 2455 007c 38BD     		pop	{r3, r4, r5, pc}
 2456              	.LVL317:
 2457              	.L220:
 371:ZumoLibrary/esp8266_socket.c ****             TRAN(stEchoOff);
 2458              		.loc 1 371 0
 2459 007e 0749     		ldr	r1, .L230+16
 2460              	.LVL318:
 2461 0080 FFF7FEFF 		bl	sm_wait_for
 2462              	.LVL319:
 2463 0084 08B1     		cbz	r0, .L217
 372:ZumoLibrary/esp8266_socket.c ****         }
 2464              		.loc 1 372 0
 2465 0086 064B     		ldr	r3, .L230+20
 2466 0088 6B60     		str	r3, [r5, #4]
 2467              	.L217:
 2468 008a 38BD     		pop	{r3, r4, r5, pc}
 2469              	.LVL320:
 2470              	.L231:
 2471              		.align	2
 2472              	.L230:
 2473 008c 58010000 		.word	.LC29
 2474 0090 50010000 		.word	.LC28
 2475 0094 60010000 		.word	.LC30
 2476 0098 00000000 		.word	stAT
 2477 009c 80010000 		.word	.LC31
 2478 00a0 00000000 		.word	stEchoOff
ARM GAS  C:\Users\samue\AppData\Local\Temp\ccJDNHzo.s 			page 66


 2479              		.cfi_endproc
 2480              	.LFE87:
 2481              		.size	stInit, .-stInit
 2482              		.section	.text.stEchoOff,"ax",%progbits
 2483              		.align	2
 2484              		.global	stEchoOff
 2485              		.thumb
 2486              		.thumb_func
 2487              		.type	stEchoOff, %function
 2488              	stEchoOff:
 2489              	.LFB89:
 402:ZumoLibrary/esp8266_socket.c **** 	switch(e->ev) {
 2490              		.loc 1 402 0
 2491              		.cfi_startproc
 2492              		@ args = 0, pretend = 0, frame = 0
 2493              		@ frame_needed = 0, uses_anonymous_args = 0
 2494              	.LVL321:
 2495 0000 38B5     		push	{r3, r4, r5, lr}
 2496              		.cfi_def_cfa_offset 16
 2497              		.cfi_offset 3, -16
 2498              		.cfi_offset 4, -12
 2499              		.cfi_offset 5, -8
 2500              		.cfi_offset 14, -4
 2501 0002 0546     		mov	r5, r0
 403:ZumoLibrary/esp8266_socket.c **** 	case eEnter:
 2502              		.loc 1 403 0
 2503 0004 0B78     		ldrb	r3, [r1]	@ zero_extendqisi2
 2504 0006 022B     		cmp	r3, #2
 2505 0008 19D0     		beq	.L234
 2506 000a 032B     		cmp	r3, #3
 2507 000c 35D0     		beq	.L235
 2508 000e 002B     		cmp	r3, #0
 2509 0010 39D1     		bne	.L232
 405:ZumoLibrary/esp8266_socket.c ****         sm_flush(ctx);
 2510              		.loc 1 405 0
 2511 0012 1D48     		ldr	r0, .L245
 2512              	.LVL322:
 2513 0014 FFF7FEFF 		bl	puts
 2514              	.LVL323:
 406:ZumoLibrary/esp8266_socket.c ****         init_counters(ctx);
 2515              		.loc 1 406 0
 2516 0018 2846     		mov	r0, r5
 2517 001a FFF7FEFF 		bl	sm_flush
 2518              	.LVL324:
 407:ZumoLibrary/esp8266_socket.c ****         serial_write_str(ctx, "ATE0\r\n");
 2519              		.loc 1 407 0
 2520 001e 2846     		mov	r0, r5
 2521 0020 FFF7FEFF 		bl	init_counters
 2522              	.LVL325:
 2523 0024 194C     		ldr	r4, .L245+4
 2524 0026 06E0     		b	.L237
 2525              	.LVL326:
 2526              	.L238:
 2527              	.LBB116:
 2528              	.LBB117:
 104:ZumoLibrary/esp8266_socket.c ****         //UART_1_PutChar(*s++);
 2529              		.loc 1 104 0
ARM GAS  C:\Users\samue\AppData\Local\Temp\ccJDNHzo.s 			page 67


 2530 0028 0134     		adds	r4, r4, #1
 2531              	.LVL327:
 2532 002a 4FF0FF32 		mov	r2, #-1
 2533 002e 49B2     		sxtb	r1, r1
 2534 0030 2869     		ldr	r0, [r5, #16]
 2535 0032 FFF7FEFF 		bl	xSerialPutChar
 2536              	.LVL328:
 2537              	.L237:
 103:ZumoLibrary/esp8266_socket.c ****         xSerialPutChar(ctx->ComPort,*s++,portMAX_DELAY);
 2538              		.loc 1 103 0
 2539 0036 2178     		ldrb	r1, [r4]	@ zero_extendqisi2
 2540 0038 0029     		cmp	r1, #0
 2541 003a F5D1     		bne	.L238
 2542 003c 38BD     		pop	{r3, r4, r5, pc}
 2543              	.LVL329:
 2544              	.L234:
 2545              	.LBE117:
 2546              	.LBE116:
 413:ZumoLibrary/esp8266_socket.c ****         if(ctx->timer >= 10) {
 2547              		.loc 1 413 0
 2548 003e 4369     		ldr	r3, [r0, #20]
 2549 0040 0133     		adds	r3, r3, #1
 2550 0042 4361     		str	r3, [r0, #20]
 414:ZumoLibrary/esp8266_socket.c ****             ++ctx->count;
 2551              		.loc 1 414 0
 2552 0044 092B     		cmp	r3, #9
 2553 0046 1EDD     		ble	.L232
 415:ZumoLibrary/esp8266_socket.c ****             if(ctx->count < 3) {
 2554              		.loc 1 415 0
 2555 0048 8369     		ldr	r3, [r0, #24]
 2556 004a 0133     		adds	r3, r3, #1
 2557 004c 8361     		str	r3, [r0, #24]
 416:ZumoLibrary/esp8266_socket.c ****                 serial_write_str(ctx, "ATE0\r\n");
 2558              		.loc 1 416 0
 2559 004e 022B     		cmp	r3, #2
 2560 0050 08DD     		ble	.L242
 2561 0052 0CE0     		b	.L243
 2562              	.LVL330:
 2563              	.L241:
 2564              	.LBB118:
 2565              	.LBB119:
 104:ZumoLibrary/esp8266_socket.c ****         //UART_1_PutChar(*s++);
 2566              		.loc 1 104 0
 2567 0054 0134     		adds	r4, r4, #1
 2568              	.LVL331:
 2569 0056 4FF0FF32 		mov	r2, #-1
 2570 005a 49B2     		sxtb	r1, r1
 2571 005c 2869     		ldr	r0, [r5, #16]
 2572 005e FFF7FEFF 		bl	xSerialPutChar
 2573              	.LVL332:
 2574 0062 00E0     		b	.L239
 2575              	.LVL333:
 2576              	.L242:
 2577              	.LBE119:
 2578              	.LBE118:
 2579 0064 094C     		ldr	r4, .L245+4
 2580              	.LVL334:
ARM GAS  C:\Users\samue\AppData\Local\Temp\ccJDNHzo.s 			page 68


 2581              	.L239:
 2582              	.LBB121:
 2583              	.LBB120:
 103:ZumoLibrary/esp8266_socket.c ****         xSerialPutChar(ctx->ComPort,*s++,portMAX_DELAY);
 2584              		.loc 1 103 0
 2585 0066 2178     		ldrb	r1, [r4]	@ zero_extendqisi2
 2586 0068 0029     		cmp	r1, #0
 2587 006a F3D1     		bne	.L241
 2588 006c 38BD     		pop	{r3, r4, r5, pc}
 2589              	.LVL335:
 2590              	.L243:
 2591              	.LBE120:
 2592              	.LBE121:
 420:ZumoLibrary/esp8266_socket.c ****                 TRAN(stInit);
 2593              		.loc 1 420 0
 2594 006e 0848     		ldr	r0, .L245+8
 2595              	.LVL336:
 2596 0070 FFF7FEFF 		bl	puts
 2597              	.LVL337:
 421:ZumoLibrary/esp8266_socket.c ****             }
 2598              		.loc 1 421 0
 2599 0074 074B     		ldr	r3, .L245+12
 2600 0076 6B60     		str	r3, [r5, #4]
 2601 0078 38BD     		pop	{r3, r4, r5, pc}
 2602              	.LVL338:
 2603              	.L235:
 426:ZumoLibrary/esp8266_socket.c ****             TRAN(stStationModeCheck);
 2604              		.loc 1 426 0
 2605 007a 0749     		ldr	r1, .L245+16
 2606              	.LVL339:
 2607 007c FFF7FEFF 		bl	sm_wait_for
 2608              	.LVL340:
 2609 0080 08B1     		cbz	r0, .L232
 427:ZumoLibrary/esp8266_socket.c ****         }
 2610              		.loc 1 427 0
 2611 0082 064B     		ldr	r3, .L245+20
 2612 0084 6B60     		str	r3, [r5, #4]
 2613              	.L232:
 2614 0086 38BD     		pop	{r3, r4, r5, pc}
 2615              	.LVL341:
 2616              	.L246:
 2617              		.align	2
 2618              	.L245:
 2619 0088 90010000 		.word	.LC33
 2620 008c 88010000 		.word	.LC32
 2621 0090 9C010000 		.word	.LC34
 2622 0094 00000000 		.word	stInit
 2623 0098 80010000 		.word	.LC31
 2624 009c 00000000 		.word	stStationModeCheck
 2625              		.cfi_endproc
 2626              	.LFE89:
 2627              		.size	stEchoOff, .-stEchoOff
 2628              		.section	.text.stStationModeSet,"ax",%progbits
 2629              		.align	2
 2630              		.global	stStationModeSet
 2631              		.thumb
 2632              		.thumb_func
ARM GAS  C:\Users\samue\AppData\Local\Temp\ccJDNHzo.s 			page 69


 2633              		.type	stStationModeSet, %function
 2634              	stStationModeSet:
 2635              	.LFB91:
 470:ZumoLibrary/esp8266_socket.c **** 	switch(e->ev) {
 2636              		.loc 1 470 0
 2637              		.cfi_startproc
 2638              		@ args = 0, pretend = 0, frame = 0
 2639              		@ frame_needed = 0, uses_anonymous_args = 0
 2640              	.LVL342:
 2641 0000 38B5     		push	{r3, r4, r5, lr}
 2642              		.cfi_def_cfa_offset 16
 2643              		.cfi_offset 3, -16
 2644              		.cfi_offset 4, -12
 2645              		.cfi_offset 5, -8
 2646              		.cfi_offset 14, -4
 2647 0002 0546     		mov	r5, r0
 471:ZumoLibrary/esp8266_socket.c **** 	case eEnter:
 2648              		.loc 1 471 0
 2649 0004 0B78     		ldrb	r3, [r1]	@ zero_extendqisi2
 2650 0006 13B1     		cbz	r3, .L249
 2651 0008 032B     		cmp	r3, #3
 2652 000a 13D0     		beq	.L250
 2653 000c 38BD     		pop	{r3, r4, r5, pc}
 2654              	.L249:
 473:ZumoLibrary/esp8266_socket.c ****         init_counters(ctx);
 2655              		.loc 1 473 0
 2656 000e 0D48     		ldr	r0, .L254
 2657              	.LVL343:
 2658 0010 FFF7FEFF 		bl	puts
 2659              	.LVL344:
 474:ZumoLibrary/esp8266_socket.c ****         serial_write_str(ctx, "AT+CWMODE_CUR=1\r\n");
 2660              		.loc 1 474 0
 2661 0014 2846     		mov	r0, r5
 2662 0016 FFF7FEFF 		bl	init_counters
 2663              	.LVL345:
 2664 001a 0B4C     		ldr	r4, .L254+4
 2665 001c 06E0     		b	.L251
 2666              	.LVL346:
 2667              	.L252:
 2668              	.LBB122:
 2669              	.LBB123:
 104:ZumoLibrary/esp8266_socket.c ****         //UART_1_PutChar(*s++);
 2670              		.loc 1 104 0
 2671 001e 0134     		adds	r4, r4, #1
 2672              	.LVL347:
 2673 0020 4FF0FF32 		mov	r2, #-1
 2674 0024 49B2     		sxtb	r1, r1
 2675 0026 2869     		ldr	r0, [r5, #16]
 2676 0028 FFF7FEFF 		bl	xSerialPutChar
 2677              	.LVL348:
 2678              	.L251:
 103:ZumoLibrary/esp8266_socket.c ****         xSerialPutChar(ctx->ComPort,*s++,portMAX_DELAY);
 2679              		.loc 1 103 0
 2680 002c 2178     		ldrb	r1, [r4]	@ zero_extendqisi2
 2681 002e 0029     		cmp	r1, #0
 2682 0030 F5D1     		bne	.L252
 2683 0032 38BD     		pop	{r3, r4, r5, pc}
ARM GAS  C:\Users\samue\AppData\Local\Temp\ccJDNHzo.s 			page 70


 2684              	.LVL349:
 2685              	.L250:
 2686              	.LBE123:
 2687              	.LBE122:
 482:ZumoLibrary/esp8266_socket.c ****             TRAN(stStationModeCheck);
 2688              		.loc 1 482 0
 2689 0034 0549     		ldr	r1, .L254+8
 2690              	.LVL350:
 2691 0036 FFF7FEFF 		bl	sm_wait_for
 2692              	.LVL351:
 2693 003a 08B1     		cbz	r0, .L247
 483:ZumoLibrary/esp8266_socket.c ****         }
 2694              		.loc 1 483 0
 2695 003c 044B     		ldr	r3, .L254+12
 2696 003e 6B60     		str	r3, [r5, #4]
 2697              	.L247:
 2698 0040 38BD     		pop	{r3, r4, r5, pc}
 2699              	.LVL352:
 2700              	.L255:
 2701 0042 00BF     		.align	2
 2702              	.L254:
 2703 0044 D8010000 		.word	.LC36
 2704 0048 C4010000 		.word	.LC35
 2705 004c 80010000 		.word	.LC31
 2706 0050 00000000 		.word	stStationModeCheck
 2707              		.cfi_endproc
 2708              	.LFE91:
 2709              		.size	stStationModeSet, .-stStationModeSet
 2710              		.section	.text.stPassthroughOK,"ax",%progbits
 2711              		.align	2
 2712              		.global	stPassthroughOK
 2713              		.thumb
 2714              		.thumb_func
 2715              		.type	stPassthroughOK, %function
 2716              	stPassthroughOK:
 2717              	.LFB98:
 641:ZumoLibrary/esp8266_socket.c **** 	switch(e->ev) {
 2718              		.loc 1 641 0
 2719              		.cfi_startproc
 2720              		@ args = 0, pretend = 0, frame = 0
 2721              		@ frame_needed = 0, uses_anonymous_args = 0
 2722              	.LVL353:
 2723 0000 38B5     		push	{r3, r4, r5, lr}
 2724              		.cfi_def_cfa_offset 16
 2725              		.cfi_offset 3, -16
 2726              		.cfi_offset 4, -12
 2727              		.cfi_offset 5, -8
 2728              		.cfi_offset 14, -4
 2729 0002 0546     		mov	r5, r0
 642:ZumoLibrary/esp8266_socket.c **** 	case eEnter:
 2730              		.loc 1 642 0
 2731 0004 0B78     		ldrb	r3, [r1]	@ zero_extendqisi2
 2732 0006 13B1     		cbz	r3, .L258
 2733 0008 032B     		cmp	r3, #3
 2734 000a 13D0     		beq	.L259
 2735 000c 38BD     		pop	{r3, r4, r5, pc}
 2736              	.L258:
ARM GAS  C:\Users\samue\AppData\Local\Temp\ccJDNHzo.s 			page 71


 644:ZumoLibrary/esp8266_socket.c ****         init_counters(ctx);
 2737              		.loc 1 644 0
 2738 000e 0D48     		ldr	r0, .L263
 2739              	.LVL354:
 2740 0010 FFF7FEFF 		bl	puts
 2741              	.LVL355:
 645:ZumoLibrary/esp8266_socket.c ****         serial_write_str(ctx, "AT+CIPSEND\r\n");
 2742              		.loc 1 645 0
 2743 0014 2846     		mov	r0, r5
 2744 0016 FFF7FEFF 		bl	init_counters
 2745              	.LVL356:
 2746 001a 0B4C     		ldr	r4, .L263+4
 2747 001c 06E0     		b	.L260
 2748              	.LVL357:
 2749              	.L261:
 2750              	.LBB124:
 2751              	.LBB125:
 104:ZumoLibrary/esp8266_socket.c ****         //UART_1_PutChar(*s++);
 2752              		.loc 1 104 0
 2753 001e 0134     		adds	r4, r4, #1
 2754              	.LVL358:
 2755 0020 4FF0FF32 		mov	r2, #-1
 2756 0024 49B2     		sxtb	r1, r1
 2757 0026 2869     		ldr	r0, [r5, #16]
 2758 0028 FFF7FEFF 		bl	xSerialPutChar
 2759              	.LVL359:
 2760              	.L260:
 103:ZumoLibrary/esp8266_socket.c ****         xSerialPutChar(ctx->ComPort,*s++,portMAX_DELAY);
 2761              		.loc 1 103 0
 2762 002c 2178     		ldrb	r1, [r4]	@ zero_extendqisi2
 2763 002e 0029     		cmp	r1, #0
 2764 0030 F5D1     		bne	.L261
 2765 0032 38BD     		pop	{r3, r4, r5, pc}
 2766              	.LVL360:
 2767              	.L259:
 2768              	.LBE125:
 2769              	.LBE124:
 653:ZumoLibrary/esp8266_socket.c ****             TRAN(stConnected);
 2770              		.loc 1 653 0
 2771 0034 0549     		ldr	r1, .L263+8
 2772              	.LVL361:
 2773 0036 FFF7FEFF 		bl	sm_wait_for
 2774              	.LVL362:
 2775 003a 08B1     		cbz	r0, .L256
 654:ZumoLibrary/esp8266_socket.c ****         }
 2776              		.loc 1 654 0
 2777 003c 044B     		ldr	r3, .L263+12
 2778 003e 6B60     		str	r3, [r5, #4]
 2779              	.L256:
 2780 0040 38BD     		pop	{r3, r4, r5, pc}
 2781              	.LVL363:
 2782              	.L264:
 2783 0042 00BF     		.align	2
 2784              	.L263:
 2785 0044 FC010000 		.word	.LC38
 2786 0048 EC010000 		.word	.LC37
 2787 004c 0C020000 		.word	.LC39
ARM GAS  C:\Users\samue\AppData\Local\Temp\ccJDNHzo.s 			page 72


 2788 0050 00000000 		.word	stConnected
 2789              		.cfi_endproc
 2790              	.LFE98:
 2791              		.size	stPassthroughOK, .-stPassthroughOK
 2792              		.section	.text.EspTimerCallback,"ax",%progbits
 2793              		.align	2
 2794              		.global	EspTimerCallback
 2795              		.thumb
 2796              		.thumb_func
 2797              		.type	EspTimerCallback, %function
 2798              	EspTimerCallback:
 2799              	.LFB103:
 886:ZumoLibrary/esp8266_socket.c ****     I_DONT_USE(xTimer);
 2800              		.loc 1 886 0
 2801              		.cfi_startproc
 2802              		@ args = 0, pretend = 0, frame = 0
 2803              		@ frame_needed = 0, uses_anonymous_args = 0
 2804              		@ link register save eliminated.
 2805              	.LVL364:
 2806 0000 7047     		bx	lr
 2807              		.cfi_endproc
 2808              	.LFE103:
 2809              		.size	EspTimerCallback, .-EspTimerCallback
 2810              		.comm	EspSocketInstance,204,4
 2811 0002 00BF     		.section	.rodata
 2812              		.align	2
 2813              		.set	.LANCHOR0,. + 0
 2814              		.type	evExit, %object
 2815              		.size	evExit, 16
 2816              	evExit:
 2817 0000 01       		.byte	1
 2818 0001 000000   		.space	3
 2819 0004 00000000 		.word	0
 2820 0008 00000000 		.word	0
 2821 000c 00000000 		.word	0
 2822              		.type	evEnter, %object
 2823              		.size	evEnter, 16
 2824              	evEnter:
 2825 0010 00000000 		.space	16
 2825      00000000 
 2825      00000000 
 2825      00000000 
 2826              		.data
 2827              		.align	2
 2828              		.set	.LANCHOR1,. + 0
 2829              		.type	result_list.9155, %object
 2830              		.size	result_list.9155, 12
 2831              	result_list.9155:
 2832 0000 80010000 		.word	.LC31
 2833 0004 10020000 		.word	.LC40
 2834 0008 00000000 		.word	0
 2835              		.section	.rodata.str1.4,"aMS",%progbits,1
 2836              		.align	2
 2837              	.LC0:
 2838 0000 41542B43 		.ascii	"AT+CWJAP_CUR=\"\000"
 2838      574A4150 
 2838      5F435552 
ARM GAS  C:\Users\samue\AppData\Local\Temp\ccJDNHzo.s 			page 73


 2838      3D2200
 2839 000f 00       		.space	1
 2840              	.LC1:
 2841 0010 222C2200 		.ascii	"\",\"\000"
 2842              	.LC2:
 2843 0014 220D0A00 		.ascii	"\"\015\012\000"
 2844              	.LC3:
 2845 0018 41542B43 		.ascii	"AT+CIPSTART=\"TCP\",\"\000"
 2845      49505354 
 2845      4152543D 
 2845      22544350 
 2845      222C2200 
 2846              	.LC4:
 2847 002c 222C00   		.ascii	"\",\000"
 2848 002f 00       		.space	1
 2849              	.LC5:
 2850 0030 0D0A00   		.ascii	"\015\012\000"
 2851 0033 00       		.space	1
 2852              	.LC6:
 2853 0034 4553505F 		.ascii	"ESP_sock\000"
 2853      736F636B 
 2853      00
 2854 003d 000000   		.space	3
 2855              	.LC7:
 2856 0040 4553505F 		.ascii	"ESP_rxe\000"
 2856      72786500 
 2857              	.LC8:
 2858 0048 4553505F 		.ascii	"ESP_tick\000"
 2858      7469636B 
 2858      00
 2859 0051 000000   		.space	3
 2860              	.LC9:
 2861 0054 2B2B2B00 		.ascii	"+++\000"
 2862              	.LC10:
 2863 0058 73744154 		.ascii	"stAT\000"
 2863      00
 2864 005d 000000   		.space	3
 2865              	.LC11:
 2866 0060 73745265 		.ascii	"stReady\000"
 2866      61647900 
 2867              	.LC12:
 2868 0068 7374436F 		.ascii	"stConnected\000"
 2868      6E6E6563 
 2868      74656400 
 2869              	.LC13:
 2870 0074 7374436F 		.ascii	"stCommandMode\000"
 2870      6D6D616E 
 2870      644D6F64 
 2870      6500
 2871 0082 0000     		.space	2
 2872              	.LC14:
 2873 0084 41542B43 		.ascii	"AT+CWMODE_CUR?\015\012\000"
 2873      574D4F44 
 2873      455F4355 
 2873      523F0D0A 
 2873      00
 2874 0095 000000   		.space	3
ARM GAS  C:\Users\samue\AppData\Local\Temp\ccJDNHzo.s 			page 74


 2875              	.LC15:
 2876 0098 73745374 		.ascii	"stStationModeCheck\000"
 2876      6174696F 
 2876      6E4D6F64 
 2876      65436865 
 2876      636B00
 2877 00ab 00       		.space	1
 2878              	.LC16:
 2879 00ac 25643A20 		.ascii	"%d: %s\000"
 2879      257300
 2880 00b3 00       		.space	1
 2881              	.LC17:
 2882 00b4 2B43574D 		.ascii	"+CWMODE_CUR:1\015\012\000"
 2882      4F44455F 
 2882      4355523A 
 2882      310D0A00 
 2883              	.LC18:
 2884 00c4 7374436F 		.ascii	"stConnectAP\000"
 2884      6E6E6563 
 2884      74415000 
 2885              	.LC19:
 2886 00d0 7374436F 		.ascii	"stConnectTCP\000"
 2886      6E6E6563 
 2886      74544350 
 2886      00
 2887 00dd 000000   		.space	3
 2888              	.LC20:
 2889 00e0 434F4E4E 		.ascii	"CONNECT\015\012\000"
 2889      4543540D 
 2889      0A00
 2890 00ea 0000     		.space	2
 2891              	.LC21:
 2892 00ec 436F6E6E 		.ascii	"Connect failed\000"
 2892      65637420 
 2892      6661696C 
 2892      656400
 2893 00fb 00       		.space	1
 2894              	.LC22:
 2895 00fc 41542B43 		.ascii	"AT+CIPMODE=1\015\012\000"
 2895      49504D4F 
 2895      44453D31 
 2895      0D0A00
 2896 010b 00       		.space	1
 2897              	.LC23:
 2898 010c 73745061 		.ascii	"stPassthrough\000"
 2898      73737468 
 2898      726F7567 
 2898      6800
 2899 011a 0000     		.space	2
 2900              	.LC24:
 2901 011c 41542B43 		.ascii	"AT+CIPMODE=0\015\012\000"
 2901      49504D4F 
 2901      44453D30 
 2901      0D0A00
 2902 012b 00       		.space	1
 2903              	.LC25:
 2904 012c 41542B43 		.ascii	"AT+CIPCLOSE\015\012\000"
ARM GAS  C:\Users\samue\AppData\Local\Temp\ccJDNHzo.s 			page 75


 2904      4950434C 
 2904      4F53450D 
 2904      0A00
 2905 013a 0000     		.space	2
 2906              	.LC26:
 2907 013c 7374436C 		.ascii	"stCloseTCP\000"
 2907      6F736554 
 2907      435000
 2908 0147 00       		.space	1
 2909              	.LC27:
 2910 0148 434C4F53 		.ascii	"CLOSED\000"
 2910      454400
 2911 014f 00       		.space	1
 2912              	.LC28:
 2913 0150 41540D0A 		.ascii	"AT\015\012\000"
 2913      00
 2914 0155 000000   		.space	3
 2915              	.LC29:
 2916 0158 7374496E 		.ascii	"stInit\000"
 2916      697400
 2917 015f 00       		.space	1
 2918              	.LC30:
 2919 0160 4572726F 		.ascii	"Error: Module not responding\000"
 2919      723A204D 
 2919      6F64756C 
 2919      65206E6F 
 2919      74207265 
 2920 017d 000000   		.space	3
 2921              	.LC31:
 2922 0180 4F4B0D0A 		.ascii	"OK\015\012\000"
 2922      00
 2923 0185 000000   		.space	3
 2924              	.LC32:
 2925 0188 41544530 		.ascii	"ATE0\015\012\000"
 2925      0D0A00
 2926 018f 00       		.space	1
 2927              	.LC33:
 2928 0190 73744563 		.ascii	"stEchoOff\000"
 2928      686F4F66 
 2928      6600
 2929 019a 0000     		.space	2
 2930              	.LC34:
 2931 019c 4572726F 		.ascii	"Error: setting local echo off failed\000"
 2931      723A2073 
 2931      65747469 
 2931      6E67206C 
 2931      6F63616C 
 2932 01c1 000000   		.space	3
 2933              	.LC35:
 2934 01c4 41542B43 		.ascii	"AT+CWMODE_CUR=1\015\012\000"
 2934      574D4F44 
 2934      455F4355 
 2934      523D310D 
 2934      0A00
 2935 01d6 0000     		.space	2
 2936              	.LC36:
 2937 01d8 73745374 		.ascii	"stStationModeSet\000"
ARM GAS  C:\Users\samue\AppData\Local\Temp\ccJDNHzo.s 			page 76


 2937      6174696F 
 2937      6E4D6F64 
 2937      65536574 
 2937      00
 2938 01e9 000000   		.space	3
 2939              	.LC37:
 2940 01ec 41542B43 		.ascii	"AT+CIPSEND\015\012\000"
 2940      49505345 
 2940      4E440D0A 
 2940      00
 2941 01f9 000000   		.space	3
 2942              	.LC38:
 2943 01fc 73745061 		.ascii	"stPassthroughOK\000"
 2943      73737468 
 2943      726F7567 
 2943      684F4B00 
 2944              	.LC39:
 2945 020c 3E00     		.ascii	">\000"
 2946 020e 0000     		.space	2
 2947              	.LC40:
 2948 0210 4552524F 		.ascii	"ERROR\015\012\000"
 2948      520D0A00 
 2949              		.text
 2950              	.Letext0:
 2951              		.file 2 "c:\\program files (x86)\\cypress\\psoc creator\\4.2\\psoc creator\\import\\gnu\\arm\\5.4.
 2952              		.file 3 "c:\\program files (x86)\\cypress\\psoc creator\\4.2\\psoc creator\\import\\gnu\\arm\\5.4.
 2953              		.file 4 "..\\FreeRTOS\\Source\\portable\\GCC\\ARM_CM3/portmacro.h"
 2954              		.file 5 "..\\FreeRTOS\\Source\\include/queue.h"
 2955              		.file 6 "..\\FreeRTOS\\Source\\include/semphr.h"
 2956              		.file 7 "..\\FreeRTOS\\Source\\include/timers.h"
 2957              		.file 8 "ZumoLibrary\\serial.h"
 2958              		.file 9 "c:\\program files (x86)\\cypress\\psoc creator\\4.2\\psoc creator\\import\\gnu\\arm\\5.4.
 2959              		.file 10 "Generated_Source\\PSoC5/core_cm3.h"
 2960              		.file 11 "..\\FreeRTOS\\Source\\include/task.h"
 2961              		.file 12 "Generated_Source\\PSoC5/RST_E.h"
 2962              		.file 13 "c:\\program files (x86)\\cypress\\psoc creator\\4.2\\psoc creator\\import\\gnu\\arm\\5.4
 2963              		.file 14 "c:\\program files (x86)\\cypress\\psoc creator\\4.2\\psoc creator\\import\\gnu\\arm\\5.4
 2964              		.file 15 "c:\\program files (x86)\\cypress\\psoc creator\\4.2\\psoc creator\\import\\gnu\\arm\\5.4
 2965              		.file 16 "<built-in>"
 2966              		.section	.debug_info,"",%progbits
 2967              	.Ldebug_info0:
 2968 0000 CD1B0000 		.4byte	0x1bcd
 2969 0004 0400     		.2byte	0x4
 2970 0006 00000000 		.4byte	.Ldebug_abbrev0
 2971 000a 04       		.byte	0x4
 2972 000b 01       		.uleb128 0x1
 2973 000c A1040000 		.4byte	.LASF128
 2974 0010 0C       		.byte	0xc
 2975 0011 B9010000 		.4byte	.LASF129
 2976 0015 A4050000 		.4byte	.LASF130
 2977 0019 78000000 		.4byte	.Ldebug_ranges0+0x78
 2978 001d 00000000 		.4byte	0
 2979 0021 00000000 		.4byte	.Ldebug_line0
 2980 0025 02       		.uleb128 0x2
 2981 0026 01       		.byte	0x1
 2982 0027 06       		.byte	0x6
 2983 0028 DD000000 		.4byte	.LASF0
ARM GAS  C:\Users\samue\AppData\Local\Temp\ccJDNHzo.s 			page 77


 2984 002c 03       		.uleb128 0x3
 2985 002d 53000000 		.4byte	.LASF4
 2986 0031 02       		.byte	0x2
 2987 0032 1D       		.byte	0x1d
 2988 0033 37000000 		.4byte	0x37
 2989 0037 02       		.uleb128 0x2
 2990 0038 01       		.byte	0x1
 2991 0039 08       		.byte	0x8
 2992 003a 40040000 		.4byte	.LASF1
 2993 003e 02       		.uleb128 0x2
 2994 003f 02       		.byte	0x2
 2995 0040 05       		.byte	0x5
 2996 0041 58040000 		.4byte	.LASF2
 2997 0045 02       		.uleb128 0x2
 2998 0046 02       		.byte	0x2
 2999 0047 07       		.byte	0x7
 3000 0048 BE020000 		.4byte	.LASF3
 3001 004c 03       		.uleb128 0x3
 3002 004d 4A030000 		.4byte	.LASF5
 3003 0051 02       		.byte	0x2
 3004 0052 3F       		.byte	0x3f
 3005 0053 57000000 		.4byte	0x57
 3006 0057 02       		.uleb128 0x2
 3007 0058 04       		.byte	0x4
 3008 0059 05       		.byte	0x5
 3009 005a 3A010000 		.4byte	.LASF6
 3010 005e 03       		.uleb128 0x3
 3011 005f F1010000 		.4byte	.LASF7
 3012 0063 02       		.byte	0x2
 3013 0064 41       		.byte	0x41
 3014 0065 69000000 		.4byte	0x69
 3015 0069 02       		.uleb128 0x2
 3016 006a 04       		.byte	0x4
 3017 006b 07       		.byte	0x7
 3018 006c 4A020000 		.4byte	.LASF8
 3019 0070 02       		.uleb128 0x2
 3020 0071 08       		.byte	0x8
 3021 0072 05       		.byte	0x5
 3022 0073 CF000000 		.4byte	.LASF9
 3023 0077 02       		.uleb128 0x2
 3024 0078 08       		.byte	0x8
 3025 0079 07       		.byte	0x7
 3026 007a 11010000 		.4byte	.LASF10
 3027 007e 04       		.uleb128 0x4
 3028 007f 04       		.byte	0x4
 3029 0080 05       		.byte	0x5
 3030 0081 696E7400 		.ascii	"int\000"
 3031 0085 02       		.uleb128 0x2
 3032 0086 04       		.byte	0x4
 3033 0087 07       		.byte	0x7
 3034 0088 2A020000 		.4byte	.LASF11
 3035 008c 02       		.uleb128 0x2
 3036 008d 08       		.byte	0x8
 3037 008e 04       		.byte	0x4
 3038 008f 67050000 		.4byte	.LASF12
 3039 0093 05       		.uleb128 0x5
 3040 0094 04       		.byte	0x4
ARM GAS  C:\Users\samue\AppData\Local\Temp\ccJDNHzo.s 			page 78


 3041 0095 02       		.uleb128 0x2
 3042 0096 04       		.byte	0x4
 3043 0097 07       		.byte	0x7
 3044 0098 69030000 		.4byte	.LASF13
 3045 009c 06       		.uleb128 0x6
 3046 009d 04       		.byte	0x4
 3047 009e A2000000 		.4byte	0xa2
 3048 00a2 02       		.uleb128 0x2
 3049 00a3 01       		.byte	0x1
 3050 00a4 08       		.byte	0x8
 3051 00a5 8C050000 		.4byte	.LASF14
 3052 00a9 06       		.uleb128 0x6
 3053 00aa 04       		.byte	0x4
 3054 00ab AF000000 		.4byte	0xaf
 3055 00af 07       		.uleb128 0x7
 3056 00b0 A2000000 		.4byte	0xa2
 3057 00b4 03       		.uleb128 0x3
 3058 00b5 4A060000 		.4byte	.LASF15
 3059 00b9 03       		.byte	0x3
 3060 00ba 18       		.byte	0x18
 3061 00bb 2C000000 		.4byte	0x2c
 3062 00bf 03       		.uleb128 0x3
 3063 00c0 38040000 		.4byte	.LASF16
 3064 00c4 03       		.byte	0x3
 3065 00c5 2C       		.byte	0x2c
 3066 00c6 4C000000 		.4byte	0x4c
 3067 00ca 03       		.uleb128 0x3
 3068 00cb 45050000 		.4byte	.LASF17
 3069 00cf 03       		.byte	0x3
 3070 00d0 30       		.byte	0x30
 3071 00d1 5E000000 		.4byte	0x5e
 3072 00d5 02       		.uleb128 0x2
 3073 00d6 04       		.byte	0x4
 3074 00d7 04       		.byte	0x4
 3075 00d8 CF030000 		.4byte	.LASF18
 3076 00dc 02       		.uleb128 0x2
 3077 00dd 08       		.byte	0x8
 3078 00de 04       		.byte	0x4
 3079 00df 8C010000 		.4byte	.LASF19
 3080 00e3 06       		.uleb128 0x6
 3081 00e4 04       		.byte	0x4
 3082 00e5 E9000000 		.4byte	0xe9
 3083 00e9 08       		.uleb128 0x8
 3084 00ea F4000000 		.4byte	0xf4
 3085 00ee 09       		.uleb128 0x9
 3086 00ef 93000000 		.4byte	0x93
 3087 00f3 00       		.byte	0
 3088 00f4 03       		.uleb128 0x3
 3089 00f5 9B010000 		.4byte	.LASF20
 3090 00f9 04       		.byte	0x4
 3091 00fa 38       		.byte	0x38
 3092 00fb 57000000 		.4byte	0x57
 3093 00ff 03       		.uleb128 0x3
 3094 0100 9F060000 		.4byte	.LASF21
 3095 0104 04       		.byte	0x4
 3096 0105 39       		.byte	0x39
 3097 0106 69000000 		.4byte	0x69
ARM GAS  C:\Users\samue\AppData\Local\Temp\ccJDNHzo.s 			page 79


 3098 010a 03       		.uleb128 0x3
 3099 010b 87030000 		.4byte	.LASF22
 3100 010f 04       		.byte	0x4
 3101 0110 3F       		.byte	0x3f
 3102 0111 CA000000 		.4byte	0xca
 3103 0115 03       		.uleb128 0x3
 3104 0116 AA000000 		.4byte	.LASF23
 3105 011a 05       		.byte	0x5
 3106 011b 2E       		.byte	0x2e
 3107 011c 93000000 		.4byte	0x93
 3108 0120 03       		.uleb128 0x3
 3109 0121 7A050000 		.4byte	.LASF24
 3110 0125 06       		.byte	0x6
 3111 0126 25       		.byte	0x25
 3112 0127 15010000 		.4byte	0x115
 3113 012b 03       		.uleb128 0x3
 3114 012c 5C020000 		.4byte	.LASF25
 3115 0130 07       		.byte	0x7
 3116 0131 4C       		.byte	0x4c
 3117 0132 93000000 		.4byte	0x93
 3118 0136 03       		.uleb128 0x3
 3119 0137 07000000 		.4byte	.LASF26
 3120 013b 08       		.byte	0x8
 3121 013c 21       		.byte	0x21
 3122 013d 93000000 		.4byte	0x93
 3123 0141 0A       		.uleb128 0xa
 3124 0142 BC030000 		.4byte	.LASF131
 3125 0146 01       		.byte	0x1
 3126 0147 37000000 		.4byte	0x37
 3127 014b 01       		.byte	0x1
 3128 014c 24       		.byte	0x24
 3129 014d 7C010000 		.4byte	0x17c
 3130 0151 0B       		.uleb128 0xb
 3131 0152 2D060000 		.4byte	.LASF27
 3132 0156 00       		.byte	0
 3133 0157 0B       		.uleb128 0xb
 3134 0158 70040000 		.4byte	.LASF28
 3135 015c 01       		.byte	0x1
 3136 015d 0B       		.uleb128 0xb
 3137 015e 08020000 		.4byte	.LASF29
 3138 0162 02       		.byte	0x2
 3139 0163 0B       		.uleb128 0xb
 3140 0164 D1020000 		.4byte	.LASF30
 3141 0168 03       		.byte	0x3
 3142 0169 0B       		.uleb128 0xb
 3143 016a 96060000 		.4byte	.LASF31
 3144 016e 04       		.byte	0x4
 3145 016f 0B       		.uleb128 0xb
 3146 0170 9A020000 		.4byte	.LASF32
 3147 0174 05       		.byte	0x5
 3148 0175 0B       		.uleb128 0xb
 3149 0176 50010000 		.4byte	.LASF33
 3150 017a 06       		.byte	0x6
 3151 017b 00       		.byte	0
 3152 017c 03       		.uleb128 0x3
 3153 017d A6010000 		.4byte	.LASF34
 3154 0181 01       		.byte	0x1
ARM GAS  C:\Users\samue\AppData\Local\Temp\ccJDNHzo.s 			page 80


 3155 0182 24       		.byte	0x24
 3156 0183 41010000 		.4byte	0x141
 3157 0187 0C       		.uleb128 0xc
 3158 0188 B5030000 		.4byte	.LASF39
 3159 018c 10       		.byte	0x10
 3160 018d 01       		.byte	0x1
 3161 018e 26       		.byte	0x26
 3162 018f C3010000 		.4byte	0x1c3
 3163 0193 0D       		.uleb128 0xd
 3164 0194 657600   		.ascii	"ev\000"
 3165 0197 01       		.byte	0x1
 3166 0198 27       		.byte	0x27
 3167 0199 7C010000 		.4byte	0x17c
 3168 019d 00       		.byte	0
 3169 019e 0E       		.uleb128 0xe
 3170 019f 73050000 		.4byte	.LASF35
 3171 01a3 01       		.byte	0x1
 3172 01a4 28       		.byte	0x28
 3173 01a5 7E000000 		.4byte	0x7e
 3174 01a9 04       		.byte	0x4
 3175 01aa 0E       		.uleb128 0xe
 3176 01ab 8F000000 		.4byte	.LASF36
 3177 01af 01       		.byte	0x1
 3178 01b0 29       		.byte	0x29
 3179 01b1 93000000 		.4byte	0x93
 3180 01b5 08       		.byte	0x8
 3181 01b6 0E       		.uleb128 0xe
 3182 01b7 42030000 		.4byte	.LASF37
 3183 01bb 01       		.byte	0x1
 3184 01bc 2A       		.byte	0x2a
 3185 01bd E3000000 		.4byte	0xe3
 3186 01c1 0C       		.byte	0xc
 3187 01c2 00       		.byte	0
 3188 01c3 03       		.uleb128 0x3
 3189 01c4 B8020000 		.4byte	.LASF38
 3190 01c8 01       		.byte	0x1
 3191 01c9 2B       		.byte	0x2b
 3192 01ca 87010000 		.4byte	0x187
 3193 01ce 0F       		.uleb128 0xf
 3194 01cf 736D6900 		.ascii	"smi\000"
 3195 01d3 01       		.byte	0x1
 3196 01d4 2D       		.byte	0x2d
 3197 01d5 D9010000 		.4byte	0x1d9
 3198 01d9 0C       		.uleb128 0xc
 3199 01da 12030000 		.4byte	.LASF40
 3200 01de CC       		.byte	0xcc
 3201 01df 01       		.byte	0x1
 3202 01e0 36       		.byte	0x36
 3203 01e1 82020000 		.4byte	0x282
 3204 01e5 0E       		.uleb128 0xe
 3205 01e6 34010000 		.4byte	.LASF41
 3206 01ea 01       		.byte	0x1
 3207 01eb 37       		.byte	0x37
 3208 01ec 82020000 		.4byte	0x282
 3209 01f0 00       		.byte	0
 3210 01f1 0E       		.uleb128 0xe
 3211 01f2 9F000000 		.4byte	.LASF42
ARM GAS  C:\Users\samue\AppData\Local\Temp\ccJDNHzo.s 			page 81


 3212 01f6 01       		.byte	0x1
 3213 01f7 38       		.byte	0x38
 3214 01f8 82020000 		.4byte	0x282
 3215 01fc 04       		.byte	0x4
 3216 01fd 0E       		.uleb128 0xe
 3217 01fe 62030000 		.4byte	.LASF43
 3218 0202 01       		.byte	0x1
 3219 0203 39       		.byte	0x39
 3220 0204 20010000 		.4byte	0x120
 3221 0208 08       		.byte	0x8
 3222 0209 0E       		.uleb128 0xe
 3223 020a 4E040000 		.4byte	.LASF44
 3224 020e 01       		.byte	0x1
 3225 020f 3A       		.byte	0x3a
 3226 0210 15010000 		.4byte	0x115
 3227 0214 0C       		.byte	0xc
 3228 0215 0E       		.uleb128 0xe
 3229 0216 93010000 		.4byte	.LASF45
 3230 021a 01       		.byte	0x1
 3231 021b 3B       		.byte	0x3b
 3232 021c 36010000 		.4byte	0x136
 3233 0220 10       		.byte	0x10
 3234 0221 0E       		.uleb128 0xe
 3235 0222 61060000 		.4byte	.LASF46
 3236 0226 01       		.byte	0x1
 3237 0227 3C       		.byte	0x3c
 3238 0228 7E000000 		.4byte	0x7e
 3239 022c 14       		.byte	0x14
 3240 022d 0E       		.uleb128 0xe
 3241 022e EB010000 		.4byte	.LASF47
 3242 0232 01       		.byte	0x1
 3243 0233 3D       		.byte	0x3d
 3244 0234 7E000000 		.4byte	0x7e
 3245 0238 18       		.byte	0x18
 3246 0239 0D       		.uleb128 0xd
 3247 023a 706F7300 		.ascii	"pos\000"
 3248 023e 01       		.byte	0x1
 3249 023f 3E       		.byte	0x3e
 3250 0240 7E000000 		.4byte	0x7e
 3251 0244 1C       		.byte	0x1c
 3252 0245 0E       		.uleb128 0xe
 3253 0246 F9050000 		.4byte	.LASF48
 3254 024a 01       		.byte	0x1
 3255 024b 3F       		.byte	0x3f
 3256 024c B4020000 		.4byte	0x2b4
 3257 0250 20       		.byte	0x20
 3258 0251 0E       		.uleb128 0xe
 3259 0252 45020000 		.4byte	.LASF49
 3260 0256 01       		.byte	0x1
 3261 0257 40       		.byte	0x40
 3262 0258 C4020000 		.4byte	0x2c4
 3263 025c 70       		.byte	0x70
 3264 025d 0D       		.uleb128 0xd
 3265 025e 70776400 		.ascii	"pwd\000"
 3266 0262 01       		.byte	0x1
 3267 0263 41       		.byte	0x41
 3268 0264 C4020000 		.4byte	0x2c4
ARM GAS  C:\Users\samue\AppData\Local\Temp\ccJDNHzo.s 			page 82


 3269 0268 90       		.byte	0x90
 3270 0269 0E       		.uleb128 0xe
 3271 026a 7D060000 		.4byte	.LASF50
 3272 026e 01       		.byte	0x1
 3273 026f 42       		.byte	0x42
 3274 0270 D4020000 		.4byte	0x2d4
 3275 0274 B0       		.byte	0xb0
 3276 0275 0E       		.uleb128 0xe
 3277 0276 19060000 		.4byte	.LASF51
 3278 027a 01       		.byte	0x1
 3279 027b 43       		.byte	0x43
 3280 027c D4020000 		.4byte	0x2d4
 3281 0280 BE       		.byte	0xbe
 3282 0281 00       		.byte	0
 3283 0282 0F       		.uleb128 0xf
 3284 0283 736D6600 		.ascii	"smf\000"
 3285 0287 01       		.byte	0x1
 3286 0288 2F       		.byte	0x2f
 3287 0289 8D020000 		.4byte	0x28d
 3288 028d 06       		.uleb128 0x6
 3289 028e 04       		.byte	0x4
 3290 028f 93020000 		.4byte	0x293
 3291 0293 08       		.uleb128 0x8
 3292 0294 A3020000 		.4byte	0x2a3
 3293 0298 09       		.uleb128 0x9
 3294 0299 A3020000 		.4byte	0x2a3
 3295 029d 09       		.uleb128 0x9
 3296 029e A9020000 		.4byte	0x2a9
 3297 02a2 00       		.byte	0
 3298 02a3 06       		.uleb128 0x6
 3299 02a4 04       		.byte	0x4
 3300 02a5 CE010000 		.4byte	0x1ce
 3301 02a9 06       		.uleb128 0x6
 3302 02aa 04       		.byte	0x4
 3303 02ab AF020000 		.4byte	0x2af
 3304 02af 07       		.uleb128 0x7
 3305 02b0 C3010000 		.4byte	0x1c3
 3306 02b4 10       		.uleb128 0x10
 3307 02b5 A2000000 		.4byte	0xa2
 3308 02b9 C4020000 		.4byte	0x2c4
 3309 02bd 11       		.uleb128 0x11
 3310 02be 95000000 		.4byte	0x95
 3311 02c2 4F       		.byte	0x4f
 3312 02c3 00       		.byte	0
 3313 02c4 10       		.uleb128 0x10
 3314 02c5 A2000000 		.4byte	0xa2
 3315 02c9 D4020000 		.4byte	0x2d4
 3316 02cd 11       		.uleb128 0x11
 3317 02ce 95000000 		.4byte	0x95
 3318 02d2 1F       		.byte	0x1f
 3319 02d3 00       		.byte	0
 3320 02d4 10       		.uleb128 0x10
 3321 02d5 A2000000 		.4byte	0xa2
 3322 02d9 E4020000 		.4byte	0x2e4
 3323 02dd 11       		.uleb128 0x11
 3324 02de 95000000 		.4byte	0x95
 3325 02e2 0D       		.byte	0xd
ARM GAS  C:\Users\samue\AppData\Local\Temp\ccJDNHzo.s 			page 83


 3326 02e3 00       		.byte	0
 3327 02e4 12       		.uleb128 0x12
 3328 02e5 E8050000 		.4byte	.LASF53
 3329 02e9 01       		.byte	0x1
 3330 02ea 64       		.byte	0x64
 3331 02eb 03       		.byte	0x3
 3332 02ec 05030000 		.4byte	0x305
 3333 02f0 13       		.uleb128 0x13
 3334 02f1 63747800 		.ascii	"ctx\000"
 3335 02f5 01       		.byte	0x1
 3336 02f6 64       		.byte	0x64
 3337 02f7 A3020000 		.4byte	0x2a3
 3338 02fb 13       		.uleb128 0x13
 3339 02fc 7300     		.ascii	"s\000"
 3340 02fe 01       		.byte	0x1
 3341 02ff 64       		.byte	0x64
 3342 0300 A9000000 		.4byte	0xa9
 3343 0304 00       		.byte	0
 3344 0305 14       		.uleb128 0x14
 3345 0306 94000000 		.4byte	.LASF132
 3346 030a 01       		.byte	0x1
 3347 030b 6D       		.byte	0x6d
 3348 030c 2A030000 		.4byte	0x32a
 3349 0310 03       		.byte	0x3
 3350 0311 2A030000 		.4byte	0x32a
 3351 0315 13       		.uleb128 0x13
 3352 0316 63747800 		.ascii	"ctx\000"
 3353 031a 01       		.byte	0x1
 3354 031b 6D       		.byte	0x6d
 3355 031c A3020000 		.4byte	0x2a3
 3356 0320 13       		.uleb128 0x13
 3357 0321 7000     		.ascii	"p\000"
 3358 0323 01       		.byte	0x1
 3359 0324 6D       		.byte	0x6d
 3360 0325 9C000000 		.4byte	0x9c
 3361 0329 00       		.byte	0
 3362 032a 02       		.uleb128 0x2
 3363 032b 01       		.byte	0x1
 3364 032c 02       		.byte	0x2
 3365 032d 32040000 		.4byte	.LASF52
 3366 0331 12       		.uleb128 0x12
 3367 0332 85060000 		.4byte	.LASF54
 3368 0336 01       		.byte	0x1
 3369 0337 5C       		.byte	0x5c
 3370 0338 03       		.byte	0x3
 3371 0339 5F030000 		.4byte	0x35f
 3372 033d 13       		.uleb128 0x13
 3373 033e 63747800 		.ascii	"ctx\000"
 3374 0342 01       		.byte	0x1
 3375 0343 5C       		.byte	0x5c
 3376 0344 A3020000 		.4byte	0x2a3
 3377 0348 13       		.uleb128 0x13
 3378 0349 62756600 		.ascii	"buf\000"
 3379 034d 01       		.byte	0x1
 3380 034e 5C       		.byte	0x5c
 3381 034f A9000000 		.4byte	0xa9
 3382 0353 13       		.uleb128 0x13
ARM GAS  C:\Users\samue\AppData\Local\Temp\ccJDNHzo.s 			page 84


 3383 0354 6C656E00 		.ascii	"len\000"
 3384 0358 01       		.byte	0x1
 3385 0359 5C       		.byte	0x5c
 3386 035a 7E000000 		.4byte	0x7e
 3387 035e 00       		.byte	0
 3388 035f 15       		.uleb128 0x15
 3389 0360 B0010000 		.4byte	.LASF55
 3390 0364 01       		.byte	0x1
 3391 0365 75       		.byte	0x75
 3392 0366 00000000 		.4byte	.LFB72
 3393 036a 60000000 		.4byte	.LFE72-.LFB72
 3394 036e 01       		.uleb128 0x1
 3395 036f 9C       		.byte	0x9c
 3396 0370 9E030000 		.4byte	0x39e
 3397 0374 16       		.uleb128 0x16
 3398 0375 6900     		.ascii	"i\000"
 3399 0377 01       		.byte	0x1
 3400 0378 75       		.byte	0x75
 3401 0379 7E000000 		.4byte	0x7e
 3402 037d 00000000 		.4byte	.LLST0
 3403 0381 16       		.uleb128 0x16
 3404 0382 73747200 		.ascii	"str\000"
 3405 0386 01       		.byte	0x1
 3406 0387 75       		.byte	0x75
 3407 0388 9C000000 		.4byte	0x9c
 3408 038c 1E000000 		.4byte	.LLST1
 3409 0390 17       		.uleb128 0x17
 3410 0391 6D00     		.ascii	"m\000"
 3411 0393 01       		.byte	0x1
 3412 0394 77       		.byte	0x77
 3413 0395 7E000000 		.4byte	0x7e
 3414 0399 49000000 		.4byte	.LLST2
 3415 039d 00       		.byte	0
 3416 039e 18       		.uleb128 0x18
 3417 039f 6A020000 		.4byte	.LASF56
 3418 03a3 01       		.byte	0x1
 3419 03a4 6A03     		.2byte	0x36a
 3420 03a6 00000000 		.4byte	.LFB102
 3421 03aa 2C000000 		.4byte	.LFE102-.LFB102
 3422 03ae 01       		.uleb128 0x1
 3423 03af 9C       		.byte	0x9c
 3424 03b0 12040000 		.4byte	0x412
 3425 03b4 19       		.uleb128 0x19
 3426 03b5 63747800 		.ascii	"ctx\000"
 3427 03b9 01       		.byte	0x1
 3428 03ba 6A03     		.2byte	0x36a
 3429 03bc A3020000 		.4byte	0x2a3
 3430 03c0 80000000 		.4byte	.LLST3
 3431 03c4 19       		.uleb128 0x19
 3432 03c5 6500     		.ascii	"e\000"
 3433 03c7 01       		.byte	0x1
 3434 03c8 6A03     		.2byte	0x36a
 3435 03ca A9020000 		.4byte	0x2a9
 3436 03ce AC000000 		.4byte	.LLST4
 3437 03d2 1A       		.uleb128 0x1a
 3438 03d3 08000000 		.4byte	.LVL13
 3439 03d7 E9030000 		.4byte	0x3e9
ARM GAS  C:\Users\samue\AppData\Local\Temp\ccJDNHzo.s 			page 85


 3440 03db 1B       		.uleb128 0x1b
 3441 03dc 01       		.uleb128 0x1
 3442 03dd 50       		.byte	0x50
 3443 03de 02       		.uleb128 0x2
 3444 03df 74       		.byte	0x74
 3445 03e0 00       		.sleb128 0
 3446 03e1 1B       		.uleb128 0x1b
 3447 03e2 01       		.uleb128 0x1
 3448 03e3 51       		.byte	0x51
 3449 03e4 03       		.uleb128 0x3
 3450 03e5 F3       		.byte	0xf3
 3451 03e6 01       		.uleb128 0x1
 3452 03e7 51       		.byte	0x51
 3453 03e8 00       		.byte	0
 3454 03e9 1A       		.uleb128 0x1a
 3455 03ea 18000000 		.4byte	.LVL14
 3456 03ee FF030000 		.4byte	0x3ff
 3457 03f2 1B       		.uleb128 0x1b
 3458 03f3 01       		.uleb128 0x1
 3459 03f4 50       		.byte	0x50
 3460 03f5 02       		.uleb128 0x2
 3461 03f6 74       		.byte	0x74
 3462 03f7 00       		.sleb128 0
 3463 03f8 1B       		.uleb128 0x1b
 3464 03f9 01       		.uleb128 0x1
 3465 03fa 51       		.byte	0x51
 3466 03fb 02       		.uleb128 0x2
 3467 03fc 75       		.byte	0x75
 3468 03fd 00       		.sleb128 0
 3469 03fe 00       		.byte	0
 3470 03ff 1C       		.uleb128 0x1c
 3471 0400 24000000 		.4byte	.LVL15
 3472 0404 1B       		.uleb128 0x1b
 3473 0405 01       		.uleb128 0x1
 3474 0406 50       		.byte	0x50
 3475 0407 02       		.uleb128 0x2
 3476 0408 74       		.byte	0x74
 3477 0409 00       		.sleb128 0
 3478 040a 1B       		.uleb128 0x1b
 3479 040b 01       		.uleb128 0x1
 3480 040c 51       		.byte	0x51
 3481 040d 02       		.uleb128 0x2
 3482 040e 75       		.byte	0x75
 3483 040f 10       		.sleb128 16
 3484 0410 00       		.byte	0
 3485 0411 00       		.byte	0
 3486 0412 18       		.uleb128 0x18
 3487 0413 D5030000 		.4byte	.LASF57
 3488 0417 01       		.byte	0x1
 3489 0418 EB01     		.2byte	0x1eb
 3490 041a 00000000 		.4byte	.LFB92
 3491 041e 90000000 		.4byte	.LFE92-.LFB92
 3492 0422 01       		.uleb128 0x1
 3493 0423 9C       		.byte	0x9c
 3494 0424 40050000 		.4byte	0x540
 3495 0428 19       		.uleb128 0x19
 3496 0429 63747800 		.ascii	"ctx\000"
ARM GAS  C:\Users\samue\AppData\Local\Temp\ccJDNHzo.s 			page 86


 3497 042d 01       		.byte	0x1
 3498 042e EB01     		.2byte	0x1eb
 3499 0430 A3020000 		.4byte	0x2a3
 3500 0434 CD000000 		.4byte	.LLST5
 3501 0438 1D       		.uleb128 0x1d
 3502 0439 E4020000 		.4byte	0x2e4
 3503 043d 08000000 		.4byte	.LBB59
 3504 0441 14000000 		.4byte	.LBE59-.LBB59
 3505 0445 01       		.byte	0x1
 3506 0446 ED01     		.2byte	0x1ed
 3507 0448 6F040000 		.4byte	0x46f
 3508 044c 1E       		.uleb128 0x1e
 3509 044d FB020000 		.4byte	0x2fb
 3510 0451 F9000000 		.4byte	.LLST6
 3511 0455 1E       		.uleb128 0x1e
 3512 0456 F0020000 		.4byte	0x2f0
 3513 045a 1C010000 		.4byte	.LLST7
 3514 045e 1F       		.uleb128 0x1f
 3515 045f 16000000 		.4byte	.LVL21
 3516 0463 C81A0000 		.4byte	0x1ac8
 3517 0467 1B       		.uleb128 0x1b
 3518 0468 01       		.uleb128 0x1
 3519 0469 52       		.byte	0x52
 3520 046a 02       		.uleb128 0x2
 3521 046b 09       		.byte	0x9
 3522 046c FF       		.byte	0xff
 3523 046d 00       		.byte	0
 3524 046e 00       		.byte	0
 3525 046f 1D       		.uleb128 0x1d
 3526 0470 E4020000 		.4byte	0x2e4
 3527 0474 22000000 		.4byte	.LBB61
 3528 0478 18000000 		.4byte	.LBE61-.LBB61
 3529 047c 01       		.byte	0x1
 3530 047d EE01     		.2byte	0x1ee
 3531 047f A6040000 		.4byte	0x4a6
 3532 0483 1E       		.uleb128 0x1e
 3533 0484 FB020000 		.4byte	0x2fb
 3534 0488 3A010000 		.4byte	.LLST8
 3535 048c 1E       		.uleb128 0x1e
 3536 048d F0020000 		.4byte	0x2f0
 3537 0491 4D010000 		.4byte	.LLST9
 3538 0495 1F       		.uleb128 0x1f
 3539 0496 30000000 		.4byte	.LVL25
 3540 049a C81A0000 		.4byte	0x1ac8
 3541 049e 1B       		.uleb128 0x1b
 3542 049f 01       		.uleb128 0x1
 3543 04a0 52       		.byte	0x52
 3544 04a1 02       		.uleb128 0x2
 3545 04a2 09       		.byte	0x9
 3546 04a3 FF       		.byte	0xff
 3547 04a4 00       		.byte	0
 3548 04a5 00       		.byte	0
 3549 04a6 1D       		.uleb128 0x1d
 3550 04a7 E4020000 		.4byte	0x2e4
 3551 04ab 3A000000 		.4byte	.LBB63
 3552 04af 14000000 		.4byte	.LBE63-.LBB63
 3553 04b3 01       		.byte	0x1
ARM GAS  C:\Users\samue\AppData\Local\Temp\ccJDNHzo.s 			page 87


 3554 04b4 EF01     		.2byte	0x1ef
 3555 04b6 D9040000 		.4byte	0x4d9
 3556 04ba 1E       		.uleb128 0x1e
 3557 04bb FB020000 		.4byte	0x2fb
 3558 04bf 6E010000 		.4byte	.LLST10
 3559 04c3 20       		.uleb128 0x20
 3560 04c4 F0020000 		.4byte	0x2f0
 3561 04c8 1F       		.uleb128 0x1f
 3562 04c9 48000000 		.4byte	.LVL29
 3563 04cd C81A0000 		.4byte	0x1ac8
 3564 04d1 1B       		.uleb128 0x1b
 3565 04d2 01       		.uleb128 0x1
 3566 04d3 52       		.byte	0x52
 3567 04d4 02       		.uleb128 0x2
 3568 04d5 09       		.byte	0x9
 3569 04d6 FF       		.byte	0xff
 3570 04d7 00       		.byte	0
 3571 04d8 00       		.byte	0
 3572 04d9 1D       		.uleb128 0x1d
 3573 04da E4020000 		.4byte	0x2e4
 3574 04de 54000000 		.4byte	.LBB65
 3575 04e2 18000000 		.4byte	.LBE65-.LBB65
 3576 04e6 01       		.byte	0x1
 3577 04e7 F001     		.2byte	0x1f0
 3578 04e9 10050000 		.4byte	0x510
 3579 04ed 1E       		.uleb128 0x1e
 3580 04ee FB020000 		.4byte	0x2fb
 3581 04f2 81010000 		.4byte	.LLST11
 3582 04f6 1E       		.uleb128 0x1e
 3583 04f7 F0020000 		.4byte	0x2f0
 3584 04fb 94010000 		.4byte	.LLST12
 3585 04ff 1F       		.uleb128 0x1f
 3586 0500 62000000 		.4byte	.LVL33
 3587 0504 C81A0000 		.4byte	0x1ac8
 3588 0508 1B       		.uleb128 0x1b
 3589 0509 01       		.uleb128 0x1
 3590 050a 52       		.byte	0x52
 3591 050b 02       		.uleb128 0x2
 3592 050c 09       		.byte	0x9
 3593 050d FF       		.byte	0xff
 3594 050e 00       		.byte	0
 3595 050f 00       		.byte	0
 3596 0510 21       		.uleb128 0x21
 3597 0511 E4020000 		.4byte	0x2e4
 3598 0515 6C000000 		.4byte	.LBB67
 3599 0519 14000000 		.4byte	.LBE67-.LBB67
 3600 051d 01       		.byte	0x1
 3601 051e F101     		.2byte	0x1f1
 3602 0520 1E       		.uleb128 0x1e
 3603 0521 FB020000 		.4byte	0x2fb
 3604 0525 B5010000 		.4byte	.LLST13
 3605 0529 20       		.uleb128 0x20
 3606 052a F0020000 		.4byte	0x2f0
 3607 052e 1F       		.uleb128 0x1f
 3608 052f 7A000000 		.4byte	.LVL37
 3609 0533 C81A0000 		.4byte	0x1ac8
 3610 0537 1B       		.uleb128 0x1b
ARM GAS  C:\Users\samue\AppData\Local\Temp\ccJDNHzo.s 			page 88


 3611 0538 01       		.uleb128 0x1
 3612 0539 52       		.byte	0x52
 3613 053a 02       		.uleb128 0x2
 3614 053b 09       		.byte	0x9
 3615 053c FF       		.byte	0xff
 3616 053d 00       		.byte	0
 3617 053e 00       		.byte	0
 3618 053f 00       		.byte	0
 3619 0540 18       		.uleb128 0x18
 3620 0541 5B050000 		.4byte	.LASF58
 3621 0545 01       		.byte	0x1
 3622 0546 3702     		.2byte	0x237
 3623 0548 00000000 		.4byte	.LFB95
 3624 054c 90000000 		.4byte	.LFE95-.LFB95
 3625 0550 01       		.uleb128 0x1
 3626 0551 9C       		.byte	0x9c
 3627 0552 6E060000 		.4byte	0x66e
 3628 0556 19       		.uleb128 0x19
 3629 0557 63747800 		.ascii	"ctx\000"
 3630 055b 01       		.byte	0x1
 3631 055c 3702     		.2byte	0x237
 3632 055e A3020000 		.4byte	0x2a3
 3633 0562 C8010000 		.4byte	.LLST14
 3634 0566 1D       		.uleb128 0x1d
 3635 0567 E4020000 		.4byte	0x2e4
 3636 056b 08000000 		.4byte	.LBB69
 3637 056f 14000000 		.4byte	.LBE69-.LBB69
 3638 0573 01       		.byte	0x1
 3639 0574 3902     		.2byte	0x239
 3640 0576 9D050000 		.4byte	0x59d
 3641 057a 1E       		.uleb128 0x1e
 3642 057b FB020000 		.4byte	0x2fb
 3643 057f F4010000 		.4byte	.LLST15
 3644 0583 1E       		.uleb128 0x1e
 3645 0584 F0020000 		.4byte	0x2f0
 3646 0588 17020000 		.4byte	.LLST16
 3647 058c 1F       		.uleb128 0x1f
 3648 058d 16000000 		.4byte	.LVL43
 3649 0591 C81A0000 		.4byte	0x1ac8
 3650 0595 1B       		.uleb128 0x1b
 3651 0596 01       		.uleb128 0x1
 3652 0597 52       		.byte	0x52
 3653 0598 02       		.uleb128 0x2
 3654 0599 09       		.byte	0x9
 3655 059a FF       		.byte	0xff
 3656 059b 00       		.byte	0
 3657 059c 00       		.byte	0
 3658 059d 1D       		.uleb128 0x1d
 3659 059e E4020000 		.4byte	0x2e4
 3660 05a2 22000000 		.4byte	.LBB71
 3661 05a6 18000000 		.4byte	.LBE71-.LBB71
 3662 05aa 01       		.byte	0x1
 3663 05ab 3A02     		.2byte	0x23a
 3664 05ad D4050000 		.4byte	0x5d4
 3665 05b1 1E       		.uleb128 0x1e
 3666 05b2 FB020000 		.4byte	0x2fb
 3667 05b6 35020000 		.4byte	.LLST17
ARM GAS  C:\Users\samue\AppData\Local\Temp\ccJDNHzo.s 			page 89


 3668 05ba 1E       		.uleb128 0x1e
 3669 05bb F0020000 		.4byte	0x2f0
 3670 05bf 48020000 		.4byte	.LLST18
 3671 05c3 1F       		.uleb128 0x1f
 3672 05c4 30000000 		.4byte	.LVL47
 3673 05c8 C81A0000 		.4byte	0x1ac8
 3674 05cc 1B       		.uleb128 0x1b
 3675 05cd 01       		.uleb128 0x1
 3676 05ce 52       		.byte	0x52
 3677 05cf 02       		.uleb128 0x2
 3678 05d0 09       		.byte	0x9
 3679 05d1 FF       		.byte	0xff
 3680 05d2 00       		.byte	0
 3681 05d3 00       		.byte	0
 3682 05d4 1D       		.uleb128 0x1d
 3683 05d5 E4020000 		.4byte	0x2e4
 3684 05d9 3A000000 		.4byte	.LBB73
 3685 05dd 14000000 		.4byte	.LBE73-.LBB73
 3686 05e1 01       		.byte	0x1
 3687 05e2 3B02     		.2byte	0x23b
 3688 05e4 07060000 		.4byte	0x607
 3689 05e8 1E       		.uleb128 0x1e
 3690 05e9 FB020000 		.4byte	0x2fb
 3691 05ed 69020000 		.4byte	.LLST19
 3692 05f1 20       		.uleb128 0x20
 3693 05f2 F0020000 		.4byte	0x2f0
 3694 05f6 1F       		.uleb128 0x1f
 3695 05f7 48000000 		.4byte	.LVL51
 3696 05fb C81A0000 		.4byte	0x1ac8
 3697 05ff 1B       		.uleb128 0x1b
 3698 0600 01       		.uleb128 0x1
 3699 0601 52       		.byte	0x52
 3700 0602 02       		.uleb128 0x2
 3701 0603 09       		.byte	0x9
 3702 0604 FF       		.byte	0xff
 3703 0605 00       		.byte	0
 3704 0606 00       		.byte	0
 3705 0607 1D       		.uleb128 0x1d
 3706 0608 E4020000 		.4byte	0x2e4
 3707 060c 54000000 		.4byte	.LBB75
 3708 0610 18000000 		.4byte	.LBE75-.LBB75
 3709 0614 01       		.byte	0x1
 3710 0615 3C02     		.2byte	0x23c
 3711 0617 3E060000 		.4byte	0x63e
 3712 061b 1E       		.uleb128 0x1e
 3713 061c FB020000 		.4byte	0x2fb
 3714 0620 7C020000 		.4byte	.LLST20
 3715 0624 1E       		.uleb128 0x1e
 3716 0625 F0020000 		.4byte	0x2f0
 3717 0629 8F020000 		.4byte	.LLST21
 3718 062d 1F       		.uleb128 0x1f
 3719 062e 62000000 		.4byte	.LVL55
 3720 0632 C81A0000 		.4byte	0x1ac8
 3721 0636 1B       		.uleb128 0x1b
 3722 0637 01       		.uleb128 0x1
 3723 0638 52       		.byte	0x52
 3724 0639 02       		.uleb128 0x2
ARM GAS  C:\Users\samue\AppData\Local\Temp\ccJDNHzo.s 			page 90


 3725 063a 09       		.byte	0x9
 3726 063b FF       		.byte	0xff
 3727 063c 00       		.byte	0
 3728 063d 00       		.byte	0
 3729 063e 21       		.uleb128 0x21
 3730 063f E4020000 		.4byte	0x2e4
 3731 0643 6C000000 		.4byte	.LBB77
 3732 0647 14000000 		.4byte	.LBE77-.LBB77
 3733 064b 01       		.byte	0x1
 3734 064c 3D02     		.2byte	0x23d
 3735 064e 1E       		.uleb128 0x1e
 3736 064f FB020000 		.4byte	0x2fb
 3737 0653 B0020000 		.4byte	.LLST22
 3738 0657 20       		.uleb128 0x20
 3739 0658 F0020000 		.4byte	0x2f0
 3740 065c 1F       		.uleb128 0x1f
 3741 065d 7A000000 		.4byte	.LVL59
 3742 0661 C81A0000 		.4byte	0x1ac8
 3743 0665 1B       		.uleb128 0x1b
 3744 0666 01       		.uleb128 0x1
 3745 0667 52       		.byte	0x52
 3746 0668 02       		.uleb128 0x2
 3747 0669 09       		.byte	0x9
 3748 066a FF       		.byte	0xff
 3749 066b 00       		.byte	0
 3750 066c 00       		.byte	0
 3751 066d 00       		.byte	0
 3752 066e 22       		.uleb128 0x22
 3753 066f 74010000 		.4byte	.LASF62
 3754 0673 01       		.byte	0x1
 3755 0674 7B03     		.2byte	0x37b
 3756 0676 00000000 		.4byte	.LFB104
 3757 067a 30000000 		.4byte	.LFE104-.LFB104
 3758 067e 01       		.uleb128 0x1
 3759 067f 9C       		.byte	0x9c
 3760 0680 0E070000 		.4byte	0x70e
 3761 0684 23       		.uleb128 0x23
 3762 0685 79020000 		.4byte	.LASF59
 3763 0689 01       		.byte	0x1
 3764 068a 7B03     		.2byte	0x37b
 3765 068c 93000000 		.4byte	0x93
 3766 0690 C3020000 		.4byte	.LLST23
 3767 0694 24       		.uleb128 0x24
 3768 0695 657100   		.ascii	"eq\000"
 3769 0698 01       		.byte	0x1
 3770 0699 7D03     		.2byte	0x37d
 3771 069b 15010000 		.4byte	0x115
 3772 069f 01       		.uleb128 0x1
 3773 06a0 54       		.byte	0x54
 3774 06a1 24       		.uleb128 0x24
 3775 06a2 6500     		.ascii	"e\000"
 3776 06a4 01       		.byte	0x1
 3777 06a5 7E03     		.2byte	0x37e
 3778 06a7 AF020000 		.4byte	0x2af
 3779 06ab 02       		.uleb128 0x2
 3780 06ac 91       		.byte	0x91
 3781 06ad 68       		.sleb128 -24
ARM GAS  C:\Users\samue\AppData\Local\Temp\ccJDNHzo.s 			page 91


 3782 06ae 25       		.uleb128 0x25
 3783 06af 37020000 		.4byte	.LASF60
 3784 06b3 01       		.byte	0x1
 3785 06b4 7F03     		.2byte	0x37f
 3786 06b6 0A010000 		.4byte	0x10a
 3787 06ba 02       		.uleb128 0x2
 3788 06bb 91       		.byte	0x91
 3789 06bc 64       		.sleb128 -28
 3790 06bd 26       		.uleb128 0x26
 3791 06be 16000000 		.4byte	.LASF61
 3792 06c2 01       		.byte	0x1
 3793 06c3 8003     		.2byte	0x380
 3794 06c5 0E070000 		.4byte	0x70e
 3795 06c9 64       		.byte	0x64
 3796 06ca 27       		.uleb128 0x27
 3797 06cb 18000000 		.4byte	.LVL64
 3798 06cf D31A0000 		.4byte	0x1ad3
 3799 06d3 28       		.uleb128 0x28
 3800 06d4 22000000 		.4byte	.LVL65
 3801 06d8 DF1A0000 		.4byte	0x1adf
 3802 06dc ED060000 		.4byte	0x6ed
 3803 06e0 1B       		.uleb128 0x1b
 3804 06e1 01       		.uleb128 0x1
 3805 06e2 50       		.byte	0x50
 3806 06e3 02       		.uleb128 0x2
 3807 06e4 91       		.byte	0x91
 3808 06e5 64       		.sleb128 -28
 3809 06e6 1B       		.uleb128 0x1b
 3810 06e7 01       		.uleb128 0x1
 3811 06e8 51       		.byte	0x51
 3812 06e9 02       		.uleb128 0x2
 3813 06ea 08       		.byte	0x8
 3814 06eb 64       		.byte	0x64
 3815 06ec 00       		.byte	0
 3816 06ed 1F       		.uleb128 0x1f
 3817 06ee 2E000000 		.4byte	.LVL66
 3818 06f2 EB1A0000 		.4byte	0x1aeb
 3819 06f6 1B       		.uleb128 0x1b
 3820 06f7 01       		.uleb128 0x1
 3821 06f8 50       		.byte	0x50
 3822 06f9 02       		.uleb128 0x2
 3823 06fa 74       		.byte	0x74
 3824 06fb 00       		.sleb128 0
 3825 06fc 1B       		.uleb128 0x1b
 3826 06fd 01       		.uleb128 0x1
 3827 06fe 51       		.byte	0x51
 3828 06ff 02       		.uleb128 0x2
 3829 0700 91       		.byte	0x91
 3830 0701 68       		.sleb128 -24
 3831 0702 1B       		.uleb128 0x1b
 3832 0703 01       		.uleb128 0x1
 3833 0704 52       		.byte	0x52
 3834 0705 01       		.uleb128 0x1
 3835 0706 30       		.byte	0x30
 3836 0707 1B       		.uleb128 0x1b
 3837 0708 01       		.uleb128 0x1
 3838 0709 53       		.byte	0x53
ARM GAS  C:\Users\samue\AppData\Local\Temp\ccJDNHzo.s 			page 92


 3839 070a 01       		.uleb128 0x1
 3840 070b 30       		.byte	0x30
 3841 070c 00       		.byte	0
 3842 070d 00       		.byte	0
 3843 070e 07       		.uleb128 0x7
 3844 070f 0A010000 		.4byte	0x10a
 3845 0713 22       		.uleb128 0x22
 3846 0714 62040000 		.4byte	.LASF63
 3847 0718 01       		.byte	0x1
 3848 0719 8F03     		.2byte	0x38f
 3849 071b 00000000 		.4byte	.LFB105
 3850 071f 5E000000 		.4byte	.LFE105-.LFB105
 3851 0723 01       		.uleb128 0x1
 3852 0724 9C       		.byte	0x9c
 3853 0725 20080000 		.4byte	0x820
 3854 0729 23       		.uleb128 0x23
 3855 072a 79020000 		.4byte	.LASF59
 3856 072e 01       		.byte	0x1
 3857 072f 8F03     		.2byte	0x38f
 3858 0731 93000000 		.4byte	0x93
 3859 0735 E4020000 		.4byte	.LLST24
 3860 0739 24       		.uleb128 0x24
 3861 073a 657100   		.ascii	"eq\000"
 3862 073d 01       		.byte	0x1
 3863 073e 9003     		.2byte	0x390
 3864 0740 15010000 		.4byte	0x115
 3865 0744 01       		.uleb128 0x1
 3866 0745 55       		.byte	0x55
 3867 0746 25       		.uleb128 0x25
 3868 0747 0E020000 		.4byte	.LASF64
 3869 074b 01       		.byte	0x1
 3870 074c 9103     		.2byte	0x391
 3871 074e 36010000 		.4byte	0x136
 3872 0752 01       		.uleb128 0x1
 3873 0753 54       		.byte	0x54
 3874 0754 24       		.uleb128 0x24
 3875 0755 6500     		.ascii	"e\000"
 3876 0757 01       		.byte	0x1
 3877 0758 9403     		.2byte	0x394
 3878 075a AF020000 		.4byte	0x2af
 3879 075e 02       		.uleb128 0x2
 3880 075f 91       		.byte	0x91
 3881 0760 60       		.sleb128 -32
 3882 0761 28       		.uleb128 0x28
 3883 0762 1A000000 		.4byte	.LVL71
 3884 0766 F71A0000 		.4byte	0x1af7
 3885 076a 74070000 		.4byte	0x774
 3886 076e 1B       		.uleb128 0x1b
 3887 076f 01       		.uleb128 0x1
 3888 0770 50       		.byte	0x50
 3889 0771 01       		.uleb128 0x1
 3890 0772 30       		.byte	0x30
 3891 0773 00       		.byte	0
 3892 0774 28       		.uleb128 0x28
 3893 0775 20000000 		.4byte	.LVL72
 3894 0779 021B0000 		.4byte	0x1b02
 3895 077d 87070000 		.4byte	0x787
ARM GAS  C:\Users\samue\AppData\Local\Temp\ccJDNHzo.s 			page 93


 3896 0781 1B       		.uleb128 0x1b
 3897 0782 01       		.uleb128 0x1
 3898 0783 50       		.byte	0x50
 3899 0784 01       		.uleb128 0x1
 3900 0785 44       		.byte	0x44
 3901 0786 00       		.byte	0
 3902 0787 28       		.uleb128 0x28
 3903 0788 26000000 		.4byte	.LVL73
 3904 078c F71A0000 		.4byte	0x1af7
 3905 0790 9A070000 		.4byte	0x79a
 3906 0794 1B       		.uleb128 0x1b
 3907 0795 01       		.uleb128 0x1
 3908 0796 50       		.byte	0x50
 3909 0797 01       		.uleb128 0x1
 3910 0798 31       		.byte	0x31
 3911 0799 00       		.byte	0
 3912 079a 28       		.uleb128 0x28
 3913 079b 2C000000 		.4byte	.LVL74
 3914 079f 021B0000 		.4byte	0x1b02
 3915 07a3 AD070000 		.4byte	0x7ad
 3916 07a7 1B       		.uleb128 0x1b
 3917 07a8 01       		.uleb128 0x1
 3918 07a9 50       		.byte	0x50
 3919 07aa 01       		.uleb128 0x1
 3920 07ab 44       		.byte	0x44
 3921 07ac 00       		.byte	0
 3922 07ad 28       		.uleb128 0x28
 3923 07ae 34000000 		.4byte	.LVL75
 3924 07b2 0E1B0000 		.4byte	0x1b0e
 3925 07b6 C7070000 		.4byte	0x7c7
 3926 07ba 1B       		.uleb128 0x1b
 3927 07bb 01       		.uleb128 0x1
 3928 07bc 50       		.byte	0x50
 3929 07bd 02       		.uleb128 0x2
 3930 07be 74       		.byte	0x74
 3931 07bf 00       		.sleb128 0
 3932 07c0 1B       		.uleb128 0x1b
 3933 07c1 01       		.uleb128 0x1
 3934 07c2 51       		.byte	0x51
 3935 07c3 02       		.uleb128 0x2
 3936 07c4 08       		.byte	0x8
 3937 07c5 32       		.byte	0x32
 3938 07c6 00       		.byte	0
 3939 07c7 28       		.uleb128 0x28
 3940 07c8 44000000 		.4byte	.LVL76
 3941 07cc EB1A0000 		.4byte	0x1aeb
 3942 07d0 EB070000 		.4byte	0x7eb
 3943 07d4 1B       		.uleb128 0x1b
 3944 07d5 01       		.uleb128 0x1
 3945 07d6 50       		.byte	0x50
 3946 07d7 02       		.uleb128 0x2
 3947 07d8 75       		.byte	0x75
 3948 07d9 00       		.sleb128 0
 3949 07da 1B       		.uleb128 0x1b
 3950 07db 01       		.uleb128 0x1
 3951 07dc 51       		.byte	0x51
 3952 07dd 02       		.uleb128 0x2
ARM GAS  C:\Users\samue\AppData\Local\Temp\ccJDNHzo.s 			page 94


 3953 07de 7D       		.byte	0x7d
 3954 07df 00       		.sleb128 0
 3955 07e0 1B       		.uleb128 0x1b
 3956 07e1 01       		.uleb128 0x1
 3957 07e2 52       		.byte	0x52
 3958 07e3 01       		.uleb128 0x1
 3959 07e4 30       		.byte	0x30
 3960 07e5 1B       		.uleb128 0x1b
 3961 07e6 01       		.uleb128 0x1
 3962 07e7 53       		.byte	0x53
 3963 07e8 01       		.uleb128 0x1
 3964 07e9 30       		.byte	0x30
 3965 07ea 00       		.byte	0
 3966 07eb 28       		.uleb128 0x28
 3967 07ec 4C000000 		.4byte	.LVL77
 3968 07f0 191B0000 		.4byte	0x1b19
 3969 07f4 FF070000 		.4byte	0x7ff
 3970 07f8 1B       		.uleb128 0x1b
 3971 07f9 01       		.uleb128 0x1
 3972 07fa 50       		.byte	0x50
 3973 07fb 02       		.uleb128 0x2
 3974 07fc 74       		.byte	0x74
 3975 07fd 00       		.sleb128 0
 3976 07fe 00       		.byte	0
 3977 07ff 1F       		.uleb128 0x1f
 3978 0800 5C000000 		.4byte	.LVL78
 3979 0804 EB1A0000 		.4byte	0x1aeb
 3980 0808 1B       		.uleb128 0x1b
 3981 0809 01       		.uleb128 0x1
 3982 080a 50       		.byte	0x50
 3983 080b 02       		.uleb128 0x2
 3984 080c 75       		.byte	0x75
 3985 080d 00       		.sleb128 0
 3986 080e 1B       		.uleb128 0x1b
 3987 080f 01       		.uleb128 0x1
 3988 0810 51       		.byte	0x51
 3989 0811 02       		.uleb128 0x2
 3990 0812 7D       		.byte	0x7d
 3991 0813 00       		.sleb128 0
 3992 0814 1B       		.uleb128 0x1b
 3993 0815 01       		.uleb128 0x1
 3994 0816 52       		.byte	0x52
 3995 0817 01       		.uleb128 0x1
 3996 0818 30       		.byte	0x30
 3997 0819 1B       		.uleb128 0x1b
 3998 081a 01       		.uleb128 0x1
 3999 081b 53       		.byte	0x53
 4000 081c 01       		.uleb128 0x1
 4001 081d 30       		.byte	0x30
 4002 081e 00       		.byte	0
 4003 081f 00       		.byte	0
 4004 0820 22       		.uleb128 0x22
 4005 0821 6E060000 		.4byte	.LASF65
 4006 0825 01       		.byte	0x1
 4007 0826 B703     		.2byte	0x3b7
 4008 0828 00000000 		.4byte	.LFB106
 4009 082c 34000000 		.4byte	.LFE106-.LFB106
ARM GAS  C:\Users\samue\AppData\Local\Temp\ccJDNHzo.s 			page 95


 4010 0830 01       		.uleb128 0x1
 4011 0831 9C       		.byte	0x9c
 4012 0832 C5080000 		.4byte	0x8c5
 4013 0836 23       		.uleb128 0x23
 4014 0837 79020000 		.4byte	.LASF59
 4015 083b 01       		.byte	0x1
 4016 083c B703     		.2byte	0x3b7
 4017 083e 93000000 		.4byte	0x93
 4018 0842 05030000 		.4byte	.LLST25
 4019 0846 29       		.uleb128 0x29
 4020 0847 63747800 		.ascii	"ctx\000"
 4021 084b 01       		.byte	0x1
 4022 084c B803     		.2byte	0x3b8
 4023 084e A3020000 		.4byte	0x2a3
 4024 0852 23030000 		.4byte	.LLST26
 4025 0856 24       		.uleb128 0x24
 4026 0857 6500     		.ascii	"e\000"
 4027 0859 01       		.byte	0x1
 4028 085a BA03     		.2byte	0x3ba
 4029 085c C3010000 		.4byte	0x1c3
 4030 0860 02       		.uleb128 0x2
 4031 0861 91       		.byte	0x91
 4032 0862 68       		.sleb128 -24
 4033 0863 28       		.uleb128 0x28
 4034 0864 10000000 		.4byte	.LVL82
 4035 0868 241B0000 		.4byte	0x1b24
 4036 086c 77080000 		.4byte	0x877
 4037 0870 1B       		.uleb128 0x1b
 4038 0871 01       		.uleb128 0x1
 4039 0872 51       		.byte	0x51
 4040 0873 02       		.uleb128 0x2
 4041 0874 09       		.byte	0x9
 4042 0875 FF       		.byte	0xff
 4043 0876 00       		.byte	0
 4044 0877 28       		.uleb128 0x28
 4045 0878 18000000 		.4byte	.LVL83
 4046 087c 9E030000 		.4byte	0x39e
 4047 0880 94080000 		.4byte	0x894
 4048 0884 1B       		.uleb128 0x1b
 4049 0885 01       		.uleb128 0x1
 4050 0886 50       		.byte	0x50
 4051 0887 02       		.uleb128 0x2
 4052 0888 74       		.byte	0x74
 4053 0889 00       		.sleb128 0
 4054 088a 1B       		.uleb128 0x1b
 4055 088b 01       		.uleb128 0x1
 4056 088c 51       		.byte	0x51
 4057 088d 05       		.uleb128 0x5
 4058 088e 03       		.byte	0x3
 4059 088f 10000000 		.4byte	.LANCHOR0+16
 4060 0893 00       		.byte	0
 4061 0894 28       		.uleb128 0x28
 4062 0895 24000000 		.4byte	.LVL84
 4063 0899 301B0000 		.4byte	0x1b30
 4064 089d AE080000 		.4byte	0x8ae
 4065 08a1 1B       		.uleb128 0x1b
 4066 08a2 01       		.uleb128 0x1
ARM GAS  C:\Users\samue\AppData\Local\Temp\ccJDNHzo.s 			page 96


 4067 08a3 51       		.byte	0x51
 4068 08a4 02       		.uleb128 0x2
 4069 08a5 7D       		.byte	0x7d
 4070 08a6 00       		.sleb128 0
 4071 08a7 1B       		.uleb128 0x1b
 4072 08a8 01       		.uleb128 0x1
 4073 08a9 52       		.byte	0x52
 4074 08aa 02       		.uleb128 0x2
 4075 08ab 09       		.byte	0x9
 4076 08ac FF       		.byte	0xff
 4077 08ad 00       		.byte	0
 4078 08ae 1F       		.uleb128 0x1f
 4079 08af 2C000000 		.4byte	.LVL85
 4080 08b3 9E030000 		.4byte	0x39e
 4081 08b7 1B       		.uleb128 0x1b
 4082 08b8 01       		.uleb128 0x1
 4083 08b9 50       		.byte	0x50
 4084 08ba 02       		.uleb128 0x2
 4085 08bb 74       		.byte	0x74
 4086 08bc 00       		.sleb128 0
 4087 08bd 1B       		.uleb128 0x1b
 4088 08be 01       		.uleb128 0x1
 4089 08bf 51       		.byte	0x51
 4090 08c0 02       		.uleb128 0x2
 4091 08c1 7D       		.byte	0x7d
 4092 08c2 00       		.sleb128 0
 4093 08c3 00       		.byte	0
 4094 08c4 00       		.byte	0
 4095 08c5 2A       		.uleb128 0x2a
 4096 08c6 72030000 		.4byte	.LASF75
 4097 08ca 01       		.byte	0x1
 4098 08cb 82       		.byte	0x82
 4099 08cc 00000000 		.4byte	.LFB73
 4100 08d0 18000000 		.4byte	.LFE73-.LFB73
 4101 08d4 01       		.uleb128 0x1
 4102 08d5 9C       		.byte	0x9c
 4103 08d6 05090000 		.4byte	0x905
 4104 08da 16       		.uleb128 0x16
 4105 08db 63747800 		.ascii	"ctx\000"
 4106 08df 01       		.byte	0x1
 4107 08e0 82       		.byte	0x82
 4108 08e1 A3020000 		.4byte	0x2a3
 4109 08e5 41030000 		.4byte	.LLST27
 4110 08e9 1F       		.uleb128 0x1f
 4111 08ea 0C000000 		.4byte	.LVL87
 4112 08ee 3C1B0000 		.4byte	0x1b3c
 4113 08f2 1B       		.uleb128 0x1b
 4114 08f3 01       		.uleb128 0x1
 4115 08f4 50       		.byte	0x50
 4116 08f5 02       		.uleb128 0x2
 4117 08f6 74       		.byte	0x74
 4118 08f7 00       		.sleb128 0
 4119 08f8 1B       		.uleb128 0x1b
 4120 08f9 01       		.uleb128 0x1
 4121 08fa 51       		.byte	0x51
 4122 08fb 01       		.uleb128 0x1
 4123 08fc 30       		.byte	0x30
ARM GAS  C:\Users\samue\AppData\Local\Temp\ccJDNHzo.s 			page 97


 4124 08fd 1B       		.uleb128 0x1b
 4125 08fe 01       		.uleb128 0x1
 4126 08ff 52       		.byte	0x52
 4127 0900 02       		.uleb128 0x2
 4128 0901 08       		.byte	0x8
 4129 0902 CC       		.byte	0xcc
 4130 0903 00       		.byte	0
 4131 0904 00       		.byte	0
 4132 0905 2B       		.uleb128 0x2b
 4133 0906 81010000 		.4byte	.LASF66
 4134 090a 01       		.byte	0x1
 4135 090b 8A       		.byte	0x8a
 4136 090c 7E000000 		.4byte	0x7e
 4137 0910 00000000 		.4byte	.LFB74
 4138 0914 B4000000 		.4byte	.LFE74-.LFB74
 4139 0918 01       		.uleb128 0x1
 4140 0919 9C       		.byte	0x9c
 4141 091a 940A0000 		.4byte	0xa94
 4142 091e 2C       		.uleb128 0x2c
 4143 091f 45020000 		.4byte	.LASF49
 4144 0923 01       		.byte	0x1
 4145 0924 8A       		.byte	0x8a
 4146 0925 A9000000 		.4byte	0xa9
 4147 0929 6D030000 		.4byte	.LLST28
 4148 092d 2C       		.uleb128 0x2c
 4149 092e 6B000000 		.4byte	.LASF67
 4150 0932 01       		.byte	0x1
 4151 0933 8A       		.byte	0x8a
 4152 0934 A9000000 		.4byte	0xa9
 4153 0938 99030000 		.4byte	.LLST29
 4154 093c 28       		.uleb128 0x28
 4155 093d 10000000 		.4byte	.LVL91
 4156 0941 C5080000 		.4byte	0x8c5
 4157 0945 50090000 		.4byte	0x950
 4158 0949 1B       		.uleb128 0x1b
 4159 094a 01       		.uleb128 0x1
 4160 094b 50       		.byte	0x50
 4161 094c 02       		.uleb128 0x2
 4162 094d 74       		.byte	0x74
 4163 094e 00       		.sleb128 0
 4164 094f 00       		.byte	0
 4165 0950 28       		.uleb128 0x28
 4166 0951 1A000000 		.4byte	.LVL92
 4167 0955 451B0000 		.4byte	0x1b45
 4168 0959 6E090000 		.4byte	0x96e
 4169 095d 1B       		.uleb128 0x1b
 4170 095e 01       		.uleb128 0x1
 4171 095f 50       		.byte	0x50
 4172 0960 02       		.uleb128 0x2
 4173 0961 08       		.byte	0x8
 4174 0962 20       		.byte	0x20
 4175 0963 1B       		.uleb128 0x1b
 4176 0964 01       		.uleb128 0x1
 4177 0965 51       		.byte	0x51
 4178 0966 01       		.uleb128 0x1
 4179 0967 40       		.byte	0x40
 4180 0968 1B       		.uleb128 0x1b
ARM GAS  C:\Users\samue\AppData\Local\Temp\ccJDNHzo.s 			page 98


 4181 0969 01       		.uleb128 0x1
 4182 096a 52       		.byte	0x52
 4183 096b 01       		.uleb128 0x1
 4184 096c 30       		.byte	0x30
 4185 096d 00       		.byte	0
 4186 096e 28       		.uleb128 0x28
 4187 096f 22000000 		.4byte	.LVL93
 4188 0973 511B0000 		.4byte	0x1b51
 4189 0977 81090000 		.4byte	0x981
 4190 097b 1B       		.uleb128 0x1b
 4191 097c 01       		.uleb128 0x1
 4192 097d 50       		.byte	0x50
 4193 097e 01       		.uleb128 0x1
 4194 097f 31       		.byte	0x31
 4195 0980 00       		.byte	0
 4196 0981 28       		.uleb128 0x28
 4197 0982 30000000 		.4byte	.LVL94
 4198 0986 5D1B0000 		.4byte	0x1b5d
 4199 098a 9E090000 		.4byte	0x99e
 4200 098e 1B       		.uleb128 0x1b
 4201 098f 01       		.uleb128 0x1
 4202 0990 50       		.byte	0x50
 4203 0991 04       		.uleb128 0x4
 4204 0992 08       		.byte	0x8
 4205 0993 E1       		.byte	0xe1
 4206 0994 39       		.byte	0x39
 4207 0995 24       		.byte	0x24
 4208 0996 1B       		.uleb128 0x1b
 4209 0997 01       		.uleb128 0x1
 4210 0998 51       		.byte	0x51
 4211 0999 03       		.uleb128 0x3
 4212 099a 0A       		.byte	0xa
 4213 099b 0001     		.2byte	0x100
 4214 099d 00       		.byte	0
 4215 099e 28       		.uleb128 0x28
 4216 099f 3C000000 		.4byte	.LVL95
 4217 09a3 681B0000 		.4byte	0x1b68
 4218 09a7 B9090000 		.4byte	0x9b9
 4219 09ab 1B       		.uleb128 0x1b
 4220 09ac 01       		.uleb128 0x1
 4221 09ad 50       		.byte	0x50
 4222 09ae 03       		.uleb128 0x3
 4223 09af 74       		.byte	0x74
 4224 09b0 F000     		.sleb128 112
 4225 09b2 1B       		.uleb128 0x1b
 4226 09b3 01       		.uleb128 0x1
 4227 09b4 51       		.byte	0x51
 4228 09b5 02       		.uleb128 0x2
 4229 09b6 76       		.byte	0x76
 4230 09b7 00       		.sleb128 0
 4231 09b8 00       		.byte	0
 4232 09b9 28       		.uleb128 0x28
 4233 09ba 46000000 		.4byte	.LVL96
 4234 09be 681B0000 		.4byte	0x1b68
 4235 09c2 D4090000 		.4byte	0x9d4
 4236 09c6 1B       		.uleb128 0x1b
 4237 09c7 01       		.uleb128 0x1
ARM GAS  C:\Users\samue\AppData\Local\Temp\ccJDNHzo.s 			page 99


 4238 09c8 50       		.byte	0x50
 4239 09c9 03       		.uleb128 0x3
 4240 09ca 74       		.byte	0x74
 4241 09cb 9001     		.sleb128 144
 4242 09cd 1B       		.uleb128 0x1b
 4243 09ce 01       		.uleb128 0x1
 4244 09cf 51       		.byte	0x51
 4245 09d0 02       		.uleb128 0x2
 4246 09d1 75       		.byte	0x75
 4247 09d2 00       		.sleb128 0
 4248 09d3 00       		.byte	0
 4249 09d4 28       		.uleb128 0x28
 4250 09d5 5C000000 		.4byte	.LVL99
 4251 09d9 731B0000 		.4byte	0x1b73
 4252 09dd 0F0A0000 		.4byte	0xa0f
 4253 09e1 1B       		.uleb128 0x1b
 4254 09e2 01       		.uleb128 0x1
 4255 09e3 50       		.byte	0x50
 4256 09e4 05       		.uleb128 0x5
 4257 09e5 03       		.byte	0x3
 4258 09e6 00000000 		.4byte	vEspSocketTask
 4259 09ea 1B       		.uleb128 0x1b
 4260 09eb 01       		.uleb128 0x1
 4261 09ec 51       		.byte	0x51
 4262 09ed 05       		.uleb128 0x5
 4263 09ee 03       		.byte	0x3
 4264 09ef 34000000 		.4byte	.LC6
 4265 09f3 1B       		.uleb128 0x1b
 4266 09f4 01       		.uleb128 0x1
 4267 09f5 52       		.byte	0x52
 4268 09f6 03       		.uleb128 0x3
 4269 09f7 0A       		.byte	0xa
 4270 09f8 5802     		.2byte	0x258
 4271 09fa 1B       		.uleb128 0x1b
 4272 09fb 01       		.uleb128 0x1
 4273 09fc 53       		.byte	0x53
 4274 09fd 02       		.uleb128 0x2
 4275 09fe 74       		.byte	0x74
 4276 09ff 00       		.sleb128 0
 4277 0a00 1B       		.uleb128 0x1b
 4278 0a01 02       		.uleb128 0x2
 4279 0a02 7D       		.byte	0x7d
 4280 0a03 00       		.sleb128 0
 4281 0a04 02       		.uleb128 0x2
 4282 0a05 75       		.byte	0x75
 4283 0a06 00       		.sleb128 0
 4284 0a07 1B       		.uleb128 0x1b
 4285 0a08 02       		.uleb128 0x2
 4286 0a09 7D       		.byte	0x7d
 4287 0a0a 04       		.sleb128 4
 4288 0a0b 02       		.uleb128 0x2
 4289 0a0c 76       		.byte	0x76
 4290 0a0d 00       		.sleb128 0
 4291 0a0e 00       		.byte	0
 4292 0a0f 28       		.uleb128 0x28
 4293 0a10 6C000000 		.4byte	.LVL100
 4294 0a14 731B0000 		.4byte	0x1b73
ARM GAS  C:\Users\samue\AppData\Local\Temp\ccJDNHzo.s 			page 100


 4295 0a18 490A0000 		.4byte	0xa49
 4296 0a1c 1B       		.uleb128 0x1b
 4297 0a1d 01       		.uleb128 0x1
 4298 0a1e 50       		.byte	0x50
 4299 0a1f 05       		.uleb128 0x5
 4300 0a20 03       		.byte	0x3
 4301 0a21 00000000 		.4byte	vEspEventTask
 4302 0a25 1B       		.uleb128 0x1b
 4303 0a26 01       		.uleb128 0x1
 4304 0a27 51       		.byte	0x51
 4305 0a28 05       		.uleb128 0x5
 4306 0a29 03       		.byte	0x3
 4307 0a2a 40000000 		.4byte	.LC7
 4308 0a2e 1B       		.uleb128 0x1b
 4309 0a2f 01       		.uleb128 0x1
 4310 0a30 52       		.byte	0x52
 4311 0a31 02       		.uleb128 0x2
 4312 0a32 08       		.byte	0x8
 4313 0a33 64       		.byte	0x64
 4314 0a34 1B       		.uleb128 0x1b
 4315 0a35 01       		.uleb128 0x1
 4316 0a36 53       		.byte	0x53
 4317 0a37 02       		.uleb128 0x2
 4318 0a38 74       		.byte	0x74
 4319 0a39 00       		.sleb128 0
 4320 0a3a 1B       		.uleb128 0x1b
 4321 0a3b 02       		.uleb128 0x2
 4322 0a3c 7D       		.byte	0x7d
 4323 0a3d 00       		.sleb128 0
 4324 0a3e 02       		.uleb128 0x2
 4325 0a3f 75       		.byte	0x75
 4326 0a40 00       		.sleb128 0
 4327 0a41 1B       		.uleb128 0x1b
 4328 0a42 02       		.uleb128 0x2
 4329 0a43 7D       		.byte	0x7d
 4330 0a44 04       		.sleb128 4
 4331 0a45 02       		.uleb128 0x2
 4332 0a46 76       		.byte	0x76
 4333 0a47 00       		.sleb128 0
 4334 0a48 00       		.byte	0
 4335 0a49 28       		.uleb128 0x28
 4336 0a4a 7C000000 		.4byte	.LVL101
 4337 0a4e 731B0000 		.4byte	0x1b73
 4338 0a52 830A0000 		.4byte	0xa83
 4339 0a56 1B       		.uleb128 0x1b
 4340 0a57 01       		.uleb128 0x1
 4341 0a58 50       		.byte	0x50
 4342 0a59 05       		.uleb128 0x5
 4343 0a5a 03       		.byte	0x3
 4344 0a5b 00000000 		.4byte	vEspTickTask
 4345 0a5f 1B       		.uleb128 0x1b
 4346 0a60 01       		.uleb128 0x1
 4347 0a61 51       		.byte	0x51
 4348 0a62 05       		.uleb128 0x5
 4349 0a63 03       		.byte	0x3
 4350 0a64 48000000 		.4byte	.LC8
 4351 0a68 1B       		.uleb128 0x1b
ARM GAS  C:\Users\samue\AppData\Local\Temp\ccJDNHzo.s 			page 101


 4352 0a69 01       		.uleb128 0x1
 4353 0a6a 52       		.byte	0x52
 4354 0a6b 02       		.uleb128 0x2
 4355 0a6c 08       		.byte	0x8
 4356 0a6d 64       		.byte	0x64
 4357 0a6e 1B       		.uleb128 0x1b
 4358 0a6f 01       		.uleb128 0x1
 4359 0a70 53       		.byte	0x53
 4360 0a71 02       		.uleb128 0x2
 4361 0a72 74       		.byte	0x74
 4362 0a73 00       		.sleb128 0
 4363 0a74 1B       		.uleb128 0x1b
 4364 0a75 02       		.uleb128 0x2
 4365 0a76 7D       		.byte	0x7d
 4366 0a77 00       		.sleb128 0
 4367 0a78 02       		.uleb128 0x2
 4368 0a79 75       		.byte	0x75
 4369 0a7a 00       		.sleb128 0
 4370 0a7b 1B       		.uleb128 0x1b
 4371 0a7c 02       		.uleb128 0x2
 4372 0a7d 7D       		.byte	0x7d
 4373 0a7e 04       		.sleb128 4
 4374 0a7f 02       		.uleb128 0x2
 4375 0a80 76       		.byte	0x76
 4376 0a81 00       		.sleb128 0
 4377 0a82 00       		.byte	0
 4378 0a83 1F       		.uleb128 0x1f
 4379 0a84 84000000 		.4byte	.LVL102
 4380 0a88 021B0000 		.4byte	0x1b02
 4381 0a8c 1B       		.uleb128 0x1b
 4382 0a8d 01       		.uleb128 0x1
 4383 0a8e 50       		.byte	0x50
 4384 0a8f 02       		.uleb128 0x2
 4385 0a90 08       		.byte	0x8
 4386 0a91 32       		.byte	0x32
 4387 0a92 00       		.byte	0
 4388 0a93 00       		.byte	0
 4389 0a94 2B       		.uleb128 0x2b
 4390 0a95 F1030000 		.4byte	.LASF68
 4391 0a99 01       		.byte	0x1
 4392 0a9a A2       		.byte	0xa2
 4393 0a9b 7E000000 		.4byte	0x7e
 4394 0a9f 00000000 		.4byte	.LFB75
 4395 0aa3 64000000 		.4byte	.LFE75-.LFB75
 4396 0aa7 01       		.uleb128 0x1
 4397 0aa8 9C       		.byte	0x9c
 4398 0aa9 770B0000 		.4byte	0xb77
 4399 0aad 2C       		.uleb128 0x2c
 4400 0aae E9000000 		.4byte	.LASF69
 4401 0ab2 01       		.byte	0x1
 4402 0ab3 A2       		.byte	0xa2
 4403 0ab4 7E000000 		.4byte	0x7e
 4404 0ab8 C5030000 		.4byte	.LLST30
 4405 0abc 2C       		.uleb128 0x2c
 4406 0abd 8A000000 		.4byte	.LASF70
 4407 0ac1 01       		.byte	0x1
 4408 0ac2 A2       		.byte	0xa2
ARM GAS  C:\Users\samue\AppData\Local\Temp\ccJDNHzo.s 			page 102


 4409 0ac3 A9000000 		.4byte	0xa9
 4410 0ac7 E6030000 		.4byte	.LLST31
 4411 0acb 2C       		.uleb128 0x2c
 4412 0acc 0E020000 		.4byte	.LASF64
 4413 0ad0 01       		.byte	0x1
 4414 0ad1 A2       		.byte	0xa2
 4415 0ad2 7E000000 		.4byte	0x7e
 4416 0ad6 07040000 		.4byte	.LLST32
 4417 0ada 2D       		.uleb128 0x2d
 4418 0adb 6500     		.ascii	"e\000"
 4419 0add 01       		.byte	0x1
 4420 0ade A9       		.byte	0xa9
 4421 0adf AF020000 		.4byte	0x2af
 4422 0ae3 02       		.uleb128 0x2
 4423 0ae4 91       		.byte	0x91
 4424 0ae5 60       		.sleb128 -32
 4425 0ae6 17       		.uleb128 0x17
 4426 0ae7 726300   		.ascii	"rc\000"
 4427 0aea 01       		.byte	0x1
 4428 0aeb AD       		.byte	0xad
 4429 0aec 7E000000 		.4byte	0x7e
 4430 0af0 33040000 		.4byte	.LLST33
 4431 0af4 28       		.uleb128 0x28
 4432 0af5 0E000000 		.4byte	.LVL105
 4433 0af9 681B0000 		.4byte	0x1b68
 4434 0afd 0F0B0000 		.4byte	0xb0f
 4435 0b01 1B       		.uleb128 0x1b
 4436 0b02 01       		.uleb128 0x1
 4437 0b03 50       		.byte	0x50
 4438 0b04 02       		.uleb128 0x2
 4439 0b05 74       		.byte	0x74
 4440 0b06 00       		.sleb128 0
 4441 0b07 1B       		.uleb128 0x1b
 4442 0b08 01       		.uleb128 0x1
 4443 0b09 51       		.byte	0x51
 4444 0b0a 03       		.uleb128 0x3
 4445 0b0b F3       		.byte	0xf3
 4446 0b0c 01       		.uleb128 0x1
 4447 0b0d 51       		.byte	0x51
 4448 0b0e 00       		.byte	0
 4449 0b0f 28       		.uleb128 0x28
 4450 0b10 18000000 		.4byte	.LVL106
 4451 0b14 5F030000 		.4byte	0x35f
 4452 0b18 290B0000 		.4byte	0xb29
 4453 0b1c 1B       		.uleb128 0x1b
 4454 0b1d 01       		.uleb128 0x1
 4455 0b1e 50       		.byte	0x50
 4456 0b1f 02       		.uleb128 0x2
 4457 0b20 75       		.byte	0x75
 4458 0b21 00       		.sleb128 0
 4459 0b22 1B       		.uleb128 0x1b
 4460 0b23 01       		.uleb128 0x1
 4461 0b24 51       		.byte	0x51
 4462 0b25 02       		.uleb128 0x2
 4463 0b26 74       		.byte	0x74
 4464 0b27 0E       		.sleb128 14
 4465 0b28 00       		.byte	0
ARM GAS  C:\Users\samue\AppData\Local\Temp\ccJDNHzo.s 			page 103


 4466 0b29 28       		.uleb128 0x28
 4467 0b2a 34000000 		.4byte	.LVL107
 4468 0b2e EB1A0000 		.4byte	0x1aeb
 4469 0b32 480B0000 		.4byte	0xb48
 4470 0b36 1B       		.uleb128 0x1b
 4471 0b37 01       		.uleb128 0x1
 4472 0b38 51       		.byte	0x51
 4473 0b39 02       		.uleb128 0x2
 4474 0b3a 7D       		.byte	0x7d
 4475 0b3b 00       		.sleb128 0
 4476 0b3c 1B       		.uleb128 0x1b
 4477 0b3d 01       		.uleb128 0x1
 4478 0b3e 52       		.byte	0x52
 4479 0b3f 02       		.uleb128 0x2
 4480 0b40 09       		.byte	0x9
 4481 0b41 FF       		.byte	0xff
 4482 0b42 1B       		.uleb128 0x1b
 4483 0b43 01       		.uleb128 0x1
 4484 0b44 53       		.byte	0x53
 4485 0b45 01       		.uleb128 0x1
 4486 0b46 30       		.byte	0x30
 4487 0b47 00       		.byte	0
 4488 0b48 28       		.uleb128 0x28
 4489 0b49 40000000 		.4byte	.LVL108
 4490 0b4d 241B0000 		.4byte	0x1b24
 4491 0b51 5D0B0000 		.4byte	0xb5d
 4492 0b55 1B       		.uleb128 0x1b
 4493 0b56 01       		.uleb128 0x1
 4494 0b57 51       		.byte	0x51
 4495 0b58 03       		.uleb128 0x3
 4496 0b59 0A       		.byte	0xa
 4497 0b5a B80B     		.2byte	0xbb8
 4498 0b5c 00       		.byte	0
 4499 0b5d 1F       		.uleb128 0x1f
 4500 0b5e 52000000 		.4byte	.LVL109
 4501 0b62 EB1A0000 		.4byte	0x1aeb
 4502 0b66 1B       		.uleb128 0x1b
 4503 0b67 01       		.uleb128 0x1
 4504 0b68 51       		.byte	0x51
 4505 0b69 01       		.uleb128 0x1
 4506 0b6a 30       		.byte	0x30
 4507 0b6b 1B       		.uleb128 0x1b
 4508 0b6c 01       		.uleb128 0x1
 4509 0b6d 52       		.byte	0x52
 4510 0b6e 01       		.uleb128 0x1
 4511 0b6f 30       		.byte	0x30
 4512 0b70 1B       		.uleb128 0x1b
 4513 0b71 01       		.uleb128 0x1
 4514 0b72 53       		.byte	0x53
 4515 0b73 01       		.uleb128 0x1
 4516 0b74 30       		.byte	0x30
 4517 0b75 00       		.byte	0
 4518 0b76 00       		.byte	0
 4519 0b77 2B       		.uleb128 0x2b
 4520 0b78 A2030000 		.4byte	.LASF71
 4521 0b7c 01       		.byte	0x1
 4522 0b7d B6       		.byte	0xb6
ARM GAS  C:\Users\samue\AppData\Local\Temp\ccJDNHzo.s 			page 104


 4523 0b7e 7E000000 		.4byte	0x7e
 4524 0b82 00000000 		.4byte	.LFB76
 4525 0b86 4C000000 		.4byte	.LFE76-.LFB76
 4526 0b8a 01       		.uleb128 0x1
 4527 0b8b 9C       		.byte	0x9c
 4528 0b8c 350C0000 		.4byte	0xc35
 4529 0b90 2C       		.uleb128 0x2c
 4530 0b91 E9000000 		.4byte	.LASF69
 4531 0b95 01       		.byte	0x1
 4532 0b96 B6       		.byte	0xb6
 4533 0b97 7E000000 		.4byte	0x7e
 4534 0b9b 6C040000 		.4byte	.LLST34
 4535 0b9f 2C       		.uleb128 0x2c
 4536 0ba0 8F000000 		.4byte	.LASF36
 4537 0ba4 01       		.byte	0x1
 4538 0ba5 B6       		.byte	0xb6
 4539 0ba6 93000000 		.4byte	0x93
 4540 0baa 8D040000 		.4byte	.LLST35
 4541 0bae 2C       		.uleb128 0x2c
 4542 0baf 73050000 		.4byte	.LASF35
 4543 0bb3 01       		.byte	0x1
 4544 0bb4 B6       		.byte	0xb6
 4545 0bb5 7E000000 		.4byte	0x7e
 4546 0bb9 AB040000 		.4byte	.LLST36
 4547 0bbd 2E       		.uleb128 0x2e
 4548 0bbe EB010000 		.4byte	.LASF47
 4549 0bc2 01       		.byte	0x1
 4550 0bc3 B9       		.byte	0xb9
 4551 0bc4 7E000000 		.4byte	0x7e
 4552 0bc8 D7040000 		.4byte	.LLST37
 4553 0bcc 2F       		.uleb128 0x2f
 4554 0bcd 05030000 		.4byte	0x305
 4555 0bd1 24000000 		.4byte	.LBB79
 4556 0bd5 0C000000 		.4byte	.LBE79-.LBB79
 4557 0bd9 01       		.byte	0x1
 4558 0bda BD       		.byte	0xbd
 4559 0bdb 070C0000 		.4byte	0xc07
 4560 0bdf 1E       		.uleb128 0x1e
 4561 0be0 20030000 		.4byte	0x320
 4562 0be4 18050000 		.4byte	.LLST38
 4563 0be8 1E       		.uleb128 0x1e
 4564 0be9 15030000 		.4byte	0x315
 4565 0bed 2B050000 		.4byte	.LLST39
 4566 0bf1 1F       		.uleb128 0x1f
 4567 0bf2 30000000 		.4byte	.LVL124
 4568 0bf6 7F1B0000 		.4byte	0x1b7f
 4569 0bfa 1B       		.uleb128 0x1b
 4570 0bfb 01       		.uleb128 0x1
 4571 0bfc 51       		.byte	0x51
 4572 0bfd 02       		.uleb128 0x2
 4573 0bfe 75       		.byte	0x75
 4574 0bff 00       		.sleb128 0
 4575 0c00 1B       		.uleb128 0x1b
 4576 0c01 01       		.uleb128 0x1
 4577 0c02 52       		.byte	0x52
 4578 0c03 01       		.uleb128 0x1
 4579 0c04 3A       		.byte	0x3a
ARM GAS  C:\Users\samue\AppData\Local\Temp\ccJDNHzo.s 			page 105


 4580 0c05 00       		.byte	0
 4581 0c06 00       		.byte	0
 4582 0c07 28       		.uleb128 0x28
 4583 0c08 10000000 		.4byte	.LVL117
 4584 0c0c 241B0000 		.4byte	0x1b24
 4585 0c10 1B0C0000 		.4byte	0xc1b
 4586 0c14 1B       		.uleb128 0x1b
 4587 0c15 01       		.uleb128 0x1
 4588 0c16 51       		.byte	0x51
 4589 0c17 02       		.uleb128 0x2
 4590 0c18 08       		.byte	0x8
 4591 0c19 64       		.byte	0x64
 4592 0c1a 00       		.byte	0
 4593 0c1b 1F       		.uleb128 0x1f
 4594 0c1c 42000000 		.4byte	.LVL125
 4595 0c20 EB1A0000 		.4byte	0x1aeb
 4596 0c24 1B       		.uleb128 0x1b
 4597 0c25 01       		.uleb128 0x1
 4598 0c26 51       		.byte	0x51
 4599 0c27 01       		.uleb128 0x1
 4600 0c28 30       		.byte	0x30
 4601 0c29 1B       		.uleb128 0x1b
 4602 0c2a 01       		.uleb128 0x1
 4603 0c2b 52       		.byte	0x52
 4604 0c2c 01       		.uleb128 0x1
 4605 0c2d 30       		.byte	0x30
 4606 0c2e 1B       		.uleb128 0x1b
 4607 0c2f 01       		.uleb128 0x1
 4608 0c30 53       		.byte	0x53
 4609 0c31 01       		.uleb128 0x1
 4610 0c32 30       		.byte	0x30
 4611 0c33 00       		.byte	0
 4612 0c34 00       		.byte	0
 4613 0c35 2B       		.uleb128 0x2b
 4614 0c36 AB030000 		.4byte	.LASF72
 4615 0c3a 01       		.byte	0x1
 4616 0c3b C7       		.byte	0xc7
 4617 0c3c 7E000000 		.4byte	0x7e
 4618 0c40 00000000 		.4byte	.LFB77
 4619 0c44 4C000000 		.4byte	.LFE77-.LFB77
 4620 0c48 01       		.uleb128 0x1
 4621 0c49 9C       		.byte	0x9c
 4622 0c4a E40C0000 		.4byte	0xce4
 4623 0c4e 2C       		.uleb128 0x2c
 4624 0c4f E9000000 		.4byte	.LASF69
 4625 0c53 01       		.byte	0x1
 4626 0c54 C7       		.byte	0xc7
 4627 0c55 7E000000 		.4byte	0x7e
 4628 0c59 43050000 		.4byte	.LLST40
 4629 0c5d 2C       		.uleb128 0x2c
 4630 0c5e 8F000000 		.4byte	.LASF36
 4631 0c62 01       		.byte	0x1
 4632 0c63 C7       		.byte	0xc7
 4633 0c64 93000000 		.4byte	0x93
 4634 0c68 64050000 		.4byte	.LLST41
 4635 0c6c 2C       		.uleb128 0x2c
 4636 0c6d 73050000 		.4byte	.LASF35
ARM GAS  C:\Users\samue\AppData\Local\Temp\ccJDNHzo.s 			page 106


 4637 0c71 01       		.byte	0x1
 4638 0c72 C7       		.byte	0xc7
 4639 0c73 7E000000 		.4byte	0x7e
 4640 0c77 A9050000 		.4byte	.LLST42
 4641 0c7b 30       		.uleb128 0x30
 4642 0c7c 31030000 		.4byte	0x331
 4643 0c80 16000000 		.4byte	.LBB81
 4644 0c84 00000000 		.4byte	.Ldebug_ranges0+0
 4645 0c88 01       		.byte	0x1
 4646 0c89 CD       		.byte	0xcd
 4647 0c8a B60C0000 		.4byte	0xcb6
 4648 0c8e 1E       		.uleb128 0x1e
 4649 0c8f 53030000 		.4byte	0x353
 4650 0c93 D2050000 		.4byte	.LLST43
 4651 0c97 1E       		.uleb128 0x1e
 4652 0c98 48030000 		.4byte	0x348
 4653 0c9c FB050000 		.4byte	.LLST44
 4654 0ca0 20       		.uleb128 0x20
 4655 0ca1 3D030000 		.4byte	0x33d
 4656 0ca5 1F       		.uleb128 0x1f
 4657 0ca6 28000000 		.4byte	.LVL133
 4658 0caa C81A0000 		.4byte	0x1ac8
 4659 0cae 1B       		.uleb128 0x1b
 4660 0caf 01       		.uleb128 0x1
 4661 0cb0 52       		.byte	0x52
 4662 0cb1 02       		.uleb128 0x2
 4663 0cb2 09       		.byte	0x9
 4664 0cb3 FF       		.byte	0xff
 4665 0cb4 00       		.byte	0
 4666 0cb5 00       		.byte	0
 4667 0cb6 28       		.uleb128 0x28
 4668 0cb7 10000000 		.4byte	.LVL130
 4669 0cbb 241B0000 		.4byte	0x1b24
 4670 0cbf CA0C0000 		.4byte	0xcca
 4671 0cc3 1B       		.uleb128 0x1b
 4672 0cc4 01       		.uleb128 0x1
 4673 0cc5 51       		.byte	0x51
 4674 0cc6 02       		.uleb128 0x2
 4675 0cc7 08       		.byte	0x8
 4676 0cc8 64       		.byte	0x64
 4677 0cc9 00       		.byte	0
 4678 0cca 1F       		.uleb128 0x1f
 4679 0ccb 44000000 		.4byte	.LVL138
 4680 0ccf EB1A0000 		.4byte	0x1aeb
 4681 0cd3 1B       		.uleb128 0x1b
 4682 0cd4 01       		.uleb128 0x1
 4683 0cd5 51       		.byte	0x51
 4684 0cd6 01       		.uleb128 0x1
 4685 0cd7 30       		.byte	0x30
 4686 0cd8 1B       		.uleb128 0x1b
 4687 0cd9 01       		.uleb128 0x1
 4688 0cda 52       		.byte	0x52
 4689 0cdb 01       		.uleb128 0x1
 4690 0cdc 30       		.byte	0x30
 4691 0cdd 1B       		.uleb128 0x1b
 4692 0cde 01       		.uleb128 0x1
 4693 0cdf 53       		.byte	0x53
ARM GAS  C:\Users\samue\AppData\Local\Temp\ccJDNHzo.s 			page 107


 4694 0ce0 01       		.uleb128 0x1
 4695 0ce1 30       		.byte	0x30
 4696 0ce2 00       		.byte	0
 4697 0ce3 00       		.byte	0
 4698 0ce4 2B       		.uleb128 0x2b
 4699 0ce5 4E050000 		.4byte	.LASF73
 4700 0ce9 01       		.byte	0x1
 4701 0cea D9       		.byte	0xd9
 4702 0ceb 7E000000 		.4byte	0x7e
 4703 0cef 00000000 		.4byte	.LFB79
 4704 0cf3 2C000000 		.4byte	.LFE79-.LFB79
 4705 0cf7 01       		.uleb128 0x1
 4706 0cf8 9C       		.byte	0x9c
 4707 0cf9 440D0000 		.4byte	0xd44
 4708 0cfd 2C       		.uleb128 0x2c
 4709 0cfe E9000000 		.4byte	.LASF69
 4710 0d02 01       		.byte	0x1
 4711 0d03 D9       		.byte	0xd9
 4712 0d04 7E000000 		.4byte	0x7e
 4713 0d08 24060000 		.4byte	.LLST45
 4714 0d0c 16       		.uleb128 0x16
 4715 0d0d 686F7700 		.ascii	"how\000"
 4716 0d11 01       		.byte	0x1
 4717 0d12 D9       		.byte	0xd9
 4718 0d13 7E000000 		.4byte	0x7e
 4719 0d17 45060000 		.4byte	.LLST46
 4720 0d1b 2D       		.uleb128 0x2d
 4721 0d1c 6500     		.ascii	"e\000"
 4722 0d1e 01       		.byte	0x1
 4723 0d1f DD       		.byte	0xdd
 4724 0d20 AF020000 		.4byte	0x2af
 4725 0d24 02       		.uleb128 0x2
 4726 0d25 91       		.byte	0x91
 4727 0d26 68       		.sleb128 -24
 4728 0d27 1F       		.uleb128 0x1f
 4729 0d28 22000000 		.4byte	.LVL143
 4730 0d2c EB1A0000 		.4byte	0x1aeb
 4731 0d30 1B       		.uleb128 0x1b
 4732 0d31 01       		.uleb128 0x1
 4733 0d32 51       		.byte	0x51
 4734 0d33 02       		.uleb128 0x2
 4735 0d34 7D       		.byte	0x7d
 4736 0d35 00       		.sleb128 0
 4737 0d36 1B       		.uleb128 0x1b
 4738 0d37 01       		.uleb128 0x1
 4739 0d38 52       		.byte	0x52
 4740 0d39 02       		.uleb128 0x2
 4741 0d3a 09       		.byte	0x9
 4742 0d3b FF       		.byte	0xff
 4743 0d3c 1B       		.uleb128 0x1b
 4744 0d3d 01       		.uleb128 0x1
 4745 0d3e 53       		.byte	0x53
 4746 0d3f 02       		.uleb128 0x2
 4747 0d40 74       		.byte	0x74
 4748 0d41 00       		.sleb128 0
 4749 0d42 00       		.byte	0
 4750 0d43 00       		.byte	0
ARM GAS  C:\Users\samue\AppData\Local\Temp\ccJDNHzo.s 			page 108


 4751 0d44 2B       		.uleb128 0x2b
 4752 0d45 1F030000 		.4byte	.LASF74
 4753 0d49 01       		.byte	0x1
 4754 0d4a D4       		.byte	0xd4
 4755 0d4b 7E000000 		.4byte	0x7e
 4756 0d4f 00000000 		.4byte	.LFB78
 4757 0d53 0C000000 		.4byte	.LFE78-.LFB78
 4758 0d57 01       		.uleb128 0x1
 4759 0d58 9C       		.byte	0x9c
 4760 0d59 840D0000 		.4byte	0xd84
 4761 0d5d 2C       		.uleb128 0x2c
 4762 0d5e E9000000 		.4byte	.LASF69
 4763 0d62 01       		.byte	0x1
 4764 0d63 D4       		.byte	0xd4
 4765 0d64 7E000000 		.4byte	0x7e
 4766 0d68 66060000 		.4byte	.LLST47
 4767 0d6c 1F       		.uleb128 0x1f
 4768 0d6d 0A000000 		.4byte	.LVL145
 4769 0d71 E40C0000 		.4byte	0xce4
 4770 0d75 1B       		.uleb128 0x1b
 4771 0d76 01       		.uleb128 0x1
 4772 0d77 50       		.byte	0x50
 4773 0d78 03       		.uleb128 0x3
 4774 0d79 F3       		.byte	0xf3
 4775 0d7a 01       		.uleb128 0x1
 4776 0d7b 50       		.byte	0x50
 4777 0d7c 1B       		.uleb128 0x1b
 4778 0d7d 01       		.uleb128 0x1
 4779 0d7e 51       		.byte	0x51
 4780 0d7f 02       		.uleb128 0x2
 4781 0d80 09       		.byte	0x9
 4782 0d81 FF       		.byte	0xff
 4783 0d82 00       		.byte	0
 4784 0d83 00       		.byte	0
 4785 0d84 2A       		.uleb128 0x2a
 4786 0d85 1F040000 		.4byte	.LASF76
 4787 0d89 01       		.byte	0x1
 4788 0d8a FB       		.byte	0xfb
 4789 0d8b 00000000 		.4byte	.LFB80
 4790 0d8f 0A000000 		.4byte	.LFE80-.LFB80
 4791 0d93 01       		.uleb128 0x1
 4792 0d94 9C       		.byte	0x9c
 4793 0d95 A70D0000 		.4byte	0xda7
 4794 0d99 31       		.uleb128 0x31
 4795 0d9a 63747800 		.ascii	"ctx\000"
 4796 0d9e 01       		.byte	0x1
 4797 0d9f FB       		.byte	0xfb
 4798 0da0 A3020000 		.4byte	0x2a3
 4799 0da4 01       		.uleb128 0x1
 4800 0da5 50       		.byte	0x50
 4801 0da6 00       		.byte	0
 4802 0da7 32       		.uleb128 0x32
 4803 0da8 21060000 		.4byte	.LASF77
 4804 0dac 01       		.byte	0x1
 4805 0dad 7C01     		.2byte	0x17c
 4806 0daf 00000000 		.4byte	.LFB88
 4807 0db3 58000000 		.4byte	.LFE88-.LFB88
ARM GAS  C:\Users\samue\AppData\Local\Temp\ccJDNHzo.s 			page 109


 4808 0db7 01       		.uleb128 0x1
 4809 0db8 9C       		.byte	0x9c
 4810 0db9 360E0000 		.4byte	0xe36
 4811 0dbd 19       		.uleb128 0x19
 4812 0dbe 63747800 		.ascii	"ctx\000"
 4813 0dc2 01       		.byte	0x1
 4814 0dc3 7C01     		.2byte	0x17c
 4815 0dc5 A3020000 		.4byte	0x2a3
 4816 0dc9 87060000 		.4byte	.LLST48
 4817 0dcd 19       		.uleb128 0x19
 4818 0dce 6500     		.ascii	"e\000"
 4819 0dd0 01       		.byte	0x1
 4820 0dd1 7C01     		.2byte	0x17c
 4821 0dd3 A9020000 		.4byte	0x2a9
 4822 0dd7 DF060000 		.4byte	.LLST49
 4823 0ddb 33       		.uleb128 0x33
 4824 0ddc E4020000 		.4byte	0x2e4
 4825 0de0 28000000 		.4byte	.LBB85
 4826 0de4 18000000 		.4byte	.Ldebug_ranges0+0x18
 4827 0de8 01       		.byte	0x1
 4828 0de9 8701     		.2byte	0x187
 4829 0deb 0E0E0000 		.4byte	0xe0e
 4830 0def 1E       		.uleb128 0x1e
 4831 0df0 FB020000 		.4byte	0x2fb
 4832 0df4 32070000 		.4byte	.LLST50
 4833 0df8 20       		.uleb128 0x20
 4834 0df9 F0020000 		.4byte	0x2f0
 4835 0dfd 1F       		.uleb128 0x1f
 4836 0dfe 36000000 		.4byte	.LVL154
 4837 0e02 C81A0000 		.4byte	0x1ac8
 4838 0e06 1B       		.uleb128 0x1b
 4839 0e07 01       		.uleb128 0x1
 4840 0e08 52       		.byte	0x52
 4841 0e09 02       		.uleb128 0x2
 4842 0e0a 09       		.byte	0x9
 4843 0e0b FF       		.byte	0xff
 4844 0e0c 00       		.byte	0
 4845 0e0d 00       		.byte	0
 4846 0e0e 28       		.uleb128 0x28
 4847 0e0f 14000000 		.4byte	.LVL149
 4848 0e13 8A1B0000 		.4byte	0x1b8a
 4849 0e17 250E0000 		.4byte	0xe25
 4850 0e1b 1B       		.uleb128 0x1b
 4851 0e1c 01       		.uleb128 0x1
 4852 0e1d 50       		.byte	0x50
 4853 0e1e 05       		.uleb128 0x5
 4854 0e1f 03       		.byte	0x3
 4855 0e20 58000000 		.4byte	.LC10
 4856 0e24 00       		.byte	0
 4857 0e25 1F       		.uleb128 0x1f
 4858 0e26 1A000000 		.4byte	.LVL150
 4859 0e2a 840D0000 		.4byte	0xd84
 4860 0e2e 1B       		.uleb128 0x1b
 4861 0e2f 01       		.uleb128 0x1
 4862 0e30 50       		.byte	0x50
 4863 0e31 02       		.uleb128 0x2
 4864 0e32 74       		.byte	0x74
ARM GAS  C:\Users\samue\AppData\Local\Temp\ccJDNHzo.s 			page 110


 4865 0e33 00       		.sleb128 0
 4866 0e34 00       		.byte	0
 4867 0e35 00       		.byte	0
 4868 0e36 32       		.uleb128 0x32
 4869 0e37 17030000 		.4byte	.LASF78
 4870 0e3b 01       		.byte	0x1
 4871 0e3c 1802     		.2byte	0x218
 4872 0e3e 00000000 		.4byte	.LFB94
 4873 0e42 2C000000 		.4byte	.LFE94-.LFB94
 4874 0e46 01       		.uleb128 0x1
 4875 0e47 9C       		.byte	0x9c
 4876 0e48 920E0000 		.4byte	0xe92
 4877 0e4c 19       		.uleb128 0x19
 4878 0e4d 63747800 		.ascii	"ctx\000"
 4879 0e51 01       		.byte	0x1
 4880 0e52 1802     		.2byte	0x218
 4881 0e54 A3020000 		.4byte	0x2a3
 4882 0e58 50070000 		.4byte	.LLST51
 4883 0e5c 19       		.uleb128 0x19
 4884 0e5d 6500     		.ascii	"e\000"
 4885 0e5f 01       		.byte	0x1
 4886 0e60 1802     		.2byte	0x218
 4887 0e62 A9020000 		.4byte	0x2a9
 4888 0e66 79070000 		.4byte	.LLST52
 4889 0e6a 28       		.uleb128 0x28
 4890 0e6b 14000000 		.4byte	.LVL161
 4891 0e6f 8A1B0000 		.4byte	0x1b8a
 4892 0e73 810E0000 		.4byte	0xe81
 4893 0e77 1B       		.uleb128 0x1b
 4894 0e78 01       		.uleb128 0x1
 4895 0e79 50       		.byte	0x50
 4896 0e7a 05       		.uleb128 0x5
 4897 0e7b 03       		.byte	0x3
 4898 0e7c 60000000 		.4byte	.LC11
 4899 0e80 00       		.byte	0
 4900 0e81 1F       		.uleb128 0x1f
 4901 0e82 1A000000 		.4byte	.LVL162
 4902 0e86 840D0000 		.4byte	0xd84
 4903 0e8a 1B       		.uleb128 0x1b
 4904 0e8b 01       		.uleb128 0x1
 4905 0e8c 50       		.byte	0x50
 4906 0e8d 02       		.uleb128 0x2
 4907 0e8e 74       		.byte	0x74
 4908 0e8f 00       		.sleb128 0
 4909 0e90 00       		.byte	0
 4910 0e91 00       		.byte	0
 4911 0e92 32       		.uleb128 0x32
 4912 0e93 FC010000 		.4byte	.LASF79
 4913 0e97 01       		.byte	0x1
 4914 0e98 9802     		.2byte	0x298
 4915 0e9a 00000000 		.4byte	.LFB99
 4916 0e9e 48000000 		.4byte	.LFE99-.LFB99
 4917 0ea2 01       		.uleb128 0x1
 4918 0ea3 9C       		.byte	0x9c
 4919 0ea4 1F0F0000 		.4byte	0xf1f
 4920 0ea8 19       		.uleb128 0x19
 4921 0ea9 63747800 		.ascii	"ctx\000"
ARM GAS  C:\Users\samue\AppData\Local\Temp\ccJDNHzo.s 			page 111


 4922 0ead 01       		.byte	0x1
 4923 0eae 9802     		.2byte	0x298
 4924 0eb0 A3020000 		.4byte	0x2a3
 4925 0eb4 A5070000 		.4byte	.LLST53
 4926 0eb8 19       		.uleb128 0x19
 4927 0eb9 6500     		.ascii	"e\000"
 4928 0ebb 01       		.byte	0x1
 4929 0ebc 9802     		.2byte	0x298
 4930 0ebe A9020000 		.4byte	0x2a9
 4931 0ec2 E4070000 		.4byte	.LLST54
 4932 0ec6 28       		.uleb128 0x28
 4933 0ec7 18000000 		.4byte	.LVL166
 4934 0ecb 8A1B0000 		.4byte	0x1b8a
 4935 0ecf DD0E0000 		.4byte	0xedd
 4936 0ed3 1B       		.uleb128 0x1b
 4937 0ed4 01       		.uleb128 0x1
 4938 0ed5 50       		.byte	0x50
 4939 0ed6 05       		.uleb128 0x5
 4940 0ed7 03       		.byte	0x3
 4941 0ed8 68000000 		.4byte	.LC12
 4942 0edc 00       		.byte	0
 4943 0edd 28       		.uleb128 0x28
 4944 0ede 1E000000 		.4byte	.LVL167
 4945 0ee2 840D0000 		.4byte	0xd84
 4946 0ee6 F10E0000 		.4byte	0xef1
 4947 0eea 1B       		.uleb128 0x1b
 4948 0eeb 01       		.uleb128 0x1
 4949 0eec 50       		.byte	0x50
 4950 0eed 02       		.uleb128 0x2
 4951 0eee 74       		.byte	0x74
 4952 0eef 00       		.sleb128 0
 4953 0ef0 00       		.byte	0
 4954 0ef1 28       		.uleb128 0x28
 4955 0ef2 2A000000 		.4byte	.LVL168
 4956 0ef6 EB1A0000 		.4byte	0x1aeb
 4957 0efa 0E0F0000 		.4byte	0xf0e
 4958 0efe 1B       		.uleb128 0x1b
 4959 0eff 01       		.uleb128 0x1
 4960 0f00 51       		.byte	0x51
 4961 0f01 01       		.uleb128 0x1
 4962 0f02 30       		.byte	0x30
 4963 0f03 1B       		.uleb128 0x1b
 4964 0f04 01       		.uleb128 0x1
 4965 0f05 52       		.byte	0x52
 4966 0f06 01       		.uleb128 0x1
 4967 0f07 30       		.byte	0x30
 4968 0f08 1B       		.uleb128 0x1b
 4969 0f09 01       		.uleb128 0x1
 4970 0f0a 53       		.byte	0x53
 4971 0f0b 01       		.uleb128 0x1
 4972 0f0c 30       		.byte	0x30
 4973 0f0d 00       		.byte	0
 4974 0f0e 1F       		.uleb128 0x1f
 4975 0f0f 36000000 		.4byte	.LVL172
 4976 0f13 241B0000 		.4byte	0x1b24
 4977 0f17 1B       		.uleb128 0x1b
 4978 0f18 01       		.uleb128 0x1
ARM GAS  C:\Users\samue\AppData\Local\Temp\ccJDNHzo.s 			page 112


 4979 0f19 51       		.byte	0x51
 4980 0f1a 02       		.uleb128 0x2
 4981 0f1b 09       		.byte	0x9
 4982 0f1c FF       		.byte	0xff
 4983 0f1d 00       		.byte	0
 4984 0f1e 00       		.byte	0
 4985 0f1f 32       		.uleb128 0x32
 4986 0f20 DD010000 		.4byte	.LASF80
 4987 0f24 01       		.byte	0x1
 4988 0f25 C602     		.2byte	0x2c6
 4989 0f27 00000000 		.4byte	.LFB100
 4990 0f2b 58000000 		.4byte	.LFE100-.LFB100
 4991 0f2f 01       		.uleb128 0x1
 4992 0f30 9C       		.byte	0x9c
 4993 0f31 AE0F0000 		.4byte	0xfae
 4994 0f35 19       		.uleb128 0x19
 4995 0f36 63747800 		.ascii	"ctx\000"
 4996 0f3a 01       		.byte	0x1
 4997 0f3b C602     		.2byte	0x2c6
 4998 0f3d A3020000 		.4byte	0x2a3
 4999 0f41 29080000 		.4byte	.LLST55
 5000 0f45 19       		.uleb128 0x19
 5001 0f46 6500     		.ascii	"e\000"
 5002 0f48 01       		.byte	0x1
 5003 0f49 C602     		.2byte	0x2c6
 5004 0f4b A9020000 		.4byte	0x2a9
 5005 0f4f 81080000 		.4byte	.LLST56
 5006 0f53 33       		.uleb128 0x33
 5007 0f54 E4020000 		.4byte	0x2e4
 5008 0f58 28000000 		.4byte	.LBB89
 5009 0f5c 30000000 		.4byte	.Ldebug_ranges0+0x30
 5010 0f60 01       		.byte	0x1
 5011 0f61 D102     		.2byte	0x2d1
 5012 0f63 860F0000 		.4byte	0xf86
 5013 0f67 1E       		.uleb128 0x1e
 5014 0f68 FB020000 		.4byte	0x2fb
 5015 0f6c D4080000 		.4byte	.LLST57
 5016 0f70 20       		.uleb128 0x20
 5017 0f71 F0020000 		.4byte	0x2f0
 5018 0f75 1F       		.uleb128 0x1f
 5019 0f76 36000000 		.4byte	.LVL181
 5020 0f7a C81A0000 		.4byte	0x1ac8
 5021 0f7e 1B       		.uleb128 0x1b
 5022 0f7f 01       		.uleb128 0x1
 5023 0f80 52       		.byte	0x52
 5024 0f81 02       		.uleb128 0x2
 5025 0f82 09       		.byte	0x9
 5026 0f83 FF       		.byte	0xff
 5027 0f84 00       		.byte	0
 5028 0f85 00       		.byte	0
 5029 0f86 28       		.uleb128 0x28
 5030 0f87 14000000 		.4byte	.LVL176
 5031 0f8b 8A1B0000 		.4byte	0x1b8a
 5032 0f8f 9D0F0000 		.4byte	0xf9d
 5033 0f93 1B       		.uleb128 0x1b
 5034 0f94 01       		.uleb128 0x1
 5035 0f95 50       		.byte	0x50
ARM GAS  C:\Users\samue\AppData\Local\Temp\ccJDNHzo.s 			page 113


 5036 0f96 05       		.uleb128 0x5
 5037 0f97 03       		.byte	0x3
 5038 0f98 74000000 		.4byte	.LC13
 5039 0f9c 00       		.byte	0
 5040 0f9d 1F       		.uleb128 0x1f
 5041 0f9e 1A000000 		.4byte	.LVL177
 5042 0fa2 840D0000 		.4byte	0xd84
 5043 0fa6 1B       		.uleb128 0x1b
 5044 0fa7 01       		.uleb128 0x1
 5045 0fa8 50       		.byte	0x50
 5046 0fa9 02       		.uleb128 0x2
 5047 0faa 74       		.byte	0x74
 5048 0fab 00       		.sleb128 0
 5049 0fac 00       		.byte	0
 5050 0fad 00       		.byte	0
 5051 0fae 32       		.uleb128 0x32
 5052 0faf 59030000 		.4byte	.LASF81
 5053 0fb3 01       		.byte	0x1
 5054 0fb4 0301     		.2byte	0x103
 5055 0fb6 00000000 		.4byte	.LFB81
 5056 0fba 16000000 		.4byte	.LFE81-.LFB81
 5057 0fbe 01       		.uleb128 0x1
 5058 0fbf 9C       		.byte	0x9c
 5059 0fc0 0D100000 		.4byte	0x100d
 5060 0fc4 19       		.uleb128 0x19
 5061 0fc5 63747800 		.ascii	"ctx\000"
 5062 0fc9 01       		.byte	0x1
 5063 0fca 0301     		.2byte	0x103
 5064 0fcc A3020000 		.4byte	0x2a3
 5065 0fd0 F2080000 		.4byte	.LLST58
 5066 0fd4 21       		.uleb128 0x21
 5067 0fd5 05030000 		.4byte	0x305
 5068 0fd9 04000000 		.4byte	.LBB93
 5069 0fdd 0C000000 		.4byte	.LBE93-.LBB93
 5070 0fe1 01       		.byte	0x1
 5071 0fe2 0601     		.2byte	0x106
 5072 0fe4 1E       		.uleb128 0x1e
 5073 0fe5 20030000 		.4byte	0x320
 5074 0fe9 10090000 		.4byte	.LLST59
 5075 0fed 1E       		.uleb128 0x1e
 5076 0fee 15030000 		.4byte	0x315
 5077 0ff2 3D090000 		.4byte	.LLST60
 5078 0ff6 1F       		.uleb128 0x1f
 5079 0ff7 10000000 		.4byte	.LVL189
 5080 0ffb 7F1B0000 		.4byte	0x1b7f
 5081 0fff 1B       		.uleb128 0x1b
 5082 1000 01       		.uleb128 0x1
 5083 1001 51       		.byte	0x51
 5084 1002 02       		.uleb128 0x2
 5085 1003 74       		.byte	0x74
 5086 1004 20       		.sleb128 32
 5087 1005 1B       		.uleb128 0x1b
 5088 1006 01       		.uleb128 0x1
 5089 1007 52       		.byte	0x52
 5090 1008 01       		.uleb128 0x1
 5091 1009 3A       		.byte	0x3a
 5092 100a 00       		.byte	0
ARM GAS  C:\Users\samue\AppData\Local\Temp\ccJDNHzo.s 			page 114


 5093 100b 00       		.byte	0
 5094 100c 00       		.byte	0
 5095 100d 34       		.uleb128 0x34
 5096 100e E2030000 		.4byte	.LASF82
 5097 1012 01       		.byte	0x1
 5098 1013 0C01     		.2byte	0x10c
 5099 1015 2A030000 		.4byte	0x32a
 5100 1019 00000000 		.4byte	.LFB82
 5101 101d 36000000 		.4byte	.LFE82-.LFB82
 5102 1021 01       		.uleb128 0x1
 5103 1022 9C       		.byte	0x9c
 5104 1023 76100000 		.4byte	0x1076
 5105 1027 19       		.uleb128 0x19
 5106 1028 63747800 		.ascii	"ctx\000"
 5107 102c 01       		.byte	0x1
 5108 102d 0C01     		.2byte	0x10c
 5109 102f A3020000 		.4byte	0x2a3
 5110 1033 50090000 		.4byte	.LLST61
 5111 1037 23       		.uleb128 0x23
 5112 1038 EB010000 		.4byte	.LASF47
 5113 103c 01       		.byte	0x1
 5114 103d 0C01     		.2byte	0x10c
 5115 103f 7E000000 		.4byte	0x7e
 5116 1043 6E090000 		.4byte	.LLST62
 5117 1047 21       		.uleb128 0x21
 5118 1048 05030000 		.4byte	0x305
 5119 104c 1C000000 		.4byte	.LBB95
 5120 1050 0A000000 		.4byte	.LBE95-.LBB95
 5121 1054 01       		.byte	0x1
 5122 1055 0E01     		.2byte	0x10e
 5123 1057 20       		.uleb128 0x20
 5124 1058 20030000 		.4byte	0x320
 5125 105c 1E       		.uleb128 0x1e
 5126 105d 15030000 		.4byte	0x315
 5127 1061 8C090000 		.4byte	.LLST63
 5128 1065 1F       		.uleb128 0x1f
 5129 1066 26000000 		.4byte	.LVL193
 5130 106a 7F1B0000 		.4byte	0x1b7f
 5131 106e 1B       		.uleb128 0x1b
 5132 106f 01       		.uleb128 0x1
 5133 1070 52       		.byte	0x52
 5134 1071 01       		.uleb128 0x1
 5135 1072 3A       		.byte	0x3a
 5136 1073 00       		.byte	0
 5137 1074 00       		.byte	0
 5138 1075 00       		.byte	0
 5139 1076 34       		.uleb128 0x34
 5140 1077 B8000000 		.4byte	.LASF83
 5141 107b 01       		.byte	0x1
 5142 107c 1801     		.2byte	0x118
 5143 107e 2A030000 		.4byte	0x32a
 5144 1082 00000000 		.4byte	.LFB83
 5145 1086 58000000 		.4byte	.LFE83-.LFB83
 5146 108a 01       		.uleb128 0x1
 5147 108b 9C       		.byte	0x9c
 5148 108c 07110000 		.4byte	0x1107
 5149 1090 19       		.uleb128 0x19
ARM GAS  C:\Users\samue\AppData\Local\Temp\ccJDNHzo.s 			page 115


 5150 1091 63747800 		.ascii	"ctx\000"
 5151 1095 01       		.byte	0x1
 5152 1096 1801     		.2byte	0x118
 5153 1098 A3020000 		.4byte	0x2a3
 5154 109c 9F090000 		.4byte	.LLST64
 5155 10a0 23       		.uleb128 0x23
 5156 10a1 13020000 		.4byte	.LASF84
 5157 10a5 01       		.byte	0x1
 5158 10a6 1801     		.2byte	0x118
 5159 10a8 07110000 		.4byte	0x1107
 5160 10ac E3090000 		.4byte	.LLST65
 5161 10b0 35       		.uleb128 0x35
 5162 10b1 AB060000 		.4byte	.LASF85
 5163 10b5 01       		.byte	0x1
 5164 10b6 1A01     		.2byte	0x11a
 5165 10b8 2A030000 		.4byte	0x32a
 5166 10bc 0F0A0000 		.4byte	.LLST66
 5167 10c0 1D       		.uleb128 0x1d
 5168 10c1 05030000 		.4byte	0x305
 5169 10c5 40000000 		.4byte	.LBB97
 5170 10c9 0A000000 		.4byte	.LBE97-.LBB97
 5171 10cd 01       		.byte	0x1
 5172 10ce 1B01     		.2byte	0x11b
 5173 10d0 F6100000 		.4byte	0x10f6
 5174 10d4 1E       		.uleb128 0x1e
 5175 10d5 20030000 		.4byte	0x320
 5176 10d9 460A0000 		.4byte	.LLST67
 5177 10dd 1E       		.uleb128 0x1e
 5178 10de 15030000 		.4byte	0x315
 5179 10e2 690A0000 		.4byte	.LLST68
 5180 10e6 1F       		.uleb128 0x1f
 5181 10e7 4A000000 		.4byte	.LVL203
 5182 10eb 7F1B0000 		.4byte	0x1b7f
 5183 10ef 1B       		.uleb128 0x1b
 5184 10f0 01       		.uleb128 0x1
 5185 10f1 52       		.byte	0x52
 5186 10f2 01       		.uleb128 0x1
 5187 10f3 3A       		.byte	0x3a
 5188 10f4 00       		.byte	0
 5189 10f5 00       		.byte	0
 5190 10f6 1F       		.uleb128 0x1f
 5191 10f7 2C000000 		.4byte	.LVL198
 5192 10fb 991B0000 		.4byte	0x1b99
 5193 10ff 1B       		.uleb128 0x1b
 5194 1100 01       		.uleb128 0x1
 5195 1101 50       		.byte	0x50
 5196 1102 02       		.uleb128 0x2
 5197 1103 76       		.byte	0x76
 5198 1104 00       		.sleb128 0
 5199 1105 00       		.byte	0
 5200 1106 00       		.byte	0
 5201 1107 06       		.uleb128 0x6
 5202 1108 04       		.byte	0x4
 5203 1109 7E000000 		.4byte	0x7e
 5204 110d 34       		.uleb128 0x34
 5205 110e 34060000 		.4byte	.LASF86
 5206 1112 01       		.byte	0x1
ARM GAS  C:\Users\samue\AppData\Local\Temp\ccJDNHzo.s 			page 116


 5207 1113 2D01     		.2byte	0x12d
 5208 1115 7E000000 		.4byte	0x7e
 5209 1119 00000000 		.4byte	.LFB84
 5210 111d 60000000 		.4byte	.LFE84-.LFB84
 5211 1121 01       		.uleb128 0x1
 5212 1122 9C       		.byte	0x9c
 5213 1123 B4110000 		.4byte	0x11b4
 5214 1127 19       		.uleb128 0x19
 5215 1128 63747800 		.ascii	"ctx\000"
 5216 112c 01       		.byte	0x1
 5217 112d 2D01     		.2byte	0x12d
 5218 112f A3020000 		.4byte	0x2a3
 5219 1133 7C0A0000 		.4byte	.LLST69
 5220 1137 19       		.uleb128 0x19
 5221 1138 7000     		.ascii	"p\000"
 5222 113a 01       		.byte	0x1
 5223 113b 2D01     		.2byte	0x12d
 5224 113d B4110000 		.4byte	0x11b4
 5225 1141 9A0A0000 		.4byte	.LLST70
 5226 1145 35       		.uleb128 0x35
 5227 1146 AB060000 		.4byte	.LASF85
 5228 114a 01       		.byte	0x1
 5229 114b 2F01     		.2byte	0x12f
 5230 114d 7E000000 		.4byte	0x7e
 5231 1151 B80A0000 		.4byte	.LLST71
 5232 1155 36       		.uleb128 0x36
 5233 1156 20000000 		.4byte	.LBB99
 5234 115a 1A000000 		.4byte	.LBE99-.LBB99
 5235 115e 81110000 		.4byte	0x1181
 5236 1162 29       		.uleb128 0x29
 5237 1163 6900     		.ascii	"i\000"
 5238 1165 01       		.byte	0x1
 5239 1166 3301     		.2byte	0x133
 5240 1168 7E000000 		.4byte	0x7e
 5241 116c D80A0000 		.4byte	.LLST72
 5242 1170 1F       		.uleb128 0x1f
 5243 1171 28000000 		.4byte	.LVL212
 5244 1175 A41B0000 		.4byte	0x1ba4
 5245 1179 1B       		.uleb128 0x1b
 5246 117a 01       		.uleb128 0x1
 5247 117b 50       		.byte	0x50
 5248 117c 02       		.uleb128 0x2
 5249 117d 76       		.byte	0x76
 5250 117e 00       		.sleb128 0
 5251 117f 00       		.byte	0
 5252 1180 00       		.byte	0
 5253 1181 21       		.uleb128 0x21
 5254 1182 05030000 		.4byte	0x305
 5255 1186 4A000000 		.4byte	.LBB100
 5256 118a 0C000000 		.4byte	.LBE100-.LBB100
 5257 118e 01       		.byte	0x1
 5258 118f 3001     		.2byte	0x130
 5259 1191 1E       		.uleb128 0x1e
 5260 1192 20030000 		.4byte	0x320
 5261 1196 F70A0000 		.4byte	.LLST73
 5262 119a 1E       		.uleb128 0x1e
 5263 119b 15030000 		.4byte	0x315
ARM GAS  C:\Users\samue\AppData\Local\Temp\ccJDNHzo.s 			page 117


 5264 119f 1A0B0000 		.4byte	.LLST74
 5265 11a3 1F       		.uleb128 0x1f
 5266 11a4 56000000 		.4byte	.LVL218
 5267 11a8 7F1B0000 		.4byte	0x1b7f
 5268 11ac 1B       		.uleb128 0x1b
 5269 11ad 01       		.uleb128 0x1
 5270 11ae 52       		.byte	0x52
 5271 11af 01       		.uleb128 0x1
 5272 11b0 3A       		.byte	0x3a
 5273 11b1 00       		.byte	0
 5274 11b2 00       		.byte	0
 5275 11b3 00       		.byte	0
 5276 11b4 06       		.uleb128 0x6
 5277 11b5 04       		.byte	0x4
 5278 11b6 A9000000 		.4byte	0xa9
 5279 11ba 34       		.uleb128 0x34
 5280 11bb D9050000 		.4byte	.LASF87
 5281 11bf 01       		.byte	0x1
 5282 11c0 3E01     		.2byte	0x13e
 5283 11c2 7E000000 		.4byte	0x7e
 5284 11c6 00000000 		.4byte	.LFB85
 5285 11ca 10000000 		.4byte	.LFE85-.LFB85
 5286 11ce 01       		.uleb128 0x1
 5287 11cf 9C       		.byte	0x9c
 5288 11d0 11120000 		.4byte	0x1211
 5289 11d4 19       		.uleb128 0x19
 5290 11d5 63747800 		.ascii	"ctx\000"
 5291 11d9 01       		.byte	0x1
 5292 11da 3E01     		.2byte	0x13e
 5293 11dc A3020000 		.4byte	0x2a3
 5294 11e0 2D0B0000 		.4byte	.LLST75
 5295 11e4 25       		.uleb128 0x25
 5296 11e5 0D060000 		.4byte	.LASF88
 5297 11e9 01       		.byte	0x1
 5298 11ea 4001     		.2byte	0x140
 5299 11ec 11120000 		.4byte	0x1211
 5300 11f0 05       		.uleb128 0x5
 5301 11f1 03       		.byte	0x3
 5302 11f2 00000000 		.4byte	result_list.9155
 5303 11f6 1F       		.uleb128 0x1f
 5304 11f7 08000000 		.4byte	.LVL220
 5305 11fb 0D110000 		.4byte	0x110d
 5306 11ff 1B       		.uleb128 0x1b
 5307 1200 01       		.uleb128 0x1
 5308 1201 50       		.byte	0x50
 5309 1202 03       		.uleb128 0x3
 5310 1203 F3       		.byte	0xf3
 5311 1204 01       		.uleb128 0x1
 5312 1205 50       		.byte	0x50
 5313 1206 1B       		.uleb128 0x1b
 5314 1207 01       		.uleb128 0x1
 5315 1208 51       		.byte	0x51
 5316 1209 05       		.uleb128 0x5
 5317 120a 03       		.byte	0x3
 5318 120b 00000000 		.4byte	.LANCHOR1
 5319 120f 00       		.byte	0
 5320 1210 00       		.byte	0
ARM GAS  C:\Users\samue\AppData\Local\Temp\ccJDNHzo.s 			page 118


 5321 1211 10       		.uleb128 0x10
 5322 1212 A9000000 		.4byte	0xa9
 5323 1216 21120000 		.4byte	0x1221
 5324 121a 11       		.uleb128 0x11
 5325 121b 95000000 		.4byte	0x95
 5326 121f 02       		.byte	0x2
 5327 1220 00       		.byte	0
 5328 1221 32       		.uleb128 0x32
 5329 1222 91050000 		.4byte	.LASF89
 5330 1226 01       		.byte	0x1
 5331 1227 B401     		.2byte	0x1b4
 5332 1229 00000000 		.4byte	.LFB90
 5333 122d 78000000 		.4byte	.LFE90-.LFB90
 5334 1231 01       		.uleb128 0x1
 5335 1232 9C       		.byte	0x9c
 5336 1233 06130000 		.4byte	0x1306
 5337 1237 19       		.uleb128 0x19
 5338 1238 63747800 		.ascii	"ctx\000"
 5339 123c 01       		.byte	0x1
 5340 123d B401     		.2byte	0x1b4
 5341 123f A3020000 		.4byte	0x2a3
 5342 1243 4E0B0000 		.4byte	.LLST76
 5343 1247 19       		.uleb128 0x19
 5344 1248 6500     		.ascii	"e\000"
 5345 124a 01       		.byte	0x1
 5346 124b B401     		.2byte	0x1b4
 5347 124d A9020000 		.4byte	0x2a9
 5348 1251 900B0000 		.4byte	.LLST77
 5349 1255 29       		.uleb128 0x29
 5350 1256 726300   		.ascii	"rc\000"
 5351 1259 01       		.byte	0x1
 5352 125a B601     		.2byte	0x1b6
 5353 125c 7E000000 		.4byte	0x7e
 5354 1260 CA0B0000 		.4byte	.LLST78
 5355 1264 1D       		.uleb128 0x1d
 5356 1265 E4020000 		.4byte	0x2e4
 5357 1269 1E000000 		.4byte	.LBB102
 5358 126d 16000000 		.4byte	.LBE102-.LBB102
 5359 1271 01       		.byte	0x1
 5360 1272 BB01     		.2byte	0x1bb
 5361 1274 9B120000 		.4byte	0x129b
 5362 1278 1E       		.uleb128 0x1e
 5363 1279 FB020000 		.4byte	0x2fb
 5364 127d F50B0000 		.4byte	.LLST79
 5365 1281 1E       		.uleb128 0x1e
 5366 1282 F0020000 		.4byte	0x2f0
 5367 1286 180C0000 		.4byte	.LLST80
 5368 128a 1F       		.uleb128 0x1f
 5369 128b 2C000000 		.4byte	.LVL228
 5370 128f C81A0000 		.4byte	0x1ac8
 5371 1293 1B       		.uleb128 0x1b
 5372 1294 01       		.uleb128 0x1
 5373 1295 52       		.byte	0x52
 5374 1296 02       		.uleb128 0x2
 5375 1297 09       		.byte	0x9
 5376 1298 FF       		.byte	0xff
 5377 1299 00       		.byte	0
ARM GAS  C:\Users\samue\AppData\Local\Temp\ccJDNHzo.s 			page 119


 5378 129a 00       		.byte	0
 5379 129b 28       		.uleb128 0x28
 5380 129c 14000000 		.4byte	.LVL224
 5381 12a0 8A1B0000 		.4byte	0x1b8a
 5382 12a4 B2120000 		.4byte	0x12b2
 5383 12a8 1B       		.uleb128 0x1b
 5384 12a9 01       		.uleb128 0x1
 5385 12aa 50       		.byte	0x50
 5386 12ab 05       		.uleb128 0x5
 5387 12ac 03       		.byte	0x3
 5388 12ad 98000000 		.4byte	.LC15
 5389 12b1 00       		.byte	0
 5390 12b2 28       		.uleb128 0x28
 5391 12b3 1A000000 		.4byte	.LVL225
 5392 12b7 840D0000 		.4byte	0xd84
 5393 12bb C6120000 		.4byte	0x12c6
 5394 12bf 1B       		.uleb128 0x1b
 5395 12c0 01       		.uleb128 0x1
 5396 12c1 50       		.byte	0x50
 5397 12c2 02       		.uleb128 0x2
 5398 12c3 75       		.byte	0x75
 5399 12c4 00       		.sleb128 0
 5400 12c5 00       		.byte	0
 5401 12c6 27       		.uleb128 0x27
 5402 12c7 38000000 		.4byte	.LVL230
 5403 12cb BA110000 		.4byte	0x11ba
 5404 12cf 28       		.uleb128 0x28
 5405 12d0 48000000 		.4byte	.LVL232
 5406 12d4 AF1B0000 		.4byte	0x1baf
 5407 12d8 EC120000 		.4byte	0x12ec
 5408 12dc 1B       		.uleb128 0x1b
 5409 12dd 01       		.uleb128 0x1
 5410 12de 50       		.byte	0x50
 5411 12df 05       		.uleb128 0x5
 5412 12e0 03       		.byte	0x3
 5413 12e1 AC000000 		.4byte	.LC16
 5414 12e5 1B       		.uleb128 0x1b
 5415 12e6 01       		.uleb128 0x1
 5416 12e7 52       		.byte	0x52
 5417 12e8 02       		.uleb128 0x2
 5418 12e9 74       		.byte	0x74
 5419 12ea 00       		.sleb128 0
 5420 12eb 00       		.byte	0
 5421 12ec 1F       		.uleb128 0x1f
 5422 12ed 50000000 		.4byte	.LVL233
 5423 12f1 A41B0000 		.4byte	0x1ba4
 5424 12f5 1B       		.uleb128 0x1b
 5425 12f6 01       		.uleb128 0x1
 5426 12f7 50       		.byte	0x50
 5427 12f8 02       		.uleb128 0x2
 5428 12f9 74       		.byte	0x74
 5429 12fa 00       		.sleb128 0
 5430 12fb 1B       		.uleb128 0x1b
 5431 12fc 01       		.uleb128 0x1
 5432 12fd 51       		.byte	0x51
 5433 12fe 05       		.uleb128 0x5
 5434 12ff 03       		.byte	0x3
ARM GAS  C:\Users\samue\AppData\Local\Temp\ccJDNHzo.s 			page 120


 5435 1300 B4000000 		.4byte	.LC17
 5436 1304 00       		.byte	0
 5437 1305 00       		.byte	0
 5438 1306 32       		.uleb128 0x32
 5439 1307 21000000 		.4byte	.LASF90
 5440 130b 01       		.byte	0x1
 5441 130c F401     		.2byte	0x1f4
 5442 130e 00000000 		.4byte	.LFB93
 5443 1312 4C000000 		.4byte	.LFE93-.LFB93
 5444 1316 01       		.uleb128 0x1
 5445 1317 9C       		.byte	0x9c
 5446 1318 92130000 		.4byte	0x1392
 5447 131c 19       		.uleb128 0x19
 5448 131d 63747800 		.ascii	"ctx\000"
 5449 1321 01       		.byte	0x1
 5450 1322 F401     		.2byte	0x1f4
 5451 1324 A3020000 		.4byte	0x2a3
 5452 1328 2B0C0000 		.4byte	.LLST81
 5453 132c 19       		.uleb128 0x19
 5454 132d 6500     		.ascii	"e\000"
 5455 132f 01       		.byte	0x1
 5456 1330 F401     		.2byte	0x1f4
 5457 1332 A9020000 		.4byte	0x2a9
 5458 1336 830C0000 		.4byte	.LLST82
 5459 133a 29       		.uleb128 0x29
 5460 133b 726300   		.ascii	"rc\000"
 5461 133e 01       		.byte	0x1
 5462 133f F601     		.2byte	0x1f6
 5463 1341 7E000000 		.4byte	0x7e
 5464 1345 D60C0000 		.4byte	.LLST83
 5465 1349 28       		.uleb128 0x28
 5466 134a 16000000 		.4byte	.LVL238
 5467 134e 8A1B0000 		.4byte	0x1b8a
 5468 1352 60130000 		.4byte	0x1360
 5469 1356 1B       		.uleb128 0x1b
 5470 1357 01       		.uleb128 0x1
 5471 1358 50       		.byte	0x50
 5472 1359 05       		.uleb128 0x5
 5473 135a 03       		.byte	0x3
 5474 135b C4000000 		.4byte	.LC18
 5475 135f 00       		.byte	0
 5476 1360 28       		.uleb128 0x28
 5477 1361 1C000000 		.4byte	.LVL239
 5478 1365 840D0000 		.4byte	0xd84
 5479 1369 74130000 		.4byte	0x1374
 5480 136d 1B       		.uleb128 0x1b
 5481 136e 01       		.uleb128 0x1
 5482 136f 50       		.byte	0x50
 5483 1370 02       		.uleb128 0x2
 5484 1371 74       		.byte	0x74
 5485 1372 00       		.sleb128 0
 5486 1373 00       		.byte	0
 5487 1374 28       		.uleb128 0x28
 5488 1375 2C000000 		.4byte	.LVL241
 5489 1379 12040000 		.4byte	0x412
 5490 137d 88130000 		.4byte	0x1388
 5491 1381 1B       		.uleb128 0x1b
ARM GAS  C:\Users\samue\AppData\Local\Temp\ccJDNHzo.s 			page 121


 5492 1382 01       		.uleb128 0x1
 5493 1383 50       		.byte	0x50
 5494 1384 02       		.uleb128 0x2
 5495 1385 74       		.byte	0x74
 5496 1386 00       		.sleb128 0
 5497 1387 00       		.byte	0
 5498 1388 27       		.uleb128 0x27
 5499 1389 3C000000 		.4byte	.LVL243
 5500 138d BA110000 		.4byte	0x11ba
 5501 1391 00       		.byte	0
 5502 1392 32       		.uleb128 0x32
 5503 1393 00060000 		.4byte	.LASF91
 5504 1397 01       		.byte	0x1
 5505 1398 4002     		.2byte	0x240
 5506 139a 00000000 		.4byte	.LFB96
 5507 139e 5C000000 		.4byte	.LFE96-.LFB96
 5508 13a2 01       		.uleb128 0x1
 5509 13a3 9C       		.byte	0x9c
 5510 13a4 62140000 		.4byte	0x1462
 5511 13a8 19       		.uleb128 0x19
 5512 13a9 63747800 		.ascii	"ctx\000"
 5513 13ad 01       		.byte	0x1
 5514 13ae 4002     		.2byte	0x240
 5515 13b0 A3020000 		.4byte	0x2a3
 5516 13b4 E90C0000 		.4byte	.LLST84
 5517 13b8 19       		.uleb128 0x19
 5518 13b9 6500     		.ascii	"e\000"
 5519 13bb 01       		.byte	0x1
 5520 13bc 4002     		.2byte	0x240
 5521 13be A9020000 		.4byte	0x2a9
 5522 13c2 2B0D0000 		.4byte	.LLST85
 5523 13c6 29       		.uleb128 0x29
 5524 13c7 726300   		.ascii	"rc\000"
 5525 13ca 01       		.byte	0x1
 5526 13cb 4202     		.2byte	0x242
 5527 13cd 7E000000 		.4byte	0x7e
 5528 13d1 650D0000 		.4byte	.LLST86
 5529 13d5 28       		.uleb128 0x28
 5530 13d6 14000000 		.4byte	.LVL248
 5531 13da 8A1B0000 		.4byte	0x1b8a
 5532 13de EC130000 		.4byte	0x13ec
 5533 13e2 1B       		.uleb128 0x1b
 5534 13e3 01       		.uleb128 0x1
 5535 13e4 50       		.byte	0x50
 5536 13e5 05       		.uleb128 0x5
 5537 13e6 03       		.byte	0x3
 5538 13e7 D0000000 		.4byte	.LC19
 5539 13eb 00       		.byte	0
 5540 13ec 28       		.uleb128 0x28
 5541 13ed 1A000000 		.4byte	.LVL249
 5542 13f1 840D0000 		.4byte	0xd84
 5543 13f5 00140000 		.4byte	0x1400
 5544 13f9 1B       		.uleb128 0x1b
 5545 13fa 01       		.uleb128 0x1
 5546 13fb 50       		.byte	0x50
 5547 13fc 02       		.uleb128 0x2
 5548 13fd 74       		.byte	0x74
ARM GAS  C:\Users\samue\AppData\Local\Temp\ccJDNHzo.s 			page 122


 5549 13fe 00       		.sleb128 0
 5550 13ff 00       		.byte	0
 5551 1400 28       		.uleb128 0x28
 5552 1401 20000000 		.4byte	.LVL250
 5553 1405 40050000 		.4byte	0x540
 5554 1409 14140000 		.4byte	0x1414
 5555 140d 1B       		.uleb128 0x1b
 5556 140e 01       		.uleb128 0x1
 5557 140f 50       		.byte	0x50
 5558 1410 02       		.uleb128 0x2
 5559 1411 74       		.byte	0x74
 5560 1412 00       		.sleb128 0
 5561 1413 00       		.byte	0
 5562 1414 27       		.uleb128 0x27
 5563 1415 26000000 		.4byte	.LVL252
 5564 1419 BA110000 		.4byte	0x11ba
 5565 141d 28       		.uleb128 0x28
 5566 141e 32000000 		.4byte	.LVL254
 5567 1422 A41B0000 		.4byte	0x1ba4
 5568 1426 3A140000 		.4byte	0x143a
 5569 142a 1B       		.uleb128 0x1b
 5570 142b 01       		.uleb128 0x1
 5571 142c 50       		.byte	0x50
 5572 142d 02       		.uleb128 0x2
 5573 142e 74       		.byte	0x74
 5574 142f 20       		.sleb128 32
 5575 1430 1B       		.uleb128 0x1b
 5576 1431 01       		.uleb128 0x1
 5577 1432 51       		.byte	0x51
 5578 1433 05       		.uleb128 0x5
 5579 1434 03       		.byte	0x3
 5580 1435 E0000000 		.4byte	.LC20
 5581 1439 00       		.byte	0
 5582 143a 28       		.uleb128 0x28
 5583 143b 44000000 		.4byte	.LVL257
 5584 143f 8A1B0000 		.4byte	0x1b8a
 5585 1443 51140000 		.4byte	0x1451
 5586 1447 1B       		.uleb128 0x1b
 5587 1448 01       		.uleb128 0x1
 5588 1449 50       		.byte	0x50
 5589 144a 05       		.uleb128 0x5
 5590 144b 03       		.byte	0x3
 5591 144c EC000000 		.4byte	.LC21
 5592 1450 00       		.byte	0
 5593 1451 1F       		.uleb128 0x1f
 5594 1452 4A000000 		.4byte	.LVL258
 5595 1456 40050000 		.4byte	0x540
 5596 145a 1B       		.uleb128 0x1b
 5597 145b 01       		.uleb128 0x1
 5598 145c 50       		.byte	0x50
 5599 145d 02       		.uleb128 0x2
 5600 145e 74       		.byte	0x74
 5601 145f 00       		.sleb128 0
 5602 1460 00       		.byte	0
 5603 1461 00       		.byte	0
 5604 1462 32       		.uleb128 0x32
 5605 1463 45000000 		.4byte	.LASF92
ARM GAS  C:\Users\samue\AppData\Local\Temp\ccJDNHzo.s 			page 123


 5606 1467 01       		.byte	0x1
 5607 1468 6402     		.2byte	0x264
 5608 146a 00000000 		.4byte	.LFB97
 5609 146e 4C000000 		.4byte	.LFE97-.LFB97
 5610 1472 01       		.uleb128 0x1
 5611 1473 9C       		.byte	0x9c
 5612 1474 0F150000 		.4byte	0x150f
 5613 1478 19       		.uleb128 0x19
 5614 1479 63747800 		.ascii	"ctx\000"
 5615 147d 01       		.byte	0x1
 5616 147e 6402     		.2byte	0x264
 5617 1480 A3020000 		.4byte	0x2a3
 5618 1484 830D0000 		.4byte	.LLST87
 5619 1488 19       		.uleb128 0x19
 5620 1489 6500     		.ascii	"e\000"
 5621 148b 01       		.byte	0x1
 5622 148c 6402     		.2byte	0x264
 5623 148e A9020000 		.4byte	0x2a9
 5624 1492 C50D0000 		.4byte	.LLST88
 5625 1496 24       		.uleb128 0x24
 5626 1497 726300   		.ascii	"rc\000"
 5627 149a 01       		.byte	0x1
 5628 149b 6602     		.2byte	0x266
 5629 149d 7E000000 		.4byte	0x7e
 5630 14a1 01       		.uleb128 0x1
 5631 14a2 50       		.byte	0x50
 5632 14a3 1D       		.uleb128 0x1d
 5633 14a4 E4020000 		.4byte	0x2e4
 5634 14a8 1E000000 		.4byte	.LBB104
 5635 14ac 16000000 		.4byte	.LBE104-.LBB104
 5636 14b0 01       		.byte	0x1
 5637 14b1 6B02     		.2byte	0x26b
 5638 14b3 DA140000 		.4byte	0x14da
 5639 14b7 1E       		.uleb128 0x1e
 5640 14b8 FB020000 		.4byte	0x2fb
 5641 14bc FF0D0000 		.4byte	.LLST89
 5642 14c0 1E       		.uleb128 0x1e
 5643 14c1 F0020000 		.4byte	0x2f0
 5644 14c5 220E0000 		.4byte	.LLST90
 5645 14c9 1F       		.uleb128 0x1f
 5646 14ca 2C000000 		.4byte	.LVL266
 5647 14ce C81A0000 		.4byte	0x1ac8
 5648 14d2 1B       		.uleb128 0x1b
 5649 14d3 01       		.uleb128 0x1
 5650 14d4 52       		.byte	0x52
 5651 14d5 02       		.uleb128 0x2
 5652 14d6 09       		.byte	0x9
 5653 14d7 FF       		.byte	0xff
 5654 14d8 00       		.byte	0
 5655 14d9 00       		.byte	0
 5656 14da 28       		.uleb128 0x28
 5657 14db 14000000 		.4byte	.LVL262
 5658 14df 8A1B0000 		.4byte	0x1b8a
 5659 14e3 F1140000 		.4byte	0x14f1
 5660 14e7 1B       		.uleb128 0x1b
 5661 14e8 01       		.uleb128 0x1
 5662 14e9 50       		.byte	0x50
ARM GAS  C:\Users\samue\AppData\Local\Temp\ccJDNHzo.s 			page 124


 5663 14ea 05       		.uleb128 0x5
 5664 14eb 03       		.byte	0x3
 5665 14ec 0C010000 		.4byte	.LC23
 5666 14f0 00       		.byte	0
 5667 14f1 28       		.uleb128 0x28
 5668 14f2 1A000000 		.4byte	.LVL263
 5669 14f6 840D0000 		.4byte	0xd84
 5670 14fa 05150000 		.4byte	0x1505
 5671 14fe 1B       		.uleb128 0x1b
 5672 14ff 01       		.uleb128 0x1
 5673 1500 50       		.byte	0x50
 5674 1501 02       		.uleb128 0x2
 5675 1502 75       		.byte	0x75
 5676 1503 00       		.sleb128 0
 5677 1504 00       		.byte	0
 5678 1505 27       		.uleb128 0x27
 5679 1506 38000000 		.4byte	.LVL268
 5680 150a BA110000 		.4byte	0x11ba
 5681 150e 00       		.byte	0
 5682 150f 32       		.uleb128 0x32
 5683 1510 C4000000 		.4byte	.LASF93
 5684 1514 01       		.byte	0x1
 5685 1515 DC02     		.2byte	0x2dc
 5686 1517 00000000 		.4byte	.LFB101
 5687 151b 80000000 		.4byte	.LFE101-.LFB101
 5688 151f 01       		.uleb128 0x1
 5689 1520 9C       		.byte	0x9c
 5690 1521 22160000 		.4byte	0x1622
 5691 1525 19       		.uleb128 0x19
 5692 1526 63747800 		.ascii	"ctx\000"
 5693 152a 01       		.byte	0x1
 5694 152b DC02     		.2byte	0x2dc
 5695 152d A3020000 		.4byte	0x2a3
 5696 1531 350E0000 		.4byte	.LLST91
 5697 1535 19       		.uleb128 0x19
 5698 1536 6500     		.ascii	"e\000"
 5699 1538 01       		.byte	0x1
 5700 1539 DC02     		.2byte	0x2dc
 5701 153b A9020000 		.4byte	0x2a9
 5702 153f 770E0000 		.4byte	.LLST92
 5703 1543 29       		.uleb128 0x29
 5704 1544 726300   		.ascii	"rc\000"
 5705 1547 01       		.byte	0x1
 5706 1548 DE02     		.2byte	0x2de
 5707 154a 7E000000 		.4byte	0x7e
 5708 154e B10E0000 		.4byte	.LLST93
 5709 1552 1D       		.uleb128 0x1d
 5710 1553 E4020000 		.4byte	0x2e4
 5711 1557 1E000000 		.4byte	.LBB106
 5712 155b 16000000 		.4byte	.LBE106-.LBB106
 5713 155f 01       		.byte	0x1
 5714 1560 E302     		.2byte	0x2e3
 5715 1562 89150000 		.4byte	0x1589
 5716 1566 1E       		.uleb128 0x1e
 5717 1567 FB020000 		.4byte	0x2fb
 5718 156b D10E0000 		.4byte	.LLST94
 5719 156f 1E       		.uleb128 0x1e
ARM GAS  C:\Users\samue\AppData\Local\Temp\ccJDNHzo.s 			page 125


 5720 1570 F0020000 		.4byte	0x2f0
 5721 1574 F40E0000 		.4byte	.LLST95
 5722 1578 1F       		.uleb128 0x1f
 5723 1579 2C000000 		.4byte	.LVL277
 5724 157d C81A0000 		.4byte	0x1ac8
 5725 1581 1B       		.uleb128 0x1b
 5726 1582 01       		.uleb128 0x1
 5727 1583 52       		.byte	0x52
 5728 1584 02       		.uleb128 0x2
 5729 1585 09       		.byte	0x9
 5730 1586 FF       		.byte	0xff
 5731 1587 00       		.byte	0
 5732 1588 00       		.byte	0
 5733 1589 1D       		.uleb128 0x1d
 5734 158a E4020000 		.4byte	0x2e4
 5735 158e 56000000 		.4byte	.LBB108
 5736 1592 2A000000 		.4byte	.LBE108-.LBB108
 5737 1596 01       		.byte	0x1
 5738 1597 ED02     		.2byte	0x2ed
 5739 1599 C0150000 		.4byte	0x15c0
 5740 159d 1E       		.uleb128 0x1e
 5741 159e FB020000 		.4byte	0x2fb
 5742 15a2 070F0000 		.4byte	.LLST96
 5743 15a6 1E       		.uleb128 0x1e
 5744 15a7 F0020000 		.4byte	0x2f0
 5745 15ab 2A0F0000 		.4byte	.LLST97
 5746 15af 1F       		.uleb128 0x1f
 5747 15b0 64000000 		.4byte	.LVL286
 5748 15b4 C81A0000 		.4byte	0x1ac8
 5749 15b8 1B       		.uleb128 0x1b
 5750 15b9 01       		.uleb128 0x1
 5751 15ba 52       		.byte	0x52
 5752 15bb 02       		.uleb128 0x2
 5753 15bc 09       		.byte	0x9
 5754 15bd FF       		.byte	0xff
 5755 15be 00       		.byte	0
 5756 15bf 00       		.byte	0
 5757 15c0 28       		.uleb128 0x28
 5758 15c1 14000000 		.4byte	.LVL273
 5759 15c5 8A1B0000 		.4byte	0x1b8a
 5760 15c9 D7150000 		.4byte	0x15d7
 5761 15cd 1B       		.uleb128 0x1b
 5762 15ce 01       		.uleb128 0x1
 5763 15cf 50       		.byte	0x50
 5764 15d0 05       		.uleb128 0x5
 5765 15d1 03       		.byte	0x3
 5766 15d2 3C010000 		.4byte	.LC26
 5767 15d6 00       		.byte	0
 5768 15d7 28       		.uleb128 0x28
 5769 15d8 1A000000 		.4byte	.LVL274
 5770 15dc 840D0000 		.4byte	0xd84
 5771 15e0 EB150000 		.4byte	0x15eb
 5772 15e4 1B       		.uleb128 0x1b
 5773 15e5 01       		.uleb128 0x1
 5774 15e6 50       		.byte	0x50
 5775 15e7 02       		.uleb128 0x2
 5776 15e8 75       		.byte	0x75
ARM GAS  C:\Users\samue\AppData\Local\Temp\ccJDNHzo.s 			page 126


 5777 15e9 00       		.sleb128 0
 5778 15ea 00       		.byte	0
 5779 15eb 27       		.uleb128 0x27
 5780 15ec 38000000 		.4byte	.LVL279
 5781 15f0 BA110000 		.4byte	0x11ba
 5782 15f4 28       		.uleb128 0x28
 5783 15f5 44000000 		.4byte	.LVL281
 5784 15f9 A41B0000 		.4byte	0x1ba4
 5785 15fd 11160000 		.4byte	0x1611
 5786 1601 1B       		.uleb128 0x1b
 5787 1602 01       		.uleb128 0x1
 5788 1603 50       		.byte	0x50
 5789 1604 02       		.uleb128 0x2
 5790 1605 75       		.byte	0x75
 5791 1606 20       		.sleb128 32
 5792 1607 1B       		.uleb128 0x1b
 5793 1608 01       		.uleb128 0x1
 5794 1609 51       		.byte	0x51
 5795 160a 05       		.uleb128 0x5
 5796 160b 03       		.byte	0x3
 5797 160c 48010000 		.4byte	.LC27
 5798 1610 00       		.byte	0
 5799 1611 1F       		.uleb128 0x1f
 5800 1612 52000000 		.4byte	.LVL283
 5801 1616 840D0000 		.4byte	0xd84
 5802 161a 1B       		.uleb128 0x1b
 5803 161b 01       		.uleb128 0x1
 5804 161c 50       		.byte	0x50
 5805 161d 02       		.uleb128 0x2
 5806 161e 75       		.byte	0x75
 5807 161f 00       		.sleb128 0
 5808 1620 00       		.byte	0
 5809 1621 00       		.byte	0
 5810 1622 34       		.uleb128 0x34
 5811 1623 F0000000 		.4byte	.LASF94
 5812 1627 01       		.byte	0x1
 5813 1628 4501     		.2byte	0x145
 5814 162a 2A030000 		.4byte	0x32a
 5815 162e 00000000 		.4byte	.LFB86
 5816 1632 50000000 		.4byte	.LFE86-.LFB86
 5817 1636 01       		.uleb128 0x1
 5818 1637 9C       		.byte	0x9c
 5819 1638 DF160000 		.4byte	0x16df
 5820 163c 19       		.uleb128 0x19
 5821 163d 63747800 		.ascii	"ctx\000"
 5822 1641 01       		.byte	0x1
 5823 1642 4501     		.2byte	0x145
 5824 1644 A3020000 		.4byte	0x2a3
 5825 1648 3D0F0000 		.4byte	.LLST98
 5826 164c 19       		.uleb128 0x19
 5827 164d 7000     		.ascii	"p\000"
 5828 164f 01       		.byte	0x1
 5829 1650 4501     		.2byte	0x145
 5830 1652 A9000000 		.4byte	0xa9
 5831 1656 5B0F0000 		.4byte	.LLST99
 5832 165a 35       		.uleb128 0x35
 5833 165b AB060000 		.4byte	.LASF85
ARM GAS  C:\Users\samue\AppData\Local\Temp\ccJDNHzo.s 			page 127


 5834 165f 01       		.byte	0x1
 5835 1660 4701     		.2byte	0x147
 5836 1662 2A030000 		.4byte	0x32a
 5837 1666 790F0000 		.4byte	.LLST100
 5838 166a 29       		.uleb128 0x29
 5839 166b 6C656E00 		.ascii	"len\000"
 5840 166f 01       		.byte	0x1
 5841 1670 4801     		.2byte	0x148
 5842 1672 7E000000 		.4byte	0x7e
 5843 1676 980F0000 		.4byte	.LLST101
 5844 167a 28       		.uleb128 0x28
 5845 167b 0E000000 		.4byte	.LVL292
 5846 167f BA1B0000 		.4byte	0x1bba
 5847 1683 8E160000 		.4byte	0x168e
 5848 1687 1B       		.uleb128 0x1b
 5849 1688 01       		.uleb128 0x1
 5850 1689 50       		.byte	0x50
 5851 168a 02       		.uleb128 0x2
 5852 168b 77       		.byte	0x77
 5853 168c 00       		.sleb128 0
 5854 168d 00       		.byte	0
 5855 168e 28       		.uleb128 0x28
 5856 168f 28000000 		.4byte	.LVL295
 5857 1693 A41B0000 		.4byte	0x1ba4
 5858 1697 A8160000 		.4byte	0x16a8
 5859 169b 1B       		.uleb128 0x1b
 5860 169c 01       		.uleb128 0x1
 5861 169d 50       		.byte	0x50
 5862 169e 02       		.uleb128 0x2
 5863 169f 76       		.byte	0x76
 5864 16a0 00       		.sleb128 0
 5865 16a1 1B       		.uleb128 0x1b
 5866 16a2 01       		.uleb128 0x1
 5867 16a3 51       		.byte	0x51
 5868 16a4 02       		.uleb128 0x2
 5869 16a5 77       		.byte	0x77
 5870 16a6 00       		.sleb128 0
 5871 16a7 00       		.byte	0
 5872 16a8 28       		.uleb128 0x28
 5873 16a9 36000000 		.4byte	.LVL296
 5874 16ad C51B0000 		.4byte	0x1bc5
 5875 16b1 C8160000 		.4byte	0x16c8
 5876 16b5 1B       		.uleb128 0x1b
 5877 16b6 01       		.uleb128 0x1
 5878 16b7 50       		.byte	0x50
 5879 16b8 02       		.uleb128 0x2
 5880 16b9 76       		.byte	0x76
 5881 16ba 00       		.sleb128 0
 5882 16bb 1B       		.uleb128 0x1b
 5883 16bc 01       		.uleb128 0x1
 5884 16bd 51       		.byte	0x51
 5885 16be 02       		.uleb128 0x2
 5886 16bf 74       		.byte	0x74
 5887 16c0 21       		.sleb128 33
 5888 16c1 1B       		.uleb128 0x1b
 5889 16c2 01       		.uleb128 0x1
 5890 16c3 52       		.byte	0x52
ARM GAS  C:\Users\samue\AppData\Local\Temp\ccJDNHzo.s 			page 128


 5891 16c4 02       		.uleb128 0x2
 5892 16c5 75       		.byte	0x75
 5893 16c6 00       		.sleb128 0
 5894 16c7 00       		.byte	0
 5895 16c8 1F       		.uleb128 0x1f
 5896 16c9 42000000 		.4byte	.LVL297
 5897 16cd 0D100000 		.4byte	0x100d
 5898 16d1 1B       		.uleb128 0x1b
 5899 16d2 01       		.uleb128 0x1
 5900 16d3 50       		.byte	0x50
 5901 16d4 02       		.uleb128 0x2
 5902 16d5 74       		.byte	0x74
 5903 16d6 00       		.sleb128 0
 5904 16d7 1B       		.uleb128 0x1b
 5905 16d8 01       		.uleb128 0x1
 5906 16d9 51       		.byte	0x51
 5907 16da 02       		.uleb128 0x2
 5908 16db 78       		.byte	0x78
 5909 16dc 00       		.sleb128 0
 5910 16dd 00       		.byte	0
 5911 16de 00       		.byte	0
 5912 16df 32       		.uleb128 0x32
 5913 16e0 2D000000 		.4byte	.LASF95
 5914 16e4 01       		.byte	0x1
 5915 16e5 5801     		.2byte	0x158
 5916 16e7 00000000 		.4byte	.LFB87
 5917 16eb A4000000 		.4byte	.LFE87-.LFB87
 5918 16ef 01       		.uleb128 0x1
 5919 16f0 9C       		.byte	0x9c
 5920 16f1 E7170000 		.4byte	0x17e7
 5921 16f5 19       		.uleb128 0x19
 5922 16f6 63747800 		.ascii	"ctx\000"
 5923 16fa 01       		.byte	0x1
 5924 16fb 5801     		.2byte	0x158
 5925 16fd A3020000 		.4byte	0x2a3
 5926 1701 B60F0000 		.4byte	.LLST102
 5927 1705 19       		.uleb128 0x19
 5928 1706 6500     		.ascii	"e\000"
 5929 1708 01       		.byte	0x1
 5930 1709 5801     		.2byte	0x158
 5931 170b A9020000 		.4byte	0x2a9
 5932 170f 3A100000 		.4byte	.LLST103
 5933 1713 1D       		.uleb128 0x1d
 5934 1714 E4020000 		.4byte	0x2e4
 5935 1718 28000000 		.4byte	.LBB110
 5936 171c 16000000 		.4byte	.LBE110-.LBB110
 5937 1720 01       		.byte	0x1
 5938 1721 5F01     		.2byte	0x15f
 5939 1723 4A170000 		.4byte	0x174a
 5940 1727 1E       		.uleb128 0x1e
 5941 1728 FB020000 		.4byte	0x2fb
 5942 172c BF100000 		.4byte	.LLST104
 5943 1730 1E       		.uleb128 0x1e
 5944 1731 F0020000 		.4byte	0x2f0
 5945 1735 E2100000 		.4byte	.LLST105
 5946 1739 1F       		.uleb128 0x1f
 5947 173a 36000000 		.4byte	.LVL307
ARM GAS  C:\Users\samue\AppData\Local\Temp\ccJDNHzo.s 			page 129


 5948 173e C81A0000 		.4byte	0x1ac8
 5949 1742 1B       		.uleb128 0x1b
 5950 1743 01       		.uleb128 0x1
 5951 1744 52       		.byte	0x52
 5952 1745 02       		.uleb128 0x2
 5953 1746 09       		.byte	0x9
 5954 1747 FF       		.byte	0xff
 5955 1748 00       		.byte	0
 5956 1749 00       		.byte	0
 5957 174a 33       		.uleb128 0x33
 5958 174b E4020000 		.4byte	0x2e4
 5959 174f 58000000 		.4byte	.LBB112
 5960 1753 48000000 		.4byte	.Ldebug_ranges0+0x48
 5961 1757 01       		.byte	0x1
 5962 1758 6A01     		.2byte	0x16a
 5963 175a 7D170000 		.4byte	0x177d
 5964 175e 1E       		.uleb128 0x1e
 5965 175f FB020000 		.4byte	0x2fb
 5966 1763 F5100000 		.4byte	.LLST106
 5967 1767 20       		.uleb128 0x20
 5968 1768 F0020000 		.4byte	0x2f0
 5969 176c 1F       		.uleb128 0x1f
 5970 176d 66000000 		.4byte	.LVL311
 5971 1771 C81A0000 		.4byte	0x1ac8
 5972 1775 1B       		.uleb128 0x1b
 5973 1776 01       		.uleb128 0x1
 5974 1777 52       		.byte	0x52
 5975 1778 02       		.uleb128 0x2
 5976 1779 09       		.byte	0x9
 5977 177a FF       		.byte	0xff
 5978 177b 00       		.byte	0
 5979 177c 00       		.byte	0
 5980 177d 28       		.uleb128 0x28
 5981 177e 18000000 		.4byte	.LVL302
 5982 1782 8A1B0000 		.4byte	0x1b8a
 5983 1786 94170000 		.4byte	0x1794
 5984 178a 1B       		.uleb128 0x1b
 5985 178b 01       		.uleb128 0x1
 5986 178c 50       		.byte	0x50
 5987 178d 05       		.uleb128 0x5
 5988 178e 03       		.byte	0x3
 5989 178f 58010000 		.4byte	.LC29
 5990 1793 00       		.byte	0
 5991 1794 28       		.uleb128 0x28
 5992 1795 1E000000 		.4byte	.LVL303
 5993 1799 AE0F0000 		.4byte	0xfae
 5994 179d A8170000 		.4byte	0x17a8
 5995 17a1 1B       		.uleb128 0x1b
 5996 17a2 01       		.uleb128 0x1
 5997 17a3 50       		.byte	0x50
 5998 17a4 02       		.uleb128 0x2
 5999 17a5 75       		.byte	0x75
 6000 17a6 00       		.sleb128 0
 6001 17a7 00       		.byte	0
 6002 17a8 28       		.uleb128 0x28
 6003 17a9 24000000 		.4byte	.LVL304
 6004 17ad 840D0000 		.4byte	0xd84
ARM GAS  C:\Users\samue\AppData\Local\Temp\ccJDNHzo.s 			page 130


 6005 17b1 BC170000 		.4byte	0x17bc
 6006 17b5 1B       		.uleb128 0x1b
 6007 17b6 01       		.uleb128 0x1
 6008 17b7 50       		.byte	0x50
 6009 17b8 02       		.uleb128 0x2
 6010 17b9 75       		.byte	0x75
 6011 17ba 00       		.sleb128 0
 6012 17bb 00       		.byte	0
 6013 17bc 28       		.uleb128 0x28
 6014 17bd 78000000 		.4byte	.LVL316
 6015 17c1 8A1B0000 		.4byte	0x1b8a
 6016 17c5 D3170000 		.4byte	0x17d3
 6017 17c9 1B       		.uleb128 0x1b
 6018 17ca 01       		.uleb128 0x1
 6019 17cb 50       		.byte	0x50
 6020 17cc 05       		.uleb128 0x5
 6021 17cd 03       		.byte	0x3
 6022 17ce 60010000 		.4byte	.LC30
 6023 17d2 00       		.byte	0
 6024 17d3 1F       		.uleb128 0x1f
 6025 17d4 84000000 		.4byte	.LVL319
 6026 17d8 22160000 		.4byte	0x1622
 6027 17dc 1B       		.uleb128 0x1b
 6028 17dd 01       		.uleb128 0x1
 6029 17de 51       		.byte	0x51
 6030 17df 05       		.uleb128 0x5
 6031 17e0 03       		.byte	0x3
 6032 17e1 80010000 		.4byte	.LC31
 6033 17e5 00       		.byte	0
 6034 17e6 00       		.byte	0
 6035 17e7 32       		.uleb128 0x32
 6036 17e8 FC000000 		.4byte	.LASF96
 6037 17ec 01       		.byte	0x1
 6038 17ed 9101     		.2byte	0x191
 6039 17ef 00000000 		.4byte	.LFB89
 6040 17f3 A0000000 		.4byte	.LFE89-.LFB89
 6041 17f7 01       		.uleb128 0x1
 6042 17f8 9C       		.byte	0x9c
 6043 17f9 EF180000 		.4byte	0x18ef
 6044 17fd 19       		.uleb128 0x19
 6045 17fe 63747800 		.ascii	"ctx\000"
 6046 1802 01       		.byte	0x1
 6047 1803 9101     		.2byte	0x191
 6048 1805 A3020000 		.4byte	0x2a3
 6049 1809 13110000 		.4byte	.LLST107
 6050 180d 19       		.uleb128 0x19
 6051 180e 6500     		.ascii	"e\000"
 6052 1810 01       		.byte	0x1
 6053 1811 9101     		.2byte	0x191
 6054 1813 A9020000 		.4byte	0x2a9
 6055 1817 97110000 		.4byte	.LLST108
 6056 181b 1D       		.uleb128 0x1d
 6057 181c E4020000 		.4byte	0x2e4
 6058 1820 28000000 		.4byte	.LBB116
 6059 1824 16000000 		.4byte	.LBE116-.LBB116
 6060 1828 01       		.byte	0x1
 6061 1829 9801     		.2byte	0x198
ARM GAS  C:\Users\samue\AppData\Local\Temp\ccJDNHzo.s 			page 131


 6062 182b 52180000 		.4byte	0x1852
 6063 182f 1E       		.uleb128 0x1e
 6064 1830 FB020000 		.4byte	0x2fb
 6065 1834 1C120000 		.4byte	.LLST109
 6066 1838 1E       		.uleb128 0x1e
 6067 1839 F0020000 		.4byte	0x2f0
 6068 183d 3F120000 		.4byte	.LLST110
 6069 1841 1F       		.uleb128 0x1f
 6070 1842 36000000 		.4byte	.LVL328
 6071 1846 C81A0000 		.4byte	0x1ac8
 6072 184a 1B       		.uleb128 0x1b
 6073 184b 01       		.uleb128 0x1
 6074 184c 52       		.byte	0x52
 6075 184d 02       		.uleb128 0x2
 6076 184e 09       		.byte	0x9
 6077 184f FF       		.byte	0xff
 6078 1850 00       		.byte	0
 6079 1851 00       		.byte	0
 6080 1852 33       		.uleb128 0x33
 6081 1853 E4020000 		.4byte	0x2e4
 6082 1857 54000000 		.4byte	.LBB118
 6083 185b 60000000 		.4byte	.Ldebug_ranges0+0x60
 6084 185f 01       		.byte	0x1
 6085 1860 A101     		.2byte	0x1a1
 6086 1862 85180000 		.4byte	0x1885
 6087 1866 1E       		.uleb128 0x1e
 6088 1867 FB020000 		.4byte	0x2fb
 6089 186b 52120000 		.4byte	.LLST111
 6090 186f 20       		.uleb128 0x20
 6091 1870 F0020000 		.4byte	0x2f0
 6092 1874 1F       		.uleb128 0x1f
 6093 1875 62000000 		.4byte	.LVL332
 6094 1879 C81A0000 		.4byte	0x1ac8
 6095 187d 1B       		.uleb128 0x1b
 6096 187e 01       		.uleb128 0x1
 6097 187f 52       		.byte	0x52
 6098 1880 02       		.uleb128 0x2
 6099 1881 09       		.byte	0x9
 6100 1882 FF       		.byte	0xff
 6101 1883 00       		.byte	0
 6102 1884 00       		.byte	0
 6103 1885 28       		.uleb128 0x28
 6104 1886 18000000 		.4byte	.LVL323
 6105 188a 8A1B0000 		.4byte	0x1b8a
 6106 188e 9C180000 		.4byte	0x189c
 6107 1892 1B       		.uleb128 0x1b
 6108 1893 01       		.uleb128 0x1
 6109 1894 50       		.byte	0x50
 6110 1895 05       		.uleb128 0x5
 6111 1896 03       		.byte	0x3
 6112 1897 90010000 		.4byte	.LC33
 6113 189b 00       		.byte	0
 6114 189c 28       		.uleb128 0x28
 6115 189d 1E000000 		.4byte	.LVL324
 6116 18a1 AE0F0000 		.4byte	0xfae
 6117 18a5 B0180000 		.4byte	0x18b0
 6118 18a9 1B       		.uleb128 0x1b
ARM GAS  C:\Users\samue\AppData\Local\Temp\ccJDNHzo.s 			page 132


 6119 18aa 01       		.uleb128 0x1
 6120 18ab 50       		.byte	0x50
 6121 18ac 02       		.uleb128 0x2
 6122 18ad 75       		.byte	0x75
 6123 18ae 00       		.sleb128 0
 6124 18af 00       		.byte	0
 6125 18b0 28       		.uleb128 0x28
 6126 18b1 24000000 		.4byte	.LVL325
 6127 18b5 840D0000 		.4byte	0xd84
 6128 18b9 C4180000 		.4byte	0x18c4
 6129 18bd 1B       		.uleb128 0x1b
 6130 18be 01       		.uleb128 0x1
 6131 18bf 50       		.byte	0x50
 6132 18c0 02       		.uleb128 0x2
 6133 18c1 75       		.byte	0x75
 6134 18c2 00       		.sleb128 0
 6135 18c3 00       		.byte	0
 6136 18c4 28       		.uleb128 0x28
 6137 18c5 74000000 		.4byte	.LVL337
 6138 18c9 8A1B0000 		.4byte	0x1b8a
 6139 18cd DB180000 		.4byte	0x18db
 6140 18d1 1B       		.uleb128 0x1b
 6141 18d2 01       		.uleb128 0x1
 6142 18d3 50       		.byte	0x50
 6143 18d4 05       		.uleb128 0x5
 6144 18d5 03       		.byte	0x3
 6145 18d6 9C010000 		.4byte	.LC34
 6146 18da 00       		.byte	0
 6147 18db 1F       		.uleb128 0x1f
 6148 18dc 80000000 		.4byte	.LVL340
 6149 18e0 22160000 		.4byte	0x1622
 6150 18e4 1B       		.uleb128 0x1b
 6151 18e5 01       		.uleb128 0x1
 6152 18e6 51       		.byte	0x51
 6153 18e7 05       		.uleb128 0x5
 6154 18e8 03       		.byte	0x3
 6155 18e9 80010000 		.4byte	.LC31
 6156 18ed 00       		.byte	0
 6157 18ee 00       		.byte	0
 6158 18ef 32       		.uleb128 0x32
 6159 18f0 19020000 		.4byte	.LASF97
 6160 18f4 01       		.byte	0x1
 6161 18f5 D501     		.2byte	0x1d5
 6162 18f7 00000000 		.4byte	.LFB91
 6163 18fb 54000000 		.4byte	.LFE91-.LFB91
 6164 18ff 01       		.uleb128 0x1
 6165 1900 9C       		.byte	0x9c
 6166 1901 99190000 		.4byte	0x1999
 6167 1905 19       		.uleb128 0x19
 6168 1906 63747800 		.ascii	"ctx\000"
 6169 190a 01       		.byte	0x1
 6170 190b D501     		.2byte	0x1d5
 6171 190d A3020000 		.4byte	0x2a3
 6172 1911 70120000 		.4byte	.LLST112
 6173 1915 19       		.uleb128 0x19
 6174 1916 6500     		.ascii	"e\000"
 6175 1918 01       		.byte	0x1
ARM GAS  C:\Users\samue\AppData\Local\Temp\ccJDNHzo.s 			page 133


 6176 1919 D501     		.2byte	0x1d5
 6177 191b A9020000 		.4byte	0x2a9
 6178 191f B2120000 		.4byte	.LLST113
 6179 1923 1D       		.uleb128 0x1d
 6180 1924 E4020000 		.4byte	0x2e4
 6181 1928 1E000000 		.4byte	.LBB122
 6182 192c 16000000 		.4byte	.LBE122-.LBB122
 6183 1930 01       		.byte	0x1
 6184 1931 DB01     		.2byte	0x1db
 6185 1933 5A190000 		.4byte	0x195a
 6186 1937 1E       		.uleb128 0x1e
 6187 1938 FB020000 		.4byte	0x2fb
 6188 193c EC120000 		.4byte	.LLST114
 6189 1940 1E       		.uleb128 0x1e
 6190 1941 F0020000 		.4byte	0x2f0
 6191 1945 0F130000 		.4byte	.LLST115
 6192 1949 1F       		.uleb128 0x1f
 6193 194a 2C000000 		.4byte	.LVL348
 6194 194e C81A0000 		.4byte	0x1ac8
 6195 1952 1B       		.uleb128 0x1b
 6196 1953 01       		.uleb128 0x1
 6197 1954 52       		.byte	0x52
 6198 1955 02       		.uleb128 0x2
 6199 1956 09       		.byte	0x9
 6200 1957 FF       		.byte	0xff
 6201 1958 00       		.byte	0
 6202 1959 00       		.byte	0
 6203 195a 28       		.uleb128 0x28
 6204 195b 14000000 		.4byte	.LVL344
 6205 195f 8A1B0000 		.4byte	0x1b8a
 6206 1963 71190000 		.4byte	0x1971
 6207 1967 1B       		.uleb128 0x1b
 6208 1968 01       		.uleb128 0x1
 6209 1969 50       		.byte	0x50
 6210 196a 05       		.uleb128 0x5
 6211 196b 03       		.byte	0x3
 6212 196c D8010000 		.4byte	.LC36
 6213 1970 00       		.byte	0
 6214 1971 28       		.uleb128 0x28
 6215 1972 1A000000 		.4byte	.LVL345
 6216 1976 840D0000 		.4byte	0xd84
 6217 197a 85190000 		.4byte	0x1985
 6218 197e 1B       		.uleb128 0x1b
 6219 197f 01       		.uleb128 0x1
 6220 1980 50       		.byte	0x50
 6221 1981 02       		.uleb128 0x2
 6222 1982 75       		.byte	0x75
 6223 1983 00       		.sleb128 0
 6224 1984 00       		.byte	0
 6225 1985 1F       		.uleb128 0x1f
 6226 1986 3A000000 		.4byte	.LVL351
 6227 198a 22160000 		.4byte	0x1622
 6228 198e 1B       		.uleb128 0x1b
 6229 198f 01       		.uleb128 0x1
 6230 1990 51       		.byte	0x51
 6231 1991 05       		.uleb128 0x5
 6232 1992 03       		.byte	0x3
ARM GAS  C:\Users\samue\AppData\Local\Temp\ccJDNHzo.s 			page 134


 6233 1993 80010000 		.4byte	.LC31
 6234 1997 00       		.byte	0
 6235 1998 00       		.byte	0
 6236 1999 32       		.uleb128 0x32
 6237 199a 92030000 		.4byte	.LASF98
 6238 199e 01       		.byte	0x1
 6239 199f 8002     		.2byte	0x280
 6240 19a1 00000000 		.4byte	.LFB98
 6241 19a5 54000000 		.4byte	.LFE98-.LFB98
 6242 19a9 01       		.uleb128 0x1
 6243 19aa 9C       		.byte	0x9c
 6244 19ab 431A0000 		.4byte	0x1a43
 6245 19af 19       		.uleb128 0x19
 6246 19b0 63747800 		.ascii	"ctx\000"
 6247 19b4 01       		.byte	0x1
 6248 19b5 8002     		.2byte	0x280
 6249 19b7 A3020000 		.4byte	0x2a3
 6250 19bb 22130000 		.4byte	.LLST116
 6251 19bf 19       		.uleb128 0x19
 6252 19c0 6500     		.ascii	"e\000"
 6253 19c2 01       		.byte	0x1
 6254 19c3 8002     		.2byte	0x280
 6255 19c5 A9020000 		.4byte	0x2a9
 6256 19c9 64130000 		.4byte	.LLST117
 6257 19cd 1D       		.uleb128 0x1d
 6258 19ce E4020000 		.4byte	0x2e4
 6259 19d2 1E000000 		.4byte	.LBB124
 6260 19d6 16000000 		.4byte	.LBE124-.LBB124
 6261 19da 01       		.byte	0x1
 6262 19db 8602     		.2byte	0x286
 6263 19dd 041A0000 		.4byte	0x1a04
 6264 19e1 1E       		.uleb128 0x1e
 6265 19e2 FB020000 		.4byte	0x2fb
 6266 19e6 9E130000 		.4byte	.LLST118
 6267 19ea 1E       		.uleb128 0x1e
 6268 19eb F0020000 		.4byte	0x2f0
 6269 19ef C1130000 		.4byte	.LLST119
 6270 19f3 1F       		.uleb128 0x1f
 6271 19f4 2C000000 		.4byte	.LVL359
 6272 19f8 C81A0000 		.4byte	0x1ac8
 6273 19fc 1B       		.uleb128 0x1b
 6274 19fd 01       		.uleb128 0x1
 6275 19fe 52       		.byte	0x52
 6276 19ff 02       		.uleb128 0x2
 6277 1a00 09       		.byte	0x9
 6278 1a01 FF       		.byte	0xff
 6279 1a02 00       		.byte	0
 6280 1a03 00       		.byte	0
 6281 1a04 28       		.uleb128 0x28
 6282 1a05 14000000 		.4byte	.LVL355
 6283 1a09 8A1B0000 		.4byte	0x1b8a
 6284 1a0d 1B1A0000 		.4byte	0x1a1b
 6285 1a11 1B       		.uleb128 0x1b
 6286 1a12 01       		.uleb128 0x1
 6287 1a13 50       		.byte	0x50
 6288 1a14 05       		.uleb128 0x5
 6289 1a15 03       		.byte	0x3
ARM GAS  C:\Users\samue\AppData\Local\Temp\ccJDNHzo.s 			page 135


 6290 1a16 FC010000 		.4byte	.LC38
 6291 1a1a 00       		.byte	0
 6292 1a1b 28       		.uleb128 0x28
 6293 1a1c 1A000000 		.4byte	.LVL356
 6294 1a20 840D0000 		.4byte	0xd84
 6295 1a24 2F1A0000 		.4byte	0x1a2f
 6296 1a28 1B       		.uleb128 0x1b
 6297 1a29 01       		.uleb128 0x1
 6298 1a2a 50       		.byte	0x50
 6299 1a2b 02       		.uleb128 0x2
 6300 1a2c 75       		.byte	0x75
 6301 1a2d 00       		.sleb128 0
 6302 1a2e 00       		.byte	0
 6303 1a2f 1F       		.uleb128 0x1f
 6304 1a30 3A000000 		.4byte	.LVL362
 6305 1a34 22160000 		.4byte	0x1622
 6306 1a38 1B       		.uleb128 0x1b
 6307 1a39 01       		.uleb128 0x1
 6308 1a3a 51       		.byte	0x51
 6309 1a3b 05       		.uleb128 0x5
 6310 1a3c 03       		.byte	0x3
 6311 1a3d 0C020000 		.4byte	.LC39
 6312 1a41 00       		.byte	0
 6313 1a42 00       		.byte	0
 6314 1a43 32       		.uleb128 0x32
 6315 1a44 34000000 		.4byte	.LASF99
 6316 1a48 01       		.byte	0x1
 6317 1a49 7503     		.2byte	0x375
 6318 1a4b 00000000 		.4byte	.LFB103
 6319 1a4f 02000000 		.4byte	.LFE103-.LFB103
 6320 1a53 01       		.uleb128 0x1
 6321 1a54 9C       		.byte	0x9c
 6322 1a55 681A0000 		.4byte	0x1a68
 6323 1a59 37       		.uleb128 0x37
 6324 1a5a D6010000 		.4byte	.LASF100
 6325 1a5e 01       		.byte	0x1
 6326 1a5f 7503     		.2byte	0x375
 6327 1a61 2B010000 		.4byte	0x12b
 6328 1a65 01       		.uleb128 0x1
 6329 1a66 50       		.byte	0x50
 6330 1a67 00       		.byte	0
 6331 1a68 38       		.uleb128 0x38
 6332 1a69 52060000 		.4byte	.LASF101
 6333 1a6d 01       		.byte	0x1
 6334 1a6e 1B       		.byte	0x1b
 6335 1a6f 741A0000 		.4byte	0x1a74
 6336 1a73 20       		.byte	0x20
 6337 1a74 07       		.uleb128 0x7
 6338 1a75 7E000000 		.4byte	0x7e
 6339 1a79 39       		.uleb128 0x39
 6340 1a7a C7030000 		.4byte	.LASF102
 6341 1a7e 01       		.byte	0x1
 6342 1a7f E5       		.byte	0xe5
 6343 1a80 AF020000 		.4byte	0x2af
 6344 1a84 05       		.uleb128 0x5
 6345 1a85 03       		.byte	0x3
 6346 1a86 10000000 		.4byte	evEnter
ARM GAS  C:\Users\samue\AppData\Local\Temp\ccJDNHzo.s 			page 136


 6347 1a8a 39       		.uleb128 0x39
 6348 1a8b 67060000 		.4byte	.LASF103
 6349 1a8f 01       		.byte	0x1
 6350 1a90 E6       		.byte	0xe6
 6351 1a91 AF020000 		.4byte	0x2af
 6352 1a95 05       		.uleb128 0x5
 6353 1a96 03       		.byte	0x3
 6354 1a97 00000000 		.4byte	evExit
 6355 1a9b 3A       		.uleb128 0x3a
 6356 1a9c 5D000000 		.4byte	.LASF104
 6357 1aa0 09       		.byte	0x9
 6358 1aa1 2E       		.byte	0x2e
 6359 1aa2 A9000000 		.4byte	0xa9
 6360 1aa6 3B       		.uleb128 0x3b
 6361 1aa7 43010000 		.4byte	.LASF105
 6362 1aab 0A       		.byte	0xa
 6363 1aac 1207     		.2byte	0x712
 6364 1aae B21A0000 		.4byte	0x1ab2
 6365 1ab2 3C       		.uleb128 0x3c
 6366 1ab3 BF000000 		.4byte	0xbf
 6367 1ab7 3D       		.uleb128 0x3d
 6368 1ab8 FD030000 		.4byte	.LASF106
 6369 1abc 01       		.byte	0x1
 6370 1abd 73       		.byte	0x73
 6371 1abe CE010000 		.4byte	0x1ce
 6372 1ac2 05       		.uleb128 0x5
 6373 1ac3 03       		.byte	0x3
 6374 1ac4 00000000 		.4byte	EspSocketInstance
 6375 1ac8 3E       		.uleb128 0x3e
 6376 1ac9 74000000 		.4byte	.LASF107
 6377 1acd 74000000 		.4byte	.LASF107
 6378 1ad1 08       		.byte	0x8
 6379 1ad2 5F       		.byte	0x5f
 6380 1ad3 3F       		.uleb128 0x3f
 6381 1ad4 30030000 		.4byte	.LASF108
 6382 1ad8 30030000 		.4byte	.LASF108
 6383 1adc 0B       		.byte	0xb
 6384 1add 3E05     		.2byte	0x53e
 6385 1adf 3F       		.uleb128 0x3f
 6386 1ae0 0F040000 		.4byte	.LASF109
 6387 1ae4 0F040000 		.4byte	.LASF109
 6388 1ae8 0B       		.byte	0xb
 6389 1ae9 2803     		.2byte	0x328
 6390 1aeb 3F       		.uleb128 0x3f
 6391 1aec A6020000 		.4byte	.LASF110
 6392 1af0 A6020000 		.4byte	.LASF110
 6393 1af4 05       		.byte	0x5
 6394 1af5 8802     		.2byte	0x288
 6395 1af7 3E       		.uleb128 0x3e
 6396 1af8 28010000 		.4byte	.LASF111
 6397 1afc 28010000 		.4byte	.LASF111
 6398 1b00 0C       		.byte	0xc
 6399 1b01 26       		.byte	0x26
 6400 1b02 3F       		.uleb128 0x3f
 6401 1b03 06010000 		.4byte	.LASF112
 6402 1b07 06010000 		.4byte	.LASF112
 6403 1b0b 0B       		.byte	0xb
ARM GAS  C:\Users\samue\AppData\Local\Temp\ccJDNHzo.s 			page 137


 6404 1b0c ED02     		.2byte	0x2ed
 6405 1b0e 3E       		.uleb128 0x3e
 6406 1b0f 2F050000 		.4byte	.LASF113
 6407 1b13 2F050000 		.4byte	.LASF113
 6408 1b17 08       		.byte	0x8
 6409 1b18 60       		.byte	0x60
 6410 1b19 3E       		.uleb128 0x3e
 6411 1b1a DA020000 		.4byte	.LASF114
 6412 1b1e DA020000 		.4byte	.LASF114
 6413 1b22 08       		.byte	0x8
 6414 1b23 62       		.byte	0x62
 6415 1b24 3F       		.uleb128 0x3f
 6416 1b25 86020000 		.4byte	.LASF115
 6417 1b29 86020000 		.4byte	.LASF115
 6418 1b2d 05       		.byte	0x5
 6419 1b2e 8805     		.2byte	0x588
 6420 1b30 3F       		.uleb128 0x3f
 6421 1b31 EB020000 		.4byte	.LASF116
 6422 1b35 EB020000 		.4byte	.LASF116
 6423 1b39 05       		.byte	0x5
 6424 1b3a 6203     		.2byte	0x362
 6425 1b3c 40       		.uleb128 0x40
 6426 1b3d 26060000 		.4byte	.LASF133
 6427 1b41 26060000 		.4byte	.LASF133
 6428 1b45 3F       		.uleb128 0x3f
 6429 1b46 8D040000 		.4byte	.LASF117
 6430 1b4a 8D040000 		.4byte	.LASF117
 6431 1b4e 05       		.byte	0x5
 6432 1b4f D605     		.2byte	0x5d6
 6433 1b51 3F       		.uleb128 0x3f
 6434 1b52 00030000 		.4byte	.LASF118
 6435 1b56 00030000 		.4byte	.LASF118
 6436 1b5a 05       		.byte	0x5
 6437 1b5b 8405     		.2byte	0x584
 6438 1b5d 3E       		.uleb128 0x3e
 6439 1b5e 76040000 		.4byte	.LASF119
 6440 1b62 76040000 		.4byte	.LASF119
 6441 1b66 08       		.byte	0x8
 6442 1b67 5B       		.byte	0x5b
 6443 1b68 3E       		.uleb128 0x3e
 6444 1b69 29030000 		.4byte	.LASF120
 6445 1b6d 29030000 		.4byte	.LASF120
 6446 1b71 0D       		.byte	0xd
 6447 1b72 1E       		.byte	0x1e
 6448 1b73 3F       		.uleb128 0x3f
 6449 1b74 7B030000 		.4byte	.LASF121
 6450 1b78 7B030000 		.4byte	.LASF121
 6451 1b7c 0B       		.byte	0xb
 6452 1b7d 4101     		.2byte	0x141
 6453 1b7f 3E       		.uleb128 0x3e
 6454 1b80 56010000 		.4byte	.LASF122
 6455 1b84 56010000 		.4byte	.LASF122
 6456 1b88 08       		.byte	0x8
 6457 1b89 5E       		.byte	0x5e
 6458 1b8a 41       		.uleb128 0x41
 6459 1b8b 54030000 		.4byte	.LASF134
 6460 1b8f 65010000 		.4byte	.LASF135
ARM GAS  C:\Users\samue\AppData\Local\Temp\ccJDNHzo.s 			page 138


 6461 1b93 10       		.byte	0x10
 6462 1b94 00       		.byte	0
 6463 1b95 54030000 		.4byte	.LASF134
 6464 1b99 3E       		.uleb128 0x3e
 6465 1b9a 2D040000 		.4byte	.LASF123
 6466 1b9e 2D040000 		.4byte	.LASF123
 6467 1ba2 0E       		.byte	0xe
 6468 1ba3 4D       		.byte	0x4d
 6469 1ba4 3E       		.uleb128 0x3e
 6470 1ba5 83000000 		.4byte	.LASF124
 6471 1ba9 83000000 		.4byte	.LASF124
 6472 1bad 0D       		.byte	0xd
 6473 1bae 28       		.byte	0x28
 6474 1baf 3E       		.uleb128 0x3e
 6475 1bb0 00000000 		.4byte	.LASF125
 6476 1bb4 00000000 		.4byte	.LASF125
 6477 1bb8 0F       		.byte	0xf
 6478 1bb9 BB       		.byte	0xbb
 6479 1bba 3E       		.uleb128 0x3e
 6480 1bbb F9020000 		.4byte	.LASF126
 6481 1bbf F9020000 		.4byte	.LASF126
 6482 1bc3 0D       		.byte	0xd
 6483 1bc4 21       		.byte	0x21
 6484 1bc5 3E       		.uleb128 0x3e
 6485 1bc6 42060000 		.4byte	.LASF127
 6486 1bca 42060000 		.4byte	.LASF127
 6487 1bce 0D       		.byte	0xd
 6488 1bcf 18       		.byte	0x18
 6489 1bd0 00       		.byte	0
 6490              		.section	.debug_abbrev,"",%progbits
 6491              	.Ldebug_abbrev0:
 6492 0000 01       		.uleb128 0x1
 6493 0001 11       		.uleb128 0x11
 6494 0002 01       		.byte	0x1
 6495 0003 25       		.uleb128 0x25
 6496 0004 0E       		.uleb128 0xe
 6497 0005 13       		.uleb128 0x13
 6498 0006 0B       		.uleb128 0xb
 6499 0007 03       		.uleb128 0x3
 6500 0008 0E       		.uleb128 0xe
 6501 0009 1B       		.uleb128 0x1b
 6502 000a 0E       		.uleb128 0xe
 6503 000b 55       		.uleb128 0x55
 6504 000c 17       		.uleb128 0x17
 6505 000d 11       		.uleb128 0x11
 6506 000e 01       		.uleb128 0x1
 6507 000f 10       		.uleb128 0x10
 6508 0010 17       		.uleb128 0x17
 6509 0011 00       		.byte	0
 6510 0012 00       		.byte	0
 6511 0013 02       		.uleb128 0x2
 6512 0014 24       		.uleb128 0x24
 6513 0015 00       		.byte	0
 6514 0016 0B       		.uleb128 0xb
 6515 0017 0B       		.uleb128 0xb
 6516 0018 3E       		.uleb128 0x3e
 6517 0019 0B       		.uleb128 0xb
ARM GAS  C:\Users\samue\AppData\Local\Temp\ccJDNHzo.s 			page 139


 6518 001a 03       		.uleb128 0x3
 6519 001b 0E       		.uleb128 0xe
 6520 001c 00       		.byte	0
 6521 001d 00       		.byte	0
 6522 001e 03       		.uleb128 0x3
 6523 001f 16       		.uleb128 0x16
 6524 0020 00       		.byte	0
 6525 0021 03       		.uleb128 0x3
 6526 0022 0E       		.uleb128 0xe
 6527 0023 3A       		.uleb128 0x3a
 6528 0024 0B       		.uleb128 0xb
 6529 0025 3B       		.uleb128 0x3b
 6530 0026 0B       		.uleb128 0xb
 6531 0027 49       		.uleb128 0x49
 6532 0028 13       		.uleb128 0x13
 6533 0029 00       		.byte	0
 6534 002a 00       		.byte	0
 6535 002b 04       		.uleb128 0x4
 6536 002c 24       		.uleb128 0x24
 6537 002d 00       		.byte	0
 6538 002e 0B       		.uleb128 0xb
 6539 002f 0B       		.uleb128 0xb
 6540 0030 3E       		.uleb128 0x3e
 6541 0031 0B       		.uleb128 0xb
 6542 0032 03       		.uleb128 0x3
 6543 0033 08       		.uleb128 0x8
 6544 0034 00       		.byte	0
 6545 0035 00       		.byte	0
 6546 0036 05       		.uleb128 0x5
 6547 0037 0F       		.uleb128 0xf
 6548 0038 00       		.byte	0
 6549 0039 0B       		.uleb128 0xb
 6550 003a 0B       		.uleb128 0xb
 6551 003b 00       		.byte	0
 6552 003c 00       		.byte	0
 6553 003d 06       		.uleb128 0x6
 6554 003e 0F       		.uleb128 0xf
 6555 003f 00       		.byte	0
 6556 0040 0B       		.uleb128 0xb
 6557 0041 0B       		.uleb128 0xb
 6558 0042 49       		.uleb128 0x49
 6559 0043 13       		.uleb128 0x13
 6560 0044 00       		.byte	0
 6561 0045 00       		.byte	0
 6562 0046 07       		.uleb128 0x7
 6563 0047 26       		.uleb128 0x26
 6564 0048 00       		.byte	0
 6565 0049 49       		.uleb128 0x49
 6566 004a 13       		.uleb128 0x13
 6567 004b 00       		.byte	0
 6568 004c 00       		.byte	0
 6569 004d 08       		.uleb128 0x8
 6570 004e 15       		.uleb128 0x15
 6571 004f 01       		.byte	0x1
 6572 0050 27       		.uleb128 0x27
 6573 0051 19       		.uleb128 0x19
 6574 0052 01       		.uleb128 0x1
ARM GAS  C:\Users\samue\AppData\Local\Temp\ccJDNHzo.s 			page 140


 6575 0053 13       		.uleb128 0x13
 6576 0054 00       		.byte	0
 6577 0055 00       		.byte	0
 6578 0056 09       		.uleb128 0x9
 6579 0057 05       		.uleb128 0x5
 6580 0058 00       		.byte	0
 6581 0059 49       		.uleb128 0x49
 6582 005a 13       		.uleb128 0x13
 6583 005b 00       		.byte	0
 6584 005c 00       		.byte	0
 6585 005d 0A       		.uleb128 0xa
 6586 005e 04       		.uleb128 0x4
 6587 005f 01       		.byte	0x1
 6588 0060 03       		.uleb128 0x3
 6589 0061 0E       		.uleb128 0xe
 6590 0062 0B       		.uleb128 0xb
 6591 0063 0B       		.uleb128 0xb
 6592 0064 49       		.uleb128 0x49
 6593 0065 13       		.uleb128 0x13
 6594 0066 3A       		.uleb128 0x3a
 6595 0067 0B       		.uleb128 0xb
 6596 0068 3B       		.uleb128 0x3b
 6597 0069 0B       		.uleb128 0xb
 6598 006a 01       		.uleb128 0x1
 6599 006b 13       		.uleb128 0x13
 6600 006c 00       		.byte	0
 6601 006d 00       		.byte	0
 6602 006e 0B       		.uleb128 0xb
 6603 006f 28       		.uleb128 0x28
 6604 0070 00       		.byte	0
 6605 0071 03       		.uleb128 0x3
 6606 0072 0E       		.uleb128 0xe
 6607 0073 1C       		.uleb128 0x1c
 6608 0074 0B       		.uleb128 0xb
 6609 0075 00       		.byte	0
 6610 0076 00       		.byte	0
 6611 0077 0C       		.uleb128 0xc
 6612 0078 13       		.uleb128 0x13
 6613 0079 01       		.byte	0x1
 6614 007a 03       		.uleb128 0x3
 6615 007b 0E       		.uleb128 0xe
 6616 007c 0B       		.uleb128 0xb
 6617 007d 0B       		.uleb128 0xb
 6618 007e 3A       		.uleb128 0x3a
 6619 007f 0B       		.uleb128 0xb
 6620 0080 3B       		.uleb128 0x3b
 6621 0081 0B       		.uleb128 0xb
 6622 0082 01       		.uleb128 0x1
 6623 0083 13       		.uleb128 0x13
 6624 0084 00       		.byte	0
 6625 0085 00       		.byte	0
 6626 0086 0D       		.uleb128 0xd
 6627 0087 0D       		.uleb128 0xd
 6628 0088 00       		.byte	0
 6629 0089 03       		.uleb128 0x3
 6630 008a 08       		.uleb128 0x8
 6631 008b 3A       		.uleb128 0x3a
ARM GAS  C:\Users\samue\AppData\Local\Temp\ccJDNHzo.s 			page 141


 6632 008c 0B       		.uleb128 0xb
 6633 008d 3B       		.uleb128 0x3b
 6634 008e 0B       		.uleb128 0xb
 6635 008f 49       		.uleb128 0x49
 6636 0090 13       		.uleb128 0x13
 6637 0091 38       		.uleb128 0x38
 6638 0092 0B       		.uleb128 0xb
 6639 0093 00       		.byte	0
 6640 0094 00       		.byte	0
 6641 0095 0E       		.uleb128 0xe
 6642 0096 0D       		.uleb128 0xd
 6643 0097 00       		.byte	0
 6644 0098 03       		.uleb128 0x3
 6645 0099 0E       		.uleb128 0xe
 6646 009a 3A       		.uleb128 0x3a
 6647 009b 0B       		.uleb128 0xb
 6648 009c 3B       		.uleb128 0x3b
 6649 009d 0B       		.uleb128 0xb
 6650 009e 49       		.uleb128 0x49
 6651 009f 13       		.uleb128 0x13
 6652 00a0 38       		.uleb128 0x38
 6653 00a1 0B       		.uleb128 0xb
 6654 00a2 00       		.byte	0
 6655 00a3 00       		.byte	0
 6656 00a4 0F       		.uleb128 0xf
 6657 00a5 16       		.uleb128 0x16
 6658 00a6 00       		.byte	0
 6659 00a7 03       		.uleb128 0x3
 6660 00a8 08       		.uleb128 0x8
 6661 00a9 3A       		.uleb128 0x3a
 6662 00aa 0B       		.uleb128 0xb
 6663 00ab 3B       		.uleb128 0x3b
 6664 00ac 0B       		.uleb128 0xb
 6665 00ad 49       		.uleb128 0x49
 6666 00ae 13       		.uleb128 0x13
 6667 00af 00       		.byte	0
 6668 00b0 00       		.byte	0
 6669 00b1 10       		.uleb128 0x10
 6670 00b2 01       		.uleb128 0x1
 6671 00b3 01       		.byte	0x1
 6672 00b4 49       		.uleb128 0x49
 6673 00b5 13       		.uleb128 0x13
 6674 00b6 01       		.uleb128 0x1
 6675 00b7 13       		.uleb128 0x13
 6676 00b8 00       		.byte	0
 6677 00b9 00       		.byte	0
 6678 00ba 11       		.uleb128 0x11
 6679 00bb 21       		.uleb128 0x21
 6680 00bc 00       		.byte	0
 6681 00bd 49       		.uleb128 0x49
 6682 00be 13       		.uleb128 0x13
 6683 00bf 2F       		.uleb128 0x2f
 6684 00c0 0B       		.uleb128 0xb
 6685 00c1 00       		.byte	0
 6686 00c2 00       		.byte	0
 6687 00c3 12       		.uleb128 0x12
 6688 00c4 2E       		.uleb128 0x2e
ARM GAS  C:\Users\samue\AppData\Local\Temp\ccJDNHzo.s 			page 142


 6689 00c5 01       		.byte	0x1
 6690 00c6 03       		.uleb128 0x3
 6691 00c7 0E       		.uleb128 0xe
 6692 00c8 3A       		.uleb128 0x3a
 6693 00c9 0B       		.uleb128 0xb
 6694 00ca 3B       		.uleb128 0x3b
 6695 00cb 0B       		.uleb128 0xb
 6696 00cc 27       		.uleb128 0x27
 6697 00cd 19       		.uleb128 0x19
 6698 00ce 20       		.uleb128 0x20
 6699 00cf 0B       		.uleb128 0xb
 6700 00d0 01       		.uleb128 0x1
 6701 00d1 13       		.uleb128 0x13
 6702 00d2 00       		.byte	0
 6703 00d3 00       		.byte	0
 6704 00d4 13       		.uleb128 0x13
 6705 00d5 05       		.uleb128 0x5
 6706 00d6 00       		.byte	0
 6707 00d7 03       		.uleb128 0x3
 6708 00d8 08       		.uleb128 0x8
 6709 00d9 3A       		.uleb128 0x3a
 6710 00da 0B       		.uleb128 0xb
 6711 00db 3B       		.uleb128 0x3b
 6712 00dc 0B       		.uleb128 0xb
 6713 00dd 49       		.uleb128 0x49
 6714 00de 13       		.uleb128 0x13
 6715 00df 00       		.byte	0
 6716 00e0 00       		.byte	0
 6717 00e1 14       		.uleb128 0x14
 6718 00e2 2E       		.uleb128 0x2e
 6719 00e3 01       		.byte	0x1
 6720 00e4 03       		.uleb128 0x3
 6721 00e5 0E       		.uleb128 0xe
 6722 00e6 3A       		.uleb128 0x3a
 6723 00e7 0B       		.uleb128 0xb
 6724 00e8 3B       		.uleb128 0x3b
 6725 00e9 0B       		.uleb128 0xb
 6726 00ea 27       		.uleb128 0x27
 6727 00eb 19       		.uleb128 0x19
 6728 00ec 49       		.uleb128 0x49
 6729 00ed 13       		.uleb128 0x13
 6730 00ee 20       		.uleb128 0x20
 6731 00ef 0B       		.uleb128 0xb
 6732 00f0 01       		.uleb128 0x1
 6733 00f1 13       		.uleb128 0x13
 6734 00f2 00       		.byte	0
 6735 00f3 00       		.byte	0
 6736 00f4 15       		.uleb128 0x15
 6737 00f5 2E       		.uleb128 0x2e
 6738 00f6 01       		.byte	0x1
 6739 00f7 03       		.uleb128 0x3
 6740 00f8 0E       		.uleb128 0xe
 6741 00f9 3A       		.uleb128 0x3a
 6742 00fa 0B       		.uleb128 0xb
 6743 00fb 3B       		.uleb128 0x3b
 6744 00fc 0B       		.uleb128 0xb
 6745 00fd 27       		.uleb128 0x27
ARM GAS  C:\Users\samue\AppData\Local\Temp\ccJDNHzo.s 			page 143


 6746 00fe 19       		.uleb128 0x19
 6747 00ff 11       		.uleb128 0x11
 6748 0100 01       		.uleb128 0x1
 6749 0101 12       		.uleb128 0x12
 6750 0102 06       		.uleb128 0x6
 6751 0103 40       		.uleb128 0x40
 6752 0104 18       		.uleb128 0x18
 6753 0105 9742     		.uleb128 0x2117
 6754 0107 19       		.uleb128 0x19
 6755 0108 01       		.uleb128 0x1
 6756 0109 13       		.uleb128 0x13
 6757 010a 00       		.byte	0
 6758 010b 00       		.byte	0
 6759 010c 16       		.uleb128 0x16
 6760 010d 05       		.uleb128 0x5
 6761 010e 00       		.byte	0
 6762 010f 03       		.uleb128 0x3
 6763 0110 08       		.uleb128 0x8
 6764 0111 3A       		.uleb128 0x3a
 6765 0112 0B       		.uleb128 0xb
 6766 0113 3B       		.uleb128 0x3b
 6767 0114 0B       		.uleb128 0xb
 6768 0115 49       		.uleb128 0x49
 6769 0116 13       		.uleb128 0x13
 6770 0117 02       		.uleb128 0x2
 6771 0118 17       		.uleb128 0x17
 6772 0119 00       		.byte	0
 6773 011a 00       		.byte	0
 6774 011b 17       		.uleb128 0x17
 6775 011c 34       		.uleb128 0x34
 6776 011d 00       		.byte	0
 6777 011e 03       		.uleb128 0x3
 6778 011f 08       		.uleb128 0x8
 6779 0120 3A       		.uleb128 0x3a
 6780 0121 0B       		.uleb128 0xb
 6781 0122 3B       		.uleb128 0x3b
 6782 0123 0B       		.uleb128 0xb
 6783 0124 49       		.uleb128 0x49
 6784 0125 13       		.uleb128 0x13
 6785 0126 02       		.uleb128 0x2
 6786 0127 17       		.uleb128 0x17
 6787 0128 00       		.byte	0
 6788 0129 00       		.byte	0
 6789 012a 18       		.uleb128 0x18
 6790 012b 2E       		.uleb128 0x2e
 6791 012c 01       		.byte	0x1
 6792 012d 03       		.uleb128 0x3
 6793 012e 0E       		.uleb128 0xe
 6794 012f 3A       		.uleb128 0x3a
 6795 0130 0B       		.uleb128 0xb
 6796 0131 3B       		.uleb128 0x3b
 6797 0132 05       		.uleb128 0x5
 6798 0133 27       		.uleb128 0x27
 6799 0134 19       		.uleb128 0x19
 6800 0135 11       		.uleb128 0x11
 6801 0136 01       		.uleb128 0x1
 6802 0137 12       		.uleb128 0x12
ARM GAS  C:\Users\samue\AppData\Local\Temp\ccJDNHzo.s 			page 144


 6803 0138 06       		.uleb128 0x6
 6804 0139 40       		.uleb128 0x40
 6805 013a 18       		.uleb128 0x18
 6806 013b 9742     		.uleb128 0x2117
 6807 013d 19       		.uleb128 0x19
 6808 013e 01       		.uleb128 0x1
 6809 013f 13       		.uleb128 0x13
 6810 0140 00       		.byte	0
 6811 0141 00       		.byte	0
 6812 0142 19       		.uleb128 0x19
 6813 0143 05       		.uleb128 0x5
 6814 0144 00       		.byte	0
 6815 0145 03       		.uleb128 0x3
 6816 0146 08       		.uleb128 0x8
 6817 0147 3A       		.uleb128 0x3a
 6818 0148 0B       		.uleb128 0xb
 6819 0149 3B       		.uleb128 0x3b
 6820 014a 05       		.uleb128 0x5
 6821 014b 49       		.uleb128 0x49
 6822 014c 13       		.uleb128 0x13
 6823 014d 02       		.uleb128 0x2
 6824 014e 17       		.uleb128 0x17
 6825 014f 00       		.byte	0
 6826 0150 00       		.byte	0
 6827 0151 1A       		.uleb128 0x1a
 6828 0152 898201   		.uleb128 0x4109
 6829 0155 01       		.byte	0x1
 6830 0156 11       		.uleb128 0x11
 6831 0157 01       		.uleb128 0x1
 6832 0158 01       		.uleb128 0x1
 6833 0159 13       		.uleb128 0x13
 6834 015a 00       		.byte	0
 6835 015b 00       		.byte	0
 6836 015c 1B       		.uleb128 0x1b
 6837 015d 8A8201   		.uleb128 0x410a
 6838 0160 00       		.byte	0
 6839 0161 02       		.uleb128 0x2
 6840 0162 18       		.uleb128 0x18
 6841 0163 9142     		.uleb128 0x2111
 6842 0165 18       		.uleb128 0x18
 6843 0166 00       		.byte	0
 6844 0167 00       		.byte	0
 6845 0168 1C       		.uleb128 0x1c
 6846 0169 898201   		.uleb128 0x4109
 6847 016c 01       		.byte	0x1
 6848 016d 11       		.uleb128 0x11
 6849 016e 01       		.uleb128 0x1
 6850 016f 00       		.byte	0
 6851 0170 00       		.byte	0
 6852 0171 1D       		.uleb128 0x1d
 6853 0172 1D       		.uleb128 0x1d
 6854 0173 01       		.byte	0x1
 6855 0174 31       		.uleb128 0x31
 6856 0175 13       		.uleb128 0x13
 6857 0176 11       		.uleb128 0x11
 6858 0177 01       		.uleb128 0x1
 6859 0178 12       		.uleb128 0x12
ARM GAS  C:\Users\samue\AppData\Local\Temp\ccJDNHzo.s 			page 145


 6860 0179 06       		.uleb128 0x6
 6861 017a 58       		.uleb128 0x58
 6862 017b 0B       		.uleb128 0xb
 6863 017c 59       		.uleb128 0x59
 6864 017d 05       		.uleb128 0x5
 6865 017e 01       		.uleb128 0x1
 6866 017f 13       		.uleb128 0x13
 6867 0180 00       		.byte	0
 6868 0181 00       		.byte	0
 6869 0182 1E       		.uleb128 0x1e
 6870 0183 05       		.uleb128 0x5
 6871 0184 00       		.byte	0
 6872 0185 31       		.uleb128 0x31
 6873 0186 13       		.uleb128 0x13
 6874 0187 02       		.uleb128 0x2
 6875 0188 17       		.uleb128 0x17
 6876 0189 00       		.byte	0
 6877 018a 00       		.byte	0
 6878 018b 1F       		.uleb128 0x1f
 6879 018c 898201   		.uleb128 0x4109
 6880 018f 01       		.byte	0x1
 6881 0190 11       		.uleb128 0x11
 6882 0191 01       		.uleb128 0x1
 6883 0192 31       		.uleb128 0x31
 6884 0193 13       		.uleb128 0x13
 6885 0194 00       		.byte	0
 6886 0195 00       		.byte	0
 6887 0196 20       		.uleb128 0x20
 6888 0197 05       		.uleb128 0x5
 6889 0198 00       		.byte	0
 6890 0199 31       		.uleb128 0x31
 6891 019a 13       		.uleb128 0x13
 6892 019b 00       		.byte	0
 6893 019c 00       		.byte	0
 6894 019d 21       		.uleb128 0x21
 6895 019e 1D       		.uleb128 0x1d
 6896 019f 01       		.byte	0x1
 6897 01a0 31       		.uleb128 0x31
 6898 01a1 13       		.uleb128 0x13
 6899 01a2 11       		.uleb128 0x11
 6900 01a3 01       		.uleb128 0x1
 6901 01a4 12       		.uleb128 0x12
 6902 01a5 06       		.uleb128 0x6
 6903 01a6 58       		.uleb128 0x58
 6904 01a7 0B       		.uleb128 0xb
 6905 01a8 59       		.uleb128 0x59
 6906 01a9 05       		.uleb128 0x5
 6907 01aa 00       		.byte	0
 6908 01ab 00       		.byte	0
 6909 01ac 22       		.uleb128 0x22
 6910 01ad 2E       		.uleb128 0x2e
 6911 01ae 01       		.byte	0x1
 6912 01af 3F       		.uleb128 0x3f
 6913 01b0 19       		.uleb128 0x19
 6914 01b1 03       		.uleb128 0x3
 6915 01b2 0E       		.uleb128 0xe
 6916 01b3 3A       		.uleb128 0x3a
ARM GAS  C:\Users\samue\AppData\Local\Temp\ccJDNHzo.s 			page 146


 6917 01b4 0B       		.uleb128 0xb
 6918 01b5 3B       		.uleb128 0x3b
 6919 01b6 05       		.uleb128 0x5
 6920 01b7 27       		.uleb128 0x27
 6921 01b8 19       		.uleb128 0x19
 6922 01b9 8701     		.uleb128 0x87
 6923 01bb 19       		.uleb128 0x19
 6924 01bc 11       		.uleb128 0x11
 6925 01bd 01       		.uleb128 0x1
 6926 01be 12       		.uleb128 0x12
 6927 01bf 06       		.uleb128 0x6
 6928 01c0 40       		.uleb128 0x40
 6929 01c1 18       		.uleb128 0x18
 6930 01c2 9742     		.uleb128 0x2117
 6931 01c4 19       		.uleb128 0x19
 6932 01c5 01       		.uleb128 0x1
 6933 01c6 13       		.uleb128 0x13
 6934 01c7 00       		.byte	0
 6935 01c8 00       		.byte	0
 6936 01c9 23       		.uleb128 0x23
 6937 01ca 05       		.uleb128 0x5
 6938 01cb 00       		.byte	0
 6939 01cc 03       		.uleb128 0x3
 6940 01cd 0E       		.uleb128 0xe
 6941 01ce 3A       		.uleb128 0x3a
 6942 01cf 0B       		.uleb128 0xb
 6943 01d0 3B       		.uleb128 0x3b
 6944 01d1 05       		.uleb128 0x5
 6945 01d2 49       		.uleb128 0x49
 6946 01d3 13       		.uleb128 0x13
 6947 01d4 02       		.uleb128 0x2
 6948 01d5 17       		.uleb128 0x17
 6949 01d6 00       		.byte	0
 6950 01d7 00       		.byte	0
 6951 01d8 24       		.uleb128 0x24
 6952 01d9 34       		.uleb128 0x34
 6953 01da 00       		.byte	0
 6954 01db 03       		.uleb128 0x3
 6955 01dc 08       		.uleb128 0x8
 6956 01dd 3A       		.uleb128 0x3a
 6957 01de 0B       		.uleb128 0xb
 6958 01df 3B       		.uleb128 0x3b
 6959 01e0 05       		.uleb128 0x5
 6960 01e1 49       		.uleb128 0x49
 6961 01e2 13       		.uleb128 0x13
 6962 01e3 02       		.uleb128 0x2
 6963 01e4 18       		.uleb128 0x18
 6964 01e5 00       		.byte	0
 6965 01e6 00       		.byte	0
 6966 01e7 25       		.uleb128 0x25
 6967 01e8 34       		.uleb128 0x34
 6968 01e9 00       		.byte	0
 6969 01ea 03       		.uleb128 0x3
 6970 01eb 0E       		.uleb128 0xe
 6971 01ec 3A       		.uleb128 0x3a
 6972 01ed 0B       		.uleb128 0xb
 6973 01ee 3B       		.uleb128 0x3b
ARM GAS  C:\Users\samue\AppData\Local\Temp\ccJDNHzo.s 			page 147


 6974 01ef 05       		.uleb128 0x5
 6975 01f0 49       		.uleb128 0x49
 6976 01f1 13       		.uleb128 0x13
 6977 01f2 02       		.uleb128 0x2
 6978 01f3 18       		.uleb128 0x18
 6979 01f4 00       		.byte	0
 6980 01f5 00       		.byte	0
 6981 01f6 26       		.uleb128 0x26
 6982 01f7 34       		.uleb128 0x34
 6983 01f8 00       		.byte	0
 6984 01f9 03       		.uleb128 0x3
 6985 01fa 0E       		.uleb128 0xe
 6986 01fb 3A       		.uleb128 0x3a
 6987 01fc 0B       		.uleb128 0xb
 6988 01fd 3B       		.uleb128 0x3b
 6989 01fe 05       		.uleb128 0x5
 6990 01ff 49       		.uleb128 0x49
 6991 0200 13       		.uleb128 0x13
 6992 0201 1C       		.uleb128 0x1c
 6993 0202 0B       		.uleb128 0xb
 6994 0203 00       		.byte	0
 6995 0204 00       		.byte	0
 6996 0205 27       		.uleb128 0x27
 6997 0206 898201   		.uleb128 0x4109
 6998 0209 00       		.byte	0
 6999 020a 11       		.uleb128 0x11
 7000 020b 01       		.uleb128 0x1
 7001 020c 31       		.uleb128 0x31
 7002 020d 13       		.uleb128 0x13
 7003 020e 00       		.byte	0
 7004 020f 00       		.byte	0
 7005 0210 28       		.uleb128 0x28
 7006 0211 898201   		.uleb128 0x4109
 7007 0214 01       		.byte	0x1
 7008 0215 11       		.uleb128 0x11
 7009 0216 01       		.uleb128 0x1
 7010 0217 31       		.uleb128 0x31
 7011 0218 13       		.uleb128 0x13
 7012 0219 01       		.uleb128 0x1
 7013 021a 13       		.uleb128 0x13
 7014 021b 00       		.byte	0
 7015 021c 00       		.byte	0
 7016 021d 29       		.uleb128 0x29
 7017 021e 34       		.uleb128 0x34
 7018 021f 00       		.byte	0
 7019 0220 03       		.uleb128 0x3
 7020 0221 08       		.uleb128 0x8
 7021 0222 3A       		.uleb128 0x3a
 7022 0223 0B       		.uleb128 0xb
 7023 0224 3B       		.uleb128 0x3b
 7024 0225 05       		.uleb128 0x5
 7025 0226 49       		.uleb128 0x49
 7026 0227 13       		.uleb128 0x13
 7027 0228 02       		.uleb128 0x2
 7028 0229 17       		.uleb128 0x17
 7029 022a 00       		.byte	0
 7030 022b 00       		.byte	0
ARM GAS  C:\Users\samue\AppData\Local\Temp\ccJDNHzo.s 			page 148


 7031 022c 2A       		.uleb128 0x2a
 7032 022d 2E       		.uleb128 0x2e
 7033 022e 01       		.byte	0x1
 7034 022f 3F       		.uleb128 0x3f
 7035 0230 19       		.uleb128 0x19
 7036 0231 03       		.uleb128 0x3
 7037 0232 0E       		.uleb128 0xe
 7038 0233 3A       		.uleb128 0x3a
 7039 0234 0B       		.uleb128 0xb
 7040 0235 3B       		.uleb128 0x3b
 7041 0236 0B       		.uleb128 0xb
 7042 0237 27       		.uleb128 0x27
 7043 0238 19       		.uleb128 0x19
 7044 0239 11       		.uleb128 0x11
 7045 023a 01       		.uleb128 0x1
 7046 023b 12       		.uleb128 0x12
 7047 023c 06       		.uleb128 0x6
 7048 023d 40       		.uleb128 0x40
 7049 023e 18       		.uleb128 0x18
 7050 023f 9742     		.uleb128 0x2117
 7051 0241 19       		.uleb128 0x19
 7052 0242 01       		.uleb128 0x1
 7053 0243 13       		.uleb128 0x13
 7054 0244 00       		.byte	0
 7055 0245 00       		.byte	0
 7056 0246 2B       		.uleb128 0x2b
 7057 0247 2E       		.uleb128 0x2e
 7058 0248 01       		.byte	0x1
 7059 0249 3F       		.uleb128 0x3f
 7060 024a 19       		.uleb128 0x19
 7061 024b 03       		.uleb128 0x3
 7062 024c 0E       		.uleb128 0xe
 7063 024d 3A       		.uleb128 0x3a
 7064 024e 0B       		.uleb128 0xb
 7065 024f 3B       		.uleb128 0x3b
 7066 0250 0B       		.uleb128 0xb
 7067 0251 27       		.uleb128 0x27
 7068 0252 19       		.uleb128 0x19
 7069 0253 49       		.uleb128 0x49
 7070 0254 13       		.uleb128 0x13
 7071 0255 11       		.uleb128 0x11
 7072 0256 01       		.uleb128 0x1
 7073 0257 12       		.uleb128 0x12
 7074 0258 06       		.uleb128 0x6
 7075 0259 40       		.uleb128 0x40
 7076 025a 18       		.uleb128 0x18
 7077 025b 9742     		.uleb128 0x2117
 7078 025d 19       		.uleb128 0x19
 7079 025e 01       		.uleb128 0x1
 7080 025f 13       		.uleb128 0x13
 7081 0260 00       		.byte	0
 7082 0261 00       		.byte	0
 7083 0262 2C       		.uleb128 0x2c
 7084 0263 05       		.uleb128 0x5
 7085 0264 00       		.byte	0
 7086 0265 03       		.uleb128 0x3
 7087 0266 0E       		.uleb128 0xe
ARM GAS  C:\Users\samue\AppData\Local\Temp\ccJDNHzo.s 			page 149


 7088 0267 3A       		.uleb128 0x3a
 7089 0268 0B       		.uleb128 0xb
 7090 0269 3B       		.uleb128 0x3b
 7091 026a 0B       		.uleb128 0xb
 7092 026b 49       		.uleb128 0x49
 7093 026c 13       		.uleb128 0x13
 7094 026d 02       		.uleb128 0x2
 7095 026e 17       		.uleb128 0x17
 7096 026f 00       		.byte	0
 7097 0270 00       		.byte	0
 7098 0271 2D       		.uleb128 0x2d
 7099 0272 34       		.uleb128 0x34
 7100 0273 00       		.byte	0
 7101 0274 03       		.uleb128 0x3
 7102 0275 08       		.uleb128 0x8
 7103 0276 3A       		.uleb128 0x3a
 7104 0277 0B       		.uleb128 0xb
 7105 0278 3B       		.uleb128 0x3b
 7106 0279 0B       		.uleb128 0xb
 7107 027a 49       		.uleb128 0x49
 7108 027b 13       		.uleb128 0x13
 7109 027c 02       		.uleb128 0x2
 7110 027d 18       		.uleb128 0x18
 7111 027e 00       		.byte	0
 7112 027f 00       		.byte	0
 7113 0280 2E       		.uleb128 0x2e
 7114 0281 34       		.uleb128 0x34
 7115 0282 00       		.byte	0
 7116 0283 03       		.uleb128 0x3
 7117 0284 0E       		.uleb128 0xe
 7118 0285 3A       		.uleb128 0x3a
 7119 0286 0B       		.uleb128 0xb
 7120 0287 3B       		.uleb128 0x3b
 7121 0288 0B       		.uleb128 0xb
 7122 0289 49       		.uleb128 0x49
 7123 028a 13       		.uleb128 0x13
 7124 028b 02       		.uleb128 0x2
 7125 028c 17       		.uleb128 0x17
 7126 028d 00       		.byte	0
 7127 028e 00       		.byte	0
 7128 028f 2F       		.uleb128 0x2f
 7129 0290 1D       		.uleb128 0x1d
 7130 0291 01       		.byte	0x1
 7131 0292 31       		.uleb128 0x31
 7132 0293 13       		.uleb128 0x13
 7133 0294 11       		.uleb128 0x11
 7134 0295 01       		.uleb128 0x1
 7135 0296 12       		.uleb128 0x12
 7136 0297 06       		.uleb128 0x6
 7137 0298 58       		.uleb128 0x58
 7138 0299 0B       		.uleb128 0xb
 7139 029a 59       		.uleb128 0x59
 7140 029b 0B       		.uleb128 0xb
 7141 029c 01       		.uleb128 0x1
 7142 029d 13       		.uleb128 0x13
 7143 029e 00       		.byte	0
 7144 029f 00       		.byte	0
ARM GAS  C:\Users\samue\AppData\Local\Temp\ccJDNHzo.s 			page 150


 7145 02a0 30       		.uleb128 0x30
 7146 02a1 1D       		.uleb128 0x1d
 7147 02a2 01       		.byte	0x1
 7148 02a3 31       		.uleb128 0x31
 7149 02a4 13       		.uleb128 0x13
 7150 02a5 52       		.uleb128 0x52
 7151 02a6 01       		.uleb128 0x1
 7152 02a7 55       		.uleb128 0x55
 7153 02a8 17       		.uleb128 0x17
 7154 02a9 58       		.uleb128 0x58
 7155 02aa 0B       		.uleb128 0xb
 7156 02ab 59       		.uleb128 0x59
 7157 02ac 0B       		.uleb128 0xb
 7158 02ad 01       		.uleb128 0x1
 7159 02ae 13       		.uleb128 0x13
 7160 02af 00       		.byte	0
 7161 02b0 00       		.byte	0
 7162 02b1 31       		.uleb128 0x31
 7163 02b2 05       		.uleb128 0x5
 7164 02b3 00       		.byte	0
 7165 02b4 03       		.uleb128 0x3
 7166 02b5 08       		.uleb128 0x8
 7167 02b6 3A       		.uleb128 0x3a
 7168 02b7 0B       		.uleb128 0xb
 7169 02b8 3B       		.uleb128 0x3b
 7170 02b9 0B       		.uleb128 0xb
 7171 02ba 49       		.uleb128 0x49
 7172 02bb 13       		.uleb128 0x13
 7173 02bc 02       		.uleb128 0x2
 7174 02bd 18       		.uleb128 0x18
 7175 02be 00       		.byte	0
 7176 02bf 00       		.byte	0
 7177 02c0 32       		.uleb128 0x32
 7178 02c1 2E       		.uleb128 0x2e
 7179 02c2 01       		.byte	0x1
 7180 02c3 3F       		.uleb128 0x3f
 7181 02c4 19       		.uleb128 0x19
 7182 02c5 03       		.uleb128 0x3
 7183 02c6 0E       		.uleb128 0xe
 7184 02c7 3A       		.uleb128 0x3a
 7185 02c8 0B       		.uleb128 0xb
 7186 02c9 3B       		.uleb128 0x3b
 7187 02ca 05       		.uleb128 0x5
 7188 02cb 27       		.uleb128 0x27
 7189 02cc 19       		.uleb128 0x19
 7190 02cd 11       		.uleb128 0x11
 7191 02ce 01       		.uleb128 0x1
 7192 02cf 12       		.uleb128 0x12
 7193 02d0 06       		.uleb128 0x6
 7194 02d1 40       		.uleb128 0x40
 7195 02d2 18       		.uleb128 0x18
 7196 02d3 9742     		.uleb128 0x2117
 7197 02d5 19       		.uleb128 0x19
 7198 02d6 01       		.uleb128 0x1
 7199 02d7 13       		.uleb128 0x13
 7200 02d8 00       		.byte	0
 7201 02d9 00       		.byte	0
ARM GAS  C:\Users\samue\AppData\Local\Temp\ccJDNHzo.s 			page 151


 7202 02da 33       		.uleb128 0x33
 7203 02db 1D       		.uleb128 0x1d
 7204 02dc 01       		.byte	0x1
 7205 02dd 31       		.uleb128 0x31
 7206 02de 13       		.uleb128 0x13
 7207 02df 52       		.uleb128 0x52
 7208 02e0 01       		.uleb128 0x1
 7209 02e1 55       		.uleb128 0x55
 7210 02e2 17       		.uleb128 0x17
 7211 02e3 58       		.uleb128 0x58
 7212 02e4 0B       		.uleb128 0xb
 7213 02e5 59       		.uleb128 0x59
 7214 02e6 05       		.uleb128 0x5
 7215 02e7 01       		.uleb128 0x1
 7216 02e8 13       		.uleb128 0x13
 7217 02e9 00       		.byte	0
 7218 02ea 00       		.byte	0
 7219 02eb 34       		.uleb128 0x34
 7220 02ec 2E       		.uleb128 0x2e
 7221 02ed 01       		.byte	0x1
 7222 02ee 3F       		.uleb128 0x3f
 7223 02ef 19       		.uleb128 0x19
 7224 02f0 03       		.uleb128 0x3
 7225 02f1 0E       		.uleb128 0xe
 7226 02f2 3A       		.uleb128 0x3a
 7227 02f3 0B       		.uleb128 0xb
 7228 02f4 3B       		.uleb128 0x3b
 7229 02f5 05       		.uleb128 0x5
 7230 02f6 27       		.uleb128 0x27
 7231 02f7 19       		.uleb128 0x19
 7232 02f8 49       		.uleb128 0x49
 7233 02f9 13       		.uleb128 0x13
 7234 02fa 11       		.uleb128 0x11
 7235 02fb 01       		.uleb128 0x1
 7236 02fc 12       		.uleb128 0x12
 7237 02fd 06       		.uleb128 0x6
 7238 02fe 40       		.uleb128 0x40
 7239 02ff 18       		.uleb128 0x18
 7240 0300 9742     		.uleb128 0x2117
 7241 0302 19       		.uleb128 0x19
 7242 0303 01       		.uleb128 0x1
 7243 0304 13       		.uleb128 0x13
 7244 0305 00       		.byte	0
 7245 0306 00       		.byte	0
 7246 0307 35       		.uleb128 0x35
 7247 0308 34       		.uleb128 0x34
 7248 0309 00       		.byte	0
 7249 030a 03       		.uleb128 0x3
 7250 030b 0E       		.uleb128 0xe
 7251 030c 3A       		.uleb128 0x3a
 7252 030d 0B       		.uleb128 0xb
 7253 030e 3B       		.uleb128 0x3b
 7254 030f 05       		.uleb128 0x5
 7255 0310 49       		.uleb128 0x49
 7256 0311 13       		.uleb128 0x13
 7257 0312 02       		.uleb128 0x2
 7258 0313 17       		.uleb128 0x17
ARM GAS  C:\Users\samue\AppData\Local\Temp\ccJDNHzo.s 			page 152


 7259 0314 00       		.byte	0
 7260 0315 00       		.byte	0
 7261 0316 36       		.uleb128 0x36
 7262 0317 0B       		.uleb128 0xb
 7263 0318 01       		.byte	0x1
 7264 0319 11       		.uleb128 0x11
 7265 031a 01       		.uleb128 0x1
 7266 031b 12       		.uleb128 0x12
 7267 031c 06       		.uleb128 0x6
 7268 031d 01       		.uleb128 0x1
 7269 031e 13       		.uleb128 0x13
 7270 031f 00       		.byte	0
 7271 0320 00       		.byte	0
 7272 0321 37       		.uleb128 0x37
 7273 0322 05       		.uleb128 0x5
 7274 0323 00       		.byte	0
 7275 0324 03       		.uleb128 0x3
 7276 0325 0E       		.uleb128 0xe
 7277 0326 3A       		.uleb128 0x3a
 7278 0327 0B       		.uleb128 0xb
 7279 0328 3B       		.uleb128 0x3b
 7280 0329 05       		.uleb128 0x5
 7281 032a 49       		.uleb128 0x49
 7282 032b 13       		.uleb128 0x13
 7283 032c 02       		.uleb128 0x2
 7284 032d 18       		.uleb128 0x18
 7285 032e 00       		.byte	0
 7286 032f 00       		.byte	0
 7287 0330 38       		.uleb128 0x38
 7288 0331 34       		.uleb128 0x34
 7289 0332 00       		.byte	0
 7290 0333 03       		.uleb128 0x3
 7291 0334 0E       		.uleb128 0xe
 7292 0335 3A       		.uleb128 0x3a
 7293 0336 0B       		.uleb128 0xb
 7294 0337 3B       		.uleb128 0x3b
 7295 0338 0B       		.uleb128 0xb
 7296 0339 49       		.uleb128 0x49
 7297 033a 13       		.uleb128 0x13
 7298 033b 1C       		.uleb128 0x1c
 7299 033c 0B       		.uleb128 0xb
 7300 033d 00       		.byte	0
 7301 033e 00       		.byte	0
 7302 033f 39       		.uleb128 0x39
 7303 0340 34       		.uleb128 0x34
 7304 0341 00       		.byte	0
 7305 0342 03       		.uleb128 0x3
 7306 0343 0E       		.uleb128 0xe
 7307 0344 3A       		.uleb128 0x3a
 7308 0345 0B       		.uleb128 0xb
 7309 0346 3B       		.uleb128 0x3b
 7310 0347 0B       		.uleb128 0xb
 7311 0348 49       		.uleb128 0x49
 7312 0349 13       		.uleb128 0x13
 7313 034a 02       		.uleb128 0x2
 7314 034b 18       		.uleb128 0x18
 7315 034c 00       		.byte	0
ARM GAS  C:\Users\samue\AppData\Local\Temp\ccJDNHzo.s 			page 153


 7316 034d 00       		.byte	0
 7317 034e 3A       		.uleb128 0x3a
 7318 034f 34       		.uleb128 0x34
 7319 0350 00       		.byte	0
 7320 0351 03       		.uleb128 0x3
 7321 0352 0E       		.uleb128 0xe
 7322 0353 3A       		.uleb128 0x3a
 7323 0354 0B       		.uleb128 0xb
 7324 0355 3B       		.uleb128 0x3b
 7325 0356 0B       		.uleb128 0xb
 7326 0357 49       		.uleb128 0x49
 7327 0358 13       		.uleb128 0x13
 7328 0359 3F       		.uleb128 0x3f
 7329 035a 19       		.uleb128 0x19
 7330 035b 3C       		.uleb128 0x3c
 7331 035c 19       		.uleb128 0x19
 7332 035d 00       		.byte	0
 7333 035e 00       		.byte	0
 7334 035f 3B       		.uleb128 0x3b
 7335 0360 34       		.uleb128 0x34
 7336 0361 00       		.byte	0
 7337 0362 03       		.uleb128 0x3
 7338 0363 0E       		.uleb128 0xe
 7339 0364 3A       		.uleb128 0x3a
 7340 0365 0B       		.uleb128 0xb
 7341 0366 3B       		.uleb128 0x3b
 7342 0367 05       		.uleb128 0x5
 7343 0368 49       		.uleb128 0x49
 7344 0369 13       		.uleb128 0x13
 7345 036a 3F       		.uleb128 0x3f
 7346 036b 19       		.uleb128 0x19
 7347 036c 3C       		.uleb128 0x3c
 7348 036d 19       		.uleb128 0x19
 7349 036e 00       		.byte	0
 7350 036f 00       		.byte	0
 7351 0370 3C       		.uleb128 0x3c
 7352 0371 35       		.uleb128 0x35
 7353 0372 00       		.byte	0
 7354 0373 49       		.uleb128 0x49
 7355 0374 13       		.uleb128 0x13
 7356 0375 00       		.byte	0
 7357 0376 00       		.byte	0
 7358 0377 3D       		.uleb128 0x3d
 7359 0378 34       		.uleb128 0x34
 7360 0379 00       		.byte	0
 7361 037a 03       		.uleb128 0x3
 7362 037b 0E       		.uleb128 0xe
 7363 037c 3A       		.uleb128 0x3a
 7364 037d 0B       		.uleb128 0xb
 7365 037e 3B       		.uleb128 0x3b
 7366 037f 0B       		.uleb128 0xb
 7367 0380 49       		.uleb128 0x49
 7368 0381 13       		.uleb128 0x13
 7369 0382 3F       		.uleb128 0x3f
 7370 0383 19       		.uleb128 0x19
 7371 0384 02       		.uleb128 0x2
 7372 0385 18       		.uleb128 0x18
ARM GAS  C:\Users\samue\AppData\Local\Temp\ccJDNHzo.s 			page 154


 7373 0386 00       		.byte	0
 7374 0387 00       		.byte	0
 7375 0388 3E       		.uleb128 0x3e
 7376 0389 2E       		.uleb128 0x2e
 7377 038a 00       		.byte	0
 7378 038b 3F       		.uleb128 0x3f
 7379 038c 19       		.uleb128 0x19
 7380 038d 3C       		.uleb128 0x3c
 7381 038e 19       		.uleb128 0x19
 7382 038f 6E       		.uleb128 0x6e
 7383 0390 0E       		.uleb128 0xe
 7384 0391 03       		.uleb128 0x3
 7385 0392 0E       		.uleb128 0xe
 7386 0393 3A       		.uleb128 0x3a
 7387 0394 0B       		.uleb128 0xb
 7388 0395 3B       		.uleb128 0x3b
 7389 0396 0B       		.uleb128 0xb
 7390 0397 00       		.byte	0
 7391 0398 00       		.byte	0
 7392 0399 3F       		.uleb128 0x3f
 7393 039a 2E       		.uleb128 0x2e
 7394 039b 00       		.byte	0
 7395 039c 3F       		.uleb128 0x3f
 7396 039d 19       		.uleb128 0x19
 7397 039e 3C       		.uleb128 0x3c
 7398 039f 19       		.uleb128 0x19
 7399 03a0 6E       		.uleb128 0x6e
 7400 03a1 0E       		.uleb128 0xe
 7401 03a2 03       		.uleb128 0x3
 7402 03a3 0E       		.uleb128 0xe
 7403 03a4 3A       		.uleb128 0x3a
 7404 03a5 0B       		.uleb128 0xb
 7405 03a6 3B       		.uleb128 0x3b
 7406 03a7 05       		.uleb128 0x5
 7407 03a8 00       		.byte	0
 7408 03a9 00       		.byte	0
 7409 03aa 40       		.uleb128 0x40
 7410 03ab 2E       		.uleb128 0x2e
 7411 03ac 00       		.byte	0
 7412 03ad 3F       		.uleb128 0x3f
 7413 03ae 19       		.uleb128 0x19
 7414 03af 3C       		.uleb128 0x3c
 7415 03b0 19       		.uleb128 0x19
 7416 03b1 6E       		.uleb128 0x6e
 7417 03b2 0E       		.uleb128 0xe
 7418 03b3 03       		.uleb128 0x3
 7419 03b4 0E       		.uleb128 0xe
 7420 03b5 00       		.byte	0
 7421 03b6 00       		.byte	0
 7422 03b7 41       		.uleb128 0x41
 7423 03b8 2E       		.uleb128 0x2e
 7424 03b9 00       		.byte	0
 7425 03ba 3F       		.uleb128 0x3f
 7426 03bb 19       		.uleb128 0x19
 7427 03bc 3C       		.uleb128 0x3c
 7428 03bd 19       		.uleb128 0x19
 7429 03be 6E       		.uleb128 0x6e
ARM GAS  C:\Users\samue\AppData\Local\Temp\ccJDNHzo.s 			page 155


 7430 03bf 0E       		.uleb128 0xe
 7431 03c0 03       		.uleb128 0x3
 7432 03c1 0E       		.uleb128 0xe
 7433 03c2 3A       		.uleb128 0x3a
 7434 03c3 0B       		.uleb128 0xb
 7435 03c4 3B       		.uleb128 0x3b
 7436 03c5 0B       		.uleb128 0xb
 7437 03c6 6E       		.uleb128 0x6e
 7438 03c7 0E       		.uleb128 0xe
 7439 03c8 00       		.byte	0
 7440 03c9 00       		.byte	0
 7441 03ca 00       		.byte	0
 7442              		.section	.debug_loc,"",%progbits
 7443              	.Ldebug_loc0:
 7444              	.LLST0:
 7445 0000 00000000 		.4byte	.LVL0
 7446 0004 16000000 		.4byte	.LVL2
 7447 0008 0100     		.2byte	0x1
 7448 000a 50       		.byte	0x50
 7449 000b 16000000 		.4byte	.LVL2
 7450 000f 60000000 		.4byte	.LFE72
 7451 0013 0100     		.2byte	0x1
 7452 0015 52       		.byte	0x52
 7453 0016 00000000 		.4byte	0
 7454 001a 00000000 		.4byte	0
 7455              	.LLST1:
 7456 001e 00000000 		.4byte	.LVL0
 7457 0022 2E000000 		.4byte	.LVL6
 7458 0026 0100     		.2byte	0x1
 7459 0028 51       		.byte	0x51
 7460 0029 2E000000 		.4byte	.LVL6
 7461 002d 4A000000 		.4byte	.LVL10
 7462 0031 0300     		.2byte	0x3
 7463 0033 71       		.byte	0x71
 7464 0034 01       		.sleb128 1
 7465 0035 9F       		.byte	0x9f
 7466 0036 4A000000 		.4byte	.LVL10
 7467 003a 60000000 		.4byte	.LFE72
 7468 003e 0100     		.2byte	0x1
 7469 0040 51       		.byte	0x51
 7470 0041 00000000 		.4byte	0
 7471 0045 00000000 		.4byte	0
 7472              	.LLST2:
 7473 0049 02000000 		.4byte	.LVL1
 7474 004d 18000000 		.4byte	.LVL3
 7475 0051 0400     		.2byte	0x4
 7476 0053 0A       		.byte	0xa
 7477 0054 1027     		.2byte	0x2710
 7478 0056 9F       		.byte	0x9f
 7479 0057 18000000 		.4byte	.LVL3
 7480 005b 20000000 		.4byte	.LVL4
 7481 005f 0100     		.2byte	0x1
 7482 0061 53       		.byte	0x53
 7483 0062 24000000 		.4byte	.LVL5
 7484 0066 44000000 		.4byte	.LVL8
 7485 006a 0100     		.2byte	0x1
 7486 006c 53       		.byte	0x53
ARM GAS  C:\Users\samue\AppData\Local\Temp\ccJDNHzo.s 			page 156


 7487 006d 48000000 		.4byte	.LVL9
 7488 0071 50000000 		.4byte	.LVL11
 7489 0075 0100     		.2byte	0x1
 7490 0077 53       		.byte	0x53
 7491 0078 00000000 		.4byte	0
 7492 007c 00000000 		.4byte	0
 7493              	.LLST3:
 7494 0080 00000000 		.4byte	.LVL12
 7495 0084 07000000 		.4byte	.LVL13-1
 7496 0088 0100     		.2byte	0x1
 7497 008a 50       		.byte	0x50
 7498 008b 07000000 		.4byte	.LVL13-1
 7499 008f 26000000 		.4byte	.LVL16
 7500 0093 0100     		.2byte	0x1
 7501 0095 54       		.byte	0x54
 7502 0096 26000000 		.4byte	.LVL16
 7503 009a 2C000000 		.4byte	.LFE102
 7504 009e 0400     		.2byte	0x4
 7505 00a0 F3       		.byte	0xf3
 7506 00a1 01       		.uleb128 0x1
 7507 00a2 50       		.byte	0x50
 7508 00a3 9F       		.byte	0x9f
 7509 00a4 00000000 		.4byte	0
 7510 00a8 00000000 		.4byte	0
 7511              	.LLST4:
 7512 00ac 00000000 		.4byte	.LVL12
 7513 00b0 07000000 		.4byte	.LVL13-1
 7514 00b4 0100     		.2byte	0x1
 7515 00b6 51       		.byte	0x51
 7516 00b7 07000000 		.4byte	.LVL13-1
 7517 00bb 2C000000 		.4byte	.LFE102
 7518 00bf 0400     		.2byte	0x4
 7519 00c1 F3       		.byte	0xf3
 7520 00c2 01       		.uleb128 0x1
 7521 00c3 51       		.byte	0x51
 7522 00c4 9F       		.byte	0x9f
 7523 00c5 00000000 		.4byte	0
 7524 00c9 00000000 		.4byte	0
 7525              	.LLST5:
 7526 00cd 00000000 		.4byte	.LVL17
 7527 00d1 08000000 		.4byte	.LVL19
 7528 00d5 0100     		.2byte	0x1
 7529 00d7 50       		.byte	0x50
 7530 00d8 08000000 		.4byte	.LVL19
 7531 00dc 82000000 		.4byte	.LVL38
 7532 00e0 0100     		.2byte	0x1
 7533 00e2 54       		.byte	0x54
 7534 00e3 82000000 		.4byte	.LVL38
 7535 00e7 90000000 		.4byte	.LFE92
 7536 00eb 0400     		.2byte	0x4
 7537 00ed F3       		.byte	0xf3
 7538 00ee 01       		.uleb128 0x1
 7539 00ef 50       		.byte	0x50
 7540 00f0 9F       		.byte	0x9f
 7541 00f1 00000000 		.4byte	0
 7542 00f5 00000000 		.4byte	0
 7543              	.LLST6:
ARM GAS  C:\Users\samue\AppData\Local\Temp\ccJDNHzo.s 			page 157


 7544 00f9 04000000 		.4byte	.LVL18
 7545 00fd 08000000 		.4byte	.LVL19
 7546 0101 0600     		.2byte	0x6
 7547 0103 03       		.byte	0x3
 7548 0104 00000000 		.4byte	.LC0
 7549 0108 9F       		.byte	0x9f
 7550 0109 08000000 		.4byte	.LVL19
 7551 010d 1C000000 		.4byte	.LVL22
 7552 0111 0100     		.2byte	0x1
 7553 0113 55       		.byte	0x55
 7554 0114 00000000 		.4byte	0
 7555 0118 00000000 		.4byte	0
 7556              	.LLST7:
 7557 011c 04000000 		.4byte	.LVL18
 7558 0120 08000000 		.4byte	.LVL19
 7559 0124 0100     		.2byte	0x1
 7560 0126 50       		.byte	0x50
 7561 0127 08000000 		.4byte	.LVL19
 7562 012b 1C000000 		.4byte	.LVL22
 7563 012f 0100     		.2byte	0x1
 7564 0131 54       		.byte	0x54
 7565 0132 00000000 		.4byte	0
 7566 0136 00000000 		.4byte	0
 7567              	.LLST8:
 7568 013a 20000000 		.4byte	.LVL23
 7569 013e 38000000 		.4byte	.LVL26
 7570 0142 0100     		.2byte	0x1
 7571 0144 55       		.byte	0x55
 7572 0145 00000000 		.4byte	0
 7573 0149 00000000 		.4byte	0
 7574              	.LLST9:
 7575 014d 20000000 		.4byte	.LVL23
 7576 0151 82000000 		.4byte	.LVL38
 7577 0155 0100     		.2byte	0x1
 7578 0157 54       		.byte	0x54
 7579 0158 82000000 		.4byte	.LVL38
 7580 015c 90000000 		.4byte	.LFE92
 7581 0160 0400     		.2byte	0x4
 7582 0162 F3       		.byte	0xf3
 7583 0163 01       		.uleb128 0x1
 7584 0164 50       		.byte	0x50
 7585 0165 9F       		.byte	0x9f
 7586 0166 00000000 		.4byte	0
 7587 016a 00000000 		.4byte	0
 7588              	.LLST10:
 7589 016e 3A000000 		.4byte	.LVL27
 7590 0172 4E000000 		.4byte	.LVL30
 7591 0176 0100     		.2byte	0x1
 7592 0178 55       		.byte	0x55
 7593 0179 00000000 		.4byte	0
 7594 017d 00000000 		.4byte	0
 7595              	.LLST11:
 7596 0181 52000000 		.4byte	.LVL31
 7597 0185 6A000000 		.4byte	.LVL34
 7598 0189 0100     		.2byte	0x1
 7599 018b 55       		.byte	0x55
 7600 018c 00000000 		.4byte	0
ARM GAS  C:\Users\samue\AppData\Local\Temp\ccJDNHzo.s 			page 158


 7601 0190 00000000 		.4byte	0
 7602              	.LLST12:
 7603 0194 52000000 		.4byte	.LVL31
 7604 0198 82000000 		.4byte	.LVL38
 7605 019c 0100     		.2byte	0x1
 7606 019e 54       		.byte	0x54
 7607 019f 82000000 		.4byte	.LVL38
 7608 01a3 90000000 		.4byte	.LFE92
 7609 01a7 0400     		.2byte	0x4
 7610 01a9 F3       		.byte	0xf3
 7611 01aa 01       		.uleb128 0x1
 7612 01ab 50       		.byte	0x50
 7613 01ac 9F       		.byte	0x9f
 7614 01ad 00000000 		.4byte	0
 7615 01b1 00000000 		.4byte	0
 7616              	.LLST13:
 7617 01b5 6C000000 		.4byte	.LVL35
 7618 01b9 82000000 		.4byte	.LVL38
 7619 01bd 0100     		.2byte	0x1
 7620 01bf 55       		.byte	0x55
 7621 01c0 00000000 		.4byte	0
 7622 01c4 00000000 		.4byte	0
 7623              	.LLST14:
 7624 01c8 00000000 		.4byte	.LVL39
 7625 01cc 08000000 		.4byte	.LVL41
 7626 01d0 0100     		.2byte	0x1
 7627 01d2 50       		.byte	0x50
 7628 01d3 08000000 		.4byte	.LVL41
 7629 01d7 82000000 		.4byte	.LVL60
 7630 01db 0100     		.2byte	0x1
 7631 01dd 54       		.byte	0x54
 7632 01de 82000000 		.4byte	.LVL60
 7633 01e2 90000000 		.4byte	.LFE95
 7634 01e6 0400     		.2byte	0x4
 7635 01e8 F3       		.byte	0xf3
 7636 01e9 01       		.uleb128 0x1
 7637 01ea 50       		.byte	0x50
 7638 01eb 9F       		.byte	0x9f
 7639 01ec 00000000 		.4byte	0
 7640 01f0 00000000 		.4byte	0
 7641              	.LLST15:
 7642 01f4 04000000 		.4byte	.LVL40
 7643 01f8 08000000 		.4byte	.LVL41
 7644 01fc 0600     		.2byte	0x6
 7645 01fe 03       		.byte	0x3
 7646 01ff 18000000 		.4byte	.LC3
 7647 0203 9F       		.byte	0x9f
 7648 0204 08000000 		.4byte	.LVL41
 7649 0208 1C000000 		.4byte	.LVL44
 7650 020c 0100     		.2byte	0x1
 7651 020e 55       		.byte	0x55
 7652 020f 00000000 		.4byte	0
 7653 0213 00000000 		.4byte	0
 7654              	.LLST16:
 7655 0217 04000000 		.4byte	.LVL40
 7656 021b 08000000 		.4byte	.LVL41
 7657 021f 0100     		.2byte	0x1
ARM GAS  C:\Users\samue\AppData\Local\Temp\ccJDNHzo.s 			page 159


 7658 0221 50       		.byte	0x50
 7659 0222 08000000 		.4byte	.LVL41
 7660 0226 1C000000 		.4byte	.LVL44
 7661 022a 0100     		.2byte	0x1
 7662 022c 54       		.byte	0x54
 7663 022d 00000000 		.4byte	0
 7664 0231 00000000 		.4byte	0
 7665              	.LLST17:
 7666 0235 20000000 		.4byte	.LVL45
 7667 0239 38000000 		.4byte	.LVL48
 7668 023d 0100     		.2byte	0x1
 7669 023f 55       		.byte	0x55
 7670 0240 00000000 		.4byte	0
 7671 0244 00000000 		.4byte	0
 7672              	.LLST18:
 7673 0248 20000000 		.4byte	.LVL45
 7674 024c 82000000 		.4byte	.LVL60
 7675 0250 0100     		.2byte	0x1
 7676 0252 54       		.byte	0x54
 7677 0253 82000000 		.4byte	.LVL60
 7678 0257 90000000 		.4byte	.LFE95
 7679 025b 0400     		.2byte	0x4
 7680 025d F3       		.byte	0xf3
 7681 025e 01       		.uleb128 0x1
 7682 025f 50       		.byte	0x50
 7683 0260 9F       		.byte	0x9f
 7684 0261 00000000 		.4byte	0
 7685 0265 00000000 		.4byte	0
 7686              	.LLST19:
 7687 0269 3A000000 		.4byte	.LVL49
 7688 026d 4E000000 		.4byte	.LVL52
 7689 0271 0100     		.2byte	0x1
 7690 0273 55       		.byte	0x55
 7691 0274 00000000 		.4byte	0
 7692 0278 00000000 		.4byte	0
 7693              	.LLST20:
 7694 027c 52000000 		.4byte	.LVL53
 7695 0280 6A000000 		.4byte	.LVL56
 7696 0284 0100     		.2byte	0x1
 7697 0286 55       		.byte	0x55
 7698 0287 00000000 		.4byte	0
 7699 028b 00000000 		.4byte	0
 7700              	.LLST21:
 7701 028f 52000000 		.4byte	.LVL53
 7702 0293 82000000 		.4byte	.LVL60
 7703 0297 0100     		.2byte	0x1
 7704 0299 54       		.byte	0x54
 7705 029a 82000000 		.4byte	.LVL60
 7706 029e 90000000 		.4byte	.LFE95
 7707 02a2 0400     		.2byte	0x4
 7708 02a4 F3       		.byte	0xf3
 7709 02a5 01       		.uleb128 0x1
 7710 02a6 50       		.byte	0x50
 7711 02a7 9F       		.byte	0x9f
 7712 02a8 00000000 		.4byte	0
 7713 02ac 00000000 		.4byte	0
 7714              	.LLST22:
ARM GAS  C:\Users\samue\AppData\Local\Temp\ccJDNHzo.s 			page 160


 7715 02b0 6C000000 		.4byte	.LVL57
 7716 02b4 82000000 		.4byte	.LVL60
 7717 02b8 0100     		.2byte	0x1
 7718 02ba 55       		.byte	0x55
 7719 02bb 00000000 		.4byte	0
 7720 02bf 00000000 		.4byte	0
 7721              	.LLST23:
 7722 02c3 00000000 		.4byte	.LVL61
 7723 02c7 17000000 		.4byte	.LVL64-1
 7724 02cb 0100     		.2byte	0x1
 7725 02cd 50       		.byte	0x50
 7726 02ce 17000000 		.4byte	.LVL64-1
 7727 02d2 30000000 		.4byte	.LFE104
 7728 02d6 0400     		.2byte	0x4
 7729 02d8 F3       		.byte	0xf3
 7730 02d9 01       		.uleb128 0x1
 7731 02da 50       		.byte	0x50
 7732 02db 9F       		.byte	0x9f
 7733 02dc 00000000 		.4byte	0
 7734 02e0 00000000 		.4byte	0
 7735              	.LLST24:
 7736 02e4 00000000 		.4byte	.LVL67
 7737 02e8 10000000 		.4byte	.LVL70
 7738 02ec 0100     		.2byte	0x1
 7739 02ee 50       		.byte	0x50
 7740 02ef 10000000 		.4byte	.LVL70
 7741 02f3 5E000000 		.4byte	.LFE105
 7742 02f7 0400     		.2byte	0x4
 7743 02f9 F3       		.byte	0xf3
 7744 02fa 01       		.uleb128 0x1
 7745 02fb 50       		.byte	0x50
 7746 02fc 9F       		.byte	0x9f
 7747 02fd 00000000 		.4byte	0
 7748 0301 00000000 		.4byte	0
 7749              	.LLST25:
 7750 0305 00000000 		.4byte	.LVL79
 7751 0309 0C000000 		.4byte	.LVL81
 7752 030d 0100     		.2byte	0x1
 7753 030f 50       		.byte	0x50
 7754 0310 0C000000 		.4byte	.LVL81
 7755 0314 34000000 		.4byte	.LFE106
 7756 0318 0100     		.2byte	0x1
 7757 031a 54       		.byte	0x54
 7758 031b 00000000 		.4byte	0
 7759 031f 00000000 		.4byte	0
 7760              	.LLST26:
 7761 0323 06000000 		.4byte	.LVL80
 7762 0327 0C000000 		.4byte	.LVL81
 7763 032b 0100     		.2byte	0x1
 7764 032d 50       		.byte	0x50
 7765 032e 0C000000 		.4byte	.LVL81
 7766 0332 34000000 		.4byte	.LFE106
 7767 0336 0100     		.2byte	0x1
 7768 0338 54       		.byte	0x54
 7769 0339 00000000 		.4byte	0
 7770 033d 00000000 		.4byte	0
 7771              	.LLST27:
ARM GAS  C:\Users\samue\AppData\Local\Temp\ccJDNHzo.s 			page 161


 7772 0341 00000000 		.4byte	.LVL86
 7773 0345 0B000000 		.4byte	.LVL87-1
 7774 0349 0100     		.2byte	0x1
 7775 034b 50       		.byte	0x50
 7776 034c 0B000000 		.4byte	.LVL87-1
 7777 0350 14000000 		.4byte	.LVL88
 7778 0354 0100     		.2byte	0x1
 7779 0356 54       		.byte	0x54
 7780 0357 14000000 		.4byte	.LVL88
 7781 035b 18000000 		.4byte	.LFE73
 7782 035f 0400     		.2byte	0x4
 7783 0361 F3       		.byte	0xf3
 7784 0362 01       		.uleb128 0x1
 7785 0363 50       		.byte	0x50
 7786 0364 9F       		.byte	0x9f
 7787 0365 00000000 		.4byte	0
 7788 0369 00000000 		.4byte	0
 7789              	.LLST28:
 7790 036d 00000000 		.4byte	.LVL89
 7791 0371 0C000000 		.4byte	.LVL90
 7792 0375 0100     		.2byte	0x1
 7793 0377 50       		.byte	0x50
 7794 0378 0C000000 		.4byte	.LVL90
 7795 037c 48000000 		.4byte	.LVL97
 7796 0380 0100     		.2byte	0x1
 7797 0382 56       		.byte	0x56
 7798 0383 48000000 		.4byte	.LVL97
 7799 0387 B4000000 		.4byte	.LFE74
 7800 038b 0400     		.2byte	0x4
 7801 038d F3       		.byte	0xf3
 7802 038e 01       		.uleb128 0x1
 7803 038f 50       		.byte	0x50
 7804 0390 9F       		.byte	0x9f
 7805 0391 00000000 		.4byte	0
 7806 0395 00000000 		.4byte	0
 7807              	.LLST29:
 7808 0399 00000000 		.4byte	.LVL89
 7809 039d 0F000000 		.4byte	.LVL91-1
 7810 03a1 0100     		.2byte	0x1
 7811 03a3 51       		.byte	0x51
 7812 03a4 0F000000 		.4byte	.LVL91-1
 7813 03a8 4C000000 		.4byte	.LVL98
 7814 03ac 0100     		.2byte	0x1
 7815 03ae 55       		.byte	0x55
 7816 03af 4C000000 		.4byte	.LVL98
 7817 03b3 B4000000 		.4byte	.LFE74
 7818 03b7 0400     		.2byte	0x4
 7819 03b9 F3       		.byte	0xf3
 7820 03ba 01       		.uleb128 0x1
 7821 03bb 51       		.byte	0x51
 7822 03bc 9F       		.byte	0x9f
 7823 03bd 00000000 		.4byte	0
 7824 03c1 00000000 		.4byte	0
 7825              	.LLST30:
 7826 03c5 00000000 		.4byte	.LVL103
 7827 03c9 0A000000 		.4byte	.LVL104
 7828 03cd 0100     		.2byte	0x1
ARM GAS  C:\Users\samue\AppData\Local\Temp\ccJDNHzo.s 			page 162


 7829 03cf 50       		.byte	0x50
 7830 03d0 0A000000 		.4byte	.LVL104
 7831 03d4 64000000 		.4byte	.LFE75
 7832 03d8 0400     		.2byte	0x4
 7833 03da F3       		.byte	0xf3
 7834 03db 01       		.uleb128 0x1
 7835 03dc 50       		.byte	0x50
 7836 03dd 9F       		.byte	0x9f
 7837 03de 00000000 		.4byte	0
 7838 03e2 00000000 		.4byte	0
 7839              	.LLST31:
 7840 03e6 00000000 		.4byte	.LVL103
 7841 03ea 0D000000 		.4byte	.LVL105-1
 7842 03ee 0100     		.2byte	0x1
 7843 03f0 51       		.byte	0x51
 7844 03f1 0D000000 		.4byte	.LVL105-1
 7845 03f5 64000000 		.4byte	.LFE75
 7846 03f9 0400     		.2byte	0x4
 7847 03fb F3       		.byte	0xf3
 7848 03fc 01       		.uleb128 0x1
 7849 03fd 51       		.byte	0x51
 7850 03fe 9F       		.byte	0x9f
 7851 03ff 00000000 		.4byte	0
 7852 0403 00000000 		.4byte	0
 7853              	.LLST32:
 7854 0407 00000000 		.4byte	.LVL103
 7855 040b 0D000000 		.4byte	.LVL105-1
 7856 040f 0100     		.2byte	0x1
 7857 0411 52       		.byte	0x52
 7858 0412 0D000000 		.4byte	.LVL105-1
 7859 0416 5E000000 		.4byte	.LVL112
 7860 041a 0100     		.2byte	0x1
 7861 041c 55       		.byte	0x55
 7862 041d 5E000000 		.4byte	.LVL112
 7863 0421 64000000 		.4byte	.LFE75
 7864 0425 0400     		.2byte	0x4
 7865 0427 F3       		.byte	0xf3
 7866 0428 01       		.uleb128 0x1
 7867 0429 52       		.byte	0x52
 7868 042a 9F       		.byte	0x9f
 7869 042b 00000000 		.4byte	0
 7870 042f 00000000 		.4byte	0
 7871              	.LLST33:
 7872 0433 34000000 		.4byte	.LVL107
 7873 0437 52000000 		.4byte	.LVL109
 7874 043b 0300     		.2byte	0x3
 7875 043d 09       		.byte	0x9
 7876 043e FF       		.byte	0xff
 7877 043f 9F       		.byte	0x9f
 7878 0440 52000000 		.4byte	.LVL109
 7879 0444 56000000 		.4byte	.LVL110
 7880 0448 0200     		.2byte	0x2
 7881 044a 30       		.byte	0x30
 7882 044b 9F       		.byte	0x9f
 7883 044c 56000000 		.4byte	.LVL110
 7884 0450 5A000000 		.4byte	.LVL111
 7885 0454 0300     		.2byte	0x3
ARM GAS  C:\Users\samue\AppData\Local\Temp\ccJDNHzo.s 			page 163


 7886 0456 09       		.byte	0x9
 7887 0457 FF       		.byte	0xff
 7888 0458 9F       		.byte	0x9f
 7889 0459 5A000000 		.4byte	.LVL111
 7890 045d 64000000 		.4byte	.LFE75
 7891 0461 0100     		.2byte	0x1
 7892 0463 50       		.byte	0x50
 7893 0464 00000000 		.4byte	0
 7894 0468 00000000 		.4byte	0
 7895              	.LLST34:
 7896 046c 00000000 		.4byte	.LVL113
 7897 0470 0C000000 		.4byte	.LVL116
 7898 0474 0100     		.2byte	0x1
 7899 0476 50       		.byte	0x50
 7900 0477 0C000000 		.4byte	.LVL116
 7901 047b 4C000000 		.4byte	.LFE76
 7902 047f 0400     		.2byte	0x4
 7903 0481 F3       		.byte	0xf3
 7904 0482 01       		.uleb128 0x1
 7905 0483 50       		.byte	0x50
 7906 0484 9F       		.byte	0x9f
 7907 0485 00000000 		.4byte	0
 7908 0489 00000000 		.4byte	0
 7909              	.LLST35:
 7910 048d 00000000 		.4byte	.LVL113
 7911 0491 08000000 		.4byte	.LVL115
 7912 0495 0100     		.2byte	0x1
 7913 0497 51       		.byte	0x51
 7914 0498 08000000 		.4byte	.LVL115
 7915 049c 46000000 		.4byte	.LVL126
 7916 04a0 0100     		.2byte	0x1
 7917 04a2 55       		.byte	0x55
 7918 04a3 00000000 		.4byte	0
 7919 04a7 00000000 		.4byte	0
 7920              	.LLST36:
 7921 04ab 00000000 		.4byte	.LVL113
 7922 04af 0F000000 		.4byte	.LVL117-1
 7923 04b3 0100     		.2byte	0x1
 7924 04b5 52       		.byte	0x52
 7925 04b6 0F000000 		.4byte	.LVL117-1
 7926 04ba 46000000 		.4byte	.LVL126
 7927 04be 0100     		.2byte	0x1
 7928 04c0 56       		.byte	0x56
 7929 04c1 46000000 		.4byte	.LVL126
 7930 04c5 4C000000 		.4byte	.LFE76
 7931 04c9 0400     		.2byte	0x4
 7932 04cb F3       		.byte	0xf3
 7933 04cc 01       		.uleb128 0x1
 7934 04cd 52       		.byte	0x52
 7935 04ce 9F       		.byte	0x9f
 7936 04cf 00000000 		.4byte	0
 7937 04d3 00000000 		.4byte	0
 7938              	.LLST37:
 7939 04d7 06000000 		.4byte	.LVL114
 7940 04db 18000000 		.4byte	.LVL118
 7941 04df 0200     		.2byte	0x2
 7942 04e1 30       		.byte	0x30
ARM GAS  C:\Users\samue\AppData\Local\Temp\ccJDNHzo.s 			page 164


 7943 04e2 9F       		.byte	0x9f
 7944 04e3 18000000 		.4byte	.LVL118
 7945 04e7 1E000000 		.4byte	.LVL121
 7946 04eb 0100     		.2byte	0x1
 7947 04ed 54       		.byte	0x54
 7948 04ee 1E000000 		.4byte	.LVL121
 7949 04f2 20000000 		.4byte	.LVL122
 7950 04f6 0200     		.2byte	0x2
 7951 04f8 30       		.byte	0x30
 7952 04f9 9F       		.byte	0x9f
 7953 04fa 20000000 		.4byte	.LVL122
 7954 04fe 46000000 		.4byte	.LVL126
 7955 0502 0100     		.2byte	0x1
 7956 0504 54       		.byte	0x54
 7957 0505 46000000 		.4byte	.LVL126
 7958 0509 4C000000 		.4byte	.LFE76
 7959 050d 0100     		.2byte	0x1
 7960 050f 50       		.byte	0x50
 7961 0510 00000000 		.4byte	0
 7962 0514 00000000 		.4byte	0
 7963              	.LLST38:
 7964 0518 24000000 		.4byte	.LVL123
 7965 051c 30000000 		.4byte	.LVL124
 7966 0520 0100     		.2byte	0x1
 7967 0522 55       		.byte	0x55
 7968 0523 00000000 		.4byte	0
 7969 0527 00000000 		.4byte	0
 7970              	.LLST39:
 7971 052b 24000000 		.4byte	.LVL123
 7972 052f 30000000 		.4byte	.LVL124
 7973 0533 0600     		.2byte	0x6
 7974 0535 03       		.byte	0x3
 7975 0536 00000000 		.4byte	EspSocketInstance
 7976 053a 9F       		.byte	0x9f
 7977 053b 00000000 		.4byte	0
 7978 053f 00000000 		.4byte	0
 7979              	.LLST40:
 7980 0543 00000000 		.4byte	.LVL127
 7981 0547 0C000000 		.4byte	.LVL129
 7982 054b 0100     		.2byte	0x1
 7983 054d 50       		.byte	0x50
 7984 054e 0C000000 		.4byte	.LVL129
 7985 0552 4C000000 		.4byte	.LFE77
 7986 0556 0400     		.2byte	0x4
 7987 0558 F3       		.byte	0xf3
 7988 0559 01       		.uleb128 0x1
 7989 055a 50       		.byte	0x50
 7990 055b 9F       		.byte	0x9f
 7991 055c 00000000 		.4byte	0
 7992 0560 00000000 		.4byte	0
 7993              	.LLST41:
 7994 0564 00000000 		.4byte	.LVL127
 7995 0568 08000000 		.4byte	.LVL128
 7996 056c 0100     		.2byte	0x1
 7997 056e 51       		.byte	0x51
 7998 056f 08000000 		.4byte	.LVL128
 7999 0573 16000000 		.4byte	.LVL131
ARM GAS  C:\Users\samue\AppData\Local\Temp\ccJDNHzo.s 			page 165


 8000 0577 0100     		.2byte	0x1
 8001 0579 54       		.byte	0x54
 8002 057a 16000000 		.4byte	.LVL131
 8003 057e 2E000000 		.4byte	.LVL134
 8004 0582 0400     		.2byte	0x4
 8005 0584 F3       		.byte	0xf3
 8006 0585 01       		.uleb128 0x1
 8007 0586 51       		.byte	0x51
 8008 0587 9F       		.byte	0x9f
 8009 0588 2E000000 		.4byte	.LVL134
 8010 058c 30000000 		.4byte	.LVL135
 8011 0590 0100     		.2byte	0x1
 8012 0592 54       		.byte	0x54
 8013 0593 30000000 		.4byte	.LVL135
 8014 0597 4C000000 		.4byte	.LFE77
 8015 059b 0400     		.2byte	0x4
 8016 059d F3       		.byte	0xf3
 8017 059e 01       		.uleb128 0x1
 8018 059f 51       		.byte	0x51
 8019 05a0 9F       		.byte	0x9f
 8020 05a1 00000000 		.4byte	0
 8021 05a5 00000000 		.4byte	0
 8022              	.LLST42:
 8023 05a9 00000000 		.4byte	.LVL127
 8024 05ad 0F000000 		.4byte	.LVL130-1
 8025 05b1 0100     		.2byte	0x1
 8026 05b3 52       		.byte	0x52
 8027 05b4 0F000000 		.4byte	.LVL130-1
 8028 05b8 48000000 		.4byte	.LVL139
 8029 05bc 0100     		.2byte	0x1
 8030 05be 57       		.byte	0x57
 8031 05bf 48000000 		.4byte	.LVL139
 8032 05c3 4C000000 		.4byte	.LFE77
 8033 05c7 0100     		.2byte	0x1
 8034 05c9 50       		.byte	0x50
 8035 05ca 00000000 		.4byte	0
 8036 05ce 00000000 		.4byte	0
 8037              	.LLST43:
 8038 05d2 16000000 		.4byte	.LVL131
 8039 05d6 2E000000 		.4byte	.LVL134
 8040 05da 0100     		.2byte	0x1
 8041 05dc 55       		.byte	0x55
 8042 05dd 30000000 		.4byte	.LVL135
 8043 05e1 32000000 		.4byte	.LVL136
 8044 05e5 0100     		.2byte	0x1
 8045 05e7 53       		.byte	0x53
 8046 05e8 32000000 		.4byte	.LVL136
 8047 05ec 36000000 		.4byte	.LVL137
 8048 05f0 0100     		.2byte	0x1
 8049 05f2 55       		.byte	0x55
 8050 05f3 00000000 		.4byte	0
 8051 05f7 00000000 		.4byte	0
 8052              	.LLST44:
 8053 05fb 16000000 		.4byte	.LVL131
 8054 05ff 18000000 		.4byte	.LVL132
 8055 0603 0100     		.2byte	0x1
 8056 0605 54       		.byte	0x54
ARM GAS  C:\Users\samue\AppData\Local\Temp\ccJDNHzo.s 			page 166


 8057 0606 18000000 		.4byte	.LVL132
 8058 060a 2E000000 		.4byte	.LVL134
 8059 060e 0100     		.2byte	0x1
 8060 0610 56       		.byte	0x56
 8061 0611 30000000 		.4byte	.LVL135
 8062 0615 36000000 		.4byte	.LVL137
 8063 0619 0100     		.2byte	0x1
 8064 061b 54       		.byte	0x54
 8065 061c 00000000 		.4byte	0
 8066 0620 00000000 		.4byte	0
 8067              	.LLST45:
 8068 0624 00000000 		.4byte	.LVL140
 8069 0628 1C000000 		.4byte	.LVL142
 8070 062c 0100     		.2byte	0x1
 8071 062e 50       		.byte	0x50
 8072 062f 1C000000 		.4byte	.LVL142
 8073 0633 2C000000 		.4byte	.LFE79
 8074 0637 0400     		.2byte	0x4
 8075 0639 F3       		.byte	0xf3
 8076 063a 01       		.uleb128 0x1
 8077 063b 50       		.byte	0x50
 8078 063c 9F       		.byte	0x9f
 8079 063d 00000000 		.4byte	0
 8080 0641 00000000 		.4byte	0
 8081              	.LLST46:
 8082 0645 00000000 		.4byte	.LVL140
 8083 0649 1A000000 		.4byte	.LVL141
 8084 064d 0100     		.2byte	0x1
 8085 064f 51       		.byte	0x51
 8086 0650 1A000000 		.4byte	.LVL141
 8087 0654 2C000000 		.4byte	.LFE79
 8088 0658 0400     		.2byte	0x4
 8089 065a F3       		.byte	0xf3
 8090 065b 01       		.uleb128 0x1
 8091 065c 51       		.byte	0x51
 8092 065d 9F       		.byte	0x9f
 8093 065e 00000000 		.4byte	0
 8094 0662 00000000 		.4byte	0
 8095              	.LLST47:
 8096 0666 00000000 		.4byte	.LVL144
 8097 066a 09000000 		.4byte	.LVL145-1
 8098 066e 0100     		.2byte	0x1
 8099 0670 50       		.byte	0x50
 8100 0671 09000000 		.4byte	.LVL145-1
 8101 0675 0C000000 		.4byte	.LFE78
 8102 0679 0400     		.2byte	0x4
 8103 067b F3       		.byte	0xf3
 8104 067c 01       		.uleb128 0x1
 8105 067d 50       		.byte	0x50
 8106 067e 9F       		.byte	0x9f
 8107 067f 00000000 		.4byte	0
 8108 0683 00000000 		.4byte	0
 8109              	.LLST48:
 8110 0687 00000000 		.4byte	.LVL147
 8111 068b 10000000 		.4byte	.LVL148
 8112 068f 0100     		.2byte	0x1
 8113 0691 50       		.byte	0x50
ARM GAS  C:\Users\samue\AppData\Local\Temp\ccJDNHzo.s 			page 167


 8114 0692 10000000 		.4byte	.LVL148
 8115 0696 1C000000 		.4byte	.LVL151
 8116 069a 0100     		.2byte	0x1
 8117 069c 54       		.byte	0x54
 8118 069d 1C000000 		.4byte	.LVL151
 8119 06a1 28000000 		.4byte	.LVL152
 8120 06a5 0100     		.2byte	0x1
 8121 06a7 50       		.byte	0x50
 8122 06a8 28000000 		.4byte	.LVL152
 8123 06ac 38000000 		.4byte	.LVL155
 8124 06b0 0100     		.2byte	0x1
 8125 06b2 54       		.byte	0x54
 8126 06b3 38000000 		.4byte	.LVL155
 8127 06b7 3A000000 		.4byte	.LVL156
 8128 06bb 0100     		.2byte	0x1
 8129 06bd 50       		.byte	0x50
 8130 06be 3A000000 		.4byte	.LVL156
 8131 06c2 4C000000 		.4byte	.LVL158
 8132 06c6 0100     		.2byte	0x1
 8133 06c8 54       		.byte	0x54
 8134 06c9 4C000000 		.4byte	.LVL158
 8135 06cd 58000000 		.4byte	.LFE88
 8136 06d1 0400     		.2byte	0x4
 8137 06d3 F3       		.byte	0xf3
 8138 06d4 01       		.uleb128 0x1
 8139 06d5 50       		.byte	0x50
 8140 06d6 9F       		.byte	0x9f
 8141 06d7 00000000 		.4byte	0
 8142 06db 00000000 		.4byte	0
 8143              	.LLST49:
 8144 06df 00000000 		.4byte	.LVL147
 8145 06e3 13000000 		.4byte	.LVL149-1
 8146 06e7 0100     		.2byte	0x1
 8147 06e9 51       		.byte	0x51
 8148 06ea 13000000 		.4byte	.LVL149-1
 8149 06ee 1C000000 		.4byte	.LVL151
 8150 06f2 0400     		.2byte	0x4
 8151 06f4 F3       		.byte	0xf3
 8152 06f5 01       		.uleb128 0x1
 8153 06f6 51       		.byte	0x51
 8154 06f7 9F       		.byte	0x9f
 8155 06f8 1C000000 		.4byte	.LVL151
 8156 06fc 28000000 		.4byte	.LVL152
 8157 0700 0100     		.2byte	0x1
 8158 0702 51       		.byte	0x51
 8159 0703 28000000 		.4byte	.LVL152
 8160 0707 38000000 		.4byte	.LVL155
 8161 070b 0400     		.2byte	0x4
 8162 070d F3       		.byte	0xf3
 8163 070e 01       		.uleb128 0x1
 8164 070f 51       		.byte	0x51
 8165 0710 9F       		.byte	0x9f
 8166 0711 38000000 		.4byte	.LVL155
 8167 0715 3A000000 		.4byte	.LVL156
 8168 0719 0100     		.2byte	0x1
 8169 071b 51       		.byte	0x51
 8170 071c 3A000000 		.4byte	.LVL156
ARM GAS  C:\Users\samue\AppData\Local\Temp\ccJDNHzo.s 			page 168


 8171 0720 58000000 		.4byte	.LFE88
 8172 0724 0400     		.2byte	0x4
 8173 0726 F3       		.byte	0xf3
 8174 0727 01       		.uleb128 0x1
 8175 0728 51       		.byte	0x51
 8176 0729 9F       		.byte	0x9f
 8177 072a 00000000 		.4byte	0
 8178 072e 00000000 		.4byte	0
 8179              	.LLST50:
 8180 0732 28000000 		.4byte	.LVL152
 8181 0736 38000000 		.4byte	.LVL155
 8182 073a 0100     		.2byte	0x1
 8183 073c 55       		.byte	0x55
 8184 073d 3A000000 		.4byte	.LVL156
 8185 0741 40000000 		.4byte	.LVL157
 8186 0745 0100     		.2byte	0x1
 8187 0747 55       		.byte	0x55
 8188 0748 00000000 		.4byte	0
 8189 074c 00000000 		.4byte	0
 8190              	.LLST51:
 8191 0750 00000000 		.4byte	.LVL159
 8192 0754 10000000 		.4byte	.LVL160
 8193 0758 0100     		.2byte	0x1
 8194 075a 50       		.byte	0x50
 8195 075b 10000000 		.4byte	.LVL160
 8196 075f 1C000000 		.4byte	.LVL163
 8197 0763 0100     		.2byte	0x1
 8198 0765 54       		.byte	0x54
 8199 0766 1C000000 		.4byte	.LVL163
 8200 076a 2C000000 		.4byte	.LFE94
 8201 076e 0100     		.2byte	0x1
 8202 0770 50       		.byte	0x50
 8203 0771 00000000 		.4byte	0
 8204 0775 00000000 		.4byte	0
 8205              	.LLST52:
 8206 0779 00000000 		.4byte	.LVL159
 8207 077d 13000000 		.4byte	.LVL161-1
 8208 0781 0100     		.2byte	0x1
 8209 0783 51       		.byte	0x51
 8210 0784 13000000 		.4byte	.LVL161-1
 8211 0788 1C000000 		.4byte	.LVL163
 8212 078c 0400     		.2byte	0x4
 8213 078e F3       		.byte	0xf3
 8214 078f 01       		.uleb128 0x1
 8215 0790 51       		.byte	0x51
 8216 0791 9F       		.byte	0x9f
 8217 0792 1C000000 		.4byte	.LVL163
 8218 0796 2C000000 		.4byte	.LFE94
 8219 079a 0100     		.2byte	0x1
 8220 079c 51       		.byte	0x51
 8221 079d 00000000 		.4byte	0
 8222 07a1 00000000 		.4byte	0
 8223              	.LLST53:
 8224 07a5 00000000 		.4byte	.LVL164
 8225 07a9 14000000 		.4byte	.LVL165
 8226 07ad 0100     		.2byte	0x1
 8227 07af 50       		.byte	0x50
ARM GAS  C:\Users\samue\AppData\Local\Temp\ccJDNHzo.s 			page 169


 8228 07b0 14000000 		.4byte	.LVL165
 8229 07b4 2C000000 		.4byte	.LVL169
 8230 07b8 0100     		.2byte	0x1
 8231 07ba 54       		.byte	0x54
 8232 07bb 2C000000 		.4byte	.LVL169
 8233 07bf 32000000 		.4byte	.LVL171
 8234 07c3 0100     		.2byte	0x1
 8235 07c5 50       		.byte	0x50
 8236 07c6 32000000 		.4byte	.LVL171
 8237 07ca 38000000 		.4byte	.LVL173
 8238 07ce 0100     		.2byte	0x1
 8239 07d0 54       		.byte	0x54
 8240 07d1 38000000 		.4byte	.LVL173
 8241 07d5 48000000 		.4byte	.LFE99
 8242 07d9 0100     		.2byte	0x1
 8243 07db 50       		.byte	0x50
 8244 07dc 00000000 		.4byte	0
 8245 07e0 00000000 		.4byte	0
 8246              	.LLST54:
 8247 07e4 00000000 		.4byte	.LVL164
 8248 07e8 17000000 		.4byte	.LVL166-1
 8249 07ec 0100     		.2byte	0x1
 8250 07ee 51       		.byte	0x51
 8251 07ef 17000000 		.4byte	.LVL166-1
 8252 07f3 2C000000 		.4byte	.LVL169
 8253 07f7 0400     		.2byte	0x4
 8254 07f9 F3       		.byte	0xf3
 8255 07fa 01       		.uleb128 0x1
 8256 07fb 51       		.byte	0x51
 8257 07fc 9F       		.byte	0x9f
 8258 07fd 2C000000 		.4byte	.LVL169
 8259 0801 30000000 		.4byte	.LVL170
 8260 0805 0100     		.2byte	0x1
 8261 0807 51       		.byte	0x51
 8262 0808 30000000 		.4byte	.LVL170
 8263 080c 38000000 		.4byte	.LVL173
 8264 0810 0400     		.2byte	0x4
 8265 0812 F3       		.byte	0xf3
 8266 0813 01       		.uleb128 0x1
 8267 0814 51       		.byte	0x51
 8268 0815 9F       		.byte	0x9f
 8269 0816 38000000 		.4byte	.LVL173
 8270 081a 48000000 		.4byte	.LFE99
 8271 081e 0100     		.2byte	0x1
 8272 0820 51       		.byte	0x51
 8273 0821 00000000 		.4byte	0
 8274 0825 00000000 		.4byte	0
 8275              	.LLST55:
 8276 0829 00000000 		.4byte	.LVL174
 8277 082d 10000000 		.4byte	.LVL175
 8278 0831 0100     		.2byte	0x1
 8279 0833 50       		.byte	0x50
 8280 0834 10000000 		.4byte	.LVL175
 8281 0838 1C000000 		.4byte	.LVL178
 8282 083c 0100     		.2byte	0x1
 8283 083e 54       		.byte	0x54
 8284 083f 1C000000 		.4byte	.LVL178
ARM GAS  C:\Users\samue\AppData\Local\Temp\ccJDNHzo.s 			page 170


 8285 0843 28000000 		.4byte	.LVL179
 8286 0847 0100     		.2byte	0x1
 8287 0849 50       		.byte	0x50
 8288 084a 28000000 		.4byte	.LVL179
 8289 084e 38000000 		.4byte	.LVL182
 8290 0852 0100     		.2byte	0x1
 8291 0854 54       		.byte	0x54
 8292 0855 38000000 		.4byte	.LVL182
 8293 0859 3A000000 		.4byte	.LVL183
 8294 085d 0100     		.2byte	0x1
 8295 085f 50       		.byte	0x50
 8296 0860 3A000000 		.4byte	.LVL183
 8297 0864 4C000000 		.4byte	.LVL185
 8298 0868 0100     		.2byte	0x1
 8299 086a 54       		.byte	0x54
 8300 086b 4C000000 		.4byte	.LVL185
 8301 086f 58000000 		.4byte	.LFE100
 8302 0873 0400     		.2byte	0x4
 8303 0875 F3       		.byte	0xf3
 8304 0876 01       		.uleb128 0x1
 8305 0877 50       		.byte	0x50
 8306 0878 9F       		.byte	0x9f
 8307 0879 00000000 		.4byte	0
 8308 087d 00000000 		.4byte	0
 8309              	.LLST56:
 8310 0881 00000000 		.4byte	.LVL174
 8311 0885 13000000 		.4byte	.LVL176-1
 8312 0889 0100     		.2byte	0x1
 8313 088b 51       		.byte	0x51
 8314 088c 13000000 		.4byte	.LVL176-1
 8315 0890 1C000000 		.4byte	.LVL178
 8316 0894 0400     		.2byte	0x4
 8317 0896 F3       		.byte	0xf3
 8318 0897 01       		.uleb128 0x1
 8319 0898 51       		.byte	0x51
 8320 0899 9F       		.byte	0x9f
 8321 089a 1C000000 		.4byte	.LVL178
 8322 089e 28000000 		.4byte	.LVL179
 8323 08a2 0100     		.2byte	0x1
 8324 08a4 51       		.byte	0x51
 8325 08a5 28000000 		.4byte	.LVL179
 8326 08a9 38000000 		.4byte	.LVL182
 8327 08ad 0400     		.2byte	0x4
 8328 08af F3       		.byte	0xf3
 8329 08b0 01       		.uleb128 0x1
 8330 08b1 51       		.byte	0x51
 8331 08b2 9F       		.byte	0x9f
 8332 08b3 38000000 		.4byte	.LVL182
 8333 08b7 3A000000 		.4byte	.LVL183
 8334 08bb 0100     		.2byte	0x1
 8335 08bd 51       		.byte	0x51
 8336 08be 3A000000 		.4byte	.LVL183
 8337 08c2 58000000 		.4byte	.LFE100
 8338 08c6 0400     		.2byte	0x4
 8339 08c8 F3       		.byte	0xf3
 8340 08c9 01       		.uleb128 0x1
 8341 08ca 51       		.byte	0x51
ARM GAS  C:\Users\samue\AppData\Local\Temp\ccJDNHzo.s 			page 171


 8342 08cb 9F       		.byte	0x9f
 8343 08cc 00000000 		.4byte	0
 8344 08d0 00000000 		.4byte	0
 8345              	.LLST57:
 8346 08d4 28000000 		.4byte	.LVL179
 8347 08d8 38000000 		.4byte	.LVL182
 8348 08dc 0100     		.2byte	0x1
 8349 08de 55       		.byte	0x55
 8350 08df 3A000000 		.4byte	.LVL183
 8351 08e3 40000000 		.4byte	.LVL184
 8352 08e7 0100     		.2byte	0x1
 8353 08e9 55       		.byte	0x55
 8354 08ea 00000000 		.4byte	0
 8355 08ee 00000000 		.4byte	0
 8356              	.LLST58:
 8357 08f2 00000000 		.4byte	.LVL186
 8358 08f6 04000000 		.4byte	.LVL187
 8359 08fa 0100     		.2byte	0x1
 8360 08fc 50       		.byte	0x50
 8361 08fd 04000000 		.4byte	.LVL187
 8362 0901 16000000 		.4byte	.LFE81
 8363 0905 0100     		.2byte	0x1
 8364 0907 54       		.byte	0x54
 8365 0908 00000000 		.4byte	0
 8366 090c 00000000 		.4byte	0
 8367              	.LLST59:
 8368 0910 04000000 		.4byte	.LVL187
 8369 0914 0A000000 		.4byte	.LVL188
 8370 0918 0300     		.2byte	0x3
 8371 091a 74       		.byte	0x74
 8372 091b 20       		.sleb128 32
 8373 091c 9F       		.byte	0x9f
 8374 091d 0A000000 		.4byte	.LVL188
 8375 0921 0F000000 		.4byte	.LVL189-1
 8376 0925 0100     		.2byte	0x1
 8377 0927 51       		.byte	0x51
 8378 0928 0F000000 		.4byte	.LVL189-1
 8379 092c 10000000 		.4byte	.LVL189
 8380 0930 0300     		.2byte	0x3
 8381 0932 74       		.byte	0x74
 8382 0933 20       		.sleb128 32
 8383 0934 9F       		.byte	0x9f
 8384 0935 00000000 		.4byte	0
 8385 0939 00000000 		.4byte	0
 8386              	.LLST60:
 8387 093d 04000000 		.4byte	.LVL187
 8388 0941 10000000 		.4byte	.LVL189
 8389 0945 0100     		.2byte	0x1
 8390 0947 54       		.byte	0x54
 8391 0948 00000000 		.4byte	0
 8392 094c 00000000 		.4byte	0
 8393              	.LLST61:
 8394 0950 00000000 		.4byte	.LVL190
 8395 0954 08000000 		.4byte	.LVL191
 8396 0958 0100     		.2byte	0x1
 8397 095a 50       		.byte	0x50
 8398 095b 08000000 		.4byte	.LVL191
ARM GAS  C:\Users\samue\AppData\Local\Temp\ccJDNHzo.s 			page 172


 8399 095f 36000000 		.4byte	.LFE82
 8400 0963 0100     		.2byte	0x1
 8401 0965 54       		.byte	0x54
 8402 0966 00000000 		.4byte	0
 8403 096a 00000000 		.4byte	0
 8404              	.LLST62:
 8405 096e 00000000 		.4byte	.LVL190
 8406 0972 08000000 		.4byte	.LVL191
 8407 0976 0100     		.2byte	0x1
 8408 0978 51       		.byte	0x51
 8409 0979 08000000 		.4byte	.LVL191
 8410 097d 36000000 		.4byte	.LFE82
 8411 0981 0100     		.2byte	0x1
 8412 0983 55       		.byte	0x55
 8413 0984 00000000 		.4byte	0
 8414 0988 00000000 		.4byte	0
 8415              	.LLST63:
 8416 098c 1C000000 		.4byte	.LVL192
 8417 0990 26000000 		.4byte	.LVL193
 8418 0994 0100     		.2byte	0x1
 8419 0996 54       		.byte	0x54
 8420 0997 00000000 		.4byte	0
 8421 099b 00000000 		.4byte	0
 8422              	.LLST64:
 8423 099f 00000000 		.4byte	.LVL194
 8424 09a3 08000000 		.4byte	.LVL196
 8425 09a7 0100     		.2byte	0x1
 8426 09a9 50       		.byte	0x50
 8427 09aa 08000000 		.4byte	.LVL196
 8428 09ae 20000000 		.4byte	.LVL197
 8429 09b2 0100     		.2byte	0x1
 8430 09b4 54       		.byte	0x54
 8431 09b5 20000000 		.4byte	.LVL197
 8432 09b9 32000000 		.4byte	.LVL200
 8433 09bd 0300     		.2byte	0x3
 8434 09bf 76       		.byte	0x76
 8435 09c0 60       		.sleb128 -32
 8436 09c1 9F       		.byte	0x9f
 8437 09c2 32000000 		.4byte	.LVL200
 8438 09c6 54000000 		.4byte	.LVL206
 8439 09ca 0100     		.2byte	0x1
 8440 09cc 54       		.byte	0x54
 8441 09cd 54000000 		.4byte	.LVL206
 8442 09d1 58000000 		.4byte	.LFE83
 8443 09d5 0400     		.2byte	0x4
 8444 09d7 F3       		.byte	0xf3
 8445 09d8 01       		.uleb128 0x1
 8446 09d9 50       		.byte	0x50
 8447 09da 9F       		.byte	0x9f
 8448 09db 00000000 		.4byte	0
 8449 09df 00000000 		.4byte	0
 8450              	.LLST65:
 8451 09e3 00000000 		.4byte	.LVL194
 8452 09e7 08000000 		.4byte	.LVL196
 8453 09eb 0100     		.2byte	0x1
 8454 09ed 51       		.byte	0x51
 8455 09ee 08000000 		.4byte	.LVL196
ARM GAS  C:\Users\samue\AppData\Local\Temp\ccJDNHzo.s 			page 173


 8456 09f2 54000000 		.4byte	.LVL206
 8457 09f6 0100     		.2byte	0x1
 8458 09f8 55       		.byte	0x55
 8459 09f9 54000000 		.4byte	.LVL206
 8460 09fd 58000000 		.4byte	.LFE83
 8461 0a01 0400     		.2byte	0x4
 8462 0a03 F3       		.byte	0xf3
 8463 0a04 01       		.uleb128 0x1
 8464 0a05 51       		.byte	0x51
 8465 0a06 9F       		.byte	0x9f
 8466 0a07 00000000 		.4byte	0
 8467 0a0b 00000000 		.4byte	0
 8468              	.LLST66:
 8469 0a0f 06000000 		.4byte	.LVL195
 8470 0a13 2E000000 		.4byte	.LVL199
 8471 0a17 0200     		.2byte	0x2
 8472 0a19 30       		.byte	0x30
 8473 0a1a 9F       		.byte	0x9f
 8474 0a1b 2E000000 		.4byte	.LVL199
 8475 0a1f 32000000 		.4byte	.LVL200
 8476 0a23 0200     		.2byte	0x2
 8477 0a25 31       		.byte	0x31
 8478 0a26 9F       		.byte	0x9f
 8479 0a27 32000000 		.4byte	.LVL200
 8480 0a2b 52000000 		.4byte	.LVL205
 8481 0a2f 0200     		.2byte	0x2
 8482 0a31 30       		.byte	0x30
 8483 0a32 9F       		.byte	0x9f
 8484 0a33 52000000 		.4byte	.LVL205
 8485 0a37 58000000 		.4byte	.LFE83
 8486 0a3b 0100     		.2byte	0x1
 8487 0a3d 50       		.byte	0x50
 8488 0a3e 00000000 		.4byte	0
 8489 0a42 00000000 		.4byte	0
 8490              	.LLST67:
 8491 0a46 40000000 		.4byte	.LVL201
 8492 0a4a 44000000 		.4byte	.LVL202
 8493 0a4e 0600     		.2byte	0x6
 8494 0a50 76       		.byte	0x76
 8495 0a51 00       		.sleb128 0
 8496 0a52 71       		.byte	0x71
 8497 0a53 00       		.sleb128 0
 8498 0a54 22       		.byte	0x22
 8499 0a55 9F       		.byte	0x9f
 8500 0a56 44000000 		.4byte	.LVL202
 8501 0a5a 49000000 		.4byte	.LVL203-1
 8502 0a5e 0100     		.2byte	0x1
 8503 0a60 51       		.byte	0x51
 8504 0a61 00000000 		.4byte	0
 8505 0a65 00000000 		.4byte	0
 8506              	.LLST68:
 8507 0a69 40000000 		.4byte	.LVL201
 8508 0a6d 4A000000 		.4byte	.LVL203
 8509 0a71 0100     		.2byte	0x1
 8510 0a73 54       		.byte	0x54
 8511 0a74 00000000 		.4byte	0
 8512 0a78 00000000 		.4byte	0
ARM GAS  C:\Users\samue\AppData\Local\Temp\ccJDNHzo.s 			page 174


 8513              	.LLST69:
 8514 0a7c 00000000 		.4byte	.LVL207
 8515 0a80 0E000000 		.4byte	.LVL209
 8516 0a84 0100     		.2byte	0x1
 8517 0a86 50       		.byte	0x50
 8518 0a87 0E000000 		.4byte	.LVL209
 8519 0a8b 60000000 		.4byte	.LFE84
 8520 0a8f 0100     		.2byte	0x1
 8521 0a91 58       		.byte	0x58
 8522 0a92 00000000 		.4byte	0
 8523 0a96 00000000 		.4byte	0
 8524              	.LLST70:
 8525 0a9a 00000000 		.4byte	.LVL207
 8526 0a9e 0E000000 		.4byte	.LVL209
 8527 0aa2 0100     		.2byte	0x1
 8528 0aa4 51       		.byte	0x51
 8529 0aa5 0E000000 		.4byte	.LVL209
 8530 0aa9 60000000 		.4byte	.LFE84
 8531 0aad 0100     		.2byte	0x1
 8532 0aaf 57       		.byte	0x57
 8533 0ab0 00000000 		.4byte	0
 8534 0ab4 00000000 		.4byte	0
 8535              	.LLST71:
 8536 0ab8 08000000 		.4byte	.LVL208
 8537 0abc 0E000000 		.4byte	.LVL209
 8538 0ac0 0300     		.2byte	0x3
 8539 0ac2 09       		.byte	0x9
 8540 0ac3 FF       		.byte	0xff
 8541 0ac4 9F       		.byte	0x9f
 8542 0ac5 0E000000 		.4byte	.LVL209
 8543 0ac9 60000000 		.4byte	.LFE84
 8544 0acd 0100     		.2byte	0x1
 8545 0acf 55       		.byte	0x55
 8546 0ad0 00000000 		.4byte	0
 8547 0ad4 00000000 		.4byte	0
 8548              	.LLST72:
 8549 0ad8 20000000 		.4byte	.LVL210
 8550 0adc 22000000 		.4byte	.LVL211
 8551 0ae0 0200     		.2byte	0x2
 8552 0ae2 30       		.byte	0x30
 8553 0ae3 9F       		.byte	0x9f
 8554 0ae4 22000000 		.4byte	.LVL211
 8555 0ae8 3A000000 		.4byte	.LVL215
 8556 0aec 0100     		.2byte	0x1
 8557 0aee 54       		.byte	0x54
 8558 0aef 00000000 		.4byte	0
 8559 0af3 00000000 		.4byte	0
 8560              	.LLST73:
 8561 0af7 4A000000 		.4byte	.LVL216
 8562 0afb 4E000000 		.4byte	.LVL217
 8563 0aff 0600     		.2byte	0x6
 8564 0b01 76       		.byte	0x76
 8565 0b02 00       		.sleb128 0
 8566 0b03 71       		.byte	0x71
 8567 0b04 00       		.sleb128 0
 8568 0b05 22       		.byte	0x22
 8569 0b06 9F       		.byte	0x9f
ARM GAS  C:\Users\samue\AppData\Local\Temp\ccJDNHzo.s 			page 175


 8570 0b07 4E000000 		.4byte	.LVL217
 8571 0b0b 55000000 		.4byte	.LVL218-1
 8572 0b0f 0100     		.2byte	0x1
 8573 0b11 51       		.byte	0x51
 8574 0b12 00000000 		.4byte	0
 8575 0b16 00000000 		.4byte	0
 8576              	.LLST74:
 8577 0b1a 4A000000 		.4byte	.LVL216
 8578 0b1e 56000000 		.4byte	.LVL218
 8579 0b22 0100     		.2byte	0x1
 8580 0b24 58       		.byte	0x58
 8581 0b25 00000000 		.4byte	0
 8582 0b29 00000000 		.4byte	0
 8583              	.LLST75:
 8584 0b2d 00000000 		.4byte	.LVL219
 8585 0b31 07000000 		.4byte	.LVL220-1
 8586 0b35 0100     		.2byte	0x1
 8587 0b37 50       		.byte	0x50
 8588 0b38 07000000 		.4byte	.LVL220-1
 8589 0b3c 10000000 		.4byte	.LFE85
 8590 0b40 0400     		.2byte	0x4
 8591 0b42 F3       		.byte	0xf3
 8592 0b43 01       		.uleb128 0x1
 8593 0b44 50       		.byte	0x50
 8594 0b45 9F       		.byte	0x9f
 8595 0b46 00000000 		.4byte	0
 8596 0b4a 00000000 		.4byte	0
 8597              	.LLST76:
 8598 0b4e 00000000 		.4byte	.LVL221
 8599 0b52 10000000 		.4byte	.LVL223
 8600 0b56 0100     		.2byte	0x1
 8601 0b58 50       		.byte	0x50
 8602 0b59 10000000 		.4byte	.LVL223
 8603 0b5d 34000000 		.4byte	.LVL229
 8604 0b61 0100     		.2byte	0x1
 8605 0b63 55       		.byte	0x55
 8606 0b64 34000000 		.4byte	.LVL229
 8607 0b68 37000000 		.4byte	.LVL230-1
 8608 0b6c 0100     		.2byte	0x1
 8609 0b6e 50       		.byte	0x50
 8610 0b6f 37000000 		.4byte	.LVL230-1
 8611 0b73 5E000000 		.4byte	.LVL235
 8612 0b77 0100     		.2byte	0x1
 8613 0b79 55       		.byte	0x55
 8614 0b7a 5E000000 		.4byte	.LVL235
 8615 0b7e 78000000 		.4byte	.LFE90
 8616 0b82 0400     		.2byte	0x4
 8617 0b84 F3       		.byte	0xf3
 8618 0b85 01       		.uleb128 0x1
 8619 0b86 50       		.byte	0x50
 8620 0b87 9F       		.byte	0x9f
 8621 0b88 00000000 		.4byte	0
 8622 0b8c 00000000 		.4byte	0
 8623              	.LLST77:
 8624 0b90 00000000 		.4byte	.LVL221
 8625 0b94 13000000 		.4byte	.LVL224-1
 8626 0b98 0100     		.2byte	0x1
ARM GAS  C:\Users\samue\AppData\Local\Temp\ccJDNHzo.s 			page 176


 8627 0b9a 51       		.byte	0x51
 8628 0b9b 13000000 		.4byte	.LVL224-1
 8629 0b9f 34000000 		.4byte	.LVL229
 8630 0ba3 0400     		.2byte	0x4
 8631 0ba5 F3       		.byte	0xf3
 8632 0ba6 01       		.uleb128 0x1
 8633 0ba7 51       		.byte	0x51
 8634 0ba8 9F       		.byte	0x9f
 8635 0ba9 34000000 		.4byte	.LVL229
 8636 0bad 37000000 		.4byte	.LVL230-1
 8637 0bb1 0100     		.2byte	0x1
 8638 0bb3 51       		.byte	0x51
 8639 0bb4 37000000 		.4byte	.LVL230-1
 8640 0bb8 78000000 		.4byte	.LFE90
 8641 0bbc 0400     		.2byte	0x4
 8642 0bbe F3       		.byte	0xf3
 8643 0bbf 01       		.uleb128 0x1
 8644 0bc0 51       		.byte	0x51
 8645 0bc1 9F       		.byte	0x9f
 8646 0bc2 00000000 		.4byte	0
 8647 0bc6 00000000 		.4byte	0
 8648              	.LLST78:
 8649 0bca 04000000 		.4byte	.LVL222
 8650 0bce 38000000 		.4byte	.LVL230
 8651 0bd2 0300     		.2byte	0x3
 8652 0bd4 09       		.byte	0x9
 8653 0bd5 FF       		.byte	0xff
 8654 0bd6 9F       		.byte	0x9f
 8655 0bd7 38000000 		.4byte	.LVL230
 8656 0bdb 44000000 		.4byte	.LVL231
 8657 0bdf 0100     		.2byte	0x1
 8658 0be1 50       		.byte	0x50
 8659 0be2 44000000 		.4byte	.LVL231
 8660 0be6 47000000 		.4byte	.LVL232-1
 8661 0bea 0100     		.2byte	0x1
 8662 0bec 51       		.byte	0x51
 8663 0bed 00000000 		.4byte	0
 8664 0bf1 00000000 		.4byte	0
 8665              	.LLST79:
 8666 0bf5 1A000000 		.4byte	.LVL225
 8667 0bf9 1E000000 		.4byte	.LVL226
 8668 0bfd 0600     		.2byte	0x6
 8669 0bff 03       		.byte	0x3
 8670 0c00 84000000 		.4byte	.LC14
 8671 0c04 9F       		.byte	0x9f
 8672 0c05 1E000000 		.4byte	.LVL226
 8673 0c09 34000000 		.4byte	.LVL229
 8674 0c0d 0100     		.2byte	0x1
 8675 0c0f 54       		.byte	0x54
 8676 0c10 00000000 		.4byte	0
 8677 0c14 00000000 		.4byte	0
 8678              	.LLST80:
 8679 0c18 1A000000 		.4byte	.LVL225
 8680 0c1c 34000000 		.4byte	.LVL229
 8681 0c20 0100     		.2byte	0x1
 8682 0c22 55       		.byte	0x55
 8683 0c23 00000000 		.4byte	0
ARM GAS  C:\Users\samue\AppData\Local\Temp\ccJDNHzo.s 			page 177


 8684 0c27 00000000 		.4byte	0
 8685              	.LLST81:
 8686 0c2b 00000000 		.4byte	.LVL236
 8687 0c2f 12000000 		.4byte	.LVL237
 8688 0c33 0100     		.2byte	0x1
 8689 0c35 50       		.byte	0x50
 8690 0c36 12000000 		.4byte	.LVL237
 8691 0c3a 1E000000 		.4byte	.LVL240
 8692 0c3e 0100     		.2byte	0x1
 8693 0c40 54       		.byte	0x54
 8694 0c41 1E000000 		.4byte	.LVL240
 8695 0c45 2B000000 		.4byte	.LVL241-1
 8696 0c49 0100     		.2byte	0x1
 8697 0c4b 50       		.byte	0x50
 8698 0c4c 2B000000 		.4byte	.LVL241-1
 8699 0c50 38000000 		.4byte	.LVL242
 8700 0c54 0100     		.2byte	0x1
 8701 0c56 54       		.byte	0x54
 8702 0c57 38000000 		.4byte	.LVL242
 8703 0c5b 3B000000 		.4byte	.LVL243-1
 8704 0c5f 0100     		.2byte	0x1
 8705 0c61 50       		.byte	0x50
 8706 0c62 3B000000 		.4byte	.LVL243-1
 8707 0c66 44000000 		.4byte	.LVL245
 8708 0c6a 0100     		.2byte	0x1
 8709 0c6c 54       		.byte	0x54
 8710 0c6d 44000000 		.4byte	.LVL245
 8711 0c71 4C000000 		.4byte	.LFE93
 8712 0c75 0400     		.2byte	0x4
 8713 0c77 F3       		.byte	0xf3
 8714 0c78 01       		.uleb128 0x1
 8715 0c79 50       		.byte	0x50
 8716 0c7a 9F       		.byte	0x9f
 8717 0c7b 00000000 		.4byte	0
 8718 0c7f 00000000 		.4byte	0
 8719              	.LLST82:
 8720 0c83 00000000 		.4byte	.LVL236
 8721 0c87 15000000 		.4byte	.LVL238-1
 8722 0c8b 0100     		.2byte	0x1
 8723 0c8d 51       		.byte	0x51
 8724 0c8e 15000000 		.4byte	.LVL238-1
 8725 0c92 1E000000 		.4byte	.LVL240
 8726 0c96 0400     		.2byte	0x4
 8727 0c98 F3       		.byte	0xf3
 8728 0c99 01       		.uleb128 0x1
 8729 0c9a 51       		.byte	0x51
 8730 0c9b 9F       		.byte	0x9f
 8731 0c9c 1E000000 		.4byte	.LVL240
 8732 0ca0 2B000000 		.4byte	.LVL241-1
 8733 0ca4 0100     		.2byte	0x1
 8734 0ca6 51       		.byte	0x51
 8735 0ca7 2B000000 		.4byte	.LVL241-1
 8736 0cab 38000000 		.4byte	.LVL242
 8737 0caf 0400     		.2byte	0x4
 8738 0cb1 F3       		.byte	0xf3
 8739 0cb2 01       		.uleb128 0x1
 8740 0cb3 51       		.byte	0x51
ARM GAS  C:\Users\samue\AppData\Local\Temp\ccJDNHzo.s 			page 178


 8741 0cb4 9F       		.byte	0x9f
 8742 0cb5 38000000 		.4byte	.LVL242
 8743 0cb9 3B000000 		.4byte	.LVL243-1
 8744 0cbd 0100     		.2byte	0x1
 8745 0cbf 51       		.byte	0x51
 8746 0cc0 3B000000 		.4byte	.LVL243-1
 8747 0cc4 4C000000 		.4byte	.LFE93
 8748 0cc8 0400     		.2byte	0x4
 8749 0cca F3       		.byte	0xf3
 8750 0ccb 01       		.uleb128 0x1
 8751 0ccc 51       		.byte	0x51
 8752 0ccd 9F       		.byte	0x9f
 8753 0cce 00000000 		.4byte	0
 8754 0cd2 00000000 		.4byte	0
 8755              	.LLST83:
 8756 0cd6 3C000000 		.4byte	.LVL243
 8757 0cda 42000000 		.4byte	.LVL244
 8758 0cde 0100     		.2byte	0x1
 8759 0ce0 50       		.byte	0x50
 8760 0ce1 00000000 		.4byte	0
 8761 0ce5 00000000 		.4byte	0
 8762              	.LLST84:
 8763 0ce9 00000000 		.4byte	.LVL246
 8764 0ced 10000000 		.4byte	.LVL247
 8765 0cf1 0100     		.2byte	0x1
 8766 0cf3 50       		.byte	0x50
 8767 0cf4 10000000 		.4byte	.LVL247
 8768 0cf8 22000000 		.4byte	.LVL251
 8769 0cfc 0100     		.2byte	0x1
 8770 0cfe 54       		.byte	0x54
 8771 0cff 22000000 		.4byte	.LVL251
 8772 0d03 25000000 		.4byte	.LVL252-1
 8773 0d07 0100     		.2byte	0x1
 8774 0d09 50       		.byte	0x50
 8775 0d0a 25000000 		.4byte	.LVL252-1
 8776 0d0e 4C000000 		.4byte	.LVL259
 8777 0d12 0100     		.2byte	0x1
 8778 0d14 54       		.byte	0x54
 8779 0d15 4C000000 		.4byte	.LVL259
 8780 0d19 5C000000 		.4byte	.LFE96
 8781 0d1d 0400     		.2byte	0x4
 8782 0d1f F3       		.byte	0xf3
 8783 0d20 01       		.uleb128 0x1
 8784 0d21 50       		.byte	0x50
 8785 0d22 9F       		.byte	0x9f
 8786 0d23 00000000 		.4byte	0
 8787 0d27 00000000 		.4byte	0
 8788              	.LLST85:
 8789 0d2b 00000000 		.4byte	.LVL246
 8790 0d2f 13000000 		.4byte	.LVL248-1
 8791 0d33 0100     		.2byte	0x1
 8792 0d35 51       		.byte	0x51
 8793 0d36 13000000 		.4byte	.LVL248-1
 8794 0d3a 22000000 		.4byte	.LVL251
 8795 0d3e 0400     		.2byte	0x4
 8796 0d40 F3       		.byte	0xf3
 8797 0d41 01       		.uleb128 0x1
ARM GAS  C:\Users\samue\AppData\Local\Temp\ccJDNHzo.s 			page 179


 8798 0d42 51       		.byte	0x51
 8799 0d43 9F       		.byte	0x9f
 8800 0d44 22000000 		.4byte	.LVL251
 8801 0d48 25000000 		.4byte	.LVL252-1
 8802 0d4c 0100     		.2byte	0x1
 8803 0d4e 51       		.byte	0x51
 8804 0d4f 25000000 		.4byte	.LVL252-1
 8805 0d53 5C000000 		.4byte	.LFE96
 8806 0d57 0400     		.2byte	0x4
 8807 0d59 F3       		.byte	0xf3
 8808 0d5a 01       		.uleb128 0x1
 8809 0d5b 51       		.byte	0x51
 8810 0d5c 9F       		.byte	0x9f
 8811 0d5d 00000000 		.4byte	0
 8812 0d61 00000000 		.4byte	0
 8813              	.LLST86:
 8814 0d65 26000000 		.4byte	.LVL252
 8815 0d69 2E000000 		.4byte	.LVL253
 8816 0d6d 0100     		.2byte	0x1
 8817 0d6f 50       		.byte	0x50
 8818 0d70 3A000000 		.4byte	.LVL255
 8819 0d74 40000000 		.4byte	.LVL256
 8820 0d78 0100     		.2byte	0x1
 8821 0d7a 50       		.byte	0x50
 8822 0d7b 00000000 		.4byte	0
 8823 0d7f 00000000 		.4byte	0
 8824              	.LLST87:
 8825 0d83 00000000 		.4byte	.LVL260
 8826 0d87 10000000 		.4byte	.LVL261
 8827 0d8b 0100     		.2byte	0x1
 8828 0d8d 50       		.byte	0x50
 8829 0d8e 10000000 		.4byte	.LVL261
 8830 0d92 34000000 		.4byte	.LVL267
 8831 0d96 0100     		.2byte	0x1
 8832 0d98 55       		.byte	0x55
 8833 0d99 34000000 		.4byte	.LVL267
 8834 0d9d 37000000 		.4byte	.LVL268-1
 8835 0da1 0100     		.2byte	0x1
 8836 0da3 50       		.byte	0x50
 8837 0da4 37000000 		.4byte	.LVL268-1
 8838 0da8 40000000 		.4byte	.LVL269
 8839 0dac 0100     		.2byte	0x1
 8840 0dae 55       		.byte	0x55
 8841 0daf 40000000 		.4byte	.LVL269
 8842 0db3 4C000000 		.4byte	.LFE97
 8843 0db7 0400     		.2byte	0x4
 8844 0db9 F3       		.byte	0xf3
 8845 0dba 01       		.uleb128 0x1
 8846 0dbb 50       		.byte	0x50
 8847 0dbc 9F       		.byte	0x9f
 8848 0dbd 00000000 		.4byte	0
 8849 0dc1 00000000 		.4byte	0
 8850              	.LLST88:
 8851 0dc5 00000000 		.4byte	.LVL260
 8852 0dc9 13000000 		.4byte	.LVL262-1
 8853 0dcd 0100     		.2byte	0x1
 8854 0dcf 51       		.byte	0x51
ARM GAS  C:\Users\samue\AppData\Local\Temp\ccJDNHzo.s 			page 180


 8855 0dd0 13000000 		.4byte	.LVL262-1
 8856 0dd4 34000000 		.4byte	.LVL267
 8857 0dd8 0400     		.2byte	0x4
 8858 0dda F3       		.byte	0xf3
 8859 0ddb 01       		.uleb128 0x1
 8860 0ddc 51       		.byte	0x51
 8861 0ddd 9F       		.byte	0x9f
 8862 0dde 34000000 		.4byte	.LVL267
 8863 0de2 37000000 		.4byte	.LVL268-1
 8864 0de6 0100     		.2byte	0x1
 8865 0de8 51       		.byte	0x51
 8866 0de9 37000000 		.4byte	.LVL268-1
 8867 0ded 4C000000 		.4byte	.LFE97
 8868 0df1 0400     		.2byte	0x4
 8869 0df3 F3       		.byte	0xf3
 8870 0df4 01       		.uleb128 0x1
 8871 0df5 51       		.byte	0x51
 8872 0df6 9F       		.byte	0x9f
 8873 0df7 00000000 		.4byte	0
 8874 0dfb 00000000 		.4byte	0
 8875              	.LLST89:
 8876 0dff 1A000000 		.4byte	.LVL263
 8877 0e03 1E000000 		.4byte	.LVL264
 8878 0e07 0600     		.2byte	0x6
 8879 0e09 03       		.byte	0x3
 8880 0e0a FC000000 		.4byte	.LC22
 8881 0e0e 9F       		.byte	0x9f
 8882 0e0f 1E000000 		.4byte	.LVL264
 8883 0e13 34000000 		.4byte	.LVL267
 8884 0e17 0100     		.2byte	0x1
 8885 0e19 54       		.byte	0x54
 8886 0e1a 00000000 		.4byte	0
 8887 0e1e 00000000 		.4byte	0
 8888              	.LLST90:
 8889 0e22 1A000000 		.4byte	.LVL263
 8890 0e26 34000000 		.4byte	.LVL267
 8891 0e2a 0100     		.2byte	0x1
 8892 0e2c 55       		.byte	0x55
 8893 0e2d 00000000 		.4byte	0
 8894 0e31 00000000 		.4byte	0
 8895              	.LLST91:
 8896 0e35 00000000 		.4byte	.LVL270
 8897 0e39 10000000 		.4byte	.LVL272
 8898 0e3d 0100     		.2byte	0x1
 8899 0e3f 50       		.byte	0x50
 8900 0e40 10000000 		.4byte	.LVL272
 8901 0e44 34000000 		.4byte	.LVL278
 8902 0e48 0100     		.2byte	0x1
 8903 0e4a 55       		.byte	0x55
 8904 0e4b 34000000 		.4byte	.LVL278
 8905 0e4f 37000000 		.4byte	.LVL279-1
 8906 0e53 0100     		.2byte	0x1
 8907 0e55 50       		.byte	0x50
 8908 0e56 37000000 		.4byte	.LVL279-1
 8909 0e5a 6C000000 		.4byte	.LVL288
 8910 0e5e 0100     		.2byte	0x1
 8911 0e60 55       		.byte	0x55
ARM GAS  C:\Users\samue\AppData\Local\Temp\ccJDNHzo.s 			page 181


 8912 0e61 6C000000 		.4byte	.LVL288
 8913 0e65 80000000 		.4byte	.LFE101
 8914 0e69 0400     		.2byte	0x4
 8915 0e6b F3       		.byte	0xf3
 8916 0e6c 01       		.uleb128 0x1
 8917 0e6d 50       		.byte	0x50
 8918 0e6e 9F       		.byte	0x9f
 8919 0e6f 00000000 		.4byte	0
 8920 0e73 00000000 		.4byte	0
 8921              	.LLST92:
 8922 0e77 00000000 		.4byte	.LVL270
 8923 0e7b 13000000 		.4byte	.LVL273-1
 8924 0e7f 0100     		.2byte	0x1
 8925 0e81 51       		.byte	0x51
 8926 0e82 13000000 		.4byte	.LVL273-1
 8927 0e86 34000000 		.4byte	.LVL278
 8928 0e8a 0400     		.2byte	0x4
 8929 0e8c F3       		.byte	0xf3
 8930 0e8d 01       		.uleb128 0x1
 8931 0e8e 51       		.byte	0x51
 8932 0e8f 9F       		.byte	0x9f
 8933 0e90 34000000 		.4byte	.LVL278
 8934 0e94 37000000 		.4byte	.LVL279-1
 8935 0e98 0100     		.2byte	0x1
 8936 0e9a 51       		.byte	0x51
 8937 0e9b 37000000 		.4byte	.LVL279-1
 8938 0e9f 80000000 		.4byte	.LFE101
 8939 0ea3 0400     		.2byte	0x4
 8940 0ea5 F3       		.byte	0xf3
 8941 0ea6 01       		.uleb128 0x1
 8942 0ea7 51       		.byte	0x51
 8943 0ea8 9F       		.byte	0x9f
 8944 0ea9 00000000 		.4byte	0
 8945 0ead 00000000 		.4byte	0
 8946              	.LLST93:
 8947 0eb1 04000000 		.4byte	.LVL271
 8948 0eb5 38000000 		.4byte	.LVL279
 8949 0eb9 0300     		.2byte	0x3
 8950 0ebb 09       		.byte	0x9
 8951 0ebc FF       		.byte	0xff
 8952 0ebd 9F       		.byte	0x9f
 8953 0ebe 38000000 		.4byte	.LVL279
 8954 0ec2 40000000 		.4byte	.LVL280
 8955 0ec6 0100     		.2byte	0x1
 8956 0ec8 50       		.byte	0x50
 8957 0ec9 00000000 		.4byte	0
 8958 0ecd 00000000 		.4byte	0
 8959              	.LLST94:
 8960 0ed1 1A000000 		.4byte	.LVL274
 8961 0ed5 1E000000 		.4byte	.LVL275
 8962 0ed9 0600     		.2byte	0x6
 8963 0edb 03       		.byte	0x3
 8964 0edc 1C010000 		.4byte	.LC24
 8965 0ee0 9F       		.byte	0x9f
 8966 0ee1 1E000000 		.4byte	.LVL275
 8967 0ee5 34000000 		.4byte	.LVL278
 8968 0ee9 0100     		.2byte	0x1
ARM GAS  C:\Users\samue\AppData\Local\Temp\ccJDNHzo.s 			page 182


 8969 0eeb 54       		.byte	0x54
 8970 0eec 00000000 		.4byte	0
 8971 0ef0 00000000 		.4byte	0
 8972              	.LLST95:
 8973 0ef4 1A000000 		.4byte	.LVL274
 8974 0ef8 34000000 		.4byte	.LVL278
 8975 0efc 0100     		.2byte	0x1
 8976 0efe 55       		.byte	0x55
 8977 0eff 00000000 		.4byte	0
 8978 0f03 00000000 		.4byte	0
 8979              	.LLST96:
 8980 0f07 52000000 		.4byte	.LVL283
 8981 0f0b 56000000 		.4byte	.LVL284
 8982 0f0f 0600     		.2byte	0x6
 8983 0f11 03       		.byte	0x3
 8984 0f12 2C010000 		.4byte	.LC25
 8985 0f16 9F       		.byte	0x9f
 8986 0f17 56000000 		.4byte	.LVL284
 8987 0f1b 6A000000 		.4byte	.LVL287
 8988 0f1f 0100     		.2byte	0x1
 8989 0f21 54       		.byte	0x54
 8990 0f22 00000000 		.4byte	0
 8991 0f26 00000000 		.4byte	0
 8992              	.LLST97:
 8993 0f2a 52000000 		.4byte	.LVL283
 8994 0f2e 6A000000 		.4byte	.LVL287
 8995 0f32 0100     		.2byte	0x1
 8996 0f34 55       		.byte	0x55
 8997 0f35 00000000 		.4byte	0
 8998 0f39 00000000 		.4byte	0
 8999              	.LLST98:
 9000 0f3d 00000000 		.4byte	.LVL289
 9001 0f41 0A000000 		.4byte	.LVL291
 9002 0f45 0100     		.2byte	0x1
 9003 0f47 50       		.byte	0x50
 9004 0f48 0A000000 		.4byte	.LVL291
 9005 0f4c 50000000 		.4byte	.LFE86
 9006 0f50 0100     		.2byte	0x1
 9007 0f52 54       		.byte	0x54
 9008 0f53 00000000 		.4byte	0
 9009 0f57 00000000 		.4byte	0
 9010              	.LLST99:
 9011 0f5b 00000000 		.4byte	.LVL289
 9012 0f5f 0D000000 		.4byte	.LVL292-1
 9013 0f63 0100     		.2byte	0x1
 9014 0f65 51       		.byte	0x51
 9015 0f66 0D000000 		.4byte	.LVL292-1
 9016 0f6a 50000000 		.4byte	.LFE86
 9017 0f6e 0100     		.2byte	0x1
 9018 0f70 57       		.byte	0x57
 9019 0f71 00000000 		.4byte	0
 9020 0f75 00000000 		.4byte	0
 9021              	.LLST100:
 9022 0f79 08000000 		.4byte	.LVL290
 9023 0f7d 4C000000 		.4byte	.LVL299
 9024 0f81 0200     		.2byte	0x2
 9025 0f83 30       		.byte	0x30
ARM GAS  C:\Users\samue\AppData\Local\Temp\ccJDNHzo.s 			page 183


 9026 0f84 9F       		.byte	0x9f
 9027 0f85 4C000000 		.4byte	.LVL299
 9028 0f89 50000000 		.4byte	.LFE86
 9029 0f8d 0100     		.2byte	0x1
 9030 0f8f 50       		.byte	0x50
 9031 0f90 00000000 		.4byte	0
 9032 0f94 00000000 		.4byte	0
 9033              	.LLST101:
 9034 0f98 10000000 		.4byte	.LVL293
 9035 0f9c 12000000 		.4byte	.LVL294
 9036 0fa0 0100     		.2byte	0x1
 9037 0fa2 50       		.byte	0x50
 9038 0fa3 12000000 		.4byte	.LVL294
 9039 0fa7 50000000 		.4byte	.LFE86
 9040 0fab 0100     		.2byte	0x1
 9041 0fad 58       		.byte	0x58
 9042 0fae 00000000 		.4byte	0
 9043 0fb2 00000000 		.4byte	0
 9044              	.LLST102:
 9045 0fb6 00000000 		.4byte	.LVL300
 9046 0fba 14000000 		.4byte	.LVL301
 9047 0fbe 0100     		.2byte	0x1
 9048 0fc0 50       		.byte	0x50
 9049 0fc1 14000000 		.4byte	.LVL301
 9050 0fc5 3E000000 		.4byte	.LVL308
 9051 0fc9 0100     		.2byte	0x1
 9052 0fcb 55       		.byte	0x55
 9053 0fcc 3E000000 		.4byte	.LVL308
 9054 0fd0 58000000 		.4byte	.LVL309
 9055 0fd4 0100     		.2byte	0x1
 9056 0fd6 50       		.byte	0x50
 9057 0fd7 58000000 		.4byte	.LVL309
 9058 0fdb 68000000 		.4byte	.LVL312
 9059 0fdf 0100     		.2byte	0x1
 9060 0fe1 55       		.byte	0x55
 9061 0fe2 68000000 		.4byte	.LVL312
 9062 0fe6 6A000000 		.4byte	.LVL313
 9063 0fea 0100     		.2byte	0x1
 9064 0fec 50       		.byte	0x50
 9065 0fed 6A000000 		.4byte	.LVL313
 9066 0ff1 72000000 		.4byte	.LVL314
 9067 0ff5 0100     		.2byte	0x1
 9068 0ff7 55       		.byte	0x55
 9069 0ff8 72000000 		.4byte	.LVL314
 9070 0ffc 74000000 		.4byte	.LVL315
 9071 1000 0100     		.2byte	0x1
 9072 1002 50       		.byte	0x50
 9073 1003 74000000 		.4byte	.LVL315
 9074 1007 7E000000 		.4byte	.LVL317
 9075 100b 0100     		.2byte	0x1
 9076 100d 55       		.byte	0x55
 9077 100e 7E000000 		.4byte	.LVL317
 9078 1012 83000000 		.4byte	.LVL319-1
 9079 1016 0100     		.2byte	0x1
 9080 1018 50       		.byte	0x50
 9081 1019 83000000 		.4byte	.LVL319-1
 9082 101d 8C000000 		.4byte	.LVL320
ARM GAS  C:\Users\samue\AppData\Local\Temp\ccJDNHzo.s 			page 184


 9083 1021 0100     		.2byte	0x1
 9084 1023 55       		.byte	0x55
 9085 1024 8C000000 		.4byte	.LVL320
 9086 1028 A4000000 		.4byte	.LFE87
 9087 102c 0400     		.2byte	0x4
 9088 102e F3       		.byte	0xf3
 9089 102f 01       		.uleb128 0x1
 9090 1030 50       		.byte	0x50
 9091 1031 9F       		.byte	0x9f
 9092 1032 00000000 		.4byte	0
 9093 1036 00000000 		.4byte	0
 9094              	.LLST103:
 9095 103a 00000000 		.4byte	.LVL300
 9096 103e 17000000 		.4byte	.LVL302-1
 9097 1042 0100     		.2byte	0x1
 9098 1044 51       		.byte	0x51
 9099 1045 17000000 		.4byte	.LVL302-1
 9100 1049 3E000000 		.4byte	.LVL308
 9101 104d 0400     		.2byte	0x4
 9102 104f F3       		.byte	0xf3
 9103 1050 01       		.uleb128 0x1
 9104 1051 51       		.byte	0x51
 9105 1052 9F       		.byte	0x9f
 9106 1053 3E000000 		.4byte	.LVL308
 9107 1057 58000000 		.4byte	.LVL309
 9108 105b 0100     		.2byte	0x1
 9109 105d 51       		.byte	0x51
 9110 105e 58000000 		.4byte	.LVL309
 9111 1062 68000000 		.4byte	.LVL312
 9112 1066 0400     		.2byte	0x4
 9113 1068 F3       		.byte	0xf3
 9114 1069 01       		.uleb128 0x1
 9115 106a 51       		.byte	0x51
 9116 106b 9F       		.byte	0x9f
 9117 106c 68000000 		.4byte	.LVL312
 9118 1070 6A000000 		.4byte	.LVL313
 9119 1074 0100     		.2byte	0x1
 9120 1076 51       		.byte	0x51
 9121 1077 6A000000 		.4byte	.LVL313
 9122 107b 72000000 		.4byte	.LVL314
 9123 107f 0400     		.2byte	0x4
 9124 1081 F3       		.byte	0xf3
 9125 1082 01       		.uleb128 0x1
 9126 1083 51       		.byte	0x51
 9127 1084 9F       		.byte	0x9f
 9128 1085 72000000 		.4byte	.LVL314
 9129 1089 77000000 		.4byte	.LVL316-1
 9130 108d 0100     		.2byte	0x1
 9131 108f 51       		.byte	0x51
 9132 1090 77000000 		.4byte	.LVL316-1
 9133 1094 7E000000 		.4byte	.LVL317
 9134 1098 0400     		.2byte	0x4
 9135 109a F3       		.byte	0xf3
 9136 109b 01       		.uleb128 0x1
 9137 109c 51       		.byte	0x51
 9138 109d 9F       		.byte	0x9f
 9139 109e 7E000000 		.4byte	.LVL317
ARM GAS  C:\Users\samue\AppData\Local\Temp\ccJDNHzo.s 			page 185


 9140 10a2 80000000 		.4byte	.LVL318
 9141 10a6 0100     		.2byte	0x1
 9142 10a8 51       		.byte	0x51
 9143 10a9 80000000 		.4byte	.LVL318
 9144 10ad A4000000 		.4byte	.LFE87
 9145 10b1 0400     		.2byte	0x4
 9146 10b3 F3       		.byte	0xf3
 9147 10b4 01       		.uleb128 0x1
 9148 10b5 51       		.byte	0x51
 9149 10b6 9F       		.byte	0x9f
 9150 10b7 00000000 		.4byte	0
 9151 10bb 00000000 		.4byte	0
 9152              	.LLST104:
 9153 10bf 24000000 		.4byte	.LVL304
 9154 10c3 28000000 		.4byte	.LVL305
 9155 10c7 0600     		.2byte	0x6
 9156 10c9 03       		.byte	0x3
 9157 10ca 50010000 		.4byte	.LC28
 9158 10ce 9F       		.byte	0x9f
 9159 10cf 28000000 		.4byte	.LVL305
 9160 10d3 3E000000 		.4byte	.LVL308
 9161 10d7 0100     		.2byte	0x1
 9162 10d9 54       		.byte	0x54
 9163 10da 00000000 		.4byte	0
 9164 10de 00000000 		.4byte	0
 9165              	.LLST105:
 9166 10e2 24000000 		.4byte	.LVL304
 9167 10e6 3E000000 		.4byte	.LVL308
 9168 10ea 0100     		.2byte	0x1
 9169 10ec 55       		.byte	0x55
 9170 10ed 00000000 		.4byte	0
 9171 10f1 00000000 		.4byte	0
 9172              	.LLST106:
 9173 10f5 58000000 		.4byte	.LVL309
 9174 10f9 68000000 		.4byte	.LVL312
 9175 10fd 0100     		.2byte	0x1
 9176 10ff 54       		.byte	0x54
 9177 1100 6A000000 		.4byte	.LVL313
 9178 1104 72000000 		.4byte	.LVL314
 9179 1108 0100     		.2byte	0x1
 9180 110a 54       		.byte	0x54
 9181 110b 00000000 		.4byte	0
 9182 110f 00000000 		.4byte	0
 9183              	.LLST107:
 9184 1113 00000000 		.4byte	.LVL321
 9185 1117 14000000 		.4byte	.LVL322
 9186 111b 0100     		.2byte	0x1
 9187 111d 50       		.byte	0x50
 9188 111e 14000000 		.4byte	.LVL322
 9189 1122 3E000000 		.4byte	.LVL329
 9190 1126 0100     		.2byte	0x1
 9191 1128 55       		.byte	0x55
 9192 1129 3E000000 		.4byte	.LVL329
 9193 112d 54000000 		.4byte	.LVL330
 9194 1131 0100     		.2byte	0x1
 9195 1133 50       		.byte	0x50
 9196 1134 54000000 		.4byte	.LVL330
ARM GAS  C:\Users\samue\AppData\Local\Temp\ccJDNHzo.s 			page 186


 9197 1138 64000000 		.4byte	.LVL333
 9198 113c 0100     		.2byte	0x1
 9199 113e 55       		.byte	0x55
 9200 113f 64000000 		.4byte	.LVL333
 9201 1143 66000000 		.4byte	.LVL334
 9202 1147 0100     		.2byte	0x1
 9203 1149 50       		.byte	0x50
 9204 114a 66000000 		.4byte	.LVL334
 9205 114e 6E000000 		.4byte	.LVL335
 9206 1152 0100     		.2byte	0x1
 9207 1154 55       		.byte	0x55
 9208 1155 6E000000 		.4byte	.LVL335
 9209 1159 70000000 		.4byte	.LVL336
 9210 115d 0100     		.2byte	0x1
 9211 115f 50       		.byte	0x50
 9212 1160 70000000 		.4byte	.LVL336
 9213 1164 7A000000 		.4byte	.LVL338
 9214 1168 0100     		.2byte	0x1
 9215 116a 55       		.byte	0x55
 9216 116b 7A000000 		.4byte	.LVL338
 9217 116f 7F000000 		.4byte	.LVL340-1
 9218 1173 0100     		.2byte	0x1
 9219 1175 50       		.byte	0x50
 9220 1176 7F000000 		.4byte	.LVL340-1
 9221 117a 88000000 		.4byte	.LVL341
 9222 117e 0100     		.2byte	0x1
 9223 1180 55       		.byte	0x55
 9224 1181 88000000 		.4byte	.LVL341
 9225 1185 A0000000 		.4byte	.LFE89
 9226 1189 0400     		.2byte	0x4
 9227 118b F3       		.byte	0xf3
 9228 118c 01       		.uleb128 0x1
 9229 118d 50       		.byte	0x50
 9230 118e 9F       		.byte	0x9f
 9231 118f 00000000 		.4byte	0
 9232 1193 00000000 		.4byte	0
 9233              	.LLST108:
 9234 1197 00000000 		.4byte	.LVL321
 9235 119b 17000000 		.4byte	.LVL323-1
 9236 119f 0100     		.2byte	0x1
 9237 11a1 51       		.byte	0x51
 9238 11a2 17000000 		.4byte	.LVL323-1
 9239 11a6 3E000000 		.4byte	.LVL329
 9240 11aa 0400     		.2byte	0x4
 9241 11ac F3       		.byte	0xf3
 9242 11ad 01       		.uleb128 0x1
 9243 11ae 51       		.byte	0x51
 9244 11af 9F       		.byte	0x9f
 9245 11b0 3E000000 		.4byte	.LVL329
 9246 11b4 54000000 		.4byte	.LVL330
 9247 11b8 0100     		.2byte	0x1
 9248 11ba 51       		.byte	0x51
 9249 11bb 54000000 		.4byte	.LVL330
 9250 11bf 64000000 		.4byte	.LVL333
 9251 11c3 0400     		.2byte	0x4
 9252 11c5 F3       		.byte	0xf3
 9253 11c6 01       		.uleb128 0x1
ARM GAS  C:\Users\samue\AppData\Local\Temp\ccJDNHzo.s 			page 187


 9254 11c7 51       		.byte	0x51
 9255 11c8 9F       		.byte	0x9f
 9256 11c9 64000000 		.4byte	.LVL333
 9257 11cd 66000000 		.4byte	.LVL334
 9258 11d1 0100     		.2byte	0x1
 9259 11d3 51       		.byte	0x51
 9260 11d4 66000000 		.4byte	.LVL334
 9261 11d8 6E000000 		.4byte	.LVL335
 9262 11dc 0400     		.2byte	0x4
 9263 11de F3       		.byte	0xf3
 9264 11df 01       		.uleb128 0x1
 9265 11e0 51       		.byte	0x51
 9266 11e1 9F       		.byte	0x9f
 9267 11e2 6E000000 		.4byte	.LVL335
 9268 11e6 73000000 		.4byte	.LVL337-1
 9269 11ea 0100     		.2byte	0x1
 9270 11ec 51       		.byte	0x51
 9271 11ed 73000000 		.4byte	.LVL337-1
 9272 11f1 7A000000 		.4byte	.LVL338
 9273 11f5 0400     		.2byte	0x4
 9274 11f7 F3       		.byte	0xf3
 9275 11f8 01       		.uleb128 0x1
 9276 11f9 51       		.byte	0x51
 9277 11fa 9F       		.byte	0x9f
 9278 11fb 7A000000 		.4byte	.LVL338
 9279 11ff 7C000000 		.4byte	.LVL339
 9280 1203 0100     		.2byte	0x1
 9281 1205 51       		.byte	0x51
 9282 1206 7C000000 		.4byte	.LVL339
 9283 120a A0000000 		.4byte	.LFE89
 9284 120e 0400     		.2byte	0x4
 9285 1210 F3       		.byte	0xf3
 9286 1211 01       		.uleb128 0x1
 9287 1212 51       		.byte	0x51
 9288 1213 9F       		.byte	0x9f
 9289 1214 00000000 		.4byte	0
 9290 1218 00000000 		.4byte	0
 9291              	.LLST109:
 9292 121c 24000000 		.4byte	.LVL325
 9293 1220 28000000 		.4byte	.LVL326
 9294 1224 0600     		.2byte	0x6
 9295 1226 03       		.byte	0x3
 9296 1227 88010000 		.4byte	.LC32
 9297 122b 9F       		.byte	0x9f
 9298 122c 28000000 		.4byte	.LVL326
 9299 1230 3E000000 		.4byte	.LVL329
 9300 1234 0100     		.2byte	0x1
 9301 1236 54       		.byte	0x54
 9302 1237 00000000 		.4byte	0
 9303 123b 00000000 		.4byte	0
 9304              	.LLST110:
 9305 123f 24000000 		.4byte	.LVL325
 9306 1243 3E000000 		.4byte	.LVL329
 9307 1247 0100     		.2byte	0x1
 9308 1249 55       		.byte	0x55
 9309 124a 00000000 		.4byte	0
 9310 124e 00000000 		.4byte	0
ARM GAS  C:\Users\samue\AppData\Local\Temp\ccJDNHzo.s 			page 188


 9311              	.LLST111:
 9312 1252 54000000 		.4byte	.LVL330
 9313 1256 64000000 		.4byte	.LVL333
 9314 125a 0100     		.2byte	0x1
 9315 125c 54       		.byte	0x54
 9316 125d 66000000 		.4byte	.LVL334
 9317 1261 6E000000 		.4byte	.LVL335
 9318 1265 0100     		.2byte	0x1
 9319 1267 54       		.byte	0x54
 9320 1268 00000000 		.4byte	0
 9321 126c 00000000 		.4byte	0
 9322              	.LLST112:
 9323 1270 00000000 		.4byte	.LVL342
 9324 1274 10000000 		.4byte	.LVL343
 9325 1278 0100     		.2byte	0x1
 9326 127a 50       		.byte	0x50
 9327 127b 10000000 		.4byte	.LVL343
 9328 127f 34000000 		.4byte	.LVL349
 9329 1283 0100     		.2byte	0x1
 9330 1285 55       		.byte	0x55
 9331 1286 34000000 		.4byte	.LVL349
 9332 128a 39000000 		.4byte	.LVL351-1
 9333 128e 0100     		.2byte	0x1
 9334 1290 50       		.byte	0x50
 9335 1291 39000000 		.4byte	.LVL351-1
 9336 1295 42000000 		.4byte	.LVL352
 9337 1299 0100     		.2byte	0x1
 9338 129b 55       		.byte	0x55
 9339 129c 42000000 		.4byte	.LVL352
 9340 12a0 54000000 		.4byte	.LFE91
 9341 12a4 0400     		.2byte	0x4
 9342 12a6 F3       		.byte	0xf3
 9343 12a7 01       		.uleb128 0x1
 9344 12a8 50       		.byte	0x50
 9345 12a9 9F       		.byte	0x9f
 9346 12aa 00000000 		.4byte	0
 9347 12ae 00000000 		.4byte	0
 9348              	.LLST113:
 9349 12b2 00000000 		.4byte	.LVL342
 9350 12b6 13000000 		.4byte	.LVL344-1
 9351 12ba 0100     		.2byte	0x1
 9352 12bc 51       		.byte	0x51
 9353 12bd 13000000 		.4byte	.LVL344-1
 9354 12c1 34000000 		.4byte	.LVL349
 9355 12c5 0400     		.2byte	0x4
 9356 12c7 F3       		.byte	0xf3
 9357 12c8 01       		.uleb128 0x1
 9358 12c9 51       		.byte	0x51
 9359 12ca 9F       		.byte	0x9f
 9360 12cb 34000000 		.4byte	.LVL349
 9361 12cf 36000000 		.4byte	.LVL350
 9362 12d3 0100     		.2byte	0x1
 9363 12d5 51       		.byte	0x51
 9364 12d6 36000000 		.4byte	.LVL350
 9365 12da 54000000 		.4byte	.LFE91
 9366 12de 0400     		.2byte	0x4
 9367 12e0 F3       		.byte	0xf3
ARM GAS  C:\Users\samue\AppData\Local\Temp\ccJDNHzo.s 			page 189


 9368 12e1 01       		.uleb128 0x1
 9369 12e2 51       		.byte	0x51
 9370 12e3 9F       		.byte	0x9f
 9371 12e4 00000000 		.4byte	0
 9372 12e8 00000000 		.4byte	0
 9373              	.LLST114:
 9374 12ec 1A000000 		.4byte	.LVL345
 9375 12f0 1E000000 		.4byte	.LVL346
 9376 12f4 0600     		.2byte	0x6
 9377 12f6 03       		.byte	0x3
 9378 12f7 C4010000 		.4byte	.LC35
 9379 12fb 9F       		.byte	0x9f
 9380 12fc 1E000000 		.4byte	.LVL346
 9381 1300 34000000 		.4byte	.LVL349
 9382 1304 0100     		.2byte	0x1
 9383 1306 54       		.byte	0x54
 9384 1307 00000000 		.4byte	0
 9385 130b 00000000 		.4byte	0
 9386              	.LLST115:
 9387 130f 1A000000 		.4byte	.LVL345
 9388 1313 34000000 		.4byte	.LVL349
 9389 1317 0100     		.2byte	0x1
 9390 1319 55       		.byte	0x55
 9391 131a 00000000 		.4byte	0
 9392 131e 00000000 		.4byte	0
 9393              	.LLST116:
 9394 1322 00000000 		.4byte	.LVL353
 9395 1326 10000000 		.4byte	.LVL354
 9396 132a 0100     		.2byte	0x1
 9397 132c 50       		.byte	0x50
 9398 132d 10000000 		.4byte	.LVL354
 9399 1331 34000000 		.4byte	.LVL360
 9400 1335 0100     		.2byte	0x1
 9401 1337 55       		.byte	0x55
 9402 1338 34000000 		.4byte	.LVL360
 9403 133c 39000000 		.4byte	.LVL362-1
 9404 1340 0100     		.2byte	0x1
 9405 1342 50       		.byte	0x50
 9406 1343 39000000 		.4byte	.LVL362-1
 9407 1347 42000000 		.4byte	.LVL363
 9408 134b 0100     		.2byte	0x1
 9409 134d 55       		.byte	0x55
 9410 134e 42000000 		.4byte	.LVL363
 9411 1352 54000000 		.4byte	.LFE98
 9412 1356 0400     		.2byte	0x4
 9413 1358 F3       		.byte	0xf3
 9414 1359 01       		.uleb128 0x1
 9415 135a 50       		.byte	0x50
 9416 135b 9F       		.byte	0x9f
 9417 135c 00000000 		.4byte	0
 9418 1360 00000000 		.4byte	0
 9419              	.LLST117:
 9420 1364 00000000 		.4byte	.LVL353
 9421 1368 13000000 		.4byte	.LVL355-1
 9422 136c 0100     		.2byte	0x1
 9423 136e 51       		.byte	0x51
 9424 136f 13000000 		.4byte	.LVL355-1
ARM GAS  C:\Users\samue\AppData\Local\Temp\ccJDNHzo.s 			page 190


 9425 1373 34000000 		.4byte	.LVL360
 9426 1377 0400     		.2byte	0x4
 9427 1379 F3       		.byte	0xf3
 9428 137a 01       		.uleb128 0x1
 9429 137b 51       		.byte	0x51
 9430 137c 9F       		.byte	0x9f
 9431 137d 34000000 		.4byte	.LVL360
 9432 1381 36000000 		.4byte	.LVL361
 9433 1385 0100     		.2byte	0x1
 9434 1387 51       		.byte	0x51
 9435 1388 36000000 		.4byte	.LVL361
 9436 138c 54000000 		.4byte	.LFE98
 9437 1390 0400     		.2byte	0x4
 9438 1392 F3       		.byte	0xf3
 9439 1393 01       		.uleb128 0x1
 9440 1394 51       		.byte	0x51
 9441 1395 9F       		.byte	0x9f
 9442 1396 00000000 		.4byte	0
 9443 139a 00000000 		.4byte	0
 9444              	.LLST118:
 9445 139e 1A000000 		.4byte	.LVL356
 9446 13a2 1E000000 		.4byte	.LVL357
 9447 13a6 0600     		.2byte	0x6
 9448 13a8 03       		.byte	0x3
 9449 13a9 EC010000 		.4byte	.LC37
 9450 13ad 9F       		.byte	0x9f
 9451 13ae 1E000000 		.4byte	.LVL357
 9452 13b2 34000000 		.4byte	.LVL360
 9453 13b6 0100     		.2byte	0x1
 9454 13b8 54       		.byte	0x54
 9455 13b9 00000000 		.4byte	0
 9456 13bd 00000000 		.4byte	0
 9457              	.LLST119:
 9458 13c1 1A000000 		.4byte	.LVL356
 9459 13c5 34000000 		.4byte	.LVL360
 9460 13c9 0100     		.2byte	0x1
 9461 13cb 55       		.byte	0x55
 9462 13cc 00000000 		.4byte	0
 9463 13d0 00000000 		.4byte	0
 9464              		.section	.debug_aranges,"",%progbits
 9465 0000 2C010000 		.4byte	0x12c
 9466 0004 0200     		.2byte	0x2
 9467 0006 00000000 		.4byte	.Ldebug_info0
 9468 000a 04       		.byte	0x4
 9469 000b 00       		.byte	0
 9470 000c 0000     		.2byte	0
 9471 000e 0000     		.2byte	0
 9472 0010 00000000 		.4byte	.LFB72
 9473 0014 60000000 		.4byte	.LFE72-.LFB72
 9474 0018 00000000 		.4byte	.LFB102
 9475 001c 2C000000 		.4byte	.LFE102-.LFB102
 9476 0020 00000000 		.4byte	.LFB92
 9477 0024 90000000 		.4byte	.LFE92-.LFB92
 9478 0028 00000000 		.4byte	.LFB95
 9479 002c 90000000 		.4byte	.LFE95-.LFB95
 9480 0030 00000000 		.4byte	.LFB104
 9481 0034 30000000 		.4byte	.LFE104-.LFB104
ARM GAS  C:\Users\samue\AppData\Local\Temp\ccJDNHzo.s 			page 191


 9482 0038 00000000 		.4byte	.LFB105
 9483 003c 5E000000 		.4byte	.LFE105-.LFB105
 9484 0040 00000000 		.4byte	.LFB106
 9485 0044 34000000 		.4byte	.LFE106-.LFB106
 9486 0048 00000000 		.4byte	.LFB73
 9487 004c 18000000 		.4byte	.LFE73-.LFB73
 9488 0050 00000000 		.4byte	.LFB74
 9489 0054 B4000000 		.4byte	.LFE74-.LFB74
 9490 0058 00000000 		.4byte	.LFB75
 9491 005c 64000000 		.4byte	.LFE75-.LFB75
 9492 0060 00000000 		.4byte	.LFB76
 9493 0064 4C000000 		.4byte	.LFE76-.LFB76
 9494 0068 00000000 		.4byte	.LFB77
 9495 006c 4C000000 		.4byte	.LFE77-.LFB77
 9496 0070 00000000 		.4byte	.LFB79
 9497 0074 2C000000 		.4byte	.LFE79-.LFB79
 9498 0078 00000000 		.4byte	.LFB78
 9499 007c 0C000000 		.4byte	.LFE78-.LFB78
 9500 0080 00000000 		.4byte	.LFB80
 9501 0084 0A000000 		.4byte	.LFE80-.LFB80
 9502 0088 00000000 		.4byte	.LFB88
 9503 008c 58000000 		.4byte	.LFE88-.LFB88
 9504 0090 00000000 		.4byte	.LFB94
 9505 0094 2C000000 		.4byte	.LFE94-.LFB94
 9506 0098 00000000 		.4byte	.LFB99
 9507 009c 48000000 		.4byte	.LFE99-.LFB99
 9508 00a0 00000000 		.4byte	.LFB100
 9509 00a4 58000000 		.4byte	.LFE100-.LFB100
 9510 00a8 00000000 		.4byte	.LFB81
 9511 00ac 16000000 		.4byte	.LFE81-.LFB81
 9512 00b0 00000000 		.4byte	.LFB82
 9513 00b4 36000000 		.4byte	.LFE82-.LFB82
 9514 00b8 00000000 		.4byte	.LFB83
 9515 00bc 58000000 		.4byte	.LFE83-.LFB83
 9516 00c0 00000000 		.4byte	.LFB84
 9517 00c4 60000000 		.4byte	.LFE84-.LFB84
 9518 00c8 00000000 		.4byte	.LFB85
 9519 00cc 10000000 		.4byte	.LFE85-.LFB85
 9520 00d0 00000000 		.4byte	.LFB90
 9521 00d4 78000000 		.4byte	.LFE90-.LFB90
 9522 00d8 00000000 		.4byte	.LFB93
 9523 00dc 4C000000 		.4byte	.LFE93-.LFB93
 9524 00e0 00000000 		.4byte	.LFB96
 9525 00e4 5C000000 		.4byte	.LFE96-.LFB96
 9526 00e8 00000000 		.4byte	.LFB97
 9527 00ec 4C000000 		.4byte	.LFE97-.LFB97
 9528 00f0 00000000 		.4byte	.LFB101
 9529 00f4 80000000 		.4byte	.LFE101-.LFB101
 9530 00f8 00000000 		.4byte	.LFB86
 9531 00fc 50000000 		.4byte	.LFE86-.LFB86
 9532 0100 00000000 		.4byte	.LFB87
 9533 0104 A4000000 		.4byte	.LFE87-.LFB87
 9534 0108 00000000 		.4byte	.LFB89
 9535 010c A0000000 		.4byte	.LFE89-.LFB89
 9536 0110 00000000 		.4byte	.LFB91
 9537 0114 54000000 		.4byte	.LFE91-.LFB91
 9538 0118 00000000 		.4byte	.LFB98
ARM GAS  C:\Users\samue\AppData\Local\Temp\ccJDNHzo.s 			page 192


 9539 011c 54000000 		.4byte	.LFE98-.LFB98
 9540 0120 00000000 		.4byte	.LFB103
 9541 0124 02000000 		.4byte	.LFE103-.LFB103
 9542 0128 00000000 		.4byte	0
 9543 012c 00000000 		.4byte	0
 9544              		.section	.debug_ranges,"",%progbits
 9545              	.Ldebug_ranges0:
 9546 0000 16000000 		.4byte	.LBB81
 9547 0004 2E000000 		.4byte	.LBE81
 9548 0008 30000000 		.4byte	.LBB84
 9549 000c 36000000 		.4byte	.LBE84
 9550 0010 00000000 		.4byte	0
 9551 0014 00000000 		.4byte	0
 9552 0018 28000000 		.4byte	.LBB85
 9553 001c 38000000 		.4byte	.LBE85
 9554 0020 3A000000 		.4byte	.LBB88
 9555 0024 40000000 		.4byte	.LBE88
 9556 0028 00000000 		.4byte	0
 9557 002c 00000000 		.4byte	0
 9558 0030 28000000 		.4byte	.LBB89
 9559 0034 38000000 		.4byte	.LBE89
 9560 0038 3A000000 		.4byte	.LBB92
 9561 003c 40000000 		.4byte	.LBE92
 9562 0040 00000000 		.4byte	0
 9563 0044 00000000 		.4byte	0
 9564 0048 58000000 		.4byte	.LBB112
 9565 004c 68000000 		.4byte	.LBE112
 9566 0050 6A000000 		.4byte	.LBB115
 9567 0054 72000000 		.4byte	.LBE115
 9568 0058 00000000 		.4byte	0
 9569 005c 00000000 		.4byte	0
 9570 0060 54000000 		.4byte	.LBB118
 9571 0064 64000000 		.4byte	.LBE118
 9572 0068 66000000 		.4byte	.LBB121
 9573 006c 6E000000 		.4byte	.LBE121
 9574 0070 00000000 		.4byte	0
 9575 0074 00000000 		.4byte	0
 9576 0078 00000000 		.4byte	.LFB72
 9577 007c 60000000 		.4byte	.LFE72
 9578 0080 00000000 		.4byte	.LFB102
 9579 0084 2C000000 		.4byte	.LFE102
 9580 0088 00000000 		.4byte	.LFB92
 9581 008c 90000000 		.4byte	.LFE92
 9582 0090 00000000 		.4byte	.LFB95
 9583 0094 90000000 		.4byte	.LFE95
 9584 0098 00000000 		.4byte	.LFB104
 9585 009c 30000000 		.4byte	.LFE104
 9586 00a0 00000000 		.4byte	.LFB105
 9587 00a4 5E000000 		.4byte	.LFE105
 9588 00a8 00000000 		.4byte	.LFB106
 9589 00ac 34000000 		.4byte	.LFE106
 9590 00b0 00000000 		.4byte	.LFB73
 9591 00b4 18000000 		.4byte	.LFE73
 9592 00b8 00000000 		.4byte	.LFB74
 9593 00bc B4000000 		.4byte	.LFE74
 9594 00c0 00000000 		.4byte	.LFB75
 9595 00c4 64000000 		.4byte	.LFE75
ARM GAS  C:\Users\samue\AppData\Local\Temp\ccJDNHzo.s 			page 193


 9596 00c8 00000000 		.4byte	.LFB76
 9597 00cc 4C000000 		.4byte	.LFE76
 9598 00d0 00000000 		.4byte	.LFB77
 9599 00d4 4C000000 		.4byte	.LFE77
 9600 00d8 00000000 		.4byte	.LFB79
 9601 00dc 2C000000 		.4byte	.LFE79
 9602 00e0 00000000 		.4byte	.LFB78
 9603 00e4 0C000000 		.4byte	.LFE78
 9604 00e8 00000000 		.4byte	.LFB80
 9605 00ec 0A000000 		.4byte	.LFE80
 9606 00f0 00000000 		.4byte	.LFB88
 9607 00f4 58000000 		.4byte	.LFE88
 9608 00f8 00000000 		.4byte	.LFB94
 9609 00fc 2C000000 		.4byte	.LFE94
 9610 0100 00000000 		.4byte	.LFB99
 9611 0104 48000000 		.4byte	.LFE99
 9612 0108 00000000 		.4byte	.LFB100
 9613 010c 58000000 		.4byte	.LFE100
 9614 0110 00000000 		.4byte	.LFB81
 9615 0114 16000000 		.4byte	.LFE81
 9616 0118 00000000 		.4byte	.LFB82
 9617 011c 36000000 		.4byte	.LFE82
 9618 0120 00000000 		.4byte	.LFB83
 9619 0124 58000000 		.4byte	.LFE83
 9620 0128 00000000 		.4byte	.LFB84
 9621 012c 60000000 		.4byte	.LFE84
 9622 0130 00000000 		.4byte	.LFB85
 9623 0134 10000000 		.4byte	.LFE85
 9624 0138 00000000 		.4byte	.LFB90
 9625 013c 78000000 		.4byte	.LFE90
 9626 0140 00000000 		.4byte	.LFB93
 9627 0144 4C000000 		.4byte	.LFE93
 9628 0148 00000000 		.4byte	.LFB96
 9629 014c 5C000000 		.4byte	.LFE96
 9630 0150 00000000 		.4byte	.LFB97
 9631 0154 4C000000 		.4byte	.LFE97
 9632 0158 00000000 		.4byte	.LFB101
 9633 015c 80000000 		.4byte	.LFE101
 9634 0160 00000000 		.4byte	.LFB86
 9635 0164 50000000 		.4byte	.LFE86
 9636 0168 00000000 		.4byte	.LFB87
 9637 016c A4000000 		.4byte	.LFE87
 9638 0170 00000000 		.4byte	.LFB89
 9639 0174 A0000000 		.4byte	.LFE89
 9640 0178 00000000 		.4byte	.LFB91
 9641 017c 54000000 		.4byte	.LFE91
 9642 0180 00000000 		.4byte	.LFB98
 9643 0184 54000000 		.4byte	.LFE98
 9644 0188 00000000 		.4byte	.LFB103
 9645 018c 02000000 		.4byte	.LFE103
 9646 0190 00000000 		.4byte	0
 9647 0194 00000000 		.4byte	0
 9648              		.section	.debug_line,"",%progbits
 9649              	.Ldebug_line0:
 9650 0000 FA060000 		.section	.debug_str,"MS",%progbits,1
 9650      02008F02 
 9650      00000201 
ARM GAS  C:\Users\samue\AppData\Local\Temp\ccJDNHzo.s 			page 194


 9650      FB0E0D00 
 9650      01010101 
 9651              	.LASF125:
 9652 0000 7072696E 		.ascii	"printf\000"
 9652      746600
 9653              	.LASF26:
 9654 0007 78436F6D 		.ascii	"xComPortHandle\000"
 9654      506F7274 
 9654      48616E64 
 9654      6C6500
 9655              	.LASF61:
 9656 0016 78467265 		.ascii	"xFrequency\000"
 9656      7175656E 
 9656      637900
 9657              	.LASF90:
 9658 0021 7374436F 		.ascii	"stConnectAP\000"
 9658      6E6E6563 
 9658      74415000 
 9659              	.LASF95:
 9660 002d 7374496E 		.ascii	"stInit\000"
 9660      697400
 9661              	.LASF99:
 9662 0034 45737054 		.ascii	"EspTimerCallback\000"
 9662      696D6572 
 9662      43616C6C 
 9662      6261636B 
 9662      00
 9663              	.LASF92:
 9664 0045 73745061 		.ascii	"stPassthrough\000"
 9664      73737468 
 9664      726F7567 
 9664      6800
 9665              	.LASF4:
 9666 0053 5F5F7569 		.ascii	"__uint8_t\000"
 9666      6E74385F 
 9666      7400
 9667              	.LASF104:
 9668 005d 5F5F6374 		.ascii	"__ctype_ptr__\000"
 9668      7970655F 
 9668      7074725F 
 9668      5F00
 9669              	.LASF67:
 9670 006b 70617373 		.ascii	"password\000"
 9670      776F7264 
 9670      00
 9671              	.LASF107:
 9672 0074 78536572 		.ascii	"xSerialPutChar\000"
 9672      69616C50 
 9672      75744368 
 9672      617200
 9673              	.LASF124:
 9674 0083 73747273 		.ascii	"strstr\000"
 9674      747200
 9675              	.LASF70:
 9676 008a 61646472 		.ascii	"addr\000"
 9676      00
 9677              	.LASF36:
ARM GAS  C:\Users\samue\AppData\Local\Temp\ccJDNHzo.s 			page 195


 9678 008f 64617461 		.ascii	"data\000"
 9678      00
 9679              	.LASF132:
 9680 0094 73657269 		.ascii	"serial_get\000"
 9680      616C5F67 
 9680      657400
 9681              	.LASF42:
 9682 009f 6E657874 		.ascii	"next_state\000"
 9682      5F737461 
 9682      746500
 9683              	.LASF23:
 9684 00aa 51756575 		.ascii	"QueueHandle_t\000"
 9684      6548616E 
 9684      646C655F 
 9684      7400
 9685              	.LASF83:
 9686 00b8 736D5F72 		.ascii	"sm_read_int\000"
 9686      6561645F 
 9686      696E7400 
 9687              	.LASF93:
 9688 00c4 7374436C 		.ascii	"stCloseTCP\000"
 9688      6F736554 
 9688      435000
 9689              	.LASF9:
 9690 00cf 6C6F6E67 		.ascii	"long long int\000"
 9690      206C6F6E 
 9690      6720696E 
 9690      7400
 9691              	.LASF0:
 9692 00dd 7369676E 		.ascii	"signed char\000"
 9692      65642063 
 9692      68617200 
 9693              	.LASF69:
 9694 00e9 736F636B 		.ascii	"sockfd\000"
 9694      666400
 9695              	.LASF94:
 9696 00f0 736D5F77 		.ascii	"sm_wait_for\000"
 9696      6169745F 
 9696      666F7200 
 9697              	.LASF96:
 9698 00fc 73744563 		.ascii	"stEchoOff\000"
 9698      686F4F66 
 9698      6600
 9699              	.LASF112:
 9700 0106 76546173 		.ascii	"vTaskDelay\000"
 9700      6B44656C 
 9700      617900
 9701              	.LASF10:
 9702 0111 6C6F6E67 		.ascii	"long long unsigned int\000"
 9702      206C6F6E 
 9702      6720756E 
 9702      7369676E 
 9702      65642069 
 9703              	.LASF111:
 9704 0128 5253545F 		.ascii	"RST_E_Write\000"
 9704      455F5772 
 9704      69746500 
ARM GAS  C:\Users\samue\AppData\Local\Temp\ccJDNHzo.s 			page 196


 9705              	.LASF41:
 9706 0134 73746174 		.ascii	"state\000"
 9706      6500
 9707              	.LASF6:
 9708 013a 6C6F6E67 		.ascii	"long int\000"
 9708      20696E74 
 9708      00
 9709              	.LASF105:
 9710 0143 49544D5F 		.ascii	"ITM_RxBuffer\000"
 9710      52784275 
 9710      66666572 
 9710      00
 9711              	.LASF33:
 9712 0150 6553656E 		.ascii	"eSend\000"
 9712      6400
 9713              	.LASF122:
 9714 0156 78536572 		.ascii	"xSerialGetChar\000"
 9714      69616C47 
 9714      65744368 
 9714      617200
 9715              	.LASF135:
 9716 0165 5F5F6275 		.ascii	"__builtin_puts\000"
 9716      696C7469 
 9716      6E5F7075 
 9716      747300
 9717              	.LASF62:
 9718 0174 76457370 		.ascii	"vEspTickTask\000"
 9718      5469636B 
 9718      5461736B 
 9718      00
 9719              	.LASF66:
 9720 0181 6573705F 		.ascii	"esp_socket\000"
 9720      736F636B 
 9720      657400
 9721              	.LASF19:
 9722 018c 646F7562 		.ascii	"double\000"
 9722      6C6500
 9723              	.LASF45:
 9724 0193 436F6D50 		.ascii	"ComPort\000"
 9724      6F727400 
 9725              	.LASF20:
 9726 019b 42617365 		.ascii	"BaseType_t\000"
 9726      54797065 
 9726      5F7400
 9727              	.LASF34:
 9728 01a6 4576656E 		.ascii	"EventType\000"
 9728      74547970 
 9728      6500
 9729              	.LASF55:
 9730 01b0 706F7274 		.ascii	"port2str\000"
 9730      32737472 
 9730      00
 9731              	.LASF129:
 9732 01b9 5A756D6F 		.ascii	"ZumoLibrary\\esp8266_socket.c\000"
 9732      4C696272 
 9732      6172795C 
 9732      65737038 
ARM GAS  C:\Users\samue\AppData\Local\Temp\ccJDNHzo.s 			page 197


 9732      3236365F 
 9733              	.LASF100:
 9734 01d6 7854696D 		.ascii	"xTimer\000"
 9734      657200
 9735              	.LASF80:
 9736 01dd 7374436F 		.ascii	"stCommandMode\000"
 9736      6D6D616E 
 9736      644D6F64 
 9736      6500
 9737              	.LASF47:
 9738 01eb 636F756E 		.ascii	"count\000"
 9738      7400
 9739              	.LASF7:
 9740 01f1 5F5F7569 		.ascii	"__uint32_t\000"
 9740      6E743332 
 9740      5F7400
 9741              	.LASF79:
 9742 01fc 7374436F 		.ascii	"stConnected\000"
 9742      6E6E6563 
 9742      74656400 
 9743              	.LASF29:
 9744 0208 65546963 		.ascii	"eTick\000"
 9744      6B00
 9745              	.LASF64:
 9746 020e 706F7274 		.ascii	"port\000"
 9746      00
 9747              	.LASF84:
 9748 0213 76616C75 		.ascii	"value\000"
 9748      6500
 9749              	.LASF97:
 9750 0219 73745374 		.ascii	"stStationModeSet\000"
 9750      6174696F 
 9750      6E4D6F64 
 9750      65536574 
 9750      00
 9751              	.LASF11:
 9752 022a 756E7369 		.ascii	"unsigned int\000"
 9752      676E6564 
 9752      20696E74 
 9752      00
 9753              	.LASF60:
 9754 0237 784C6173 		.ascii	"xLastWakeTime\000"
 9754      7457616B 
 9754      6554696D 
 9754      6500
 9755              	.LASF49:
 9756 0245 73736964 		.ascii	"ssid\000"
 9756      00
 9757              	.LASF8:
 9758 024a 6C6F6E67 		.ascii	"long unsigned int\000"
 9758      20756E73 
 9758      69676E65 
 9758      6420696E 
 9758      7400
 9759              	.LASF25:
 9760 025c 54696D65 		.ascii	"TimerHandle_t\000"
 9760      7248616E 
ARM GAS  C:\Users\samue\AppData\Local\Temp\ccJDNHzo.s 			page 198


 9760      646C655F 
 9760      7400
 9761              	.LASF56:
 9762 026a 64697370 		.ascii	"dispatch_event\000"
 9762      61746368 
 9762      5F657665 
 9762      6E7400
 9763              	.LASF59:
 9764 0279 70765061 		.ascii	"pvParameters\000"
 9764      72616D65 
 9764      74657273 
 9764      00
 9765              	.LASF115:
 9766 0286 78517565 		.ascii	"xQueueSemaphoreTake\000"
 9766      75655365 
 9766      6D617068 
 9766      6F726554 
 9766      616B6500 
 9767              	.LASF32:
 9768 029a 65446973 		.ascii	"eDisconnect\000"
 9768      636F6E6E 
 9768      65637400 
 9769              	.LASF110:
 9770 02a6 78517565 		.ascii	"xQueueGenericSend\000"
 9770      75654765 
 9770      6E657269 
 9770      6353656E 
 9770      6400
 9771              	.LASF38:
 9772 02b8 6576656E 		.ascii	"event\000"
 9772      7400
 9773              	.LASF3:
 9774 02be 73686F72 		.ascii	"short unsigned int\000"
 9774      7420756E 
 9774      7369676E 
 9774      65642069 
 9774      6E7400
 9775              	.LASF30:
 9776 02d1 65526563 		.ascii	"eReceive\000"
 9776      65697665 
 9776      00
 9777              	.LASF114:
 9778 02da 78536572 		.ascii	"xSerialRxWaiting\000"
 9778      69616C52 
 9778      78576169 
 9778      74696E67 
 9778      00
 9779              	.LASF116:
 9780 02eb 78517565 		.ascii	"xQueueReceive\000"
 9780      75655265 
 9780      63656976 
 9780      6500
 9781              	.LASF126:
 9782 02f9 7374726C 		.ascii	"strlen\000"
 9782      656E00
 9783              	.LASF118:
 9784 0300 78517565 		.ascii	"xQueueCreateMutex\000"
ARM GAS  C:\Users\samue\AppData\Local\Temp\ccJDNHzo.s 			page 199


 9784      75654372 
 9784      65617465 
 9784      4D757465 
 9784      7800
 9785              	.LASF40:
 9786 0312 736D695F 		.ascii	"smi_\000"
 9786      00
 9787              	.LASF78:
 9788 0317 73745265 		.ascii	"stReady\000"
 9788      61647900 
 9789              	.LASF74:
 9790 031f 6573705F 		.ascii	"esp_close\000"
 9790      636C6F73 
 9790      6500
 9791              	.LASF120:
 9792 0329 73747263 		.ascii	"strcpy\000"
 9792      707900
 9793              	.LASF108:
 9794 0330 78546173 		.ascii	"xTaskGetTickCount\000"
 9794      6B476574 
 9794      5469636B 
 9794      436F756E 
 9794      7400
 9795              	.LASF37:
 9796 0342 68616E64 		.ascii	"handled\000"
 9796      6C656400 
 9797              	.LASF5:
 9798 034a 5F5F696E 		.ascii	"__int32_t\000"
 9798      7433325F 
 9798      7400
 9799              	.LASF134:
 9800 0354 70757473 		.ascii	"puts\000"
 9800      00
 9801              	.LASF81:
 9802 0359 736D5F66 		.ascii	"sm_flush\000"
 9802      6C757368 
 9802      00
 9803              	.LASF43:
 9804 0362 41636365 		.ascii	"Access\000"
 9804      737300
 9805              	.LASF13:
 9806 0369 73697A65 		.ascii	"sizetype\000"
 9806      74797065 
 9806      00
 9807              	.LASF75:
 9808 0372 736D695F 		.ascii	"smi_init\000"
 9808      696E6974 
 9808      00
 9809              	.LASF121:
 9810 037b 78546173 		.ascii	"xTaskCreate\000"
 9810      6B437265 
 9810      61746500 
 9811              	.LASF22:
 9812 0387 5469636B 		.ascii	"TickType_t\000"
 9812      54797065 
 9812      5F7400
 9813              	.LASF98:
ARM GAS  C:\Users\samue\AppData\Local\Temp\ccJDNHzo.s 			page 200


 9814 0392 73745061 		.ascii	"stPassthroughOK\000"
 9814      73737468 
 9814      726F7567 
 9814      684F4B00 
 9815              	.LASF71:
 9816 03a2 6573705F 		.ascii	"esp_read\000"
 9816      72656164 
 9816      00
 9817              	.LASF72:
 9818 03ab 6573705F 		.ascii	"esp_write\000"
 9818      77726974 
 9818      6500
 9819              	.LASF39:
 9820 03b5 6576656E 		.ascii	"event_\000"
 9820      745F00
 9821              	.LASF131:
 9822 03bc 6576656E 		.ascii	"eventTypes\000"
 9822      74547970 
 9822      657300
 9823              	.LASF102:
 9824 03c7 6576456E 		.ascii	"evEnter\000"
 9824      74657200 
 9825              	.LASF18:
 9826 03cf 666C6F61 		.ascii	"float\000"
 9826      7400
 9827              	.LASF57:
 9828 03d5 636F6E6E 		.ascii	"connect_ssid\000"
 9828      6563745F 
 9828      73736964 
 9828      00
 9829              	.LASF82:
 9830 03e2 736D5F72 		.ascii	"sm_read_buffer\000"
 9830      6561645F 
 9830      62756666 
 9830      657200
 9831              	.LASF68:
 9832 03f1 6573705F 		.ascii	"esp_connect\000"
 9832      636F6E6E 
 9832      65637400 
 9833              	.LASF106:
 9834 03fd 45737053 		.ascii	"EspSocketInstance\000"
 9834      6F636B65 
 9834      74496E73 
 9834      74616E63 
 9834      6500
 9835              	.LASF109:
 9836 040f 76546173 		.ascii	"vTaskDelayUntil\000"
 9836      6B44656C 
 9836      6179556E 
 9836      74696C00 
 9837              	.LASF76:
 9838 041f 696E6974 		.ascii	"init_counters\000"
 9838      5F636F75 
 9838      6E746572 
 9838      7300
 9839              	.LASF123:
 9840 042d 61746F69 		.ascii	"atoi\000"
ARM GAS  C:\Users\samue\AppData\Local\Temp\ccJDNHzo.s 			page 201


 9840      00
 9841              	.LASF52:
 9842 0432 5F426F6F 		.ascii	"_Bool\000"
 9842      6C00
 9843              	.LASF16:
 9844 0438 696E7433 		.ascii	"int32_t\000"
 9844      325F7400 
 9845              	.LASF1:
 9846 0440 756E7369 		.ascii	"unsigned char\000"
 9846      676E6564 
 9846      20636861 
 9846      7200
 9847              	.LASF44:
 9848 044e 45737045 		.ascii	"EspEventQ\000"
 9848      76656E74 
 9848      5100
 9849              	.LASF2:
 9850 0458 73686F72 		.ascii	"short int\000"
 9850      7420696E 
 9850      7400
 9851              	.LASF63:
 9852 0462 76457370 		.ascii	"vEspEventTask\000"
 9852      4576656E 
 9852      74546173 
 9852      6B00
 9853              	.LASF28:
 9854 0470 65457869 		.ascii	"eExit\000"
 9854      7400
 9855              	.LASF119:
 9856 0476 78536572 		.ascii	"xSerialPortInitMinimal\000"
 9856      69616C50 
 9856      6F727449 
 9856      6E69744D 
 9856      696E696D 
 9857              	.LASF117:
 9858 048d 78517565 		.ascii	"xQueueGenericCreate\000"
 9858      75654765 
 9858      6E657269 
 9858      63437265 
 9858      61746500 
 9859              	.LASF128:
 9860 04a1 474E5520 		.ascii	"GNU C11 5.4.1 20160609 (release) [ARM/embedded-5-br"
 9860      43313120 
 9860      352E342E 
 9860      31203230 
 9860      31363036 
 9861 04d4 616E6368 		.ascii	"anch revision 237715] -mcpu=cortex-m3 -mthumb -g -O"
 9861      20726576 
 9861      6973696F 
 9861      6E203233 
 9861      37373135 
 9862 0507 67202D66 		.ascii	"g -ffunction-sections -ffat-lto-objects\000"
 9862      66756E63 
 9862      74696F6E 
 9862      2D736563 
 9862      74696F6E 
 9863              	.LASF113:
ARM GAS  C:\Users\samue\AppData\Local\Temp\ccJDNHzo.s 			page 202


 9864 052f 78536572 		.ascii	"xSerialWaitForRxEvent\000"
 9864      69616C57 
 9864      61697446 
 9864      6F725278 
 9864      4576656E 
 9865              	.LASF17:
 9866 0545 75696E74 		.ascii	"uint32_t\000"
 9866      33325F74 
 9866      00
 9867              	.LASF73:
 9868 054e 6573705F 		.ascii	"esp_shutdown\000"
 9868      73687574 
 9868      646F776E 
 9868      00
 9869              	.LASF58:
 9870 055b 636F6E6E 		.ascii	"connect_tcp\000"
 9870      6563745F 
 9870      74637000 
 9871              	.LASF12:
 9872 0567 6C6F6E67 		.ascii	"long double\000"
 9872      20646F75 
 9872      626C6500 
 9873              	.LASF35:
 9874 0573 6C656E67 		.ascii	"length\000"
 9874      746800
 9875              	.LASF24:
 9876 057a 53656D61 		.ascii	"SemaphoreHandle_t\000"
 9876      70686F72 
 9876      6548616E 
 9876      646C655F 
 9876      7400
 9877              	.LASF14:
 9878 058c 63686172 		.ascii	"char\000"
 9878      00
 9879              	.LASF89:
 9880 0591 73745374 		.ascii	"stStationModeCheck\000"
 9880      6174696F 
 9880      6E4D6F64 
 9880      65436865 
 9880      636B00
 9881              	.LASF130:
 9882 05a4 433A5C55 		.ascii	"C:\\Users\\samue\\Desktop\\RobotRage2\\Zumo\\ZumoBo"
 9882      73657273 
 9882      5C73616D 
 9882      75655C44 
 9882      65736B74 
 9883 05d1 742E6379 		.ascii	"t.cydsn\000"
 9883      64736E00 
 9884              	.LASF87:
 9885 05d9 736D5F72 		.ascii	"sm_read_result\000"
 9885      6561645F 
 9885      72657375 
 9885      6C7400
 9886              	.LASF53:
 9887 05e8 73657269 		.ascii	"serial_write_str\000"
 9887      616C5F77 
 9887      72697465 
ARM GAS  C:\Users\samue\AppData\Local\Temp\ccJDNHzo.s 			page 203


 9887      5F737472 
 9887      00
 9888              	.LASF48:
 9889 05f9 62756666 		.ascii	"buffer\000"
 9889      657200
 9890              	.LASF91:
 9891 0600 7374436F 		.ascii	"stConnectTCP\000"
 9891      6E6E6563 
 9891      74544350 
 9891      00
 9892              	.LASF88:
 9893 060d 72657375 		.ascii	"result_list\000"
 9893      6C745F6C 
 9893      69737400 
 9894              	.LASF51:
 9895 0619 73615F70 		.ascii	"sa_port\000"
 9895      6F727400 
 9896              	.LASF77:
 9897 0621 73744154 		.ascii	"stAT\000"
 9897      00
 9898              	.LASF133:
 9899 0626 6D656D73 		.ascii	"memset\000"
 9899      657400
 9900              	.LASF27:
 9901 062d 65456E74 		.ascii	"eEnter\000"
 9901      657200
 9902              	.LASF86:
 9903 0634 736D5F72 		.ascii	"sm_read_until\000"
 9903      6561645F 
 9903      756E7469 
 9903      6C00
 9904              	.LASF127:
 9905 0642 6D656D6D 		.ascii	"memmove\000"
 9905      6F766500 
 9906              	.LASF15:
 9907 064a 75696E74 		.ascii	"uint8_t\000"
 9907      385F7400 
 9908              	.LASF101:
 9909 0652 45737051 		.ascii	"EspQueueLength\000"
 9909      75657565 
 9909      4C656E67 
 9909      746800
 9910              	.LASF46:
 9911 0661 74696D65 		.ascii	"timer\000"
 9911      7200
 9912              	.LASF103:
 9913 0667 65764578 		.ascii	"evExit\000"
 9913      697400
 9914              	.LASF65:
 9915 066e 76457370 		.ascii	"vEspSocketTask\000"
 9915      536F636B 
 9915      65745461 
 9915      736B00
 9916              	.LASF50:
 9917 067d 73615F64 		.ascii	"sa_data\000"
 9917      61746100 
 9918              	.LASF54:
ARM GAS  C:\Users\samue\AppData\Local\Temp\ccJDNHzo.s 			page 204


 9919 0685 73657269 		.ascii	"serial_write_buf\000"
 9919      616C5F77 
 9919      72697465 
 9919      5F627566 
 9919      00
 9920              	.LASF31:
 9921 0696 65436F6E 		.ascii	"eConnect\000"
 9921      6E656374 
 9921      00
 9922              	.LASF21:
 9923 069f 55426173 		.ascii	"UBaseType_t\000"
 9923      65547970 
 9923      655F7400 
 9924              	.LASF85:
 9925 06ab 72657375 		.ascii	"result\000"
 9925      6C7400
 9926              		.ident	"GCC: (GNU Tools for ARM Embedded Processors) 5.4.1 20160609 (release) [ARM/embedded-5-bran
