ARM GAS  C:\Users\samue\AppData\Local\Temp\ccJDNHzo.s 			page 1


   1              		.syntax unified
   2              		.cpu cortex-m3
   3              		.fpu softvfp
   4              		.eabi_attribute 20, 1
   5              		.eabi_attribute 21, 1
   6              		.eabi_attribute 23, 3
   7              		.eabi_attribute 24, 1
   8              		.eabi_attribute 25, 1
   9              		.eabi_attribute 26, 1
  10              		.eabi_attribute 30, 1
  11              		.eabi_attribute 34, 1
  12              		.eabi_attribute 18, 4
  13              		.thumb
  14              		.syntax unified
  15              		.file	"esp8266_socket.c"
  16              		.text
  17              	.Ltext0:
  18              		.cfi_sections	.debug_frame
  19              		.section	.text.port2str,"ax",%progbits
  20              		.align	2
  21              		.thumb
  22              		.thumb_func
  23              		.type	port2str, %function
  24              	port2str:
  25              	.LFB72:
  26              		.file 1 "ZumoLibrary\\esp8266_socket.c"
   1:ZumoLibrary/esp8266_socket.c **** /* ========================================
   2:ZumoLibrary/esp8266_socket.c ****  *
   3:ZumoLibrary/esp8266_socket.c ****  * Copyright YOUR COMPANY, THE YEAR
   4:ZumoLibrary/esp8266_socket.c ****  * All Rights Reserved
   5:ZumoLibrary/esp8266_socket.c ****  * UNPUBLISHED, LICENSED SOFTWARE.
   6:ZumoLibrary/esp8266_socket.c ****  *
   7:ZumoLibrary/esp8266_socket.c ****  * CONFIDENTIAL AND PROPRIETARY INFORMATION
   8:ZumoLibrary/esp8266_socket.c ****  * WHICH IS THE PROPERTY OF your company.
   9:ZumoLibrary/esp8266_socket.c ****  *
  10:ZumoLibrary/esp8266_socket.c ****  * ========================================
  11:ZumoLibrary/esp8266_socket.c **** */
  12:ZumoLibrary/esp8266_socket.c **** #include <stdbool.h>
  13:ZumoLibrary/esp8266_socket.c **** #include <stdio.h>
  14:ZumoLibrary/esp8266_socket.c **** #include <stdlib.h>
  15:ZumoLibrary/esp8266_socket.c **** #include <ctype.h>
  16:ZumoLibrary/esp8266_socket.c **** #include "FreeRTOS.h"
  17:ZumoLibrary/esp8266_socket.c **** #include "task.h"
  18:ZumoLibrary/esp8266_socket.c **** #include "semphr.h"
  19:ZumoLibrary/esp8266_socket.c **** #include "queue.h"
  20:ZumoLibrary/esp8266_socket.c **** #include "timers.h"
  21:ZumoLibrary/esp8266_socket.c **** #include "serial.h"
  22:ZumoLibrary/esp8266_socket.c **** 
  23:ZumoLibrary/esp8266_socket.c **** #include "esp8266_socket.h"
  24:ZumoLibrary/esp8266_socket.c **** 
  25:ZumoLibrary/esp8266_socket.c **** typedef int EspSocket_t;
  26:ZumoLibrary/esp8266_socket.c **** 
  27:ZumoLibrary/esp8266_socket.c **** static const int EspQueueLength = 32;
  28:ZumoLibrary/esp8266_socket.c **** 
  29:ZumoLibrary/esp8266_socket.c **** 
  30:ZumoLibrary/esp8266_socket.c **** #define I_DONT_USE(x) (void) x
  31:ZumoLibrary/esp8266_socket.c **** #define DEBUGP( ... ) printf( __VA_ARGS__ )
ARM GAS  C:\Users\samue\AppData\Local\Temp\ccJDNHzo.s 			page 2


  32:ZumoLibrary/esp8266_socket.c **** 
  33:ZumoLibrary/esp8266_socket.c **** // macro for changing state. Correct operation requires that ctx is a pointer to state machine inst
  34:ZumoLibrary/esp8266_socket.c **** #define TRAN(st) ctx->next_state = st
  35:ZumoLibrary/esp8266_socket.c **** 
  36:ZumoLibrary/esp8266_socket.c **** typedef enum eventTypes { eEnter, eExit, eTick, eReceive, eConnect, eDisconnect, eSend } EventType;
  37:ZumoLibrary/esp8266_socket.c **** 
  38:ZumoLibrary/esp8266_socket.c **** typedef struct event_ {
  39:ZumoLibrary/esp8266_socket.c **** 	EventType ev; // event type (= what happened)
  40:ZumoLibrary/esp8266_socket.c ****     int length;
  41:ZumoLibrary/esp8266_socket.c **** 	void *data;
  42:ZumoLibrary/esp8266_socket.c ****     void (*handled)(void *); // pointer for callback
  43:ZumoLibrary/esp8266_socket.c **** } event;
  44:ZumoLibrary/esp8266_socket.c **** 
  45:ZumoLibrary/esp8266_socket.c **** typedef struct smi_ smi;
  46:ZumoLibrary/esp8266_socket.c **** 
  47:ZumoLibrary/esp8266_socket.c **** typedef void (*smf)(smi *, const event *);  // prototype of state handler function pointer
  48:ZumoLibrary/esp8266_socket.c **** 
  49:ZumoLibrary/esp8266_socket.c **** #define SMI_BUFSIZE 80
  50:ZumoLibrary/esp8266_socket.c **** #define RC_NOT_AVAILABLE  -1
  51:ZumoLibrary/esp8266_socket.c **** #define RC_OK     0
  52:ZumoLibrary/esp8266_socket.c **** #define RC_ERROR  1
  53:ZumoLibrary/esp8266_socket.c **** 
  54:ZumoLibrary/esp8266_socket.c **** struct smi_ {
  55:ZumoLibrary/esp8266_socket.c **** 	smf state;  // current state (function pointer)
  56:ZumoLibrary/esp8266_socket.c **** 	smf next_state; // next state (function pointer)
  57:ZumoLibrary/esp8266_socket.c **** 	SemaphoreHandle_t Access; // interface number
  58:ZumoLibrary/esp8266_socket.c ****     QueueHandle_t EspEventQ;
  59:ZumoLibrary/esp8266_socket.c ****     xComPortHandle ComPort;
  60:ZumoLibrary/esp8266_socket.c ****     int timer;
  61:ZumoLibrary/esp8266_socket.c ****     int count;
  62:ZumoLibrary/esp8266_socket.c ****     int pos;
  63:ZumoLibrary/esp8266_socket.c ****     char buffer[SMI_BUFSIZE];
  64:ZumoLibrary/esp8266_socket.c ****     char ssid[32]; // SSID
  65:ZumoLibrary/esp8266_socket.c ****     char pwd[32]; // password
  66:ZumoLibrary/esp8266_socket.c ****     char sa_data[14]; // ip address
  67:ZumoLibrary/esp8266_socket.c ****     char sa_port[14]; // port number (string)
  68:ZumoLibrary/esp8266_socket.c **** };
  69:ZumoLibrary/esp8266_socket.c **** 
  70:ZumoLibrary/esp8266_socket.c **** void stInit(smi *ctx, const event *e);
  71:ZumoLibrary/esp8266_socket.c **** void stEchoOff(smi *ctx, const event *e);
  72:ZumoLibrary/esp8266_socket.c **** void stStationModeCheck(smi *ctx, const event *e);
  73:ZumoLibrary/esp8266_socket.c **** void stStationModeSet(smi *ctx, const event *e);
  74:ZumoLibrary/esp8266_socket.c **** void stConnectAP(smi *ctx, const event *e);
  75:ZumoLibrary/esp8266_socket.c **** void stReady(smi *ctx, const event *e);
  76:ZumoLibrary/esp8266_socket.c **** void stConnectTCP(smi *ctx, const event *e);
  77:ZumoLibrary/esp8266_socket.c **** void stConnected(smi *ctx, const event *e);
  78:ZumoLibrary/esp8266_socket.c **** void stSend(smi *ctx, const event *e);
  79:ZumoLibrary/esp8266_socket.c **** void stReceiveLength(smi *ctx, const event *e);
  80:ZumoLibrary/esp8266_socket.c **** void stReceiveData(smi *ctx, const event *e);
  81:ZumoLibrary/esp8266_socket.c **** void stCloseTCP(smi *ctx, const event *e);
  82:ZumoLibrary/esp8266_socket.c **** void stPassthrough(smi *ctx, const event *e);
  83:ZumoLibrary/esp8266_socket.c **** void stPassthroughOK(smi *ctx, const event *e);
  84:ZumoLibrary/esp8266_socket.c **** void stAT(smi *ctx, const event *e);
  85:ZumoLibrary/esp8266_socket.c **** void stCommandMode(smi *ctx, const event *e);
  86:ZumoLibrary/esp8266_socket.c **** 
  87:ZumoLibrary/esp8266_socket.c **** void vEspSocketTask(void *pvParameters) ;
  88:ZumoLibrary/esp8266_socket.c **** void vEspEventTask(void *pvParameters) ;
ARM GAS  C:\Users\samue\AppData\Local\Temp\ccJDNHzo.s 			page 3


  89:ZumoLibrary/esp8266_socket.c **** void vEspTickTask( void * pvParameters );
  90:ZumoLibrary/esp8266_socket.c **** 
  91:ZumoLibrary/esp8266_socket.c **** 
  92:ZumoLibrary/esp8266_socket.c **** static inline void serial_write_buf(smi *ctx, const char *buf, int len)
  93:ZumoLibrary/esp8266_socket.c **** {
  94:ZumoLibrary/esp8266_socket.c ****     while(len-- > 0) {
  95:ZumoLibrary/esp8266_socket.c ****         xSerialPutChar(ctx->ComPort,*buf++,portMAX_DELAY);
  96:ZumoLibrary/esp8266_socket.c ****         //UART_1_PutChar(*buf++);
  97:ZumoLibrary/esp8266_socket.c ****     }
  98:ZumoLibrary/esp8266_socket.c **** }    
  99:ZumoLibrary/esp8266_socket.c **** 
 100:ZumoLibrary/esp8266_socket.c **** static inline void serial_write_str(smi *ctx, const char *s)
 101:ZumoLibrary/esp8266_socket.c **** {
 102:ZumoLibrary/esp8266_socket.c ****     //vSerialPutString(ctx->ComPort, (const signed char *) s, strlen(s));
 103:ZumoLibrary/esp8266_socket.c ****     while(*s) {
 104:ZumoLibrary/esp8266_socket.c ****         xSerialPutChar(ctx->ComPort,*s++,portMAX_DELAY);
 105:ZumoLibrary/esp8266_socket.c ****         //UART_1_PutChar(*s++);
 106:ZumoLibrary/esp8266_socket.c ****     }
 107:ZumoLibrary/esp8266_socket.c **** }    
 108:ZumoLibrary/esp8266_socket.c **** 
 109:ZumoLibrary/esp8266_socket.c **** static inline bool serial_get(smi *ctx, char *p)
 110:ZumoLibrary/esp8266_socket.c **** {
 111:ZumoLibrary/esp8266_socket.c ****     return xSerialGetChar(ctx->ComPort, (signed char *) p, 10);
 112:ZumoLibrary/esp8266_socket.c **** }
 113:ZumoLibrary/esp8266_socket.c **** 
 114:ZumoLibrary/esp8266_socket.c **** 
 115:ZumoLibrary/esp8266_socket.c **** smi EspSocketInstance;
 116:ZumoLibrary/esp8266_socket.c **** 
 117:ZumoLibrary/esp8266_socket.c **** static void port2str(int i, char *str)
 118:ZumoLibrary/esp8266_socket.c **** {
  27              		.loc 1 118 0
  28              		.cfi_startproc
  29              		@ args = 0, pretend = 0, frame = 0
  30              		@ frame_needed = 0, uses_anonymous_args = 0
  31              		@ link register save eliminated.
  32              	.LVL0:
  33 0000 10B4     		push	{r4}
  34              		.cfi_def_cfa_offset 4
  35              		.cfi_offset 4, -4
  36              	.LVL1:
 119:ZumoLibrary/esp8266_socket.c ****     int m = 10000;
 120:ZumoLibrary/esp8266_socket.c ****     i %= m; // limit integer size to max 5 digits.
  37              		.loc 1 120 0
  38 0002 154A     		ldr	r2, .L7
  39 0004 82FB0032 		smull	r3, r2, r2, r0
  40 0008 C317     		asrs	r3, r0, #31
  41 000a C3EB2232 		rsb	r2, r3, r2, asr #12
  42 000e 42F21073 		movw	r3, #10000
  43 0012 03FB1202 		mls	r2, r3, r2, r0
  44              	.LVL2:
 121:ZumoLibrary/esp8266_socket.c ****     while(i / m == 0) m/=10;
  45              		.loc 1 121 0
  46 0016 05E0     		b	.L2
  47              	.LVL3:
  48              	.L3:
  49              		.loc 1 121 0 is_stmt 0 discriminator 2
  50 0018 1048     		ldr	r0, .L7+4
ARM GAS  C:\Users\samue\AppData\Local\Temp\ccJDNHzo.s 			page 4


  51 001a 80FB0340 		smull	r4, r0, r0, r3
  52 001e DB17     		asrs	r3, r3, #31
  53              	.LVL4:
  54 0020 C3EBA003 		rsb	r3, r3, r0, asr #2
  55              	.LVL5:
  56              	.L2:
  57              		.loc 1 121 0 discriminator 1
  58 0024 92FBF3F0 		sdiv	r0, r2, r3
  59 0028 0028     		cmp	r0, #0
  60 002a F5D0     		beq	.L3
  61 002c 0DE0     		b	.L4
  62              	.L5:
  63              	.LVL6:
 122:ZumoLibrary/esp8266_socket.c ****     while(m > 0) {
 123:ZumoLibrary/esp8266_socket.c ****         *str++ = '0' + i / m;
  64              		.loc 1 123 0 is_stmt 1
  65 002e 92FBF3F0 		sdiv	r0, r2, r3
  66 0032 00F13004 		add	r4, r0, #48
  67 0036 0C70     		strb	r4, [r1]
 124:ZumoLibrary/esp8266_socket.c ****         i %= m;
  68              		.loc 1 124 0
  69 0038 03FB1022 		mls	r2, r3, r0, r2
  70              	.LVL7:
 125:ZumoLibrary/esp8266_socket.c ****         m /= 10;
  71              		.loc 1 125 0
  72 003c 0748     		ldr	r0, .L7+4
  73 003e 80FB0340 		smull	r4, r0, r0, r3
  74 0042 DB17     		asrs	r3, r3, #31
  75              	.LVL8:
  76 0044 C3EBA003 		rsb	r3, r3, r0, asr #2
  77              	.LVL9:
 123:ZumoLibrary/esp8266_socket.c ****         i %= m;
  78              		.loc 1 123 0
  79 0048 0131     		adds	r1, r1, #1
  80              	.LVL10:
  81              	.L4:
 122:ZumoLibrary/esp8266_socket.c ****         *str++ = '0' + i / m;
  82              		.loc 1 122 0
  83 004a 002B     		cmp	r3, #0
  84 004c EFDC     		bgt	.L5
 126:ZumoLibrary/esp8266_socket.c ****     }
 127:ZumoLibrary/esp8266_socket.c ****     *str='\0';
  85              		.loc 1 127 0
  86 004e 0023     		movs	r3, #0
  87              	.LVL11:
  88 0050 0B70     		strb	r3, [r1]
 128:ZumoLibrary/esp8266_socket.c **** }
  89              		.loc 1 128 0
  90 0052 10BC     		pop	{r4}
  91              		.cfi_restore 4
  92              		.cfi_def_cfa_offset 0
  93 0054 7047     		bx	lr
  94              	.L8:
  95 0056 00BF     		.align	2
  96              	.L7:
  97 0058 AD8BDB68 		.word	1759218605
  98 005c 67666666 		.word	1717986919
ARM GAS  C:\Users\samue\AppData\Local\Temp\ccJDNHzo.s 			page 5


  99              		.cfi_endproc
 100              	.LFE72:
 101              		.size	port2str, .-port2str
 102              		.section	.text.dispatch_event,"ax",%progbits
 103              		.align	2
 104              		.thumb
 105              		.thumb_func
 106              		.type	dispatch_event, %function
 107              	dispatch_event:
 108              	.LFB102:
 129:ZumoLibrary/esp8266_socket.c **** 
 130:ZumoLibrary/esp8266_socket.c **** void smi_init(smi *ctx) 
 131:ZumoLibrary/esp8266_socket.c **** {
 132:ZumoLibrary/esp8266_socket.c ****     memset(ctx, 0, sizeof(smi));
 133:ZumoLibrary/esp8266_socket.c ****     ctx->state = stInit;
 134:ZumoLibrary/esp8266_socket.c ****     ctx->next_state = stInit;
 135:ZumoLibrary/esp8266_socket.c **** }
 136:ZumoLibrary/esp8266_socket.c **** 
 137:ZumoLibrary/esp8266_socket.c ****     
 138:ZumoLibrary/esp8266_socket.c **** int esp_socket(const char *ssid, const char *password)
 139:ZumoLibrary/esp8266_socket.c **** {
 140:ZumoLibrary/esp8266_socket.c ****     smi_init(&EspSocketInstance);
 141:ZumoLibrary/esp8266_socket.c ****     
 142:ZumoLibrary/esp8266_socket.c ****     EspSocketInstance.EspEventQ = xQueueCreate( EspQueueLength, sizeof( event ) );
 143:ZumoLibrary/esp8266_socket.c ****     EspSocketInstance.Access = xSemaphoreCreateMutex();
 144:ZumoLibrary/esp8266_socket.c ****     EspSocketInstance.ComPort = xSerialPortInitMinimal(115200, 256);
 145:ZumoLibrary/esp8266_socket.c ****     
 146:ZumoLibrary/esp8266_socket.c ****     strcpy(EspSocketInstance.ssid, ssid);
 147:ZumoLibrary/esp8266_socket.c ****     strcpy(EspSocketInstance.pwd, password);
 148:ZumoLibrary/esp8266_socket.c ****     
 149:ZumoLibrary/esp8266_socket.c ****     ( void ) xTaskCreate( vEspSocketTask, "ESP_sock", configMINIMAL_STACK_SIZE * 6, &EspSocketInsta
 150:ZumoLibrary/esp8266_socket.c ****   	( void ) xTaskCreate( vEspEventTask, "ESP_rxe", configMINIMAL_STACK_SIZE, &EspSocketInstance, ts
 151:ZumoLibrary/esp8266_socket.c ****   	( void ) xTaskCreate( vEspTickTask, "ESP_tick", configMINIMAL_STACK_SIZE, &EspSocketInstance, ts
 152:ZumoLibrary/esp8266_socket.c ****     
 153:ZumoLibrary/esp8266_socket.c ****     while(EspSocketInstance.state != stReady) {
 154:ZumoLibrary/esp8266_socket.c ****         vTaskDelay(50);
 155:ZumoLibrary/esp8266_socket.c ****     }
 156:ZumoLibrary/esp8266_socket.c ****    
 157:ZumoLibrary/esp8266_socket.c ****     return 0;    
 158:ZumoLibrary/esp8266_socket.c **** }
 159:ZumoLibrary/esp8266_socket.c **** 
 160:ZumoLibrary/esp8266_socket.c **** 
 161:ZumoLibrary/esp8266_socket.c **** 
 162:ZumoLibrary/esp8266_socket.c **** int esp_connect(int sockfd, const char *addr, int port)
 163:ZumoLibrary/esp8266_socket.c **** {
 164:ZumoLibrary/esp8266_socket.c ****     I_DONT_USE(sockfd);
 165:ZumoLibrary/esp8266_socket.c **** 
 166:ZumoLibrary/esp8266_socket.c ****     strcpy(EspSocketInstance.sa_data,addr);
 167:ZumoLibrary/esp8266_socket.c ****     port2str(port, EspSocketInstance.sa_port);
 168:ZumoLibrary/esp8266_socket.c **** 
 169:ZumoLibrary/esp8266_socket.c ****     const event e = { eConnect, 0, NULL, NULL };
 170:ZumoLibrary/esp8266_socket.c ****     
 171:ZumoLibrary/esp8266_socket.c ****     xQueueSendToBack(EspSocketInstance.EspEventQ, &e, portMAX_DELAY);
 172:ZumoLibrary/esp8266_socket.c **** 
 173:ZumoLibrary/esp8266_socket.c ****     int rc = -1;
 174:ZumoLibrary/esp8266_socket.c ****     if(xSemaphoreTake(EspSocketInstance.Access, configTICK_RATE_HZ * 3) == pdTRUE) {
 175:ZumoLibrary/esp8266_socket.c ****         xSemaphoreGive(EspSocketInstance.Access);
ARM GAS  C:\Users\samue\AppData\Local\Temp\ccJDNHzo.s 			page 6


 176:ZumoLibrary/esp8266_socket.c ****         rc = 0;
 177:ZumoLibrary/esp8266_socket.c ****     }
 178:ZumoLibrary/esp8266_socket.c ****     
 179:ZumoLibrary/esp8266_socket.c ****     return rc;
 180:ZumoLibrary/esp8266_socket.c **** }
 181:ZumoLibrary/esp8266_socket.c **** 
 182:ZumoLibrary/esp8266_socket.c **** int esp_read(int sockfd, void *data, int length) 
 183:ZumoLibrary/esp8266_socket.c **** {
 184:ZumoLibrary/esp8266_socket.c ****     I_DONT_USE(sockfd);
 185:ZumoLibrary/esp8266_socket.c ****     int count = 0;
 186:ZumoLibrary/esp8266_socket.c ****     
 187:ZumoLibrary/esp8266_socket.c ****     if(xSemaphoreTake(EspSocketInstance.Access, configTICK_RATE_HZ / 10) == pdTRUE) {
 188:ZumoLibrary/esp8266_socket.c ****         // read data
 189:ZumoLibrary/esp8266_socket.c ****         while(count < length && serial_get(&EspSocketInstance, data)) {
 190:ZumoLibrary/esp8266_socket.c ****             ++count;
 191:ZumoLibrary/esp8266_socket.c ****             ++data;
 192:ZumoLibrary/esp8266_socket.c ****         }
 193:ZumoLibrary/esp8266_socket.c ****         xSemaphoreGive(EspSocketInstance.Access);
 194:ZumoLibrary/esp8266_socket.c ****     }
 195:ZumoLibrary/esp8266_socket.c ****     
 196:ZumoLibrary/esp8266_socket.c ****     return count;
 197:ZumoLibrary/esp8266_socket.c **** }
 198:ZumoLibrary/esp8266_socket.c **** 
 199:ZumoLibrary/esp8266_socket.c **** int esp_write(int sockfd, void *data, int length) 
 200:ZumoLibrary/esp8266_socket.c **** {
 201:ZumoLibrary/esp8266_socket.c ****     I_DONT_USE(sockfd);
 202:ZumoLibrary/esp8266_socket.c **** 
 203:ZumoLibrary/esp8266_socket.c ****     if(xSemaphoreTake(EspSocketInstance.Access, configTICK_RATE_HZ / 10) == pdTRUE) {
 204:ZumoLibrary/esp8266_socket.c ****         // write data
 205:ZumoLibrary/esp8266_socket.c ****         serial_write_buf(&EspSocketInstance, data, length);
 206:ZumoLibrary/esp8266_socket.c ****         xSemaphoreGive(EspSocketInstance.Access);
 207:ZumoLibrary/esp8266_socket.c ****     }
 208:ZumoLibrary/esp8266_socket.c ****     
 209:ZumoLibrary/esp8266_socket.c ****     return length;
 210:ZumoLibrary/esp8266_socket.c **** }
 211:ZumoLibrary/esp8266_socket.c **** 
 212:ZumoLibrary/esp8266_socket.c **** int esp_close(int sockfd)
 213:ZumoLibrary/esp8266_socket.c **** {
 214:ZumoLibrary/esp8266_socket.c ****     return esp_shutdown(sockfd, -1);
 215:ZumoLibrary/esp8266_socket.c **** }
 216:ZumoLibrary/esp8266_socket.c **** 
 217:ZumoLibrary/esp8266_socket.c **** int esp_shutdown(int sockfd, int how)
 218:ZumoLibrary/esp8266_socket.c **** {
 219:ZumoLibrary/esp8266_socket.c ****     I_DONT_USE(sockfd);
 220:ZumoLibrary/esp8266_socket.c ****     I_DONT_USE(how);
 221:ZumoLibrary/esp8266_socket.c ****     const event e = { eDisconnect, 0, NULL, NULL };
 222:ZumoLibrary/esp8266_socket.c ****     
 223:ZumoLibrary/esp8266_socket.c ****     xQueueSendToBack(EspSocketInstance.EspEventQ, &e, portMAX_DELAY);
 224:ZumoLibrary/esp8266_socket.c **** 
 225:ZumoLibrary/esp8266_socket.c ****     return 0;
 226:ZumoLibrary/esp8266_socket.c **** }
 227:ZumoLibrary/esp8266_socket.c **** 
 228:ZumoLibrary/esp8266_socket.c **** 
 229:ZumoLibrary/esp8266_socket.c **** static const event evEnter = { eEnter, 0, NULL, NULL };
 230:ZumoLibrary/esp8266_socket.c **** static const event evExit = { eExit, 0, NULL, NULL };
 231:ZumoLibrary/esp8266_socket.c **** 
 232:ZumoLibrary/esp8266_socket.c **** #if 0
ARM GAS  C:\Users\samue\AppData\Local\Temp\ccJDNHzo.s 			page 7


 233:ZumoLibrary/esp8266_socket.c **** /* this is state template */
 234:ZumoLibrary/esp8266_socket.c **** void stStateTemplate(smi *ctx, const event *e)
 235:ZumoLibrary/esp8266_socket.c **** {
 236:ZumoLibrary/esp8266_socket.c **** 	switch(e->ev) {
 237:ZumoLibrary/esp8266_socket.c **** 	case eEnter:
 238:ZumoLibrary/esp8266_socket.c **** 		break;
 239:ZumoLibrary/esp8266_socket.c **** 	case eExit:
 240:ZumoLibrary/esp8266_socket.c **** 		break;
 241:ZumoLibrary/esp8266_socket.c **** 	case eTick:
 242:ZumoLibrary/esp8266_socket.c **** 		break;
 243:ZumoLibrary/esp8266_socket.c **** 	case eReceive:
 244:ZumoLibrary/esp8266_socket.c **** 		break;
 245:ZumoLibrary/esp8266_socket.c **** 	default:
 246:ZumoLibrary/esp8266_socket.c **** 		break;
 247:ZumoLibrary/esp8266_socket.c **** 	}
 248:ZumoLibrary/esp8266_socket.c **** }
 249:ZumoLibrary/esp8266_socket.c **** #endif
 250:ZumoLibrary/esp8266_socket.c **** 
 251:ZumoLibrary/esp8266_socket.c **** void init_counters(smi *ctx) {
 252:ZumoLibrary/esp8266_socket.c ****     ctx->count = 0;
 253:ZumoLibrary/esp8266_socket.c ****     ctx->pos = 0;
 254:ZumoLibrary/esp8266_socket.c ****     ctx->timer = 0;
 255:ZumoLibrary/esp8266_socket.c **** }
 256:ZumoLibrary/esp8266_socket.c **** 
 257:ZumoLibrary/esp8266_socket.c **** /* Read and store characters upto specified length. 
 258:ZumoLibrary/esp8266_socket.c ****  * Returns true when specified amount of characters have been accumulated. */
 259:ZumoLibrary/esp8266_socket.c **** void sm_flush(smi *ctx) 
 260:ZumoLibrary/esp8266_socket.c **** {
 261:ZumoLibrary/esp8266_socket.c ****     //DEBUGP("flush: %d\n", (int)xSerialRxWaiting(ctx->ComPort));
 262:ZumoLibrary/esp8266_socket.c ****     while(serial_get(ctx, ctx->buffer));
 263:ZumoLibrary/esp8266_socket.c **** }
 264:ZumoLibrary/esp8266_socket.c **** 
 265:ZumoLibrary/esp8266_socket.c **** 
 266:ZumoLibrary/esp8266_socket.c **** /* Read and store characters upto specified length. 
 267:ZumoLibrary/esp8266_socket.c ****  * Returns true when specified amount of characters have been accumulated. */
 268:ZumoLibrary/esp8266_socket.c **** bool sm_read_buffer(smi *ctx, int count) 
 269:ZumoLibrary/esp8266_socket.c **** {
 270:ZumoLibrary/esp8266_socket.c ****     while(ctx->pos < (SMI_BUFSIZE - 1) && ctx->pos < count && serial_get(ctx, ctx->buffer + ctx->po
 271:ZumoLibrary/esp8266_socket.c ****         //putchar(ctx->buffer[ctx->pos]); // debugging
 272:ZumoLibrary/esp8266_socket.c ****         ++ctx->pos;
 273:ZumoLibrary/esp8266_socket.c ****     }
 274:ZumoLibrary/esp8266_socket.c ****     return (ctx->pos >= count);
 275:ZumoLibrary/esp8266_socket.c **** }
 276:ZumoLibrary/esp8266_socket.c **** 
 277:ZumoLibrary/esp8266_socket.c **** 
 278:ZumoLibrary/esp8266_socket.c **** /* Read an integer.
 279:ZumoLibrary/esp8266_socket.c ****  * Consumes characters until a non-nondigit is received. The nondigit is also consumed. */
 280:ZumoLibrary/esp8266_socket.c **** bool sm_read_int(smi *ctx, int *value) 
 281:ZumoLibrary/esp8266_socket.c **** {
 282:ZumoLibrary/esp8266_socket.c ****     bool result = false;
 283:ZumoLibrary/esp8266_socket.c ****     while(ctx->pos < (SMI_BUFSIZE - 1) && serial_get(ctx, ctx->buffer + ctx->pos)) {
 284:ZumoLibrary/esp8266_socket.c ****         if(!isdigit(ctx->buffer[ctx->pos])) {
 285:ZumoLibrary/esp8266_socket.c ****             ctx->buffer[ctx->pos] = '\0';
 286:ZumoLibrary/esp8266_socket.c ****             *value = atoi(ctx->buffer);
 287:ZumoLibrary/esp8266_socket.c ****             result = true;
 288:ZumoLibrary/esp8266_socket.c ****             break;
 289:ZumoLibrary/esp8266_socket.c ****         }
ARM GAS  C:\Users\samue\AppData\Local\Temp\ccJDNHzo.s 			page 8


 290:ZumoLibrary/esp8266_socket.c ****         else {
 291:ZumoLibrary/esp8266_socket.c ****             ++ctx->pos;
 292:ZumoLibrary/esp8266_socket.c ****         }
 293:ZumoLibrary/esp8266_socket.c ****     }
 294:ZumoLibrary/esp8266_socket.c ****     return result;
 295:ZumoLibrary/esp8266_socket.c **** }
 296:ZumoLibrary/esp8266_socket.c **** 
 297:ZumoLibrary/esp8266_socket.c **** 
 298:ZumoLibrary/esp8266_socket.c **** 
 299:ZumoLibrary/esp8266_socket.c **** /* Read and store data until one of the specified strings is received.
 300:ZumoLibrary/esp8266_socket.c ****  * The matched string is also included in the data .*/
 301:ZumoLibrary/esp8266_socket.c **** int sm_read_until(smi *ctx, const char **p) 
 302:ZumoLibrary/esp8266_socket.c **** {
 303:ZumoLibrary/esp8266_socket.c ****     int result = RC_NOT_AVAILABLE;
 304:ZumoLibrary/esp8266_socket.c ****     while(result < 0 && ctx->pos < (SMI_BUFSIZE - 1) && serial_get(ctx, ctx->buffer + ctx->pos)) {
 305:ZumoLibrary/esp8266_socket.c ****         ++ctx->pos;
 306:ZumoLibrary/esp8266_socket.c ****         ctx->buffer[ctx->pos] = '\0';
 307:ZumoLibrary/esp8266_socket.c ****         for(int i = 0; result < 0 && p[i] != NULL; ++i) {
 308:ZumoLibrary/esp8266_socket.c ****             if(strstr(ctx->buffer, p[i]) != NULL) {
 309:ZumoLibrary/esp8266_socket.c ****                 result = i;
 310:ZumoLibrary/esp8266_socket.c ****             }
 311:ZumoLibrary/esp8266_socket.c ****         }
 312:ZumoLibrary/esp8266_socket.c ****     }
 313:ZumoLibrary/esp8266_socket.c ****     return result;
 314:ZumoLibrary/esp8266_socket.c ****     
 315:ZumoLibrary/esp8266_socket.c **** }
 316:ZumoLibrary/esp8266_socket.c **** 
 317:ZumoLibrary/esp8266_socket.c **** /* read and store data until result is received */
 318:ZumoLibrary/esp8266_socket.c **** int sm_read_result(smi *ctx) 
 319:ZumoLibrary/esp8266_socket.c **** {
 320:ZumoLibrary/esp8266_socket.c ****     static const char *result_list[] = { "OK\r\n", "ERROR\r\n", NULL };
 321:ZumoLibrary/esp8266_socket.c ****     return sm_read_until(ctx, result_list);
 322:ZumoLibrary/esp8266_socket.c **** }
 323:ZumoLibrary/esp8266_socket.c **** 
 324:ZumoLibrary/esp8266_socket.c **** /* read and consume characters until specified string occurs */
 325:ZumoLibrary/esp8266_socket.c **** bool sm_wait_for(smi *ctx, const char *p)
 326:ZumoLibrary/esp8266_socket.c **** {
 327:ZumoLibrary/esp8266_socket.c ****     bool result = false;
 328:ZumoLibrary/esp8266_socket.c ****     int len = strlen(p);
 329:ZumoLibrary/esp8266_socket.c **** 
 330:ZumoLibrary/esp8266_socket.c ****     while(sm_read_buffer(ctx, len)) {
 331:ZumoLibrary/esp8266_socket.c ****         ctx->buffer[ctx->pos] = '\0';
 332:ZumoLibrary/esp8266_socket.c ****         if(strstr(ctx->buffer, p) != NULL) {
 333:ZumoLibrary/esp8266_socket.c ****             result = true;
 334:ZumoLibrary/esp8266_socket.c ****             break;
 335:ZumoLibrary/esp8266_socket.c ****         }
 336:ZumoLibrary/esp8266_socket.c ****         else {
 337:ZumoLibrary/esp8266_socket.c ****             memmove(ctx->buffer, ctx->buffer + 1, ctx->pos);
 338:ZumoLibrary/esp8266_socket.c ****             --ctx->pos;
 339:ZumoLibrary/esp8266_socket.c ****         }
 340:ZumoLibrary/esp8266_socket.c ****     }
 341:ZumoLibrary/esp8266_socket.c ****     return result;
 342:ZumoLibrary/esp8266_socket.c **** }
 343:ZumoLibrary/esp8266_socket.c **** 
 344:ZumoLibrary/esp8266_socket.c **** void stInit(smi *ctx, const event *e)
 345:ZumoLibrary/esp8266_socket.c **** {
 346:ZumoLibrary/esp8266_socket.c **** 	switch(e->ev) {
ARM GAS  C:\Users\samue\AppData\Local\Temp\ccJDNHzo.s 			page 9


 347:ZumoLibrary/esp8266_socket.c **** 	case eEnter:
 348:ZumoLibrary/esp8266_socket.c ****         DEBUGP("stInit\n");
 349:ZumoLibrary/esp8266_socket.c ****         sm_flush(ctx);
 350:ZumoLibrary/esp8266_socket.c ****         init_counters(ctx);
 351:ZumoLibrary/esp8266_socket.c ****         serial_write_str(ctx, "AT\r\n");
 352:ZumoLibrary/esp8266_socket.c **** 		break;
 353:ZumoLibrary/esp8266_socket.c **** 	case eExit:
 354:ZumoLibrary/esp8266_socket.c **** 		break;
 355:ZumoLibrary/esp8266_socket.c **** 	case eTick:
 356:ZumoLibrary/esp8266_socket.c ****         ++ctx->timer;
 357:ZumoLibrary/esp8266_socket.c ****         //if(ctx->timer == 5) DEBUGP("[%s]", ctx->buffer);
 358:ZumoLibrary/esp8266_socket.c ****         if(ctx->timer >= 10) {
 359:ZumoLibrary/esp8266_socket.c ****             ctx->timer = 0;
 360:ZumoLibrary/esp8266_socket.c ****             ++ctx->count;
 361:ZumoLibrary/esp8266_socket.c ****             if(ctx->count < 5) {
 362:ZumoLibrary/esp8266_socket.c ****                 serial_write_str(ctx, "AT\r\n");
 363:ZumoLibrary/esp8266_socket.c ****             }
 364:ZumoLibrary/esp8266_socket.c ****             else {
 365:ZumoLibrary/esp8266_socket.c ****                 DEBUGP("Error: Module not responding\n");
 366:ZumoLibrary/esp8266_socket.c ****                 TRAN(stAT);
 367:ZumoLibrary/esp8266_socket.c ****             }
 368:ZumoLibrary/esp8266_socket.c ****         }
 369:ZumoLibrary/esp8266_socket.c **** 		break;
 370:ZumoLibrary/esp8266_socket.c ****     case eReceive:
 371:ZumoLibrary/esp8266_socket.c ****         if(sm_wait_for(ctx, "OK\r\n")) {
 372:ZumoLibrary/esp8266_socket.c ****             TRAN(stEchoOff);
 373:ZumoLibrary/esp8266_socket.c ****         }
 374:ZumoLibrary/esp8266_socket.c ****         break;
 375:ZumoLibrary/esp8266_socket.c **** 	default:
 376:ZumoLibrary/esp8266_socket.c **** 		break;
 377:ZumoLibrary/esp8266_socket.c **** 	}
 378:ZumoLibrary/esp8266_socket.c **** }
 379:ZumoLibrary/esp8266_socket.c **** 
 380:ZumoLibrary/esp8266_socket.c **** void stAT(smi *ctx, const event *e)
 381:ZumoLibrary/esp8266_socket.c **** {
 382:ZumoLibrary/esp8266_socket.c **** 	switch(e->ev) {
 383:ZumoLibrary/esp8266_socket.c **** 	case eEnter:
 384:ZumoLibrary/esp8266_socket.c ****         DEBUGP("stAT\n");
 385:ZumoLibrary/esp8266_socket.c ****         init_counters(ctx);
 386:ZumoLibrary/esp8266_socket.c **** 		break;
 387:ZumoLibrary/esp8266_socket.c **** 	case eExit:
 388:ZumoLibrary/esp8266_socket.c **** 		break;
 389:ZumoLibrary/esp8266_socket.c **** 	case eTick:
 390:ZumoLibrary/esp8266_socket.c ****         ++ctx->timer;
 391:ZumoLibrary/esp8266_socket.c ****         if(ctx->timer == 10) serial_write_str(ctx, "+++");
 392:ZumoLibrary/esp8266_socket.c ****         if(ctx->timer == 25) TRAN(stInit);
 393:ZumoLibrary/esp8266_socket.c **** 		break;
 394:ZumoLibrary/esp8266_socket.c ****     case eReceive:
 395:ZumoLibrary/esp8266_socket.c ****         break;
 396:ZumoLibrary/esp8266_socket.c **** 	default:
 397:ZumoLibrary/esp8266_socket.c **** 		break;
 398:ZumoLibrary/esp8266_socket.c **** 	}
 399:ZumoLibrary/esp8266_socket.c **** }
 400:ZumoLibrary/esp8266_socket.c **** 
 401:ZumoLibrary/esp8266_socket.c **** void stEchoOff(smi *ctx, const event *e)
 402:ZumoLibrary/esp8266_socket.c **** {
 403:ZumoLibrary/esp8266_socket.c **** 	switch(e->ev) {
ARM GAS  C:\Users\samue\AppData\Local\Temp\ccJDNHzo.s 			page 10


 404:ZumoLibrary/esp8266_socket.c **** 	case eEnter:
 405:ZumoLibrary/esp8266_socket.c ****         DEBUGP("stEchoOff\n");
 406:ZumoLibrary/esp8266_socket.c ****         sm_flush(ctx);
 407:ZumoLibrary/esp8266_socket.c ****         init_counters(ctx);
 408:ZumoLibrary/esp8266_socket.c ****         serial_write_str(ctx, "ATE0\r\n");
 409:ZumoLibrary/esp8266_socket.c **** 		break;
 410:ZumoLibrary/esp8266_socket.c **** 	case eExit:
 411:ZumoLibrary/esp8266_socket.c **** 		break;
 412:ZumoLibrary/esp8266_socket.c **** 	case eTick:
 413:ZumoLibrary/esp8266_socket.c ****         ++ctx->timer;
 414:ZumoLibrary/esp8266_socket.c ****         if(ctx->timer >= 10) {
 415:ZumoLibrary/esp8266_socket.c ****             ++ctx->count;
 416:ZumoLibrary/esp8266_socket.c ****             if(ctx->count < 3) {
 417:ZumoLibrary/esp8266_socket.c ****                 serial_write_str(ctx, "ATE0\r\n");
 418:ZumoLibrary/esp8266_socket.c ****             }
 419:ZumoLibrary/esp8266_socket.c ****             else {
 420:ZumoLibrary/esp8266_socket.c ****                 DEBUGP("Error: setting local echo off failed\n");
 421:ZumoLibrary/esp8266_socket.c ****                 TRAN(stInit);
 422:ZumoLibrary/esp8266_socket.c ****             }
 423:ZumoLibrary/esp8266_socket.c ****         }
 424:ZumoLibrary/esp8266_socket.c **** 		break;
 425:ZumoLibrary/esp8266_socket.c ****     case eReceive:
 426:ZumoLibrary/esp8266_socket.c ****         if(sm_wait_for(ctx, "OK\r\n")) {
 427:ZumoLibrary/esp8266_socket.c ****             TRAN(stStationModeCheck);
 428:ZumoLibrary/esp8266_socket.c ****         }
 429:ZumoLibrary/esp8266_socket.c ****         break;
 430:ZumoLibrary/esp8266_socket.c **** 	default:
 431:ZumoLibrary/esp8266_socket.c **** 		break;
 432:ZumoLibrary/esp8266_socket.c **** 	}
 433:ZumoLibrary/esp8266_socket.c **** }
 434:ZumoLibrary/esp8266_socket.c **** 
 435:ZumoLibrary/esp8266_socket.c **** 
 436:ZumoLibrary/esp8266_socket.c **** void stStationModeCheck(smi *ctx, const event *e)
 437:ZumoLibrary/esp8266_socket.c **** {
 438:ZumoLibrary/esp8266_socket.c ****     int rc = -1;
 439:ZumoLibrary/esp8266_socket.c **** 	switch(e->ev) {
 440:ZumoLibrary/esp8266_socket.c **** 	case eEnter:
 441:ZumoLibrary/esp8266_socket.c ****         DEBUGP("stStationModeCheck\n");
 442:ZumoLibrary/esp8266_socket.c ****         init_counters(ctx);
 443:ZumoLibrary/esp8266_socket.c ****         serial_write_str(ctx, "AT+CWMODE_CUR?\r\n");
 444:ZumoLibrary/esp8266_socket.c **** 		break;
 445:ZumoLibrary/esp8266_socket.c **** 	case eExit:
 446:ZumoLibrary/esp8266_socket.c **** 		break;
 447:ZumoLibrary/esp8266_socket.c **** 	case eTick:
 448:ZumoLibrary/esp8266_socket.c **** 		break;
 449:ZumoLibrary/esp8266_socket.c ****     case eReceive:
 450:ZumoLibrary/esp8266_socket.c ****         rc = sm_read_result(ctx);
 451:ZumoLibrary/esp8266_socket.c ****         if(rc == RC_OK) {
 452:ZumoLibrary/esp8266_socket.c ****             DEBUGP("%d: %s", rc, ctx->buffer);
 453:ZumoLibrary/esp8266_socket.c ****             if(strstr(ctx->buffer, "+CWMODE_CUR:1\r\n") != NULL) {
 454:ZumoLibrary/esp8266_socket.c ****                 TRAN(stConnectAP);
 455:ZumoLibrary/esp8266_socket.c ****             }
 456:ZumoLibrary/esp8266_socket.c ****             else {
 457:ZumoLibrary/esp8266_socket.c ****                 TRAN(stStationModeSet);
 458:ZumoLibrary/esp8266_socket.c ****             }
 459:ZumoLibrary/esp8266_socket.c ****         }
 460:ZumoLibrary/esp8266_socket.c ****         else if(rc == RC_ERROR) {
ARM GAS  C:\Users\samue\AppData\Local\Temp\ccJDNHzo.s 			page 11


 461:ZumoLibrary/esp8266_socket.c ****         }
 462:ZumoLibrary/esp8266_socket.c ****         break;
 463:ZumoLibrary/esp8266_socket.c **** 	default:
 464:ZumoLibrary/esp8266_socket.c **** 		break;
 465:ZumoLibrary/esp8266_socket.c **** 	}
 466:ZumoLibrary/esp8266_socket.c **** }
 467:ZumoLibrary/esp8266_socket.c **** 
 468:ZumoLibrary/esp8266_socket.c **** 
 469:ZumoLibrary/esp8266_socket.c **** void stStationModeSet(smi *ctx, const event *e)
 470:ZumoLibrary/esp8266_socket.c **** {
 471:ZumoLibrary/esp8266_socket.c **** 	switch(e->ev) {
 472:ZumoLibrary/esp8266_socket.c **** 	case eEnter:
 473:ZumoLibrary/esp8266_socket.c ****         DEBUGP("stStationModeSet\n");
 474:ZumoLibrary/esp8266_socket.c ****         init_counters(ctx);
 475:ZumoLibrary/esp8266_socket.c ****         serial_write_str(ctx, "AT+CWMODE_CUR=1\r\n");
 476:ZumoLibrary/esp8266_socket.c **** 		break;
 477:ZumoLibrary/esp8266_socket.c **** 	case eExit:
 478:ZumoLibrary/esp8266_socket.c **** 		break;
 479:ZumoLibrary/esp8266_socket.c **** 	case eTick:
 480:ZumoLibrary/esp8266_socket.c **** 		break;
 481:ZumoLibrary/esp8266_socket.c ****     case eReceive:
 482:ZumoLibrary/esp8266_socket.c ****         if(sm_wait_for(ctx, "OK\r\n")) {
 483:ZumoLibrary/esp8266_socket.c ****             TRAN(stStationModeCheck);
 484:ZumoLibrary/esp8266_socket.c ****         }
 485:ZumoLibrary/esp8266_socket.c ****         break;
 486:ZumoLibrary/esp8266_socket.c **** 	default:
 487:ZumoLibrary/esp8266_socket.c **** 		break;
 488:ZumoLibrary/esp8266_socket.c **** 	}
 489:ZumoLibrary/esp8266_socket.c **** }
 490:ZumoLibrary/esp8266_socket.c **** 
 491:ZumoLibrary/esp8266_socket.c **** static void connect_ssid(smi *ctx) 
 492:ZumoLibrary/esp8266_socket.c **** {
 493:ZumoLibrary/esp8266_socket.c ****     serial_write_str(ctx, "AT+CWJAP_CUR=\"");
 494:ZumoLibrary/esp8266_socket.c ****     serial_write_str(ctx, ctx->ssid);
 495:ZumoLibrary/esp8266_socket.c ****     serial_write_str(ctx, "\",\"");
 496:ZumoLibrary/esp8266_socket.c ****     serial_write_str(ctx, ctx->pwd);
 497:ZumoLibrary/esp8266_socket.c ****     serial_write_str(ctx, "\"\r\n");
 498:ZumoLibrary/esp8266_socket.c **** }
 499:ZumoLibrary/esp8266_socket.c **** 
 500:ZumoLibrary/esp8266_socket.c **** void stConnectAP(smi *ctx, const event *e)
 501:ZumoLibrary/esp8266_socket.c **** {
 502:ZumoLibrary/esp8266_socket.c ****     int rc;
 503:ZumoLibrary/esp8266_socket.c **** 	switch(e->ev) {
 504:ZumoLibrary/esp8266_socket.c **** 	case eEnter:
 505:ZumoLibrary/esp8266_socket.c ****         DEBUGP("stConnectAP\n");
 506:ZumoLibrary/esp8266_socket.c ****         init_counters(ctx);
 507:ZumoLibrary/esp8266_socket.c **** 		break;
 508:ZumoLibrary/esp8266_socket.c **** 	case eExit:
 509:ZumoLibrary/esp8266_socket.c **** 		break;
 510:ZumoLibrary/esp8266_socket.c **** 	case eTick:
 511:ZumoLibrary/esp8266_socket.c ****         // may take upto 7 seconds. do we need a timeout?
 512:ZumoLibrary/esp8266_socket.c ****         ++ctx->timer;
 513:ZumoLibrary/esp8266_socket.c ****         if(ctx->timer == 1) {
 514:ZumoLibrary/esp8266_socket.c ****             connect_ssid(ctx);
 515:ZumoLibrary/esp8266_socket.c ****         }
 516:ZumoLibrary/esp8266_socket.c ****         if(ctx->timer >= 70) {
 517:ZumoLibrary/esp8266_socket.c ****             ctx->timer = 0;
ARM GAS  C:\Users\samue\AppData\Local\Temp\ccJDNHzo.s 			page 12


 518:ZumoLibrary/esp8266_socket.c ****         }
 519:ZumoLibrary/esp8266_socket.c **** 		break;
 520:ZumoLibrary/esp8266_socket.c ****     case eReceive:
 521:ZumoLibrary/esp8266_socket.c ****         rc = sm_read_result(ctx);
 522:ZumoLibrary/esp8266_socket.c ****         if(rc == RC_OK) {
 523:ZumoLibrary/esp8266_socket.c ****             //DEBUGP("%d: %s", rc, ctx->buffer);
 524:ZumoLibrary/esp8266_socket.c ****             TRAN(stReady);
 525:ZumoLibrary/esp8266_socket.c ****         }
 526:ZumoLibrary/esp8266_socket.c ****         else if(rc == RC_ERROR) {
 527:ZumoLibrary/esp8266_socket.c ****             // failed: what to do now?
 528:ZumoLibrary/esp8266_socket.c ****         }
 529:ZumoLibrary/esp8266_socket.c ****         break;
 530:ZumoLibrary/esp8266_socket.c **** 	default:
 531:ZumoLibrary/esp8266_socket.c **** 		break;
 532:ZumoLibrary/esp8266_socket.c **** 	}
 533:ZumoLibrary/esp8266_socket.c **** }
 534:ZumoLibrary/esp8266_socket.c **** 
 535:ZumoLibrary/esp8266_socket.c **** 
 536:ZumoLibrary/esp8266_socket.c **** void stReady(smi *ctx, const event *e)
 537:ZumoLibrary/esp8266_socket.c **** {
 538:ZumoLibrary/esp8266_socket.c **** 	switch(e->ev) {
 539:ZumoLibrary/esp8266_socket.c **** 	case eEnter:
 540:ZumoLibrary/esp8266_socket.c ****         DEBUGP("stReady\n");
 541:ZumoLibrary/esp8266_socket.c ****         init_counters(ctx);
 542:ZumoLibrary/esp8266_socket.c **** 		break;
 543:ZumoLibrary/esp8266_socket.c **** 	case eExit:
 544:ZumoLibrary/esp8266_socket.c **** 		break;
 545:ZumoLibrary/esp8266_socket.c **** 	case eTick:
 546:ZumoLibrary/esp8266_socket.c **** #if 0        
 547:ZumoLibrary/esp8266_socket.c ****         ++ctx->timer;
 548:ZumoLibrary/esp8266_socket.c ****         if(ctx->timer == 25) {
 549:ZumoLibrary/esp8266_socket.c ****             DEBUGP("Connecting...\n");
 550:ZumoLibrary/esp8266_socket.c ****             TRAN(stConnectTCP);
 551:ZumoLibrary/esp8266_socket.c ****         }
 552:ZumoLibrary/esp8266_socket.c **** #endif        
 553:ZumoLibrary/esp8266_socket.c **** 		break;
 554:ZumoLibrary/esp8266_socket.c ****     case eReceive:
 555:ZumoLibrary/esp8266_socket.c ****         break;
 556:ZumoLibrary/esp8266_socket.c ****     case eConnect:
 557:ZumoLibrary/esp8266_socket.c ****         TRAN(stConnectTCP);
 558:ZumoLibrary/esp8266_socket.c ****         break;
 559:ZumoLibrary/esp8266_socket.c **** 	default:
 560:ZumoLibrary/esp8266_socket.c **** 		break;
 561:ZumoLibrary/esp8266_socket.c **** 	}
 562:ZumoLibrary/esp8266_socket.c ****     
 563:ZumoLibrary/esp8266_socket.c **** }
 564:ZumoLibrary/esp8266_socket.c **** 
 565:ZumoLibrary/esp8266_socket.c **** 
 566:ZumoLibrary/esp8266_socket.c **** 
 567:ZumoLibrary/esp8266_socket.c **** static void connect_tcp(smi *ctx) 
 568:ZumoLibrary/esp8266_socket.c **** {
 569:ZumoLibrary/esp8266_socket.c ****     serial_write_str(ctx, "AT+CIPSTART=\"TCP\",\"");
 570:ZumoLibrary/esp8266_socket.c ****     serial_write_str(ctx, ctx->sa_data);
 571:ZumoLibrary/esp8266_socket.c ****     serial_write_str(ctx, "\",");
 572:ZumoLibrary/esp8266_socket.c ****     serial_write_str(ctx, ctx->sa_port);
 573:ZumoLibrary/esp8266_socket.c ****     serial_write_str(ctx, "\r\n");
 574:ZumoLibrary/esp8266_socket.c **** }
ARM GAS  C:\Users\samue\AppData\Local\Temp\ccJDNHzo.s 			page 13


 575:ZumoLibrary/esp8266_socket.c **** 
 576:ZumoLibrary/esp8266_socket.c **** void stConnectTCP(smi *ctx, const event *e)
 577:ZumoLibrary/esp8266_socket.c **** {
 578:ZumoLibrary/esp8266_socket.c ****     int rc;
 579:ZumoLibrary/esp8266_socket.c **** 	switch(e->ev) {
 580:ZumoLibrary/esp8266_socket.c **** 	case eEnter:
 581:ZumoLibrary/esp8266_socket.c ****         DEBUGP("stConnectTCP\n");
 582:ZumoLibrary/esp8266_socket.c ****         init_counters(ctx);
 583:ZumoLibrary/esp8266_socket.c ****         connect_tcp(ctx);
 584:ZumoLibrary/esp8266_socket.c **** 		break;
 585:ZumoLibrary/esp8266_socket.c **** 	case eExit:
 586:ZumoLibrary/esp8266_socket.c **** 		break;
 587:ZumoLibrary/esp8266_socket.c **** 	case eTick:
 588:ZumoLibrary/esp8266_socket.c **** 		break;
 589:ZumoLibrary/esp8266_socket.c ****     case eReceive:
 590:ZumoLibrary/esp8266_socket.c ****         rc = sm_read_result(ctx);
 591:ZumoLibrary/esp8266_socket.c ****         if(rc == RC_OK) {
 592:ZumoLibrary/esp8266_socket.c ****             //DEBUGP("%d: %s", rc, ctx->buffer);
 593:ZumoLibrary/esp8266_socket.c ****             if(strstr(ctx->buffer, "CONNECT\r\n") != NULL) {
 594:ZumoLibrary/esp8266_socket.c ****                 TRAN(stPassthrough);
 595:ZumoLibrary/esp8266_socket.c ****             }
 596:ZumoLibrary/esp8266_socket.c ****             else {
 597:ZumoLibrary/esp8266_socket.c ****                 // what else can we get with OK??
 598:ZumoLibrary/esp8266_socket.c ****             }
 599:ZumoLibrary/esp8266_socket.c ****         }
 600:ZumoLibrary/esp8266_socket.c ****         else if(rc == RC_ERROR) {
 601:ZumoLibrary/esp8266_socket.c ****             // failed: what to do now?
 602:ZumoLibrary/esp8266_socket.c ****             DEBUGP("Connect failed\n");
 603:ZumoLibrary/esp8266_socket.c ****             connect_tcp(ctx);
 604:ZumoLibrary/esp8266_socket.c ****         }
 605:ZumoLibrary/esp8266_socket.c ****         break;
 606:ZumoLibrary/esp8266_socket.c **** 	default:
 607:ZumoLibrary/esp8266_socket.c **** 		break;
 608:ZumoLibrary/esp8266_socket.c **** 	}
 609:ZumoLibrary/esp8266_socket.c **** }
 610:ZumoLibrary/esp8266_socket.c **** 
 611:ZumoLibrary/esp8266_socket.c **** 
 612:ZumoLibrary/esp8266_socket.c **** void stPassthrough(smi *ctx, const event *e)
 613:ZumoLibrary/esp8266_socket.c **** {
 614:ZumoLibrary/esp8266_socket.c ****     int rc;
 615:ZumoLibrary/esp8266_socket.c **** 	switch(e->ev) {
 616:ZumoLibrary/esp8266_socket.c **** 	case eEnter:
 617:ZumoLibrary/esp8266_socket.c ****         DEBUGP("stPassthrough\n");
 618:ZumoLibrary/esp8266_socket.c ****         init_counters(ctx);
 619:ZumoLibrary/esp8266_socket.c ****         serial_write_str(ctx, "AT+CIPMODE=1\r\n");
 620:ZumoLibrary/esp8266_socket.c **** 		break;
 621:ZumoLibrary/esp8266_socket.c **** 	case eExit:
 622:ZumoLibrary/esp8266_socket.c **** 		break;
 623:ZumoLibrary/esp8266_socket.c **** 	case eTick:
 624:ZumoLibrary/esp8266_socket.c **** 		break;
 625:ZumoLibrary/esp8266_socket.c ****     case eReceive:
 626:ZumoLibrary/esp8266_socket.c ****         rc = sm_read_result(ctx);
 627:ZumoLibrary/esp8266_socket.c ****         if(rc == RC_OK) {
 628:ZumoLibrary/esp8266_socket.c ****             TRAN(stPassthroughOK);
 629:ZumoLibrary/esp8266_socket.c ****         }
 630:ZumoLibrary/esp8266_socket.c ****         else if(rc == RC_ERROR) {
 631:ZumoLibrary/esp8266_socket.c ****             // failed: what to do now?
ARM GAS  C:\Users\samue\AppData\Local\Temp\ccJDNHzo.s 			page 14


 632:ZumoLibrary/esp8266_socket.c ****         }
 633:ZumoLibrary/esp8266_socket.c ****         break;
 634:ZumoLibrary/esp8266_socket.c **** 	default:
 635:ZumoLibrary/esp8266_socket.c **** 		break;
 636:ZumoLibrary/esp8266_socket.c **** 	}
 637:ZumoLibrary/esp8266_socket.c ****     
 638:ZumoLibrary/esp8266_socket.c **** }
 639:ZumoLibrary/esp8266_socket.c **** 
 640:ZumoLibrary/esp8266_socket.c **** void stPassthroughOK(smi *ctx, const event *e)
 641:ZumoLibrary/esp8266_socket.c **** {
 642:ZumoLibrary/esp8266_socket.c **** 	switch(e->ev) {
 643:ZumoLibrary/esp8266_socket.c **** 	case eEnter:
 644:ZumoLibrary/esp8266_socket.c ****         DEBUGP("stPassthroughOK\n");
 645:ZumoLibrary/esp8266_socket.c ****         init_counters(ctx);
 646:ZumoLibrary/esp8266_socket.c ****         serial_write_str(ctx, "AT+CIPSEND\r\n");
 647:ZumoLibrary/esp8266_socket.c **** 		break;
 648:ZumoLibrary/esp8266_socket.c **** 	case eExit:
 649:ZumoLibrary/esp8266_socket.c **** 		break;
 650:ZumoLibrary/esp8266_socket.c **** 	case eTick:
 651:ZumoLibrary/esp8266_socket.c **** 		break;
 652:ZumoLibrary/esp8266_socket.c ****     case eReceive:
 653:ZumoLibrary/esp8266_socket.c ****         if(sm_wait_for(ctx, ">")) {
 654:ZumoLibrary/esp8266_socket.c ****             TRAN(stConnected);
 655:ZumoLibrary/esp8266_socket.c ****         }
 656:ZumoLibrary/esp8266_socket.c ****         break;
 657:ZumoLibrary/esp8266_socket.c **** 	default:
 658:ZumoLibrary/esp8266_socket.c **** 		break;
 659:ZumoLibrary/esp8266_socket.c **** 	}
 660:ZumoLibrary/esp8266_socket.c ****     
 661:ZumoLibrary/esp8266_socket.c **** }
 662:ZumoLibrary/esp8266_socket.c **** 
 663:ZumoLibrary/esp8266_socket.c **** #if 1
 664:ZumoLibrary/esp8266_socket.c **** void stConnected(smi *ctx, const event *e)
 665:ZumoLibrary/esp8266_socket.c **** {
 666:ZumoLibrary/esp8266_socket.c **** 	switch(e->ev) {
 667:ZumoLibrary/esp8266_socket.c **** 	case eEnter:
 668:ZumoLibrary/esp8266_socket.c ****         DEBUGP("stConnected\n");
 669:ZumoLibrary/esp8266_socket.c ****         init_counters(ctx);
 670:ZumoLibrary/esp8266_socket.c ****         xSemaphoreGive(ctx->Access);
 671:ZumoLibrary/esp8266_socket.c ****         break;
 672:ZumoLibrary/esp8266_socket.c **** 	case eExit:
 673:ZumoLibrary/esp8266_socket.c ****         xSemaphoreTake(ctx->Access, portMAX_DELAY);
 674:ZumoLibrary/esp8266_socket.c **** 		break;
 675:ZumoLibrary/esp8266_socket.c **** 	case eTick:
 676:ZumoLibrary/esp8266_socket.c **** #if 0        
 677:ZumoLibrary/esp8266_socket.c ****         ++ctx->timer;
 678:ZumoLibrary/esp8266_socket.c ****         if(ctx->timer == 50) {
 679:ZumoLibrary/esp8266_socket.c ****             DEBUGP("Count: %d\n", ctx->count);
 680:ZumoLibrary/esp8266_socket.c ****             ctx->count = 0;
 681:ZumoLibrary/esp8266_socket.c ****             serial_write_str(ctx, "get\r\n");
 682:ZumoLibrary/esp8266_socket.c ****         }
 683:ZumoLibrary/esp8266_socket.c ****         if(ctx->timer > 50)  {
 684:ZumoLibrary/esp8266_socket.c ****             ctx->timer = 0;
 685:ZumoLibrary/esp8266_socket.c ****         }
 686:ZumoLibrary/esp8266_socket.c **** #endif        
 687:ZumoLibrary/esp8266_socket.c **** 		break;
 688:ZumoLibrary/esp8266_socket.c ****     case eReceive:
ARM GAS  C:\Users\samue\AppData\Local\Temp\ccJDNHzo.s 			page 15


 689:ZumoLibrary/esp8266_socket.c **** #if 0
 690:ZumoLibrary/esp8266_socket.c ****         ++ctx->count;
 691:ZumoLibrary/esp8266_socket.c ****         ctx->pos = 0;
 692:ZumoLibrary/esp8266_socket.c ****         while(ctx->pos < SMI_BUFSIZE - 1 && serial_get(ctx, ctx->buffer + ctx->pos)) {
 693:ZumoLibrary/esp8266_socket.c ****             ++ctx->pos;
 694:ZumoLibrary/esp8266_socket.c ****         }
 695:ZumoLibrary/esp8266_socket.c ****         if(ctx->pos > 0) {
 696:ZumoLibrary/esp8266_socket.c ****             ctx->buffer[ctx->pos] = '\0';
 697:ZumoLibrary/esp8266_socket.c ****             DEBUGP("%s", ctx->buffer);
 698:ZumoLibrary/esp8266_socket.c ****         }
 699:ZumoLibrary/esp8266_socket.c **** #endif        
 700:ZumoLibrary/esp8266_socket.c ****         break;
 701:ZumoLibrary/esp8266_socket.c ****     case eDisconnect:
 702:ZumoLibrary/esp8266_socket.c ****         TRAN(stCommandMode);
 703:ZumoLibrary/esp8266_socket.c ****         break;
 704:ZumoLibrary/esp8266_socket.c **** 	default:
 705:ZumoLibrary/esp8266_socket.c **** 		break;
 706:ZumoLibrary/esp8266_socket.c **** 	}
 707:ZumoLibrary/esp8266_socket.c ****     
 708:ZumoLibrary/esp8266_socket.c **** }
 709:ZumoLibrary/esp8266_socket.c **** 
 710:ZumoLibrary/esp8266_socket.c **** void stCommandMode(smi *ctx, const event *e)
 711:ZumoLibrary/esp8266_socket.c **** {
 712:ZumoLibrary/esp8266_socket.c **** 	switch(e->ev) {
 713:ZumoLibrary/esp8266_socket.c **** 	case eEnter:
 714:ZumoLibrary/esp8266_socket.c ****         DEBUGP("stCommandMode\n");
 715:ZumoLibrary/esp8266_socket.c ****         init_counters(ctx);
 716:ZumoLibrary/esp8266_socket.c **** 		break;
 717:ZumoLibrary/esp8266_socket.c **** 	case eExit:
 718:ZumoLibrary/esp8266_socket.c **** 		break;
 719:ZumoLibrary/esp8266_socket.c **** 	case eTick:
 720:ZumoLibrary/esp8266_socket.c ****         ++ctx->timer;
 721:ZumoLibrary/esp8266_socket.c ****         if(ctx->timer == 10) serial_write_str(ctx, "+++");
 722:ZumoLibrary/esp8266_socket.c ****         if(ctx->timer == 25) TRAN(stCloseTCP);
 723:ZumoLibrary/esp8266_socket.c **** 		break;
 724:ZumoLibrary/esp8266_socket.c ****     case eReceive:
 725:ZumoLibrary/esp8266_socket.c ****         break;
 726:ZumoLibrary/esp8266_socket.c **** 	default:
 727:ZumoLibrary/esp8266_socket.c **** 		break;
 728:ZumoLibrary/esp8266_socket.c **** 	}
 729:ZumoLibrary/esp8266_socket.c **** }
 730:ZumoLibrary/esp8266_socket.c **** 
 731:ZumoLibrary/esp8266_socket.c **** 
 732:ZumoLibrary/esp8266_socket.c **** void stCloseTCP(smi *ctx, const event *e)
 733:ZumoLibrary/esp8266_socket.c **** {
 734:ZumoLibrary/esp8266_socket.c ****     int rc = -1;
 735:ZumoLibrary/esp8266_socket.c **** 	switch(e->ev) {
 736:ZumoLibrary/esp8266_socket.c **** 	case eEnter:
 737:ZumoLibrary/esp8266_socket.c ****         DEBUGP("stCloseTCP\n");
 738:ZumoLibrary/esp8266_socket.c ****         init_counters(ctx);
 739:ZumoLibrary/esp8266_socket.c ****         serial_write_str(ctx, "AT+CIPMODE=0\r\n");;
 740:ZumoLibrary/esp8266_socket.c ****         break;
 741:ZumoLibrary/esp8266_socket.c **** 	case eReceive:
 742:ZumoLibrary/esp8266_socket.c ****         rc = sm_read_result(ctx);
 743:ZumoLibrary/esp8266_socket.c ****         if(rc == RC_OK) {
 744:ZumoLibrary/esp8266_socket.c ****             if(strstr(ctx->buffer, "CLOSED") != NULL) {
 745:ZumoLibrary/esp8266_socket.c ****                 TRAN(stReady);
ARM GAS  C:\Users\samue\AppData\Local\Temp\ccJDNHzo.s 			page 16


 746:ZumoLibrary/esp8266_socket.c ****             }
 747:ZumoLibrary/esp8266_socket.c ****             else {
 748:ZumoLibrary/esp8266_socket.c ****                 init_counters(ctx);
 749:ZumoLibrary/esp8266_socket.c ****                 serial_write_str(ctx, "AT+CIPCLOSE\r\n");;
 750:ZumoLibrary/esp8266_socket.c ****             }
 751:ZumoLibrary/esp8266_socket.c ****         }
 752:ZumoLibrary/esp8266_socket.c ****         else if(rc == RC_ERROR) {
 753:ZumoLibrary/esp8266_socket.c ****         }
 754:ZumoLibrary/esp8266_socket.c **** 		break;
 755:ZumoLibrary/esp8266_socket.c **** 	case eExit:
 756:ZumoLibrary/esp8266_socket.c **** 		break;
 757:ZumoLibrary/esp8266_socket.c **** 	case eTick:
 758:ZumoLibrary/esp8266_socket.c **** 		break;
 759:ZumoLibrary/esp8266_socket.c **** 	default:
 760:ZumoLibrary/esp8266_socket.c **** 		break;
 761:ZumoLibrary/esp8266_socket.c **** 	}
 762:ZumoLibrary/esp8266_socket.c **** }
 763:ZumoLibrary/esp8266_socket.c **** 
 764:ZumoLibrary/esp8266_socket.c **** 
 765:ZumoLibrary/esp8266_socket.c **** 
 766:ZumoLibrary/esp8266_socket.c **** 
 767:ZumoLibrary/esp8266_socket.c **** #else
 768:ZumoLibrary/esp8266_socket.c **** 
 769:ZumoLibrary/esp8266_socket.c **** // todo: enter passthough mode for easier data handling
 770:ZumoLibrary/esp8266_socket.c **** void stConnected(smi *ctx, const event *e)
 771:ZumoLibrary/esp8266_socket.c **** {
 772:ZumoLibrary/esp8266_socket.c **** 	switch(e->ev) {
 773:ZumoLibrary/esp8266_socket.c **** 	case eEnter:
 774:ZumoLibrary/esp8266_socket.c ****         DEBUGP("stConnected\n");
 775:ZumoLibrary/esp8266_socket.c ****         init_counters(ctx);
 776:ZumoLibrary/esp8266_socket.c **** 		break;
 777:ZumoLibrary/esp8266_socket.c **** 	case eExit:
 778:ZumoLibrary/esp8266_socket.c **** 		break;
 779:ZumoLibrary/esp8266_socket.c **** 	case eTick:
 780:ZumoLibrary/esp8266_socket.c ****         ++ctx->timer;
 781:ZumoLibrary/esp8266_socket.c ****         if(ctx->timer == 1) serial_write_str(ctx, "AT+CIPSEND=3\r\n");
 782:ZumoLibrary/esp8266_socket.c ****         if(ctx->timer == 10) serial_write_str(ctx, "get");
 783:ZumoLibrary/esp8266_socket.c ****         if(ctx->timer >= 50)  {
 784:ZumoLibrary/esp8266_socket.c ****             ctx->timer = 0;
 785:ZumoLibrary/esp8266_socket.c ****         }
 786:ZumoLibrary/esp8266_socket.c **** 		break;
 787:ZumoLibrary/esp8266_socket.c ****     case eReceive:
 788:ZumoLibrary/esp8266_socket.c ****         if(sm_wait_for(ctx, "+IPD,")) {
 789:ZumoLibrary/esp8266_socket.c ****             TRAN(stReceiveLength);
 790:ZumoLibrary/esp8266_socket.c ****         }
 791:ZumoLibrary/esp8266_socket.c ****         break;
 792:ZumoLibrary/esp8266_socket.c **** 	default:
 793:ZumoLibrary/esp8266_socket.c **** 		break;
 794:ZumoLibrary/esp8266_socket.c **** 	}
 795:ZumoLibrary/esp8266_socket.c ****     
 796:ZumoLibrary/esp8266_socket.c **** }
 797:ZumoLibrary/esp8266_socket.c **** 
 798:ZumoLibrary/esp8266_socket.c **** void stSend(smi *ctx, const event *e)
 799:ZumoLibrary/esp8266_socket.c **** {
 800:ZumoLibrary/esp8266_socket.c **** 	switch(e->ev) {
 801:ZumoLibrary/esp8266_socket.c **** 	case eEnter:
 802:ZumoLibrary/esp8266_socket.c ****         DEBUGP("stSend\n");
ARM GAS  C:\Users\samue\AppData\Local\Temp\ccJDNHzo.s 			page 17


 803:ZumoLibrary/esp8266_socket.c ****         init_counters(ctx);
 804:ZumoLibrary/esp8266_socket.c ****         //serial_write_str(ctx, "AT+CIPSEND=3\r\n"); // set data length
 805:ZumoLibrary/esp8266_socket.c **** 		break;
 806:ZumoLibrary/esp8266_socket.c **** 	case eExit:
 807:ZumoLibrary/esp8266_socket.c **** 		break;
 808:ZumoLibrary/esp8266_socket.c **** 	case eTick:
 809:ZumoLibrary/esp8266_socket.c **** 		break;
 810:ZumoLibrary/esp8266_socket.c ****     case eReceive:
 811:ZumoLibrary/esp8266_socket.c ****         // wait for OK
 812:ZumoLibrary/esp8266_socket.c ****         // we may possibly receive +IPD ???
 813:ZumoLibrary/esp8266_socket.c ****         if(sm_wait_for(ctx, "OK\r\n")) {
 814:ZumoLibrary/esp8266_socket.c ****             TRAN(stConnectTCP);
 815:ZumoLibrary/esp8266_socket.c ****         }
 816:ZumoLibrary/esp8266_socket.c ****         break;
 817:ZumoLibrary/esp8266_socket.c **** 	default:
 818:ZumoLibrary/esp8266_socket.c **** 		break;
 819:ZumoLibrary/esp8266_socket.c **** 	}
 820:ZumoLibrary/esp8266_socket.c **** }
 821:ZumoLibrary/esp8266_socket.c **** 
 822:ZumoLibrary/esp8266_socket.c **** 
 823:ZumoLibrary/esp8266_socket.c **** 
 824:ZumoLibrary/esp8266_socket.c **** void stReceiveLength(smi *ctx, const event *e)
 825:ZumoLibrary/esp8266_socket.c **** {
 826:ZumoLibrary/esp8266_socket.c **** 	switch(e->ev) {
 827:ZumoLibrary/esp8266_socket.c **** 	case eEnter:
 828:ZumoLibrary/esp8266_socket.c ****         DEBUGP("stReceiveLength\n");
 829:ZumoLibrary/esp8266_socket.c ****         init_counters(ctx);
 830:ZumoLibrary/esp8266_socket.c **** 		break;
 831:ZumoLibrary/esp8266_socket.c **** 	case eExit:
 832:ZumoLibrary/esp8266_socket.c **** 		break;
 833:ZumoLibrary/esp8266_socket.c **** 	case eTick:
 834:ZumoLibrary/esp8266_socket.c **** 		break;
 835:ZumoLibrary/esp8266_socket.c **** 	case eReceive:
 836:ZumoLibrary/esp8266_socket.c ****         if(sm_read_int(ctx, &ctx->count)) {
 837:ZumoLibrary/esp8266_socket.c ****             TRAN(stReceiveData);
 838:ZumoLibrary/esp8266_socket.c ****         }
 839:ZumoLibrary/esp8266_socket.c **** 		break;
 840:ZumoLibrary/esp8266_socket.c **** 	default:
 841:ZumoLibrary/esp8266_socket.c **** 		break;
 842:ZumoLibrary/esp8266_socket.c **** 	}
 843:ZumoLibrary/esp8266_socket.c **** }
 844:ZumoLibrary/esp8266_socket.c **** 
 845:ZumoLibrary/esp8266_socket.c **** 
 846:ZumoLibrary/esp8266_socket.c **** void stReceiveData(smi *ctx, const event *e)
 847:ZumoLibrary/esp8266_socket.c **** {
 848:ZumoLibrary/esp8266_socket.c **** 	switch(e->ev) {
 849:ZumoLibrary/esp8266_socket.c **** 	case eEnter:
 850:ZumoLibrary/esp8266_socket.c ****         DEBUGP("stReceiveData\n");
 851:ZumoLibrary/esp8266_socket.c ****         ctx->pos = 0;
 852:ZumoLibrary/esp8266_socket.c ****         ctx->timer = 0;
 853:ZumoLibrary/esp8266_socket.c ****         // note: count carries data length so it is not zeroed
 854:ZumoLibrary/esp8266_socket.c ****          break;
 855:ZumoLibrary/esp8266_socket.c **** 	case eReceive:
 856:ZumoLibrary/esp8266_socket.c ****         if(sm_read_buffer(ctx, ctx->count)) {
 857:ZumoLibrary/esp8266_socket.c ****             // handle data
 858:ZumoLibrary/esp8266_socket.c ****             ctx->buffer[ctx->pos] = '\0';
 859:ZumoLibrary/esp8266_socket.c ****             DEBUGP("%s", ctx->buffer);
ARM GAS  C:\Users\samue\AppData\Local\Temp\ccJDNHzo.s 			page 18


 860:ZumoLibrary/esp8266_socket.c ****             TRAN(stConnected);
 861:ZumoLibrary/esp8266_socket.c ****         }
 862:ZumoLibrary/esp8266_socket.c **** 		break;
 863:ZumoLibrary/esp8266_socket.c **** 	case eExit:
 864:ZumoLibrary/esp8266_socket.c **** 		break;
 865:ZumoLibrary/esp8266_socket.c **** 	case eTick:
 866:ZumoLibrary/esp8266_socket.c **** 		break;
 867:ZumoLibrary/esp8266_socket.c **** 	default:
 868:ZumoLibrary/esp8266_socket.c **** 		break;
 869:ZumoLibrary/esp8266_socket.c **** 	}
 870:ZumoLibrary/esp8266_socket.c **** }
 871:ZumoLibrary/esp8266_socket.c **** #endif
 872:ZumoLibrary/esp8266_socket.c **** 
 873:ZumoLibrary/esp8266_socket.c **** 
 874:ZumoLibrary/esp8266_socket.c **** static void dispatch_event(smi *ctx, const event *e)
 875:ZumoLibrary/esp8266_socket.c **** {
 109              		.loc 1 875 0
 110              		.cfi_startproc
 111              		@ args = 0, pretend = 0, frame = 0
 112              		@ frame_needed = 0, uses_anonymous_args = 0
 113              	.LVL12:
 114 0000 38B5     		push	{r3, r4, r5, lr}
 115              		.cfi_def_cfa_offset 16
 116              		.cfi_offset 3, -16
 117              		.cfi_offset 4, -12
 118              		.cfi_offset 5, -8
 119              		.cfi_offset 14, -4
 120 0002 0446     		mov	r4, r0
 876:ZumoLibrary/esp8266_socket.c **** 	ctx->state(ctx, e); // dispatch event to current state
 121              		.loc 1 876 0
 122 0004 0368     		ldr	r3, [r0]
 123 0006 9847     		blx	r3
 124              	.LVL13:
 877:ZumoLibrary/esp8266_socket.c **** 	if(ctx->state != ctx->next_state) { // check if state was changed
 125              		.loc 1 877 0
 126 0008 2368     		ldr	r3, [r4]
 127 000a 6268     		ldr	r2, [r4, #4]
 128 000c 9342     		cmp	r3, r2
 129 000e 09D0     		beq	.L9
 878:ZumoLibrary/esp8266_socket.c **** 		ctx->state(ctx, &evExit); // exit old state (cleanup)
 130              		.loc 1 878 0
 131 0010 054D     		ldr	r5, .L12
 132 0012 2946     		mov	r1, r5
 133 0014 2046     		mov	r0, r4
 134 0016 9847     		blx	r3
 135              	.LVL14:
 879:ZumoLibrary/esp8266_socket.c **** 		ctx->state = ctx->next_state; // change state
 136              		.loc 1 879 0
 137 0018 6368     		ldr	r3, [r4, #4]
 138 001a 2360     		str	r3, [r4]
 880:ZumoLibrary/esp8266_socket.c **** 		ctx->state(ctx, &evEnter); // enter new state
 139              		.loc 1 880 0
 140 001c 05F11001 		add	r1, r5, #16
 141 0020 2046     		mov	r0, r4
 142 0022 9847     		blx	r3
 143              	.LVL15:
 144              	.L9:
ARM GAS  C:\Users\samue\AppData\Local\Temp\ccJDNHzo.s 			page 19


 145 0024 38BD     		pop	{r3, r4, r5, pc}
 146              	.LVL16:
 147              	.L13:
 148 0026 00BF     		.align	2
 149              	.L12:
 150 0028 00000000 		.word	.LANCHOR0
 151              		.cfi_endproc
 152              	.LFE102:
 153              		.size	dispatch_event, .-dispatch_event
 154              		.section	.text.connect_ssid,"ax",%progbits
 155              		.align	2
 156              		.thumb
 157              		.thumb_func
 158              		.type	connect_ssid, %function
 159              	connect_ssid:
 160              	.LFB92:
 492:ZumoLibrary/esp8266_socket.c ****     serial_write_str(ctx, "AT+CWJAP_CUR=\"");
 161              		.loc 1 492 0
 162              		.cfi_startproc
 163              		@ args = 0, pretend = 0, frame = 0
 164              		@ frame_needed = 0, uses_anonymous_args = 0
 165              	.LVL17:
 166 0000 38B5     		push	{r3, r4, r5, lr}
 167              		.cfi_def_cfa_offset 16
 168              		.cfi_offset 3, -16
 169              		.cfi_offset 4, -12
 170              		.cfi_offset 5, -8
 171              		.cfi_offset 14, -4
 172 0002 0446     		mov	r4, r0
 173              	.LVL18:
 492:ZumoLibrary/esp8266_socket.c ****     serial_write_str(ctx, "AT+CWJAP_CUR=\"");
 174              		.loc 1 492 0
 175 0004 1F4D     		ldr	r5, .L26
 176 0006 06E0     		b	.L15
 177              	.LVL19:
 178              	.L16:
 179              	.LBB59:
 180              	.LBB60:
 104:ZumoLibrary/esp8266_socket.c ****         //UART_1_PutChar(*s++);
 181              		.loc 1 104 0
 182 0008 0135     		adds	r5, r5, #1
 183              	.LVL20:
 184 000a 4FF0FF32 		mov	r2, #-1
 185 000e 49B2     		sxtb	r1, r1
 186 0010 2069     		ldr	r0, [r4, #16]
 187 0012 FFF7FEFF 		bl	xSerialPutChar
 188              	.LVL21:
 189              	.L15:
 103:ZumoLibrary/esp8266_socket.c ****         xSerialPutChar(ctx->ComPort,*s++,portMAX_DELAY);
 190              		.loc 1 103 0
 191 0016 2978     		ldrb	r1, [r5]	@ zero_extendqisi2
 192 0018 0029     		cmp	r1, #0
 193 001a F5D1     		bne	.L16
 194              	.LVL22:
 195              	.LBE60:
 196              	.LBE59:
 494:ZumoLibrary/esp8266_socket.c ****     serial_write_str(ctx, "\",\"");
ARM GAS  C:\Users\samue\AppData\Local\Temp\ccJDNHzo.s 			page 20


 197              		.loc 1 494 0
 198 001c 04F17005 		add	r5, r4, #112
 199              	.LVL23:
 200 0020 06E0     		b	.L17
 201              	.L18:
 202              	.LBB61:
 203              	.LBB62:
 104:ZumoLibrary/esp8266_socket.c ****         //UART_1_PutChar(*s++);
 204              		.loc 1 104 0
 205 0022 0135     		adds	r5, r5, #1
 206              	.LVL24:
 207 0024 4FF0FF32 		mov	r2, #-1
 208 0028 49B2     		sxtb	r1, r1
 209 002a 2069     		ldr	r0, [r4, #16]
 210 002c FFF7FEFF 		bl	xSerialPutChar
 211              	.LVL25:
 212              	.L17:
 103:ZumoLibrary/esp8266_socket.c ****         xSerialPutChar(ctx->ComPort,*s++,portMAX_DELAY);
 213              		.loc 1 103 0
 214 0030 2978     		ldrb	r1, [r5]	@ zero_extendqisi2
 215 0032 0029     		cmp	r1, #0
 216 0034 F5D1     		bne	.L18
 217 0036 144D     		ldr	r5, .L26+4
 218              	.LVL26:
 219 0038 06E0     		b	.L19
 220              	.LVL27:
 221              	.L20:
 222              	.LBE62:
 223              	.LBE61:
 224              	.LBB63:
 225              	.LBB64:
 104:ZumoLibrary/esp8266_socket.c ****         //UART_1_PutChar(*s++);
 226              		.loc 1 104 0
 227 003a 0135     		adds	r5, r5, #1
 228              	.LVL28:
 229 003c 4FF0FF32 		mov	r2, #-1
 230 0040 49B2     		sxtb	r1, r1
 231 0042 2069     		ldr	r0, [r4, #16]
 232 0044 FFF7FEFF 		bl	xSerialPutChar
 233              	.LVL29:
 234              	.L19:
 103:ZumoLibrary/esp8266_socket.c ****         xSerialPutChar(ctx->ComPort,*s++,portMAX_DELAY);
 235              		.loc 1 103 0
 236 0048 2978     		ldrb	r1, [r5]	@ zero_extendqisi2
 237 004a 0029     		cmp	r1, #0
 238 004c F5D1     		bne	.L20
 239              	.LVL30:
 240              	.LBE64:
 241              	.LBE63:
 496:ZumoLibrary/esp8266_socket.c ****     serial_write_str(ctx, "\"\r\n");
 242              		.loc 1 496 0
 243 004e 04F19005 		add	r5, r4, #144
 244              	.LVL31:
 245 0052 06E0     		b	.L21
 246              	.L22:
 247              	.LBB65:
 248              	.LBB66:
ARM GAS  C:\Users\samue\AppData\Local\Temp\ccJDNHzo.s 			page 21


 104:ZumoLibrary/esp8266_socket.c ****         //UART_1_PutChar(*s++);
 249              		.loc 1 104 0
 250 0054 0135     		adds	r5, r5, #1
 251              	.LVL32:
 252 0056 4FF0FF32 		mov	r2, #-1
 253 005a 49B2     		sxtb	r1, r1
 254 005c 2069     		ldr	r0, [r4, #16]
 255 005e FFF7FEFF 		bl	xSerialPutChar
 256              	.LVL33:
 257              	.L21:
 103:ZumoLibrary/esp8266_socket.c ****         xSerialPutChar(ctx->ComPort,*s++,portMAX_DELAY);
 258              		.loc 1 103 0
 259 0062 2978     		ldrb	r1, [r5]	@ zero_extendqisi2
 260 0064 0029     		cmp	r1, #0
 261 0066 F5D1     		bne	.L22
 262 0068 084D     		ldr	r5, .L26+8
 263              	.LVL34:
 264 006a 06E0     		b	.L23
 265              	.LVL35:
 266              	.L24:
 267              	.LBE66:
 268              	.LBE65:
 269              	.LBB67:
 270              	.LBB68:
 104:ZumoLibrary/esp8266_socket.c ****         //UART_1_PutChar(*s++);
 271              		.loc 1 104 0
 272 006c 0135     		adds	r5, r5, #1
 273              	.LVL36:
 274 006e 4FF0FF32 		mov	r2, #-1
 275 0072 49B2     		sxtb	r1, r1
 276 0074 2069     		ldr	r0, [r4, #16]
 277 0076 FFF7FEFF 		bl	xSerialPutChar
 278              	.LVL37:
 279              	.L23:
 103:ZumoLibrary/esp8266_socket.c ****         xSerialPutChar(ctx->ComPort,*s++,portMAX_DELAY);
 280              		.loc 1 103 0
 281 007a 2978     		ldrb	r1, [r5]	@ zero_extendqisi2
 282 007c 0029     		cmp	r1, #0
 283 007e F5D1     		bne	.L24
 284              	.LBE68:
 285              	.LBE67:
 498:ZumoLibrary/esp8266_socket.c **** 
 286              		.loc 1 498 0
 287 0080 38BD     		pop	{r3, r4, r5, pc}
 288              	.LVL38:
 289              	.L27:
 290 0082 00BF     		.align	2
 291              	.L26:
 292 0084 00000000 		.word	.LC0
 293 0088 10000000 		.word	.LC1
 294 008c 14000000 		.word	.LC2
 295              		.cfi_endproc
 296              	.LFE92:
 297              		.size	connect_ssid, .-connect_ssid
 298              		.section	.text.connect_tcp,"ax",%progbits
 299              		.align	2
 300              		.thumb
ARM GAS  C:\Users\samue\AppData\Local\Temp\ccJDNHzo.s 			page 22


 301              		.thumb_func
 302              		.type	connect_tcp, %function
 303              	connect_tcp:
 304              	.LFB95:
 568:ZumoLibrary/esp8266_socket.c ****     serial_write_str(ctx, "AT+CIPSTART=\"TCP\",\"");
 305              		.loc 1 568 0
 306              		.cfi_startproc
 307              		@ args = 0, pretend = 0, frame = 0
 308              		@ frame_needed = 0, uses_anonymous_args = 0
 309              	.LVL39:
 310 0000 38B5     		push	{r3, r4, r5, lr}
 311              		.cfi_def_cfa_offset 16
 312              		.cfi_offset 3, -16
 313              		.cfi_offset 4, -12
 314              		.cfi_offset 5, -8
 315              		.cfi_offset 14, -4
 316 0002 0446     		mov	r4, r0
 317              	.LVL40:
 568:ZumoLibrary/esp8266_socket.c ****     serial_write_str(ctx, "AT+CIPSTART=\"TCP\",\"");
 318              		.loc 1 568 0
 319 0004 1F4D     		ldr	r5, .L40
 320 0006 06E0     		b	.L29
 321              	.LVL41:
 322              	.L30:
 323              	.LBB69:
 324              	.LBB70:
 104:ZumoLibrary/esp8266_socket.c ****         //UART_1_PutChar(*s++);
 325              		.loc 1 104 0
 326 0008 0135     		adds	r5, r5, #1
 327              	.LVL42:
 328 000a 4FF0FF32 		mov	r2, #-1
 329 000e 49B2     		sxtb	r1, r1
 330 0010 2069     		ldr	r0, [r4, #16]
 331 0012 FFF7FEFF 		bl	xSerialPutChar
 332              	.LVL43:
 333              	.L29:
 103:ZumoLibrary/esp8266_socket.c ****         xSerialPutChar(ctx->ComPort,*s++,portMAX_DELAY);
 334              		.loc 1 103 0
 335 0016 2978     		ldrb	r1, [r5]	@ zero_extendqisi2
 336 0018 0029     		cmp	r1, #0
 337 001a F5D1     		bne	.L30
 338              	.LVL44:
 339              	.LBE70:
 340              	.LBE69:
 570:ZumoLibrary/esp8266_socket.c ****     serial_write_str(ctx, "\",");
 341              		.loc 1 570 0
 342 001c 04F1B005 		add	r5, r4, #176
 343              	.LVL45:
 344 0020 06E0     		b	.L31
 345              	.L32:
 346              	.LBB71:
 347              	.LBB72:
 104:ZumoLibrary/esp8266_socket.c ****         //UART_1_PutChar(*s++);
 348              		.loc 1 104 0
 349 0022 0135     		adds	r5, r5, #1
 350              	.LVL46:
 351 0024 4FF0FF32 		mov	r2, #-1
ARM GAS  C:\Users\samue\AppData\Local\Temp\ccJDNHzo.s 			page 23


 352 0028 49B2     		sxtb	r1, r1
 353 002a 2069     		ldr	r0, [r4, #16]
 354 002c FFF7FEFF 		bl	xSerialPutChar
 355              	.LVL47:
 356              	.L31:
 103:ZumoLibrary/esp8266_socket.c ****         xSerialPutChar(ctx->ComPort,*s++,portMAX_DELAY);
 357              		.loc 1 103 0
 358 0030 2978     		ldrb	r1, [r5]	@ zero_extendqisi2
 359 0032 0029     		cmp	r1, #0
 360 0034 F5D1     		bne	.L32
 361 0036 144D     		ldr	r5, .L40+4
 362              	.LVL48:
 363 0038 06E0     		b	.L33
 364              	.LVL49:
 365              	.L34:
 366              	.LBE72:
 367              	.LBE71:
 368              	.LBB73:
 369              	.LBB74:
 104:ZumoLibrary/esp8266_socket.c ****         //UART_1_PutChar(*s++);
 370              		.loc 1 104 0
 371 003a 0135     		adds	r5, r5, #1
 372              	.LVL50:
 373 003c 4FF0FF32 		mov	r2, #-1
 374 0040 49B2     		sxtb	r1, r1
 375 0042 2069     		ldr	r0, [r4, #16]
 376 0044 FFF7FEFF 		bl	xSerialPutChar
 377              	.LVL51:
 378              	.L33:
 103:ZumoLibrary/esp8266_socket.c ****         xSerialPutChar(ctx->ComPort,*s++,portMAX_DELAY);
 379              		.loc 1 103 0
 380 0048 2978     		ldrb	r1, [r5]	@ zero_extendqisi2
 381 004a 0029     		cmp	r1, #0
 382 004c F5D1     		bne	.L34
 383              	.LVL52:
 384              	.LBE74:
 385              	.LBE73:
 572:ZumoLibrary/esp8266_socket.c ****     serial_write_str(ctx, "\r\n");
 386              		.loc 1 572 0
 387 004e 04F1BE05 		add	r5, r4, #190
 388              	.LVL53:
 389 0052 06E0     		b	.L35
 390              	.L36:
 391              	.LBB75:
 392              	.LBB76:
 104:ZumoLibrary/esp8266_socket.c ****         //UART_1_PutChar(*s++);
 393              		.loc 1 104 0
 394 0054 0135     		adds	r5, r5, #1
 395              	.LVL54:
 396 0056 4FF0FF32 		mov	r2, #-1
 397 005a 49B2     		sxtb	r1, r1
 398 005c 2069     		ldr	r0, [r4, #16]
 399 005e FFF7FEFF 		bl	xSerialPutChar
 400              	.LVL55:
 401              	.L35:
 103:ZumoLibrary/esp8266_socket.c ****         xSerialPutChar(ctx->ComPort,*s++,portMAX_DELAY);
 402              		.loc 1 103 0
ARM GAS  C:\Users\samue\AppData\Local\Temp\ccJDNHzo.s 			page 24


 403 0062 2978     		ldrb	r1, [r5]	@ zero_extendqisi2
 404 0064 0029     		cmp	r1, #0
 405 0066 F5D1     		bne	.L36
 406 0068 084D     		ldr	r5, .L40+8
 407              	.LVL56:
 408 006a 06E0     		b	.L37
 409              	.LVL57:
 410              	.L38:
 411              	.LBE76:
 412              	.LBE75:
 413              	.LBB77:
 414              	.LBB78:
 104:ZumoLibrary/esp8266_socket.c ****         //UART_1_PutChar(*s++);
 415              		.loc 1 104 0
 416 006c 0135     		adds	r5, r5, #1
 417              	.LVL58:
 418 006e 4FF0FF32 		mov	r2, #-1
 419 0072 49B2     		sxtb	r1, r1
 420 0074 2069     		ldr	r0, [r4, #16]
 421 0076 FFF7FEFF 		bl	xSerialPutChar
 422              	.LVL59:
 423              	.L37:
 103:ZumoLibrary/esp8266_socket.c ****         xSerialPutChar(ctx->ComPort,*s++,portMAX_DELAY);
 424              		.loc 1 103 0
 425 007a 2978     		ldrb	r1, [r5]	@ zero_extendqisi2
 426 007c 0029     		cmp	r1, #0
 427 007e F5D1     		bne	.L38
 428              	.LBE78:
 429              	.LBE77:
 574:ZumoLibrary/esp8266_socket.c **** 
 430              		.loc 1 574 0
 431 0080 38BD     		pop	{r3, r4, r5, pc}
 432              	.LVL60:
 433              	.L41:
 434 0082 00BF     		.align	2
 435              	.L40:
 436 0084 18000000 		.word	.LC3
 437 0088 2C000000 		.word	.LC4
 438 008c 30000000 		.word	.LC5
 439              		.cfi_endproc
 440              	.LFE95:
 441              		.size	connect_tcp, .-connect_tcp
 442              		.section	.text.vEspTickTask,"ax",%progbits
 443              		.align	2
 444              		.global	vEspTickTask
 445              		.thumb
 446              		.thumb_func
 447              		.type	vEspTickTask, %function
 448              	vEspTickTask:
 449              	.LFB104:
 881:ZumoLibrary/esp8266_socket.c **** 	}
 882:ZumoLibrary/esp8266_socket.c **** }
 883:ZumoLibrary/esp8266_socket.c **** 
 884:ZumoLibrary/esp8266_socket.c **** 
 885:ZumoLibrary/esp8266_socket.c **** void EspTimerCallback( TimerHandle_t xTimer )
 886:ZumoLibrary/esp8266_socket.c **** {
 887:ZumoLibrary/esp8266_socket.c ****     I_DONT_USE(xTimer);
ARM GAS  C:\Users\samue\AppData\Local\Temp\ccJDNHzo.s 			page 25


 888:ZumoLibrary/esp8266_socket.c **** }
 889:ZumoLibrary/esp8266_socket.c **** 
 890:ZumoLibrary/esp8266_socket.c **** // Perform an action every 100 milliseconds.
 891:ZumoLibrary/esp8266_socket.c **** void vEspTickTask( void * pvParameters )
 892:ZumoLibrary/esp8266_socket.c **** {
 450              		.loc 1 892 0
 451              		.cfi_startproc
 452              		@ args = 0, pretend = 0, frame = 24
 453              		@ frame_needed = 0, uses_anonymous_args = 0
 454              	.LVL61:
 455 0000 10B5     		push	{r4, lr}
 456              		.cfi_def_cfa_offset 8
 457              		.cfi_offset 4, -8
 458              		.cfi_offset 14, -4
 459 0002 86B0     		sub	sp, sp, #24
 460              		.cfi_def_cfa_offset 32
 893:ZumoLibrary/esp8266_socket.c ****     QueueHandle_t eq = ((smi *) pvParameters)->EspEventQ;
 461              		.loc 1 893 0
 462 0004 C468     		ldr	r4, [r0, #12]
 463              	.LVL62:
 894:ZumoLibrary/esp8266_socket.c ****     const event e = { eTick, 0, NULL, NULL };    
 464              		.loc 1 894 0
 465 0006 0223     		movs	r3, #2
 466 0008 8DF80830 		strb	r3, [sp, #8]
 467 000c 0023     		movs	r3, #0
 468 000e 0393     		str	r3, [sp, #12]
 469 0010 0493     		str	r3, [sp, #16]
 470 0012 0593     		str	r3, [sp, #20]
 471              	.LVL63:
 895:ZumoLibrary/esp8266_socket.c ****     TickType_t xLastWakeTime;
 896:ZumoLibrary/esp8266_socket.c ****     const TickType_t xFrequency = configTICK_RATE_HZ / 10;
 897:ZumoLibrary/esp8266_socket.c **** 
 898:ZumoLibrary/esp8266_socket.c ****     // Initialise the xLastWakeTime variable with the current time.
 899:ZumoLibrary/esp8266_socket.c ****     xLastWakeTime = xTaskGetTickCount();
 472              		.loc 1 899 0
 473 0014 FFF7FEFF 		bl	xTaskGetTickCount
 474              	.LVL64:
 475 0018 0190     		str	r0, [sp, #4]
 476              	.L43:
 900:ZumoLibrary/esp8266_socket.c **** 
 901:ZumoLibrary/esp8266_socket.c ****     for( ;; )
 902:ZumoLibrary/esp8266_socket.c ****     {
 903:ZumoLibrary/esp8266_socket.c ****         // Wait for the next cycle.
 904:ZumoLibrary/esp8266_socket.c ****         vTaskDelayUntil( &xLastWakeTime, xFrequency );
 477              		.loc 1 904 0 discriminator 1
 478 001a 6421     		movs	r1, #100
 479 001c 01A8     		add	r0, sp, #4
 480 001e FFF7FEFF 		bl	vTaskDelayUntil
 481              	.LVL65:
 905:ZumoLibrary/esp8266_socket.c **** 
 906:ZumoLibrary/esp8266_socket.c ****         // Perform action here.
 907:ZumoLibrary/esp8266_socket.c ****         xQueueSendToBack(eq, &e, 0);
 482              		.loc 1 907 0 discriminator 1
 483 0022 0023     		movs	r3, #0
 484 0024 1A46     		mov	r2, r3
 485 0026 02A9     		add	r1, sp, #8
 486 0028 2046     		mov	r0, r4
ARM GAS  C:\Users\samue\AppData\Local\Temp\ccJDNHzo.s 			page 26


 487 002a FFF7FEFF 		bl	xQueueGenericSend
 488              	.LVL66:
 489 002e F4E7     		b	.L43
 490              		.cfi_endproc
 491              	.LFE104:
 492              		.size	vEspTickTask, .-vEspTickTask
 493              		.section	.text.vEspEventTask,"ax",%progbits
 494              		.align	2
 495              		.global	vEspEventTask
 496              		.thumb
 497              		.thumb_func
 498              		.type	vEspEventTask, %function
 499              	vEspEventTask:
 500              	.LFB105:
 908:ZumoLibrary/esp8266_socket.c ****     }
 909:ZumoLibrary/esp8266_socket.c **** }
 910:ZumoLibrary/esp8266_socket.c **** 
 911:ZumoLibrary/esp8266_socket.c **** void vEspEventTask(void *pvParameters) {
 501              		.loc 1 911 0
 502              		.cfi_startproc
 503              		@ args = 0, pretend = 0, frame = 16
 504              		@ frame_needed = 0, uses_anonymous_args = 0
 505              	.LVL67:
 506 0000 30B5     		push	{r4, r5, lr}
 507              		.cfi_def_cfa_offset 12
 508              		.cfi_offset 4, -12
 509              		.cfi_offset 5, -8
 510              		.cfi_offset 14, -4
 511 0002 85B0     		sub	sp, sp, #20
 512              		.cfi_def_cfa_offset 32
 912:ZumoLibrary/esp8266_socket.c ****     QueueHandle_t eq = ((smi *) pvParameters)->EspEventQ;
 513              		.loc 1 912 0
 514 0004 C568     		ldr	r5, [r0, #12]
 515              	.LVL68:
 913:ZumoLibrary/esp8266_socket.c ****     xComPortHandle port = ((smi *) pvParameters)->ComPort;
 516              		.loc 1 913 0
 517 0006 0469     		ldr	r4, [r0, #16]
 518              	.LVL69:
 914:ZumoLibrary/esp8266_socket.c ****     // todo: fix serial port stuff
 915:ZumoLibrary/esp8266_socket.c ****     // todo: use direct to task notification instead of binary semaphore??
 916:ZumoLibrary/esp8266_socket.c ****     const event e = { eReceive, 0, NULL, NULL };
 519              		.loc 1 916 0
 520 0008 0323     		movs	r3, #3
 521 000a 8DF80030 		strb	r3, [sp]
 522 000e 0020     		movs	r0, #0
 523              	.LVL70:
 524 0010 0190     		str	r0, [sp, #4]
 525 0012 0290     		str	r0, [sp, #8]
 526 0014 0390     		str	r0, [sp, #12]
 917:ZumoLibrary/esp8266_socket.c ****     
 918:ZumoLibrary/esp8266_socket.c ****     // reset ESP-01
 919:ZumoLibrary/esp8266_socket.c ****     RST_E_Write(0);
 527              		.loc 1 919 0
 528 0016 FFF7FEFF 		bl	RST_E_Write
 529              	.LVL71:
 920:ZumoLibrary/esp8266_socket.c ****     vTaskDelay(20); 
 530              		.loc 1 920 0
ARM GAS  C:\Users\samue\AppData\Local\Temp\ccJDNHzo.s 			page 27


 531 001a 1420     		movs	r0, #20
 532 001c FFF7FEFF 		bl	vTaskDelay
 533              	.LVL72:
 921:ZumoLibrary/esp8266_socket.c ****     RST_E_Write(1);
 534              		.loc 1 921 0
 535 0020 0120     		movs	r0, #1
 536 0022 FFF7FEFF 		bl	RST_E_Write
 537              	.LVL73:
 922:ZumoLibrary/esp8266_socket.c ****     
 923:ZumoLibrary/esp8266_socket.c ****     // todo: proper synchronized start
 924:ZumoLibrary/esp8266_socket.c ****     vTaskDelay(20); 
 538              		.loc 1 924 0
 539 0026 1420     		movs	r0, #20
 540 0028 FFF7FEFF 		bl	vTaskDelay
 541              	.LVL74:
 542              	.L46:
 925:ZumoLibrary/esp8266_socket.c ****     
 926:ZumoLibrary/esp8266_socket.c ****     while(true) {
 927:ZumoLibrary/esp8266_socket.c **** #if 1
 928:ZumoLibrary/esp8266_socket.c ****         if(xSerialWaitForRxEvent( port, 50 ) == pdTRUE) {
 543              		.loc 1 928 0
 544 002c 3221     		movs	r1, #50
 545 002e 2046     		mov	r0, r4
 546 0030 FFF7FEFF 		bl	xSerialWaitForRxEvent
 547              	.LVL75:
 548 0034 0128     		cmp	r0, #1
 549 0036 06D1     		bne	.L47
 929:ZumoLibrary/esp8266_socket.c ****             xQueueSendToBack(eq, &e, 0);
 550              		.loc 1 929 0
 551 0038 0023     		movs	r3, #0
 552 003a 1A46     		mov	r2, r3
 553 003c 6946     		mov	r1, sp
 554 003e 2846     		mov	r0, r5
 555 0040 FFF7FEFF 		bl	xQueueGenericSend
 556              	.LVL76:
 557 0044 F2E7     		b	.L46
 558              	.L47:
 930:ZumoLibrary/esp8266_socket.c ****         }
 931:ZumoLibrary/esp8266_socket.c ****         else {
 932:ZumoLibrary/esp8266_socket.c ****              // if nothing was received but there is data in the buffers then send received data no
 933:ZumoLibrary/esp8266_socket.c ****             if(xSerialRxWaiting(port) > 0) {
 559              		.loc 1 933 0
 560 0046 2046     		mov	r0, r4
 561 0048 FFF7FEFF 		bl	xSerialRxWaiting
 562              	.LVL77:
 563 004c 0028     		cmp	r0, #0
 564 004e EDDD     		ble	.L46
 934:ZumoLibrary/esp8266_socket.c ****                 xQueueSendToBack(eq, &e, 0);
 565              		.loc 1 934 0
 566 0050 0023     		movs	r3, #0
 567 0052 1A46     		mov	r2, r3
 568 0054 6946     		mov	r1, sp
 569 0056 2846     		mov	r0, r5
 570 0058 FFF7FEFF 		bl	xQueueGenericSend
 571              	.LVL78:
 572 005c E6E7     		b	.L46
 573              		.cfi_endproc
ARM GAS  C:\Users\samue\AppData\Local\Temp\ccJDNHzo.s 			page 28


 574              	.LFE105:
 575              		.size	vEspEventTask, .-vEspEventTask
 576 005e 00BF     		.section	.text.vEspSocketTask,"ax",%progbits
 577              		.align	2
 578              		.global	vEspSocketTask
 579              		.thumb
 580              		.thumb_func
 581              		.type	vEspSocketTask, %function
 582              	vEspSocketTask:
 583              	.LFB106:
 935:ZumoLibrary/esp8266_socket.c ****             }
 936:ZumoLibrary/esp8266_socket.c ****             else {
 937:ZumoLibrary/esp8266_socket.c ****             }                
 938:ZumoLibrary/esp8266_socket.c ****         }
 939:ZumoLibrary/esp8266_socket.c **** #else
 940:ZumoLibrary/esp8266_socket.c ****             if(xSerialRxWaiting(port) > 0) {
 941:ZumoLibrary/esp8266_socket.c ****                 xQueueSendToBack(eq, &e, 0);
 942:ZumoLibrary/esp8266_socket.c ****             }
 943:ZumoLibrary/esp8266_socket.c ****             vTaskDelay(3);    
 944:ZumoLibrary/esp8266_socket.c **** #endif    
 945:ZumoLibrary/esp8266_socket.c ****     }
 946:ZumoLibrary/esp8266_socket.c **** }
 947:ZumoLibrary/esp8266_socket.c **** 
 948:ZumoLibrary/esp8266_socket.c **** /**
 949:ZumoLibrary/esp8266_socket.c ****  * Receive events from queue and dispatch them to state machine
 950:ZumoLibrary/esp8266_socket.c ****  */
 951:ZumoLibrary/esp8266_socket.c **** void vEspSocketTask(void *pvParameters) {
 584              		.loc 1 951 0
 585              		.cfi_startproc
 586              		@ args = 0, pretend = 0, frame = 16
 587              		@ frame_needed = 0, uses_anonymous_args = 0
 588              	.LVL79:
 589 0000 10B5     		push	{r4, lr}
 590              		.cfi_def_cfa_offset 8
 591              		.cfi_offset 4, -8
 592              		.cfi_offset 14, -4
 593 0002 84B0     		sub	sp, sp, #16
 594              		.cfi_def_cfa_offset 24
 595 0004 0446     		mov	r4, r0
 596              	.LVL80:
 952:ZumoLibrary/esp8266_socket.c ****     smi *ctx = (smi *) pvParameters;
 953:ZumoLibrary/esp8266_socket.c ****     
 954:ZumoLibrary/esp8266_socket.c **** 	event e;
 955:ZumoLibrary/esp8266_socket.c **** 
 956:ZumoLibrary/esp8266_socket.c ****     xSemaphoreTake(ctx->Access, portMAX_DELAY);
 597              		.loc 1 956 0
 598 0006 4FF0FF31 		mov	r1, #-1
 599 000a 8068     		ldr	r0, [r0, #8]
 600              	.LVL81:
 601 000c FFF7FEFF 		bl	xQueueSemaphoreTake
 602              	.LVL82:
 957:ZumoLibrary/esp8266_socket.c ****     
 958:ZumoLibrary/esp8266_socket.c **** 	dispatch_event(ctx, &evEnter); // enter initial state
 603              		.loc 1 958 0
 604 0010 0749     		ldr	r1, .L53
 605 0012 2046     		mov	r0, r4
 606 0014 FFF7FEFF 		bl	dispatch_event
ARM GAS  C:\Users\samue\AppData\Local\Temp\ccJDNHzo.s 			page 29


 607              	.LVL83:
 608              	.L51:
 959:ZumoLibrary/esp8266_socket.c **** 
 960:ZumoLibrary/esp8266_socket.c **** 	while (1) {
 961:ZumoLibrary/esp8266_socket.c **** 		// read queue
 962:ZumoLibrary/esp8266_socket.c **** 		xQueueReceive(ctx->EspEventQ, &e, portMAX_DELAY);
 609              		.loc 1 962 0 discriminator 1
 610 0018 4FF0FF32 		mov	r2, #-1
 611 001c 6946     		mov	r1, sp
 612 001e E068     		ldr	r0, [r4, #12]
 613 0020 FFF7FEFF 		bl	xQueueReceive
 614              	.LVL84:
 963:ZumoLibrary/esp8266_socket.c **** 		dispatch_event(ctx, &e); // dispatch event to current state
 615              		.loc 1 963 0 discriminator 1
 616 0024 6946     		mov	r1, sp
 617 0026 2046     		mov	r0, r4
 618 0028 FFF7FEFF 		bl	dispatch_event
 619              	.LVL85:
 620 002c F4E7     		b	.L51
 621              	.L54:
 622 002e 00BF     		.align	2
 623              	.L53:
 624 0030 10000000 		.word	.LANCHOR0+16
 625              		.cfi_endproc
 626              	.LFE106:
 627              		.size	vEspSocketTask, .-vEspSocketTask
 628              		.section	.text.smi_init,"ax",%progbits
 629              		.align	2
 630              		.global	smi_init
 631              		.thumb
 632              		.thumb_func
 633              		.type	smi_init, %function
 634              	smi_init:
 635              	.LFB73:
 131:ZumoLibrary/esp8266_socket.c ****     memset(ctx, 0, sizeof(smi));
 636              		.loc 1 131 0
 637              		.cfi_startproc
 638              		@ args = 0, pretend = 0, frame = 0
 639              		@ frame_needed = 0, uses_anonymous_args = 0
 640              	.LVL86:
 641 0000 10B5     		push	{r4, lr}
 642              		.cfi_def_cfa_offset 8
 643              		.cfi_offset 4, -8
 644              		.cfi_offset 14, -4
 645 0002 0446     		mov	r4, r0
 132:ZumoLibrary/esp8266_socket.c ****     ctx->state = stInit;
 646              		.loc 1 132 0
 647 0004 CC22     		movs	r2, #204
 648 0006 0021     		movs	r1, #0
 649 0008 FFF7FEFF 		bl	memset
 650              	.LVL87:
 133:ZumoLibrary/esp8266_socket.c ****     ctx->next_state = stInit;
 651              		.loc 1 133 0
 652 000c 014B     		ldr	r3, .L57
 653 000e 2360     		str	r3, [r4]
 134:ZumoLibrary/esp8266_socket.c **** }
 654              		.loc 1 134 0
ARM GAS  C:\Users\samue\AppData\Local\Temp\ccJDNHzo.s 			page 30


 655 0010 6360     		str	r3, [r4, #4]
 656 0012 10BD     		pop	{r4, pc}
 657              	.LVL88:
 658              	.L58:
 659              		.align	2
 660              	.L57:
 661 0014 00000000 		.word	stInit
 662              		.cfi_endproc
 663              	.LFE73:
 664              		.size	smi_init, .-smi_init
 665              		.section	.text.esp_socket,"ax",%progbits
 666              		.align	2
 667              		.global	esp_socket
 668              		.thumb
 669              		.thumb_func
 670              		.type	esp_socket, %function
 671              	esp_socket:
 672              	.LFB74:
 139:ZumoLibrary/esp8266_socket.c ****     smi_init(&EspSocketInstance);
 673              		.loc 1 139 0
 674              		.cfi_startproc
 675              		@ args = 0, pretend = 0, frame = 0
 676              		@ frame_needed = 0, uses_anonymous_args = 0
 677              	.LVL89:
 678 0000 70B5     		push	{r4, r5, r6, lr}
 679              		.cfi_def_cfa_offset 16
 680              		.cfi_offset 4, -16
 681              		.cfi_offset 5, -12
 682              		.cfi_offset 6, -8
 683              		.cfi_offset 14, -4
 684 0002 82B0     		sub	sp, sp, #8
 685              		.cfi_def_cfa_offset 24
 686 0004 0646     		mov	r6, r0
 687 0006 0D46     		mov	r5, r1
 140:ZumoLibrary/esp8266_socket.c ****     
 688              		.loc 1 140 0
 689 0008 224C     		ldr	r4, .L63
 690 000a 2046     		mov	r0, r4
 691              	.LVL90:
 692 000c FFF7FEFF 		bl	smi_init
 693              	.LVL91:
 142:ZumoLibrary/esp8266_socket.c ****     EspSocketInstance.Access = xSemaphoreCreateMutex();
 694              		.loc 1 142 0
 695 0010 0022     		movs	r2, #0
 696 0012 1021     		movs	r1, #16
 697 0014 2020     		movs	r0, #32
 698 0016 FFF7FEFF 		bl	xQueueGenericCreate
 699              	.LVL92:
 700 001a E060     		str	r0, [r4, #12]
 143:ZumoLibrary/esp8266_socket.c ****     EspSocketInstance.ComPort = xSerialPortInitMinimal(115200, 256);
 701              		.loc 1 143 0
 702 001c 0120     		movs	r0, #1
 703 001e FFF7FEFF 		bl	xQueueCreateMutex
 704              	.LVL93:
 705 0022 A060     		str	r0, [r4, #8]
 144:ZumoLibrary/esp8266_socket.c ****     
 706              		.loc 1 144 0
ARM GAS  C:\Users\samue\AppData\Local\Temp\ccJDNHzo.s 			page 31


 707 0024 4FF48071 		mov	r1, #256
 708 0028 4FF4E130 		mov	r0, #115200
 709 002c FFF7FEFF 		bl	xSerialPortInitMinimal
 710              	.LVL94:
 711 0030 2061     		str	r0, [r4, #16]
 146:ZumoLibrary/esp8266_socket.c ****     strcpy(EspSocketInstance.pwd, password);
 712              		.loc 1 146 0
 713 0032 3146     		mov	r1, r6
 714 0034 04F17000 		add	r0, r4, #112
 715 0038 FFF7FEFF 		bl	strcpy
 716              	.LVL95:
 147:ZumoLibrary/esp8266_socket.c ****     
 717              		.loc 1 147 0
 718 003c 2946     		mov	r1, r5
 719 003e 04F19000 		add	r0, r4, #144
 720 0042 FFF7FEFF 		bl	strcpy
 721              	.LVL96:
 149:ZumoLibrary/esp8266_socket.c ****   	( void ) xTaskCreate( vEspEventTask, "ESP_rxe", configMINIMAL_STACK_SIZE, &EspSocketInstance, ts
 722              		.loc 1 149 0
 723 0046 0026     		movs	r6, #0
 724              	.LVL97:
 725 0048 0196     		str	r6, [sp, #4]
 726 004a 0225     		movs	r5, #2
 727              	.LVL98:
 728 004c 0095     		str	r5, [sp]
 729 004e 2346     		mov	r3, r4
 730 0050 4FF41672 		mov	r2, #600
 731 0054 1049     		ldr	r1, .L63+4
 732 0056 1148     		ldr	r0, .L63+8
 733 0058 FFF7FEFF 		bl	xTaskCreate
 734              	.LVL99:
 150:ZumoLibrary/esp8266_socket.c ****   	( void ) xTaskCreate( vEspTickTask, "ESP_tick", configMINIMAL_STACK_SIZE, &EspSocketInstance, ts
 735              		.loc 1 150 0
 736 005c 0196     		str	r6, [sp, #4]
 737 005e 0095     		str	r5, [sp]
 738 0060 2346     		mov	r3, r4
 739 0062 6422     		movs	r2, #100
 740 0064 0E49     		ldr	r1, .L63+12
 741 0066 0F48     		ldr	r0, .L63+16
 742 0068 FFF7FEFF 		bl	xTaskCreate
 743              	.LVL100:
 151:ZumoLibrary/esp8266_socket.c ****     
 744              		.loc 1 151 0
 745 006c 0196     		str	r6, [sp, #4]
 746 006e 0095     		str	r5, [sp]
 747 0070 2346     		mov	r3, r4
 748 0072 6422     		movs	r2, #100
 749 0074 0C49     		ldr	r1, .L63+20
 750 0076 0D48     		ldr	r0, .L63+24
 751 0078 FFF7FEFF 		bl	xTaskCreate
 752              	.LVL101:
 153:ZumoLibrary/esp8266_socket.c ****         vTaskDelay(50);
 753              		.loc 1 153 0
 754 007c 02E0     		b	.L60
 755              	.L61:
 154:ZumoLibrary/esp8266_socket.c ****     }
 756              		.loc 1 154 0
ARM GAS  C:\Users\samue\AppData\Local\Temp\ccJDNHzo.s 			page 32


 757 007e 3220     		movs	r0, #50
 758 0080 FFF7FEFF 		bl	vTaskDelay
 759              	.LVL102:
 760              	.L60:
 153:ZumoLibrary/esp8266_socket.c ****         vTaskDelay(50);
 761              		.loc 1 153 0
 762 0084 034B     		ldr	r3, .L63
 763 0086 1A68     		ldr	r2, [r3]
 764 0088 094B     		ldr	r3, .L63+28
 765 008a 9A42     		cmp	r2, r3
 766 008c F7D1     		bne	.L61
 158:ZumoLibrary/esp8266_socket.c **** 
 767              		.loc 1 158 0
 768 008e 0020     		movs	r0, #0
 769 0090 02B0     		add	sp, sp, #8
 770              		.cfi_def_cfa_offset 16
 771              		@ sp needed
 772 0092 70BD     		pop	{r4, r5, r6, pc}
 773              	.L64:
 774              		.align	2
 775              	.L63:
 776 0094 00000000 		.word	EspSocketInstance
 777 0098 34000000 		.word	.LC6
 778 009c 00000000 		.word	vEspSocketTask
 779 00a0 40000000 		.word	.LC7
 780 00a4 00000000 		.word	vEspEventTask
 781 00a8 48000000 		.word	.LC8
 782 00ac 00000000 		.word	vEspTickTask
 783 00b0 00000000 		.word	stReady
 784              		.cfi_endproc
 785              	.LFE74:
 786              		.size	esp_socket, .-esp_socket
 787              		.section	.text.esp_connect,"ax",%progbits
 788              		.align	2
 789              		.global	esp_connect
 790              		.thumb
 791              		.thumb_func
 792              		.type	esp_connect, %function
 793              	esp_connect:
 794              	.LFB75:
 163:ZumoLibrary/esp8266_socket.c ****     I_DONT_USE(sockfd);
 795              		.loc 1 163 0
 796              		.cfi_startproc
 797              		@ args = 0, pretend = 0, frame = 16
 798              		@ frame_needed = 0, uses_anonymous_args = 0
 799              	.LVL103:
 800 0000 30B5     		push	{r4, r5, lr}
 801              		.cfi_def_cfa_offset 12
 802              		.cfi_offset 4, -12
 803              		.cfi_offset 5, -8
 804              		.cfi_offset 14, -4
 805 0002 85B0     		sub	sp, sp, #20
 806              		.cfi_def_cfa_offset 32
 807 0004 1546     		mov	r5, r2
 166:ZumoLibrary/esp8266_socket.c ****     port2str(port, EspSocketInstance.sa_port);
 808              		.loc 1 166 0
 809 0006 164C     		ldr	r4, .L69
ARM GAS  C:\Users\samue\AppData\Local\Temp\ccJDNHzo.s 			page 33


 810 0008 2046     		mov	r0, r4
 811              	.LVL104:
 812 000a FFF7FEFF 		bl	strcpy
 813              	.LVL105:
 167:ZumoLibrary/esp8266_socket.c **** 
 814              		.loc 1 167 0
 815 000e 04F10E01 		add	r1, r4, #14
 816 0012 2846     		mov	r0, r5
 817 0014 FFF7FEFF 		bl	port2str
 818              	.LVL106:
 169:ZumoLibrary/esp8266_socket.c ****     
 819              		.loc 1 169 0
 820 0018 0423     		movs	r3, #4
 821 001a 8DF80030 		strb	r3, [sp]
 822 001e 0023     		movs	r3, #0
 823 0020 0193     		str	r3, [sp, #4]
 824 0022 0293     		str	r3, [sp, #8]
 825 0024 0393     		str	r3, [sp, #12]
 171:ZumoLibrary/esp8266_socket.c **** 
 826              		.loc 1 171 0
 827 0026 4FF0FF32 		mov	r2, #-1
 828 002a 6946     		mov	r1, sp
 829 002c 54F8A40C 		ldr	r0, [r4, #-164]
 830 0030 FFF7FEFF 		bl	xQueueGenericSend
 831              	.LVL107:
 174:ZumoLibrary/esp8266_socket.c ****         xSemaphoreGive(EspSocketInstance.Access);
 832              		.loc 1 174 0
 833 0034 40F6B831 		movw	r1, #3000
 834 0038 54F8A80C 		ldr	r0, [r4, #-168]
 835 003c FFF7FEFF 		bl	xQueueSemaphoreTake
 836              	.LVL108:
 837 0040 0128     		cmp	r0, #1
 838 0042 08D1     		bne	.L67
 839 0044 B03C     		subs	r4, r4, #176
 175:ZumoLibrary/esp8266_socket.c ****         rc = 0;
 840              		.loc 1 175 0
 841 0046 0023     		movs	r3, #0
 842 0048 1A46     		mov	r2, r3
 843 004a 1946     		mov	r1, r3
 844 004c A068     		ldr	r0, [r4, #8]
 845 004e FFF7FEFF 		bl	xQueueGenericSend
 846              	.LVL109:
 176:ZumoLibrary/esp8266_socket.c ****     }
 847              		.loc 1 176 0
 848 0052 0020     		movs	r0, #0
 849 0054 01E0     		b	.L66
 850              	.LVL110:
 851              	.L67:
 173:ZumoLibrary/esp8266_socket.c ****     if(xSemaphoreTake(EspSocketInstance.Access, configTICK_RATE_HZ * 3) == pdTRUE) {
 852              		.loc 1 173 0
 853 0056 4FF0FF30 		mov	r0, #-1
 854              	.LVL111:
 855              	.L66:
 180:ZumoLibrary/esp8266_socket.c **** 
 856              		.loc 1 180 0
 857 005a 05B0     		add	sp, sp, #20
 858              		.cfi_def_cfa_offset 12
ARM GAS  C:\Users\samue\AppData\Local\Temp\ccJDNHzo.s 			page 34


 859              		@ sp needed
 860 005c 30BD     		pop	{r4, r5, pc}
 861              	.LVL112:
 862              	.L70:
 863 005e 00BF     		.align	2
 864              	.L69:
 865 0060 B0000000 		.word	EspSocketInstance+176
 866              		.cfi_endproc
 867              	.LFE75:
 868              		.size	esp_connect, .-esp_connect
 869              		.section	.text.esp_read,"ax",%progbits
 870              		.align	2
 871              		.global	esp_read
 872              		.thumb
 873              		.thumb_func
 874              		.type	esp_read, %function
 875              	esp_read:
 876              	.LFB76:
 183:ZumoLibrary/esp8266_socket.c ****     I_DONT_USE(sockfd);
 877              		.loc 1 183 0
 878              		.cfi_startproc
 879              		@ args = 0, pretend = 0, frame = 0
 880              		@ frame_needed = 0, uses_anonymous_args = 0
 881              	.LVL113:
 882 0000 70B5     		push	{r4, r5, r6, lr}
 883              		.cfi_def_cfa_offset 16
 884              		.cfi_offset 4, -16
 885              		.cfi_offset 5, -12
 886              		.cfi_offset 6, -8
 887              		.cfi_offset 14, -4
 888 0002 0D46     		mov	r5, r1
 889 0004 1646     		mov	r6, r2
 890              	.LVL114:
 187:ZumoLibrary/esp8266_socket.c ****         // read data
 891              		.loc 1 187 0
 892 0006 6421     		movs	r1, #100
 893              	.LVL115:
 894 0008 0F4B     		ldr	r3, .L78
 895 000a 9868     		ldr	r0, [r3, #8]
 896              	.LVL116:
 897 000c FFF7FEFF 		bl	xQueueSemaphoreTake
 898              	.LVL117:
 899 0010 0128     		cmp	r0, #1
 900 0012 04D0     		beq	.L76
 185:ZumoLibrary/esp8266_socket.c ****     
 901              		.loc 1 185 0
 902 0014 0024     		movs	r4, #0
 903 0016 14E0     		b	.L73
 904              	.LVL118:
 905              	.L75:
 190:ZumoLibrary/esp8266_socket.c ****             ++data;
 906              		.loc 1 190 0
 907 0018 0134     		adds	r4, r4, #1
 908              	.LVL119:
 191:ZumoLibrary/esp8266_socket.c ****         }
 909              		.loc 1 191 0
 910 001a 0135     		adds	r5, r5, #1
ARM GAS  C:\Users\samue\AppData\Local\Temp\ccJDNHzo.s 			page 35


 911              	.LVL120:
 912 001c 00E0     		b	.L72
 913              	.LVL121:
 914              	.L76:
 915 001e 0024     		movs	r4, #0
 916              	.LVL122:
 917              	.L72:
 189:ZumoLibrary/esp8266_socket.c ****             ++count;
 918              		.loc 1 189 0
 919 0020 B442     		cmp	r4, r6
 920 0022 07DA     		bge	.L74
 921              	.LVL123:
 922              	.LBB79:
 923              	.LBB80:
 111:ZumoLibrary/esp8266_socket.c **** }
 924              		.loc 1 111 0
 925 0024 0A22     		movs	r2, #10
 926 0026 2946     		mov	r1, r5
 927 0028 074B     		ldr	r3, .L78
 928 002a 1869     		ldr	r0, [r3, #16]
 929 002c FFF7FEFF 		bl	xSerialGetChar
 930              	.LVL124:
 931              	.LBE80:
 932              	.LBE79:
 189:ZumoLibrary/esp8266_socket.c ****             ++count;
 933              		.loc 1 189 0
 934 0030 0028     		cmp	r0, #0
 935 0032 F1D1     		bne	.L75
 936              	.L74:
 193:ZumoLibrary/esp8266_socket.c ****     }
 937              		.loc 1 193 0
 938 0034 0023     		movs	r3, #0
 939 0036 1A46     		mov	r2, r3
 940 0038 1946     		mov	r1, r3
 941 003a 0348     		ldr	r0, .L78
 942 003c 8068     		ldr	r0, [r0, #8]
 943 003e FFF7FEFF 		bl	xQueueGenericSend
 944              	.LVL125:
 945              	.L73:
 197:ZumoLibrary/esp8266_socket.c **** 
 946              		.loc 1 197 0
 947 0042 2046     		mov	r0, r4
 948 0044 70BD     		pop	{r4, r5, r6, pc}
 949              	.LVL126:
 950              	.L79:
 951 0046 00BF     		.align	2
 952              	.L78:
 953 0048 00000000 		.word	EspSocketInstance
 954              		.cfi_endproc
 955              	.LFE76:
 956              		.size	esp_read, .-esp_read
 957              		.section	.text.esp_write,"ax",%progbits
 958              		.align	2
 959              		.global	esp_write
 960              		.thumb
 961              		.thumb_func
 962              		.type	esp_write, %function
ARM GAS  C:\Users\samue\AppData\Local\Temp\ccJDNHzo.s 			page 36


 963              	esp_write:
 964              	.LFB77:
 200:ZumoLibrary/esp8266_socket.c ****     I_DONT_USE(sockfd);
 965              		.loc 1 200 0
 966              		.cfi_startproc
 967              		@ args = 0, pretend = 0, frame = 0
 968              		@ frame_needed = 0, uses_anonymous_args = 0
 969              	.LVL127:
 970 0000 F8B5     		push	{r3, r4, r5, r6, r7, lr}
 971              		.cfi_def_cfa_offset 24
 972              		.cfi_offset 3, -24
 973              		.cfi_offset 4, -20
 974              		.cfi_offset 5, -16
 975              		.cfi_offset 6, -12
 976              		.cfi_offset 7, -8
 977              		.cfi_offset 14, -4
 978 0002 0C46     		mov	r4, r1
 979 0004 1746     		mov	r7, r2
 203:ZumoLibrary/esp8266_socket.c ****         // write data
 980              		.loc 1 203 0
 981 0006 6421     		movs	r1, #100
 982              	.LVL128:
 983 0008 0F4B     		ldr	r3, .L86
 984 000a 9868     		ldr	r0, [r3, #8]
 985              	.LVL129:
 986 000c FFF7FEFF 		bl	xQueueSemaphoreTake
 987              	.LVL130:
 988 0010 0128     		cmp	r0, #1
 989 0012 17D1     		bne	.L82
 990 0014 0BE0     		b	.L84
 991              	.LVL131:
 992              	.L83:
 993              	.LBB81:
 994              	.LBB82:
  95:ZumoLibrary/esp8266_socket.c ****         //UART_1_PutChar(*buf++);
 995              		.loc 1 95 0
 996 0016 661C     		adds	r6, r4, #1
 997              	.LVL132:
 998 0018 4FF0FF32 		mov	r2, #-1
 999 001c 94F90010 		ldrsb	r1, [r4]
 1000 0020 094B     		ldr	r3, .L86
 1001 0022 1869     		ldr	r0, [r3, #16]
 1002 0024 FFF7FEFF 		bl	xSerialPutChar
 1003              	.LVL133:
  94:ZumoLibrary/esp8266_socket.c ****         xSerialPutChar(ctx->ComPort,*buf++,portMAX_DELAY);
 1004              		.loc 1 94 0
 1005 0028 2B46     		mov	r3, r5
  95:ZumoLibrary/esp8266_socket.c ****         //UART_1_PutChar(*buf++);
 1006              		.loc 1 95 0
 1007 002a 3446     		mov	r4, r6
 1008 002c 00E0     		b	.L81
 1009              	.LVL134:
 1010              	.L84:
 1011              	.LBE82:
 1012              	.LBE81:
 1013 002e 3B46     		mov	r3, r7
 1014              	.LVL135:
ARM GAS  C:\Users\samue\AppData\Local\Temp\ccJDNHzo.s 			page 37


 1015              	.L81:
 1016              	.LBB84:
 1017              	.LBB83:
  94:ZumoLibrary/esp8266_socket.c ****         xSerialPutChar(ctx->ComPort,*buf++,portMAX_DELAY);
 1018              		.loc 1 94 0
 1019 0030 5D1E     		subs	r5, r3, #1
 1020              	.LVL136:
 1021 0032 002B     		cmp	r3, #0
 1022 0034 EFDC     		bgt	.L83
 1023              	.LVL137:
 1024              	.LBE83:
 1025              	.LBE84:
 206:ZumoLibrary/esp8266_socket.c ****     }
 1026              		.loc 1 206 0
 1027 0036 0023     		movs	r3, #0
 1028 0038 1A46     		mov	r2, r3
 1029 003a 1946     		mov	r1, r3
 1030 003c 0248     		ldr	r0, .L86
 1031 003e 8068     		ldr	r0, [r0, #8]
 1032 0040 FFF7FEFF 		bl	xQueueGenericSend
 1033              	.LVL138:
 1034              	.L82:
 210:ZumoLibrary/esp8266_socket.c **** 
 1035              		.loc 1 210 0
 1036 0044 3846     		mov	r0, r7
 1037 0046 F8BD     		pop	{r3, r4, r5, r6, r7, pc}
 1038              	.LVL139:
 1039              	.L87:
 1040              		.align	2
 1041              	.L86:
 1042 0048 00000000 		.word	EspSocketInstance
 1043              		.cfi_endproc
 1044              	.LFE77:
 1045              		.size	esp_write, .-esp_write
 1046              		.section	.text.esp_shutdown,"ax",%progbits
 1047              		.align	2
 1048              		.global	esp_shutdown
 1049              		.thumb
 1050              		.thumb_func
 1051              		.type	esp_shutdown, %function
 1052              	esp_shutdown:
 1053              	.LFB79:
 218:ZumoLibrary/esp8266_socket.c ****     I_DONT_USE(sockfd);
 1054              		.loc 1 218 0
 1055              		.cfi_startproc
 1056              		@ args = 0, pretend = 0, frame = 16
 1057              		@ frame_needed = 0, uses_anonymous_args = 0
 1058              	.LVL140:
 1059 0000 10B5     		push	{r4, lr}
 1060              		.cfi_def_cfa_offset 8
 1061              		.cfi_offset 4, -8
 1062              		.cfi_offset 14, -4
 1063 0002 84B0     		sub	sp, sp, #16
 1064              		.cfi_def_cfa_offset 24
 221:ZumoLibrary/esp8266_socket.c ****     
 1065              		.loc 1 221 0
 1066 0004 0523     		movs	r3, #5
ARM GAS  C:\Users\samue\AppData\Local\Temp\ccJDNHzo.s 			page 38


 1067 0006 8DF80030 		strb	r3, [sp]
 1068 000a 0024     		movs	r4, #0
 1069 000c 0194     		str	r4, [sp, #4]
 1070 000e 0294     		str	r4, [sp, #8]
 1071 0010 0394     		str	r4, [sp, #12]
 223:ZumoLibrary/esp8266_socket.c **** 
 1072              		.loc 1 223 0
 1073 0012 2346     		mov	r3, r4
 1074 0014 4FF0FF32 		mov	r2, #-1
 1075 0018 6946     		mov	r1, sp
 1076              	.LVL141:
 1077 001a 0348     		ldr	r0, .L90
 1078              	.LVL142:
 1079 001c C068     		ldr	r0, [r0, #12]
 1080 001e FFF7FEFF 		bl	xQueueGenericSend
 1081              	.LVL143:
 226:ZumoLibrary/esp8266_socket.c **** 
 1082              		.loc 1 226 0
 1083 0022 2046     		mov	r0, r4
 1084 0024 04B0     		add	sp, sp, #16
 1085              		.cfi_def_cfa_offset 8
 1086              		@ sp needed
 1087 0026 10BD     		pop	{r4, pc}
 1088              	.L91:
 1089              		.align	2
 1090              	.L90:
 1091 0028 00000000 		.word	EspSocketInstance
 1092              		.cfi_endproc
 1093              	.LFE79:
 1094              		.size	esp_shutdown, .-esp_shutdown
 1095              		.section	.text.esp_close,"ax",%progbits
 1096              		.align	2
 1097              		.global	esp_close
 1098              		.thumb
 1099              		.thumb_func
 1100              		.type	esp_close, %function
 1101              	esp_close:
 1102              	.LFB78:
 213:ZumoLibrary/esp8266_socket.c ****     return esp_shutdown(sockfd, -1);
 1103              		.loc 1 213 0
 1104              		.cfi_startproc
 1105              		@ args = 0, pretend = 0, frame = 0
 1106              		@ frame_needed = 0, uses_anonymous_args = 0
 1107              	.LVL144:
 1108 0000 08B5     		push	{r3, lr}
 1109              		.cfi_def_cfa_offset 8
 1110              		.cfi_offset 3, -8
 1111              		.cfi_offset 14, -4
 214:ZumoLibrary/esp8266_socket.c **** }
 1112              		.loc 1 214 0
 1113 0002 4FF0FF31 		mov	r1, #-1
 1114 0006 FFF7FEFF 		bl	esp_shutdown
 1115              	.LVL145:
 215:ZumoLibrary/esp8266_socket.c **** 
 1116              		.loc 1 215 0
 1117 000a 08BD     		pop	{r3, pc}
 1118              		.cfi_endproc
ARM GAS  C:\Users\samue\AppData\Local\Temp\ccJDNHzo.s 			page 39


 1119              	.LFE78:
 1120              		.size	esp_close, .-esp_close
 1121              		.section	.text.init_counters,"ax",%progbits
 1122              		.align	2
 1123              		.global	init_counters
 1124              		.thumb
 1125              		.thumb_func
 1126              		.type	init_counters, %function
 1127              	init_counters:
 1128              	.LFB80:
 251:ZumoLibrary/esp8266_socket.c ****     ctx->count = 0;
 1129              		.loc 1 251 0
 1130              		.cfi_startproc
 1131              		@ args = 0, pretend = 0, frame = 0
 1132              		@ frame_needed = 0, uses_anonymous_args = 0
 1133              		@ link register save eliminated.
 1134              	.LVL146:
 252:ZumoLibrary/esp8266_socket.c ****     ctx->pos = 0;
 1135              		.loc 1 252 0
 1136 0000 0023     		movs	r3, #0
 1137 0002 8361     		str	r3, [r0, #24]
 253:ZumoLibrary/esp8266_socket.c ****     ctx->timer = 0;
 1138              		.loc 1 253 0
 1139 0004 C361     		str	r3, [r0, #28]
 254:ZumoLibrary/esp8266_socket.c **** }
 1140              		.loc 1 254 0
 1141 0006 4361     		str	r3, [r0, #20]
 1142 0008 7047     		bx	lr
 1143              		.cfi_endproc
 1144              	.LFE80:
 1145              		.size	init_counters, .-init_counters
 1146 000a 00BF     		.section	.text.stAT,"ax",%progbits
 1147              		.align	2
 1148              		.global	stAT
 1149              		.thumb
 1150              		.thumb_func
 1151              		.type	stAT, %function
 1152              	stAT:
 1153              	.LFB88:
 381:ZumoLibrary/esp8266_socket.c **** 	switch(e->ev) {
 1154              		.loc 1 381 0
 1155              		.cfi_startproc
 1156              		@ args = 0, pretend = 0, frame = 0
 1157              		@ frame_needed = 0, uses_anonymous_args = 0
 1158              	.LVL147:
 1159 0000 38B5     		push	{r3, r4, r5, lr}
 1160              		.cfi_def_cfa_offset 16
 1161              		.cfi_offset 3, -16
 1162              		.cfi_offset 4, -12
 1163              		.cfi_offset 5, -8
 1164              		.cfi_offset 14, -4
 1165 0002 0446     		mov	r4, r0
 382:ZumoLibrary/esp8266_socket.c **** 	case eEnter:
 1166              		.loc 1 382 0
 1167 0004 0B78     		ldrb	r3, [r1]	@ zero_extendqisi2
 1168 0006 13B1     		cbz	r3, .L97
 1169 0008 022B     		cmp	r3, #2
ARM GAS  C:\Users\samue\AppData\Local\Temp\ccJDNHzo.s 			page 40


 1170 000a 07D0     		beq	.L98
 1171 000c 38BD     		pop	{r3, r4, r5, pc}
 1172              	.L97:
 384:ZumoLibrary/esp8266_socket.c ****         init_counters(ctx);
 1173              		.loc 1 384 0
 1174 000e 0F48     		ldr	r0, .L104
 1175              	.LVL148:
 1176 0010 FFF7FEFF 		bl	puts
 1177              	.LVL149:
 385:ZumoLibrary/esp8266_socket.c **** 		break;
 1178              		.loc 1 385 0
 1179 0014 2046     		mov	r0, r4
 1180 0016 FFF7FEFF 		bl	init_counters
 1181              	.LVL150:
 386:ZumoLibrary/esp8266_socket.c **** 	case eExit:
 1182              		.loc 1 386 0
 1183 001a 38BD     		pop	{r3, r4, r5, pc}
 1184              	.LVL151:
 1185              	.L98:
 390:ZumoLibrary/esp8266_socket.c ****         if(ctx->timer == 10) serial_write_str(ctx, "+++");
 1186              		.loc 1 390 0
 1187 001c 4369     		ldr	r3, [r0, #20]
 1188 001e 0133     		adds	r3, r3, #1
 1189 0020 4361     		str	r3, [r0, #20]
 391:ZumoLibrary/esp8266_socket.c ****         if(ctx->timer == 25) TRAN(stInit);
 1190              		.loc 1 391 0
 1191 0022 0A2B     		cmp	r3, #10
 1192 0024 0CD1     		bne	.L100
 1193 0026 07E0     		b	.L102
 1194              	.LVL152:
 1195              	.L101:
 1196              	.LBB85:
 1197              	.LBB86:
 104:ZumoLibrary/esp8266_socket.c ****         //UART_1_PutChar(*s++);
 1198              		.loc 1 104 0
 1199 0028 0135     		adds	r5, r5, #1
 1200              	.LVL153:
 1201 002a 4FF0FF32 		mov	r2, #-1
 1202 002e 49B2     		sxtb	r1, r1
 1203 0030 2069     		ldr	r0, [r4, #16]
 1204 0032 FFF7FEFF 		bl	xSerialPutChar
 1205              	.LVL154:
 1206 0036 00E0     		b	.L99
 1207              	.LVL155:
 1208              	.L102:
 1209              	.LBE86:
 1210              	.LBE85:
 1211 0038 054D     		ldr	r5, .L104+4
 1212              	.LVL156:
 1213              	.L99:
 1214              	.LBB88:
 1215              	.LBB87:
 103:ZumoLibrary/esp8266_socket.c ****         xSerialPutChar(ctx->ComPort,*s++,portMAX_DELAY);
 1216              		.loc 1 103 0
 1217 003a 2978     		ldrb	r1, [r5]	@ zero_extendqisi2
 1218 003c 0029     		cmp	r1, #0
 1219 003e F3D1     		bne	.L101
ARM GAS  C:\Users\samue\AppData\Local\Temp\ccJDNHzo.s 			page 41


 1220              	.LVL157:
 1221              	.L100:
 1222              	.LBE87:
 1223              	.LBE88:
 392:ZumoLibrary/esp8266_socket.c **** 		break;
 1224              		.loc 1 392 0
 1225 0040 6369     		ldr	r3, [r4, #20]
 1226 0042 192B     		cmp	r3, #25
 1227 0044 01D1     		bne	.L95
 392:ZumoLibrary/esp8266_socket.c **** 		break;
 1228              		.loc 1 392 0 is_stmt 0 discriminator 1
 1229 0046 034B     		ldr	r3, .L104+8
 1230 0048 6360     		str	r3, [r4, #4]
 1231              	.L95:
 1232 004a 38BD     		pop	{r3, r4, r5, pc}
 1233              	.LVL158:
 1234              	.L105:
 1235              		.align	2
 1236              	.L104:
 1237 004c 58000000 		.word	.LC10
 1238 0050 54000000 		.word	.LC9
 1239 0054 00000000 		.word	stInit
 1240              		.cfi_endproc
 1241              	.LFE88:
 1242              		.size	stAT, .-stAT
 1243              		.section	.text.stReady,"ax",%progbits
 1244              		.align	2
 1245              		.global	stReady
 1246              		.thumb
 1247              		.thumb_func
 1248              		.type	stReady, %function
 1249              	stReady:
 1250              	.LFB94:
 537:ZumoLibrary/esp8266_socket.c **** 	switch(e->ev) {
 1251              		.loc 1 537 0 is_stmt 1
 1252              		.cfi_startproc
 1253              		@ args = 0, pretend = 0, frame = 0
 1254              		@ frame_needed = 0, uses_anonymous_args = 0
 1255              	.LVL159:
 538:ZumoLibrary/esp8266_socket.c **** 	case eEnter:
 1256              		.loc 1 538 0
 1257 0000 0B78     		ldrb	r3, [r1]	@ zero_extendqisi2
 1258 0002 13B1     		cbz	r3, .L108
 1259 0004 042B     		cmp	r3, #4
 1260 0006 09D0     		beq	.L109
 1261 0008 7047     		bx	lr
 1262              	.L108:
 537:ZumoLibrary/esp8266_socket.c **** 	switch(e->ev) {
 1263              		.loc 1 537 0
 1264 000a 10B5     		push	{r4, lr}
 1265              		.cfi_def_cfa_offset 8
 1266              		.cfi_offset 4, -8
 1267              		.cfi_offset 14, -4
 1268 000c 0446     		mov	r4, r0
 540:ZumoLibrary/esp8266_socket.c ****         init_counters(ctx);
 1269              		.loc 1 540 0
 1270 000e 0548     		ldr	r0, .L112
ARM GAS  C:\Users\samue\AppData\Local\Temp\ccJDNHzo.s 			page 42


 1271              	.LVL160:
 1272 0010 FFF7FEFF 		bl	puts
 1273              	.LVL161:
 541:ZumoLibrary/esp8266_socket.c **** 		break;
 1274              		.loc 1 541 0
 1275 0014 2046     		mov	r0, r4
 1276 0016 FFF7FEFF 		bl	init_counters
 1277              	.LVL162:
 542:ZumoLibrary/esp8266_socket.c **** 	case eExit:
 1278              		.loc 1 542 0
 1279 001a 10BD     		pop	{r4, pc}
 1280              	.LVL163:
 1281              	.L109:
 1282              		.cfi_def_cfa_offset 0
 1283              		.cfi_restore 4
 1284              		.cfi_restore 14
 557:ZumoLibrary/esp8266_socket.c ****         break;
 1285              		.loc 1 557 0
 1286 001c 024B     		ldr	r3, .L112+4
 1287 001e 4360     		str	r3, [r0, #4]
 563:ZumoLibrary/esp8266_socket.c **** 
 1288              		.loc 1 563 0
 1289 0020 7047     		bx	lr
 1290              	.L113:
 1291 0022 00BF     		.align	2
 1292              	.L112:
 1293 0024 60000000 		.word	.LC11
 1294 0028 00000000 		.word	stConnectTCP
 1295              		.cfi_endproc
 1296              	.LFE94:
 1297              		.size	stReady, .-stReady
 1298              		.section	.text.stConnected,"ax",%progbits
 1299              		.align	2
 1300              		.global	stConnected
 1301              		.thumb
 1302              		.thumb_func
 1303              		.type	stConnected, %function
 1304              	stConnected:
 1305              	.LFB99:
 665:ZumoLibrary/esp8266_socket.c **** 	switch(e->ev) {
 1306              		.loc 1 665 0
 1307              		.cfi_startproc
 1308              		@ args = 0, pretend = 0, frame = 0
 1309              		@ frame_needed = 0, uses_anonymous_args = 0
 1310              	.LVL164:
 1311 0000 10B5     		push	{r4, lr}
 1312              		.cfi_def_cfa_offset 8
 1313              		.cfi_offset 4, -8
 1314              		.cfi_offset 14, -4
 1315 0002 0446     		mov	r4, r0
 666:ZumoLibrary/esp8266_socket.c **** 	case eEnter:
 1316              		.loc 1 666 0
 1317 0004 0B78     		ldrb	r3, [r1]	@ zero_extendqisi2
 1318 0006 012B     		cmp	r3, #1
 1319 0008 10D0     		beq	.L116
 1320 000a 13B1     		cbz	r3, .L117
 1321 000c 052B     		cmp	r3, #5
ARM GAS  C:\Users\samue\AppData\Local\Temp\ccJDNHzo.s 			page 43


 1322 000e 13D0     		beq	.L118
 1323 0010 10BD     		pop	{r4, pc}
 1324              	.L117:
 668:ZumoLibrary/esp8266_socket.c ****         init_counters(ctx);
 1325              		.loc 1 668 0
 1326 0012 0B48     		ldr	r0, .L120
 1327              	.LVL165:
 1328 0014 FFF7FEFF 		bl	puts
 1329              	.LVL166:
 669:ZumoLibrary/esp8266_socket.c ****         xSemaphoreGive(ctx->Access);
 1330              		.loc 1 669 0
 1331 0018 2046     		mov	r0, r4
 1332 001a FFF7FEFF 		bl	init_counters
 1333              	.LVL167:
 670:ZumoLibrary/esp8266_socket.c ****         break;
 1334              		.loc 1 670 0
 1335 001e 0023     		movs	r3, #0
 1336 0020 1A46     		mov	r2, r3
 1337 0022 1946     		mov	r1, r3
 1338 0024 A068     		ldr	r0, [r4, #8]
 1339 0026 FFF7FEFF 		bl	xQueueGenericSend
 1340              	.LVL168:
 671:ZumoLibrary/esp8266_socket.c **** 	case eExit:
 1341              		.loc 1 671 0
 1342 002a 10BD     		pop	{r4, pc}
 1343              	.LVL169:
 1344              	.L116:
 673:ZumoLibrary/esp8266_socket.c **** 		break;
 1345              		.loc 1 673 0
 1346 002c 4FF0FF31 		mov	r1, #-1
 1347              	.LVL170:
 1348 0030 8068     		ldr	r0, [r0, #8]
 1349              	.LVL171:
 1350 0032 FFF7FEFF 		bl	xQueueSemaphoreTake
 1351              	.LVL172:
 674:ZumoLibrary/esp8266_socket.c **** 	case eTick:
 1352              		.loc 1 674 0
 1353 0036 10BD     		pop	{r4, pc}
 1354              	.LVL173:
 1355              	.L118:
 702:ZumoLibrary/esp8266_socket.c ****         break;
 1356              		.loc 1 702 0
 1357 0038 024B     		ldr	r3, .L120+4
 1358 003a 4360     		str	r3, [r0, #4]
 1359 003c 10BD     		pop	{r4, pc}
 1360              	.L121:
 1361 003e 00BF     		.align	2
 1362              	.L120:
 1363 0040 68000000 		.word	.LC12
 1364 0044 00000000 		.word	stCommandMode
 1365              		.cfi_endproc
 1366              	.LFE99:
 1367              		.size	stConnected, .-stConnected
 1368              		.section	.text.stCommandMode,"ax",%progbits
 1369              		.align	2
 1370              		.global	stCommandMode
 1371              		.thumb
ARM GAS  C:\Users\samue\AppData\Local\Temp\ccJDNHzo.s 			page 44


 1372              		.thumb_func
 1373              		.type	stCommandMode, %function
 1374              	stCommandMode:
 1375              	.LFB100:
 711:ZumoLibrary/esp8266_socket.c **** 	switch(e->ev) {
 1376              		.loc 1 711 0
 1377              		.cfi_startproc
 1378              		@ args = 0, pretend = 0, frame = 0
 1379              		@ frame_needed = 0, uses_anonymous_args = 0
 1380              	.LVL174:
 1381 0000 38B5     		push	{r3, r4, r5, lr}
 1382              		.cfi_def_cfa_offset 16
 1383              		.cfi_offset 3, -16
 1384              		.cfi_offset 4, -12
 1385              		.cfi_offset 5, -8
 1386              		.cfi_offset 14, -4
 1387 0002 0446     		mov	r4, r0
 712:ZumoLibrary/esp8266_socket.c **** 	case eEnter:
 1388              		.loc 1 712 0
 1389 0004 0B78     		ldrb	r3, [r1]	@ zero_extendqisi2
 1390 0006 13B1     		cbz	r3, .L124
 1391 0008 022B     		cmp	r3, #2
 1392 000a 07D0     		beq	.L125
 1393 000c 38BD     		pop	{r3, r4, r5, pc}
 1394              	.L124:
 714:ZumoLibrary/esp8266_socket.c ****         init_counters(ctx);
 1395              		.loc 1 714 0
 1396 000e 0F48     		ldr	r0, .L131
 1397              	.LVL175:
 1398 0010 FFF7FEFF 		bl	puts
 1399              	.LVL176:
 715:ZumoLibrary/esp8266_socket.c **** 		break;
 1400              		.loc 1 715 0
 1401 0014 2046     		mov	r0, r4
 1402 0016 FFF7FEFF 		bl	init_counters
 1403              	.LVL177:
 716:ZumoLibrary/esp8266_socket.c **** 	case eExit:
 1404              		.loc 1 716 0
 1405 001a 38BD     		pop	{r3, r4, r5, pc}
 1406              	.LVL178:
 1407              	.L125:
 720:ZumoLibrary/esp8266_socket.c ****         if(ctx->timer == 10) serial_write_str(ctx, "+++");
 1408              		.loc 1 720 0
 1409 001c 4369     		ldr	r3, [r0, #20]
 1410 001e 0133     		adds	r3, r3, #1
 1411 0020 4361     		str	r3, [r0, #20]
 721:ZumoLibrary/esp8266_socket.c ****         if(ctx->timer == 25) TRAN(stCloseTCP);
 1412              		.loc 1 721 0
 1413 0022 0A2B     		cmp	r3, #10
 1414 0024 0CD1     		bne	.L127
 1415 0026 07E0     		b	.L129
 1416              	.LVL179:
 1417              	.L128:
 1418              	.LBB89:
 1419              	.LBB90:
 104:ZumoLibrary/esp8266_socket.c ****         //UART_1_PutChar(*s++);
 1420              		.loc 1 104 0
ARM GAS  C:\Users\samue\AppData\Local\Temp\ccJDNHzo.s 			page 45


 1421 0028 0135     		adds	r5, r5, #1
 1422              	.LVL180:
 1423 002a 4FF0FF32 		mov	r2, #-1
 1424 002e 49B2     		sxtb	r1, r1
 1425 0030 2069     		ldr	r0, [r4, #16]
 1426 0032 FFF7FEFF 		bl	xSerialPutChar
 1427              	.LVL181:
 1428 0036 00E0     		b	.L126
 1429              	.LVL182:
 1430              	.L129:
 1431              	.LBE90:
 1432              	.LBE89:
 1433 0038 054D     		ldr	r5, .L131+4
 1434              	.LVL183:
 1435              	.L126:
 1436              	.LBB92:
 1437              	.LBB91:
 103:ZumoLibrary/esp8266_socket.c ****         xSerialPutChar(ctx->ComPort,*s++,portMAX_DELAY);
 1438              		.loc 1 103 0
 1439 003a 2978     		ldrb	r1, [r5]	@ zero_extendqisi2
 1440 003c 0029     		cmp	r1, #0
 1441 003e F3D1     		bne	.L128
 1442              	.LVL184:
 1443              	.L127:
 1444              	.LBE91:
 1445              	.LBE92:
 722:ZumoLibrary/esp8266_socket.c **** 		break;
 1446              		.loc 1 722 0
 1447 0040 6369     		ldr	r3, [r4, #20]
 1448 0042 192B     		cmp	r3, #25
 1449 0044 01D1     		bne	.L122
 722:ZumoLibrary/esp8266_socket.c **** 		break;
 1450              		.loc 1 722 0 is_stmt 0 discriminator 1
 1451 0046 034B     		ldr	r3, .L131+8
 1452 0048 6360     		str	r3, [r4, #4]
 1453              	.L122:
 1454 004a 38BD     		pop	{r3, r4, r5, pc}
 1455              	.LVL185:
 1456              	.L132:
 1457              		.align	2
 1458              	.L131:
 1459 004c 74000000 		.word	.LC13
 1460 0050 54000000 		.word	.LC9
 1461 0054 00000000 		.word	stCloseTCP
 1462              		.cfi_endproc
 1463              	.LFE100:
 1464              		.size	stCommandMode, .-stCommandMode
 1465              		.section	.text.sm_flush,"ax",%progbits
 1466              		.align	2
 1467              		.global	sm_flush
 1468              		.thumb
 1469              		.thumb_func
 1470              		.type	sm_flush, %function
 1471              	sm_flush:
 1472              	.LFB81:
 260:ZumoLibrary/esp8266_socket.c ****     //DEBUGP("flush: %d\n", (int)xSerialRxWaiting(ctx->ComPort));
 1473              		.loc 1 260 0 is_stmt 1
ARM GAS  C:\Users\samue\AppData\Local\Temp\ccJDNHzo.s 			page 46


 1474              		.cfi_startproc
 1475              		@ args = 0, pretend = 0, frame = 0
 1476              		@ frame_needed = 0, uses_anonymous_args = 0
 1477              	.LVL186:
 1478 0000 10B5     		push	{r4, lr}
 1479              		.cfi_def_cfa_offset 8
 1480              		.cfi_offset 4, -8
 1481              		.cfi_offset 14, -4
 1482 0002 0446     		mov	r4, r0
 1483              	.LVL187:
 1484              	.L134:
 1485              	.LBB93:
 1486              	.LBB94:
 111:ZumoLibrary/esp8266_socket.c **** }
 1487              		.loc 1 111 0 discriminator 1
 1488 0004 0A22     		movs	r2, #10
 1489 0006 04F12001 		add	r1, r4, #32
 1490              	.LVL188:
 1491 000a 2069     		ldr	r0, [r4, #16]
 1492 000c FFF7FEFF 		bl	xSerialGetChar
 1493              	.LVL189:
 1494              	.LBE94:
 1495              	.LBE93:
 262:ZumoLibrary/esp8266_socket.c **** }
 1496              		.loc 1 262 0 discriminator 1
 1497 0010 0028     		cmp	r0, #0
 1498 0012 F7D1     		bne	.L134
 263:ZumoLibrary/esp8266_socket.c **** 
 1499              		.loc 1 263 0
 1500 0014 10BD     		pop	{r4, pc}
 1501              		.cfi_endproc
 1502              	.LFE81:
 1503              		.size	sm_flush, .-sm_flush
 1504 0016 00BF     		.section	.text.sm_read_buffer,"ax",%progbits
 1505              		.align	2
 1506              		.global	sm_read_buffer
 1507              		.thumb
 1508              		.thumb_func
 1509              		.type	sm_read_buffer, %function
 1510              	sm_read_buffer:
 1511              	.LFB82:
 269:ZumoLibrary/esp8266_socket.c ****     while(ctx->pos < (SMI_BUFSIZE - 1) && ctx->pos < count && serial_get(ctx, ctx->buffer + ctx->po
 1512              		.loc 1 269 0
 1513              		.cfi_startproc
 1514              		@ args = 0, pretend = 0, frame = 0
 1515              		@ frame_needed = 0, uses_anonymous_args = 0
 1516              	.LVL190:
 1517 0000 38B5     		push	{r3, r4, r5, lr}
 1518              		.cfi_def_cfa_offset 16
 1519              		.cfi_offset 3, -16
 1520              		.cfi_offset 4, -12
 1521              		.cfi_offset 5, -8
 1522              		.cfi_offset 14, -4
 1523 0002 0446     		mov	r4, r0
 1524 0004 0D46     		mov	r5, r1
 270:ZumoLibrary/esp8266_socket.c ****         //putchar(ctx->buffer[ctx->pos]); // debugging
 1525              		.loc 1 270 0
ARM GAS  C:\Users\samue\AppData\Local\Temp\ccJDNHzo.s 			page 47


 1526 0006 02E0     		b	.L137
 1527              	.LVL191:
 1528              	.L139:
 272:ZumoLibrary/esp8266_socket.c ****     }
 1529              		.loc 1 272 0
 1530 0008 E369     		ldr	r3, [r4, #28]
 1531 000a 0133     		adds	r3, r3, #1
 1532 000c E361     		str	r3, [r4, #28]
 1533              	.L137:
 270:ZumoLibrary/esp8266_socket.c ****         //putchar(ctx->buffer[ctx->pos]); // debugging
 1534              		.loc 1 270 0
 1535 000e E369     		ldr	r3, [r4, #28]
 1536 0010 4E2B     		cmp	r3, #78
 1537 0012 0ADC     		bgt	.L138
 270:ZumoLibrary/esp8266_socket.c ****         //putchar(ctx->buffer[ctx->pos]); // debugging
 1538              		.loc 1 270 0 is_stmt 0 discriminator 1
 1539 0014 AB42     		cmp	r3, r5
 1540 0016 08DA     		bge	.L138
 270:ZumoLibrary/esp8266_socket.c ****         //putchar(ctx->buffer[ctx->pos]); // debugging
 1541              		.loc 1 270 0 discriminator 2
 1542 0018 04F12001 		add	r1, r4, #32
 1543              	.LVL192:
 1544              	.LBB95:
 1545              	.LBB96:
 111:ZumoLibrary/esp8266_socket.c **** }
 1546              		.loc 1 111 0 is_stmt 1 discriminator 2
 1547 001c 0A22     		movs	r2, #10
 1548 001e 1944     		add	r1, r1, r3
 1549 0020 2069     		ldr	r0, [r4, #16]
 1550 0022 FFF7FEFF 		bl	xSerialGetChar
 1551              	.LVL193:
 1552              	.LBE96:
 1553              	.LBE95:
 270:ZumoLibrary/esp8266_socket.c ****         //putchar(ctx->buffer[ctx->pos]); // debugging
 1554              		.loc 1 270 0 discriminator 2
 1555 0026 0028     		cmp	r0, #0
 1556 0028 EED1     		bne	.L139
 1557              	.L138:
 274:ZumoLibrary/esp8266_socket.c **** }
 1558              		.loc 1 274 0
 1559 002a E069     		ldr	r0, [r4, #28]
 275:ZumoLibrary/esp8266_socket.c **** 
 1560              		.loc 1 275 0
 1561 002c 8542     		cmp	r5, r0
 1562 002e CCBF     		ite	gt
 1563 0030 0020     		movgt	r0, #0
 1564 0032 0120     		movle	r0, #1
 1565 0034 38BD     		pop	{r3, r4, r5, pc}
 1566              		.cfi_endproc
 1567              	.LFE82:
 1568              		.size	sm_read_buffer, .-sm_read_buffer
 1569 0036 00BF     		.section	.text.sm_read_int,"ax",%progbits
 1570              		.align	2
 1571              		.global	sm_read_int
 1572              		.thumb
 1573              		.thumb_func
 1574              		.type	sm_read_int, %function
ARM GAS  C:\Users\samue\AppData\Local\Temp\ccJDNHzo.s 			page 48


 1575              	sm_read_int:
 1576              	.LFB83:
 281:ZumoLibrary/esp8266_socket.c ****     bool result = false;
 1577              		.loc 1 281 0
 1578              		.cfi_startproc
 1579              		@ args = 0, pretend = 0, frame = 0
 1580              		@ frame_needed = 0, uses_anonymous_args = 0
 1581              	.LVL194:
 1582 0000 70B5     		push	{r4, r5, r6, lr}
 1583              		.cfi_def_cfa_offset 16
 1584              		.cfi_offset 4, -16
 1585              		.cfi_offset 5, -12
 1586              		.cfi_offset 6, -8
 1587              		.cfi_offset 14, -4
 1588 0002 0446     		mov	r4, r0
 1589 0004 0D46     		mov	r5, r1
 1590              	.LVL195:
 283:ZumoLibrary/esp8266_socket.c ****         if(!isdigit(ctx->buffer[ctx->pos])) {
 1591              		.loc 1 283 0
 1592 0006 16E0     		b	.L142
 1593              	.LVL196:
 1594              	.L145:
 284:ZumoLibrary/esp8266_socket.c ****             ctx->buffer[ctx->pos] = '\0';
 1595              		.loc 1 284 0
 1596 0008 E369     		ldr	r3, [r4, #28]
 1597 000a E218     		adds	r2, r4, r3
 1598 000c 92F82020 		ldrb	r2, [r2, #32]	@ zero_extendqisi2
 1599 0010 1049     		ldr	r1, .L148
 1600 0012 0968     		ldr	r1, [r1]
 1601 0014 0A44     		add	r2, r2, r1
 1602 0016 5278     		ldrb	r2, [r2, #1]	@ zero_extendqisi2
 1603 0018 12F0040F 		tst	r2, #4
 1604 001c 09D1     		bne	.L143
 285:ZumoLibrary/esp8266_socket.c ****             *value = atoi(ctx->buffer);
 1605              		.loc 1 285 0
 1606 001e 1C44     		add	r4, r4, r3
 1607              	.LVL197:
 1608 0020 0023     		movs	r3, #0
 1609 0022 84F82030 		strb	r3, [r4, #32]
 286:ZumoLibrary/esp8266_socket.c ****             result = true;
 1610              		.loc 1 286 0
 1611 0026 3046     		mov	r0, r6
 1612 0028 FFF7FEFF 		bl	atoi
 1613              	.LVL198:
 1614 002c 2860     		str	r0, [r5]
 1615              	.LVL199:
 287:ZumoLibrary/esp8266_socket.c ****             break;
 1616              		.loc 1 287 0
 1617 002e 0120     		movs	r0, #1
 288:ZumoLibrary/esp8266_socket.c ****         }
 1618              		.loc 1 288 0
 1619 0030 70BD     		pop	{r4, r5, r6, pc}
 1620              	.LVL200:
 1621              	.L143:
 291:ZumoLibrary/esp8266_socket.c ****         }
 1622              		.loc 1 291 0
 1623 0032 0133     		adds	r3, r3, #1
ARM GAS  C:\Users\samue\AppData\Local\Temp\ccJDNHzo.s 			page 49


 1624 0034 E361     		str	r3, [r4, #28]
 1625              	.L142:
 283:ZumoLibrary/esp8266_socket.c ****         if(!isdigit(ctx->buffer[ctx->pos])) {
 1626              		.loc 1 283 0
 1627 0036 E169     		ldr	r1, [r4, #28]
 1628 0038 4E29     		cmp	r1, #78
 1629 003a 09DC     		bgt	.L146
 283:ZumoLibrary/esp8266_socket.c ****         if(!isdigit(ctx->buffer[ctx->pos])) {
 1630              		.loc 1 283 0 is_stmt 0 discriminator 1
 1631 003c 04F12006 		add	r6, r4, #32
 1632              	.LVL201:
 1633              	.LBB97:
 1634              	.LBB98:
 111:ZumoLibrary/esp8266_socket.c **** }
 1635              		.loc 1 111 0 is_stmt 1 discriminator 1
 1636 0040 0A22     		movs	r2, #10
 1637 0042 3144     		add	r1, r1, r6
 1638              	.LVL202:
 1639 0044 2069     		ldr	r0, [r4, #16]
 1640 0046 FFF7FEFF 		bl	xSerialGetChar
 1641              	.LVL203:
 1642              	.LBE98:
 1643              	.LBE97:
 283:ZumoLibrary/esp8266_socket.c ****         if(!isdigit(ctx->buffer[ctx->pos])) {
 1644              		.loc 1 283 0 discriminator 1
 1645 004a 0028     		cmp	r0, #0
 1646 004c DCD1     		bne	.L145
 1647 004e 70BD     		pop	{r4, r5, r6, pc}
 1648              	.LVL204:
 1649              	.L146:
 282:ZumoLibrary/esp8266_socket.c ****     while(ctx->pos < (SMI_BUFSIZE - 1) && serial_get(ctx, ctx->buffer + ctx->pos)) {
 1650              		.loc 1 282 0
 1651 0050 0020     		movs	r0, #0
 1652              	.LVL205:
 295:ZumoLibrary/esp8266_socket.c **** 
 1653              		.loc 1 295 0
 1654 0052 70BD     		pop	{r4, r5, r6, pc}
 1655              	.LVL206:
 1656              	.L149:
 1657              		.align	2
 1658              	.L148:
 1659 0054 00000000 		.word	__ctype_ptr__
 1660              		.cfi_endproc
 1661              	.LFE83:
 1662              		.size	sm_read_int, .-sm_read_int
 1663              		.section	.text.sm_read_until,"ax",%progbits
 1664              		.align	2
 1665              		.global	sm_read_until
 1666              		.thumb
 1667              		.thumb_func
 1668              		.type	sm_read_until, %function
 1669              	sm_read_until:
 1670              	.LFB84:
 302:ZumoLibrary/esp8266_socket.c ****     int result = RC_NOT_AVAILABLE;
 1671              		.loc 1 302 0
 1672              		.cfi_startproc
 1673              		@ args = 0, pretend = 0, frame = 0
ARM GAS  C:\Users\samue\AppData\Local\Temp\ccJDNHzo.s 			page 50


 1674              		@ frame_needed = 0, uses_anonymous_args = 0
 1675              	.LVL207:
 1676 0000 2DE9F041 		push	{r4, r5, r6, r7, r8, lr}
 1677              		.cfi_def_cfa_offset 24
 1678              		.cfi_offset 4, -24
 1679              		.cfi_offset 5, -20
 1680              		.cfi_offset 6, -16
 1681              		.cfi_offset 7, -12
 1682              		.cfi_offset 8, -8
 1683              		.cfi_offset 14, -4
 1684 0004 8046     		mov	r8, r0
 1685 0006 0F46     		mov	r7, r1
 1686              	.LVL208:
 303:ZumoLibrary/esp8266_socket.c ****     while(result < 0 && ctx->pos < (SMI_BUFSIZE - 1) && serial_get(ctx, ctx->buffer + ctx->pos)) {
 1687              		.loc 1 303 0
 1688 0008 4FF0FF35 		mov	r5, #-1
 304:ZumoLibrary/esp8266_socket.c ****         ++ctx->pos;
 1689              		.loc 1 304 0
 1690 000c 15E0     		b	.L151
 1691              	.LVL209:
 1692              	.L156:
 305:ZumoLibrary/esp8266_socket.c ****         ctx->buffer[ctx->pos] = '\0';
 1693              		.loc 1 305 0
 1694 000e D8F81C30 		ldr	r3, [r8, #28]
 1695 0012 0133     		adds	r3, r3, #1
 1696 0014 C8F81C30 		str	r3, [r8, #28]
 306:ZumoLibrary/esp8266_socket.c ****         for(int i = 0; result < 0 && p[i] != NULL; ++i) {
 1697              		.loc 1 306 0
 1698 0018 4344     		add	r3, r3, r8
 1699 001a 0024     		movs	r4, #0
 1700 001c 83F82040 		strb	r4, [r3, #32]
 1701              	.LVL210:
 1702              	.LBB99:
 307:ZumoLibrary/esp8266_socket.c ****             if(strstr(ctx->buffer, p[i]) != NULL) {
 1703              		.loc 1 307 0
 1704 0020 05E0     		b	.L152
 1705              	.LVL211:
 1706              	.L154:
 308:ZumoLibrary/esp8266_socket.c ****                 result = i;
 1707              		.loc 1 308 0
 1708 0022 3046     		mov	r0, r6
 1709 0024 FFF7FEFF 		bl	strstr
 1710              	.LVL212:
 1711 0028 00B1     		cbz	r0, .L153
 309:ZumoLibrary/esp8266_socket.c ****             }
 1712              		.loc 1 309 0
 1713 002a 2546     		mov	r5, r4
 1714              	.LVL213:
 1715              	.L153:
 307:ZumoLibrary/esp8266_socket.c ****             if(strstr(ctx->buffer, p[i]) != NULL) {
 1716              		.loc 1 307 0 discriminator 2
 1717 002c 0134     		adds	r4, r4, #1
 1718              	.LVL214:
 1719              	.L152:
 307:ZumoLibrary/esp8266_socket.c ****             if(strstr(ctx->buffer, p[i]) != NULL) {
 1720              		.loc 1 307 0 is_stmt 0 discriminator 1
 1721 002e 002D     		cmp	r5, #0
ARM GAS  C:\Users\samue\AppData\Local\Temp\ccJDNHzo.s 			page 51


 1722 0030 03DA     		bge	.L151
 307:ZumoLibrary/esp8266_socket.c ****             if(strstr(ctx->buffer, p[i]) != NULL) {
 1723              		.loc 1 307 0 discriminator 3
 1724 0032 57F82410 		ldr	r1, [r7, r4, lsl #2]
 1725 0036 0029     		cmp	r1, #0
 1726 0038 F3D1     		bne	.L154
 1727              	.LVL215:
 1728              	.L151:
 1729              	.LBE99:
 304:ZumoLibrary/esp8266_socket.c ****         ++ctx->pos;
 1730              		.loc 1 304 0 is_stmt 1
 1731 003a 002D     		cmp	r5, #0
 1732 003c 0DDA     		bge	.L155
 304:ZumoLibrary/esp8266_socket.c ****         ++ctx->pos;
 1733              		.loc 1 304 0 is_stmt 0 discriminator 1
 1734 003e D8F81C10 		ldr	r1, [r8, #28]
 1735 0042 4E29     		cmp	r1, #78
 1736 0044 09DC     		bgt	.L155
 304:ZumoLibrary/esp8266_socket.c ****         ++ctx->pos;
 1737              		.loc 1 304 0 discriminator 2
 1738 0046 08F12006 		add	r6, r8, #32
 1739              	.LVL216:
 1740              	.LBB100:
 1741              	.LBB101:
 111:ZumoLibrary/esp8266_socket.c **** }
 1742              		.loc 1 111 0 is_stmt 1 discriminator 2
 1743 004a 0A22     		movs	r2, #10
 1744 004c 3144     		add	r1, r1, r6
 1745              	.LVL217:
 1746 004e D8F81000 		ldr	r0, [r8, #16]
 1747 0052 FFF7FEFF 		bl	xSerialGetChar
 1748              	.LVL218:
 1749              	.LBE101:
 1750              	.LBE100:
 304:ZumoLibrary/esp8266_socket.c ****         ++ctx->pos;
 1751              		.loc 1 304 0 discriminator 2
 1752 0056 0028     		cmp	r0, #0
 1753 0058 D9D1     		bne	.L156
 1754              	.L155:
 315:ZumoLibrary/esp8266_socket.c **** 
 1755              		.loc 1 315 0
 1756 005a 2846     		mov	r0, r5
 1757 005c BDE8F081 		pop	{r4, r5, r6, r7, r8, pc}
 1758              		.cfi_endproc
 1759              	.LFE84:
 1760              		.size	sm_read_until, .-sm_read_until
 1761              		.section	.text.sm_read_result,"ax",%progbits
 1762              		.align	2
 1763              		.global	sm_read_result
 1764              		.thumb
 1765              		.thumb_func
 1766              		.type	sm_read_result, %function
 1767              	sm_read_result:
 1768              	.LFB85:
 319:ZumoLibrary/esp8266_socket.c ****     static const char *result_list[] = { "OK\r\n", "ERROR\r\n", NULL };
 1769              		.loc 1 319 0
 1770              		.cfi_startproc
ARM GAS  C:\Users\samue\AppData\Local\Temp\ccJDNHzo.s 			page 52


 1771              		@ args = 0, pretend = 0, frame = 0
 1772              		@ frame_needed = 0, uses_anonymous_args = 0
 1773              	.LVL219:
 1774 0000 08B5     		push	{r3, lr}
 1775              		.cfi_def_cfa_offset 8
 1776              		.cfi_offset 3, -8
 1777              		.cfi_offset 14, -4
 321:ZumoLibrary/esp8266_socket.c **** }
 1778              		.loc 1 321 0
 1779 0002 0249     		ldr	r1, .L161
 1780 0004 FFF7FEFF 		bl	sm_read_until
 1781              	.LVL220:
 322:ZumoLibrary/esp8266_socket.c **** 
 1782              		.loc 1 322 0
 1783 0008 08BD     		pop	{r3, pc}
 1784              	.L162:
 1785 000a 00BF     		.align	2
 1786              	.L161:
 1787 000c 00000000 		.word	.LANCHOR1
 1788              		.cfi_endproc
 1789              	.LFE85:
 1790              		.size	sm_read_result, .-sm_read_result
 1791              		.section	.text.stStationModeCheck,"ax",%progbits
 1792              		.align	2
 1793              		.global	stStationModeCheck
 1794              		.thumb
 1795              		.thumb_func
 1796              		.type	stStationModeCheck, %function
 1797              	stStationModeCheck:
 1798              	.LFB90:
 437:ZumoLibrary/esp8266_socket.c ****     int rc = -1;
 1799              		.loc 1 437 0
 1800              		.cfi_startproc
 1801              		@ args = 0, pretend = 0, frame = 0
 1802              		@ frame_needed = 0, uses_anonymous_args = 0
 1803              	.LVL221:
 1804 0000 38B5     		push	{r3, r4, r5, lr}
 1805              		.cfi_def_cfa_offset 16
 1806              		.cfi_offset 3, -16
 1807              		.cfi_offset 4, -12
 1808              		.cfi_offset 5, -8
 1809              		.cfi_offset 14, -4
 1810 0002 0546     		mov	r5, r0
 1811              	.LVL222:
 439:ZumoLibrary/esp8266_socket.c **** 	case eEnter:
 1812              		.loc 1 439 0
 1813 0004 0B78     		ldrb	r3, [r1]	@ zero_extendqisi2
 1814 0006 13B1     		cbz	r3, .L165
 1815 0008 032B     		cmp	r3, #3
 1816 000a 13D0     		beq	.L166
 1817 000c 38BD     		pop	{r3, r4, r5, pc}
 1818              	.L165:
 441:ZumoLibrary/esp8266_socket.c ****         init_counters(ctx);
 1819              		.loc 1 441 0
 1820 000e 1448     		ldr	r0, .L171
 1821              	.LVL223:
 1822 0010 FFF7FEFF 		bl	puts
ARM GAS  C:\Users\samue\AppData\Local\Temp\ccJDNHzo.s 			page 53


 1823              	.LVL224:
 442:ZumoLibrary/esp8266_socket.c ****         serial_write_str(ctx, "AT+CWMODE_CUR?\r\n");
 1824              		.loc 1 442 0
 1825 0014 2846     		mov	r0, r5
 1826 0016 FFF7FEFF 		bl	init_counters
 1827              	.LVL225:
 1828 001a 124C     		ldr	r4, .L171+4
 1829 001c 06E0     		b	.L167
 1830              	.LVL226:
 1831              	.L168:
 1832              	.LBB102:
 1833              	.LBB103:
 104:ZumoLibrary/esp8266_socket.c ****         //UART_1_PutChar(*s++);
 1834              		.loc 1 104 0
 1835 001e 0134     		adds	r4, r4, #1
 1836              	.LVL227:
 1837 0020 4FF0FF32 		mov	r2, #-1
 1838 0024 49B2     		sxtb	r1, r1
 1839 0026 2869     		ldr	r0, [r5, #16]
 1840 0028 FFF7FEFF 		bl	xSerialPutChar
 1841              	.LVL228:
 1842              	.L167:
 103:ZumoLibrary/esp8266_socket.c ****         xSerialPutChar(ctx->ComPort,*s++,portMAX_DELAY);
 1843              		.loc 1 103 0
 1844 002c 2178     		ldrb	r1, [r4]	@ zero_extendqisi2
 1845 002e 0029     		cmp	r1, #0
 1846 0030 F5D1     		bne	.L168
 1847 0032 38BD     		pop	{r3, r4, r5, pc}
 1848              	.LVL229:
 1849              	.L166:
 1850              	.LBE103:
 1851              	.LBE102:
 450:ZumoLibrary/esp8266_socket.c ****         if(rc == RC_OK) {
 1852              		.loc 1 450 0
 1853 0034 FFF7FEFF 		bl	sm_read_result
 1854              	.LVL230:
 451:ZumoLibrary/esp8266_socket.c ****             DEBUGP("%d: %s", rc, ctx->buffer);
 1855              		.loc 1 451 0
 1856 0038 0146     		mov	r1, r0
 1857 003a 78B9     		cbnz	r0, .L163
 452:ZumoLibrary/esp8266_socket.c ****             if(strstr(ctx->buffer, "+CWMODE_CUR:1\r\n") != NULL) {
 1858              		.loc 1 452 0
 1859 003c 05F12004 		add	r4, r5, #32
 1860 0040 2246     		mov	r2, r4
 1861 0042 0948     		ldr	r0, .L171+8
 1862              	.LVL231:
 1863 0044 FFF7FEFF 		bl	printf
 1864              	.LVL232:
 453:ZumoLibrary/esp8266_socket.c ****                 TRAN(stConnectAP);
 1865              		.loc 1 453 0
 1866 0048 0849     		ldr	r1, .L171+12
 1867 004a 2046     		mov	r0, r4
 1868 004c FFF7FEFF 		bl	strstr
 1869              	.LVL233:
 1870 0050 10B1     		cbz	r0, .L169
 454:ZumoLibrary/esp8266_socket.c ****             }
 1871              		.loc 1 454 0
ARM GAS  C:\Users\samue\AppData\Local\Temp\ccJDNHzo.s 			page 54


 1872 0052 074B     		ldr	r3, .L171+16
 1873 0054 6B60     		str	r3, [r5, #4]
 1874 0056 38BD     		pop	{r3, r4, r5, pc}
 1875              	.LVL234:
 1876              	.L169:
 457:ZumoLibrary/esp8266_socket.c ****             }
 1877              		.loc 1 457 0
 1878 0058 064B     		ldr	r3, .L171+20
 1879 005a 6B60     		str	r3, [r5, #4]
 1880              	.L163:
 1881 005c 38BD     		pop	{r3, r4, r5, pc}
 1882              	.LVL235:
 1883              	.L172:
 1884 005e 00BF     		.align	2
 1885              	.L171:
 1886 0060 98000000 		.word	.LC15
 1887 0064 84000000 		.word	.LC14
 1888 0068 AC000000 		.word	.LC16
 1889 006c B4000000 		.word	.LC17
 1890 0070 00000000 		.word	stConnectAP
 1891 0074 00000000 		.word	stStationModeSet
 1892              		.cfi_endproc
 1893              	.LFE90:
 1894              		.size	stStationModeCheck, .-stStationModeCheck
 1895              		.section	.text.stConnectAP,"ax",%progbits
 1896              		.align	2
 1897              		.global	stConnectAP
 1898              		.thumb
 1899              		.thumb_func
 1900              		.type	stConnectAP, %function
 1901              	stConnectAP:
 1902              	.LFB93:
 501:ZumoLibrary/esp8266_socket.c ****     int rc;
 1903              		.loc 1 501 0
 1904              		.cfi_startproc
 1905              		@ args = 0, pretend = 0, frame = 0
 1906              		@ frame_needed = 0, uses_anonymous_args = 0
 1907              	.LVL236:
 1908 0000 10B5     		push	{r4, lr}
 1909              		.cfi_def_cfa_offset 8
 1910              		.cfi_offset 4, -8
 1911              		.cfi_offset 14, -4
 1912 0002 0446     		mov	r4, r0
 503:ZumoLibrary/esp8266_socket.c **** 	case eEnter:
 1913              		.loc 1 503 0
 1914 0004 0B78     		ldrb	r3, [r1]	@ zero_extendqisi2
 1915 0006 022B     		cmp	r3, #2
 1916 0008 09D0     		beq	.L175
 1917 000a 032B     		cmp	r3, #3
 1918 000c 14D0     		beq	.L176
 1919 000e C3B9     		cbnz	r3, .L173
 505:ZumoLibrary/esp8266_socket.c ****         init_counters(ctx);
 1920              		.loc 1 505 0
 1921 0010 0C48     		ldr	r0, .L180
 1922              	.LVL237:
 1923 0012 FFF7FEFF 		bl	puts
 1924              	.LVL238:
ARM GAS  C:\Users\samue\AppData\Local\Temp\ccJDNHzo.s 			page 55


 506:ZumoLibrary/esp8266_socket.c **** 		break;
 1925              		.loc 1 506 0
 1926 0016 2046     		mov	r0, r4
 1927 0018 FFF7FEFF 		bl	init_counters
 1928              	.LVL239:
 507:ZumoLibrary/esp8266_socket.c **** 	case eExit:
 1929              		.loc 1 507 0
 1930 001c 10BD     		pop	{r4, pc}
 1931              	.LVL240:
 1932              	.L175:
 512:ZumoLibrary/esp8266_socket.c ****         if(ctx->timer == 1) {
 1933              		.loc 1 512 0
 1934 001e 4369     		ldr	r3, [r0, #20]
 1935 0020 0133     		adds	r3, r3, #1
 1936 0022 4361     		str	r3, [r0, #20]
 513:ZumoLibrary/esp8266_socket.c ****             connect_ssid(ctx);
 1937              		.loc 1 513 0
 1938 0024 012B     		cmp	r3, #1
 1939 0026 01D1     		bne	.L178
 514:ZumoLibrary/esp8266_socket.c ****         }
 1940              		.loc 1 514 0
 1941 0028 FFF7FEFF 		bl	connect_ssid
 1942              	.LVL241:
 1943              	.L178:
 516:ZumoLibrary/esp8266_socket.c ****             ctx->timer = 0;
 1944              		.loc 1 516 0
 1945 002c 6369     		ldr	r3, [r4, #20]
 1946 002e 452B     		cmp	r3, #69
 1947 0030 07DD     		ble	.L173
 517:ZumoLibrary/esp8266_socket.c ****         }
 1948              		.loc 1 517 0
 1949 0032 0023     		movs	r3, #0
 1950 0034 6361     		str	r3, [r4, #20]
 1951 0036 10BD     		pop	{r4, pc}
 1952              	.LVL242:
 1953              	.L176:
 521:ZumoLibrary/esp8266_socket.c ****         if(rc == RC_OK) {
 1954              		.loc 1 521 0
 1955 0038 FFF7FEFF 		bl	sm_read_result
 1956              	.LVL243:
 522:ZumoLibrary/esp8266_socket.c ****             //DEBUGP("%d: %s", rc, ctx->buffer);
 1957              		.loc 1 522 0
 1958 003c 08B9     		cbnz	r0, .L173
 524:ZumoLibrary/esp8266_socket.c ****         }
 1959              		.loc 1 524 0
 1960 003e 024B     		ldr	r3, .L180+4
 1961 0040 6360     		str	r3, [r4, #4]
 1962              	.LVL244:
 1963              	.L173:
 1964 0042 10BD     		pop	{r4, pc}
 1965              	.LVL245:
 1966              	.L181:
 1967              		.align	2
 1968              	.L180:
 1969 0044 C4000000 		.word	.LC18
 1970 0048 00000000 		.word	stReady
 1971              		.cfi_endproc
ARM GAS  C:\Users\samue\AppData\Local\Temp\ccJDNHzo.s 			page 56


 1972              	.LFE93:
 1973              		.size	stConnectAP, .-stConnectAP
 1974              		.section	.text.stConnectTCP,"ax",%progbits
 1975              		.align	2
 1976              		.global	stConnectTCP
 1977              		.thumb
 1978              		.thumb_func
 1979              		.type	stConnectTCP, %function
 1980              	stConnectTCP:
 1981              	.LFB96:
 577:ZumoLibrary/esp8266_socket.c ****     int rc;
 1982              		.loc 1 577 0
 1983              		.cfi_startproc
 1984              		@ args = 0, pretend = 0, frame = 0
 1985              		@ frame_needed = 0, uses_anonymous_args = 0
 1986              	.LVL246:
 1987 0000 10B5     		push	{r4, lr}
 1988              		.cfi_def_cfa_offset 8
 1989              		.cfi_offset 4, -8
 1990              		.cfi_offset 14, -4
 1991 0002 0446     		mov	r4, r0
 579:ZumoLibrary/esp8266_socket.c **** 	case eEnter:
 1992              		.loc 1 579 0
 1993 0004 0B78     		ldrb	r3, [r1]	@ zero_extendqisi2
 1994 0006 13B1     		cbz	r3, .L184
 1995 0008 032B     		cmp	r3, #3
 1996 000a 0AD0     		beq	.L185
 1997 000c 10BD     		pop	{r4, pc}
 1998              	.L184:
 581:ZumoLibrary/esp8266_socket.c ****         init_counters(ctx);
 1999              		.loc 1 581 0
 2000 000e 0F48     		ldr	r0, .L188
 2001              	.LVL247:
 2002 0010 FFF7FEFF 		bl	puts
 2003              	.LVL248:
 582:ZumoLibrary/esp8266_socket.c ****         connect_tcp(ctx);
 2004              		.loc 1 582 0
 2005 0014 2046     		mov	r0, r4
 2006 0016 FFF7FEFF 		bl	init_counters
 2007              	.LVL249:
 583:ZumoLibrary/esp8266_socket.c **** 		break;
 2008              		.loc 1 583 0
 2009 001a 2046     		mov	r0, r4
 2010 001c FFF7FEFF 		bl	connect_tcp
 2011              	.LVL250:
 584:ZumoLibrary/esp8266_socket.c **** 	case eExit:
 2012              		.loc 1 584 0
 2013 0020 10BD     		pop	{r4, pc}
 2014              	.LVL251:
 2015              	.L185:
 590:ZumoLibrary/esp8266_socket.c ****         if(rc == RC_OK) {
 2016              		.loc 1 590 0
 2017 0022 FFF7FEFF 		bl	sm_read_result
 2018              	.LVL252:
 591:ZumoLibrary/esp8266_socket.c ****             //DEBUGP("%d: %s", rc, ctx->buffer);
 2019              		.loc 1 591 0
 2020 0026 40B9     		cbnz	r0, .L186
ARM GAS  C:\Users\samue\AppData\Local\Temp\ccJDNHzo.s 			page 57


 593:ZumoLibrary/esp8266_socket.c ****                 TRAN(stPassthrough);
 2021              		.loc 1 593 0
 2022 0028 0949     		ldr	r1, .L188+4
 2023 002a 04F12000 		add	r0, r4, #32
 2024              	.LVL253:
 2025 002e FFF7FEFF 		bl	strstr
 2026              	.LVL254:
 2027 0032 50B1     		cbz	r0, .L182
 594:ZumoLibrary/esp8266_socket.c ****             }
 2028              		.loc 1 594 0
 2029 0034 074B     		ldr	r3, .L188+8
 2030 0036 6360     		str	r3, [r4, #4]
 2031 0038 10BD     		pop	{r4, pc}
 2032              	.LVL255:
 2033              	.L186:
 600:ZumoLibrary/esp8266_socket.c ****             // failed: what to do now?
 2034              		.loc 1 600 0
 2035 003a 0128     		cmp	r0, #1
 2036 003c 05D1     		bne	.L182
 602:ZumoLibrary/esp8266_socket.c ****             connect_tcp(ctx);
 2037              		.loc 1 602 0
 2038 003e 0648     		ldr	r0, .L188+12
 2039              	.LVL256:
 2040 0040 FFF7FEFF 		bl	puts
 2041              	.LVL257:
 603:ZumoLibrary/esp8266_socket.c ****         }
 2042              		.loc 1 603 0
 2043 0044 2046     		mov	r0, r4
 2044 0046 FFF7FEFF 		bl	connect_tcp
 2045              	.LVL258:
 2046              	.L182:
 2047 004a 10BD     		pop	{r4, pc}
 2048              	.LVL259:
 2049              	.L189:
 2050              		.align	2
 2051              	.L188:
 2052 004c D0000000 		.word	.LC19
 2053 0050 E0000000 		.word	.LC20
 2054 0054 00000000 		.word	stPassthrough
 2055 0058 EC000000 		.word	.LC21
 2056              		.cfi_endproc
 2057              	.LFE96:
 2058              		.size	stConnectTCP, .-stConnectTCP
 2059              		.section	.text.stPassthrough,"ax",%progbits
 2060              		.align	2
 2061              		.global	stPassthrough
 2062              		.thumb
 2063              		.thumb_func
 2064              		.type	stPassthrough, %function
 2065              	stPassthrough:
 2066              	.LFB97:
 613:ZumoLibrary/esp8266_socket.c ****     int rc;
 2067              		.loc 1 613 0
 2068              		.cfi_startproc
 2069              		@ args = 0, pretend = 0, frame = 0
 2070              		@ frame_needed = 0, uses_anonymous_args = 0
 2071              	.LVL260:
ARM GAS  C:\Users\samue\AppData\Local\Temp\ccJDNHzo.s 			page 58


 2072 0000 38B5     		push	{r3, r4, r5, lr}
 2073              		.cfi_def_cfa_offset 16
 2074              		.cfi_offset 3, -16
 2075              		.cfi_offset 4, -12
 2076              		.cfi_offset 5, -8
 2077              		.cfi_offset 14, -4
 2078 0002 0546     		mov	r5, r0
 615:ZumoLibrary/esp8266_socket.c **** 	case eEnter:
 2079              		.loc 1 615 0
 2080 0004 0B78     		ldrb	r3, [r1]	@ zero_extendqisi2
 2081 0006 13B1     		cbz	r3, .L192
 2082 0008 032B     		cmp	r3, #3
 2083 000a 13D0     		beq	.L193
 2084 000c 38BD     		pop	{r3, r4, r5, pc}
 2085              	.L192:
 617:ZumoLibrary/esp8266_socket.c ****         init_counters(ctx);
 2086              		.loc 1 617 0
 2087 000e 0C48     		ldr	r0, .L197
 2088              	.LVL261:
 2089 0010 FFF7FEFF 		bl	puts
 2090              	.LVL262:
 618:ZumoLibrary/esp8266_socket.c ****         serial_write_str(ctx, "AT+CIPMODE=1\r\n");
 2091              		.loc 1 618 0
 2092 0014 2846     		mov	r0, r5
 2093 0016 FFF7FEFF 		bl	init_counters
 2094              	.LVL263:
 2095 001a 0A4C     		ldr	r4, .L197+4
 2096 001c 06E0     		b	.L194
 2097              	.LVL264:
 2098              	.L195:
 2099              	.LBB104:
 2100              	.LBB105:
 104:ZumoLibrary/esp8266_socket.c ****         //UART_1_PutChar(*s++);
 2101              		.loc 1 104 0
 2102 001e 0134     		adds	r4, r4, #1
 2103              	.LVL265:
 2104 0020 4FF0FF32 		mov	r2, #-1
 2105 0024 49B2     		sxtb	r1, r1
 2106 0026 2869     		ldr	r0, [r5, #16]
 2107 0028 FFF7FEFF 		bl	xSerialPutChar
 2108              	.LVL266:
 2109              	.L194:
 103:ZumoLibrary/esp8266_socket.c ****         xSerialPutChar(ctx->ComPort,*s++,portMAX_DELAY);
 2110              		.loc 1 103 0
 2111 002c 2178     		ldrb	r1, [r4]	@ zero_extendqisi2
 2112 002e 0029     		cmp	r1, #0
 2113 0030 F5D1     		bne	.L195
 2114 0032 38BD     		pop	{r3, r4, r5, pc}
 2115              	.LVL267:
 2116              	.L193:
 2117              	.LBE105:
 2118              	.LBE104:
 626:ZumoLibrary/esp8266_socket.c ****         if(rc == RC_OK) {
 2119              		.loc 1 626 0
 2120 0034 FFF7FEFF 		bl	sm_read_result
 2121              	.LVL268:
 627:ZumoLibrary/esp8266_socket.c ****             TRAN(stPassthroughOK);
ARM GAS  C:\Users\samue\AppData\Local\Temp\ccJDNHzo.s 			page 59


 2122              		.loc 1 627 0
 2123 0038 08B9     		cbnz	r0, .L190
 628:ZumoLibrary/esp8266_socket.c ****         }
 2124              		.loc 1 628 0
 2125 003a 034B     		ldr	r3, .L197+8
 2126 003c 6B60     		str	r3, [r5, #4]
 2127              	.L190:
 2128 003e 38BD     		pop	{r3, r4, r5, pc}
 2129              	.LVL269:
 2130              	.L198:
 2131              		.align	2
 2132              	.L197:
 2133 0040 0C010000 		.word	.LC23
 2134 0044 FC000000 		.word	.LC22
 2135 0048 00000000 		.word	stPassthroughOK
 2136              		.cfi_endproc
 2137              	.LFE97:
 2138              		.size	stPassthrough, .-stPassthrough
 2139              		.section	.text.stCloseTCP,"ax",%progbits
 2140              		.align	2
 2141              		.global	stCloseTCP
 2142              		.thumb
 2143              		.thumb_func
 2144              		.type	stCloseTCP, %function
 2145              	stCloseTCP:
 2146              	.LFB101:
 733:ZumoLibrary/esp8266_socket.c ****     int rc = -1;
 2147              		.loc 1 733 0
 2148              		.cfi_startproc
 2149              		@ args = 0, pretend = 0, frame = 0
 2150              		@ frame_needed = 0, uses_anonymous_args = 0
 2151              	.LVL270:
 2152 0000 38B5     		push	{r3, r4, r5, lr}
 2153              		.cfi_def_cfa_offset 16
 2154              		.cfi_offset 3, -16
 2155              		.cfi_offset 4, -12
 2156              		.cfi_offset 5, -8
 2157              		.cfi_offset 14, -4
 2158 0002 0546     		mov	r5, r0
 2159              	.LVL271:
 735:ZumoLibrary/esp8266_socket.c **** 	case eEnter:
 2160              		.loc 1 735 0
 2161 0004 0B78     		ldrb	r3, [r1]	@ zero_extendqisi2
 2162 0006 13B1     		cbz	r3, .L201
 2163 0008 032B     		cmp	r3, #3
 2164 000a 13D0     		beq	.L202
 2165 000c 38BD     		pop	{r3, r4, r5, pc}
 2166              	.L201:
 737:ZumoLibrary/esp8266_socket.c ****         init_counters(ctx);
 2167              		.loc 1 737 0
 2168 000e 1748     		ldr	r0, .L209
 2169              	.LVL272:
 2170 0010 FFF7FEFF 		bl	puts
 2171              	.LVL273:
 738:ZumoLibrary/esp8266_socket.c ****         serial_write_str(ctx, "AT+CIPMODE=0\r\n");;
 2172              		.loc 1 738 0
 2173 0014 2846     		mov	r0, r5
ARM GAS  C:\Users\samue\AppData\Local\Temp\ccJDNHzo.s 			page 60


 2174 0016 FFF7FEFF 		bl	init_counters
 2175              	.LVL274:
 2176 001a 154C     		ldr	r4, .L209+4
 2177 001c 06E0     		b	.L203
 2178              	.LVL275:
 2179              	.L204:
 2180              	.LBB106:
 2181              	.LBB107:
 104:ZumoLibrary/esp8266_socket.c ****         //UART_1_PutChar(*s++);
 2182              		.loc 1 104 0
 2183 001e 0134     		adds	r4, r4, #1
 2184              	.LVL276:
 2185 0020 4FF0FF32 		mov	r2, #-1
 2186 0024 49B2     		sxtb	r1, r1
 2187 0026 2869     		ldr	r0, [r5, #16]
 2188 0028 FFF7FEFF 		bl	xSerialPutChar
 2189              	.LVL277:
 2190              	.L203:
 103:ZumoLibrary/esp8266_socket.c ****         xSerialPutChar(ctx->ComPort,*s++,portMAX_DELAY);
 2191              		.loc 1 103 0
 2192 002c 2178     		ldrb	r1, [r4]	@ zero_extendqisi2
 2193 002e 0029     		cmp	r1, #0
 2194 0030 F5D1     		bne	.L204
 2195 0032 38BD     		pop	{r3, r4, r5, pc}
 2196              	.LVL278:
 2197              	.L202:
 2198              	.LBE107:
 2199              	.LBE106:
 742:ZumoLibrary/esp8266_socket.c ****         if(rc == RC_OK) {
 2200              		.loc 1 742 0
 2201 0034 FFF7FEFF 		bl	sm_read_result
 2202              	.LVL279:
 743:ZumoLibrary/esp8266_socket.c ****             if(strstr(ctx->buffer, "CLOSED") != NULL) {
 2203              		.loc 1 743 0
 2204 0038 B8B9     		cbnz	r0, .L199
 744:ZumoLibrary/esp8266_socket.c ****                 TRAN(stReady);
 2205              		.loc 1 744 0
 2206 003a 0E49     		ldr	r1, .L209+8
 2207 003c 05F12000 		add	r0, r5, #32
 2208              	.LVL280:
 2209 0040 FFF7FEFF 		bl	strstr
 2210              	.LVL281:
 2211 0044 10B1     		cbz	r0, .L205
 745:ZumoLibrary/esp8266_socket.c ****             }
 2212              		.loc 1 745 0
 2213 0046 0C4B     		ldr	r3, .L209+12
 2214 0048 6B60     		str	r3, [r5, #4]
 2215 004a 38BD     		pop	{r3, r4, r5, pc}
 2216              	.LVL282:
 2217              	.L205:
 748:ZumoLibrary/esp8266_socket.c ****                 serial_write_str(ctx, "AT+CIPCLOSE\r\n");;
 2218              		.loc 1 748 0
 2219 004c 2846     		mov	r0, r5
 2220 004e FFF7FEFF 		bl	init_counters
 2221              	.LVL283:
 2222 0052 0A4C     		ldr	r4, .L209+16
 2223 0054 06E0     		b	.L206
ARM GAS  C:\Users\samue\AppData\Local\Temp\ccJDNHzo.s 			page 61


 2224              	.LVL284:
 2225              	.L207:
 2226              	.LBB108:
 2227              	.LBB109:
 104:ZumoLibrary/esp8266_socket.c ****         //UART_1_PutChar(*s++);
 2228              		.loc 1 104 0
 2229 0056 0134     		adds	r4, r4, #1
 2230              	.LVL285:
 2231 0058 4FF0FF32 		mov	r2, #-1
 2232 005c 49B2     		sxtb	r1, r1
 2233 005e 2869     		ldr	r0, [r5, #16]
 2234 0060 FFF7FEFF 		bl	xSerialPutChar
 2235              	.LVL286:
 2236              	.L206:
 103:ZumoLibrary/esp8266_socket.c ****         xSerialPutChar(ctx->ComPort,*s++,portMAX_DELAY);
 2237              		.loc 1 103 0
 2238 0064 2178     		ldrb	r1, [r4]	@ zero_extendqisi2
 2239 0066 0029     		cmp	r1, #0
 2240 0068 F5D1     		bne	.L207
 2241              	.LVL287:
 2242              	.L199:
 2243 006a 38BD     		pop	{r3, r4, r5, pc}
 2244              	.LVL288:
 2245              	.L210:
 2246              		.align	2
 2247              	.L209:
 2248 006c 3C010000 		.word	.LC26
 2249 0070 1C010000 		.word	.LC24
 2250 0074 48010000 		.word	.LC27
 2251 0078 00000000 		.word	stReady
 2252 007c 2C010000 		.word	.LC25
 2253              	.LBE109:
 2254              	.LBE108:
 2255              		.cfi_endproc
 2256              	.LFE101:
 2257              		.size	stCloseTCP, .-stCloseTCP
 2258              		.section	.text.sm_wait_for,"ax",%progbits
 2259              		.align	2
 2260              		.global	sm_wait_for
 2261              		.thumb
 2262              		.thumb_func
 2263              		.type	sm_wait_for, %function
 2264              	sm_wait_for:
 2265              	.LFB86:
 326:ZumoLibrary/esp8266_socket.c ****     bool result = false;
 2266              		.loc 1 326 0
 2267              		.cfi_startproc
 2268              		@ args = 0, pretend = 0, frame = 0
 2269              		@ frame_needed = 0, uses_anonymous_args = 0
 2270              	.LVL289:
 2271 0000 2DE9F041 		push	{r4, r5, r6, r7, r8, lr}
 2272              		.cfi_def_cfa_offset 24
 2273              		.cfi_offset 4, -24
 2274              		.cfi_offset 5, -20
 2275              		.cfi_offset 6, -16
 2276              		.cfi_offset 7, -12
 2277              		.cfi_offset 8, -8
ARM GAS  C:\Users\samue\AppData\Local\Temp\ccJDNHzo.s 			page 62


 2278              		.cfi_offset 14, -4
 2279 0004 0446     		mov	r4, r0
 2280 0006 0F46     		mov	r7, r1
 2281              	.LVL290:
 328:ZumoLibrary/esp8266_socket.c **** 
 2282              		.loc 1 328 0
 2283 0008 0846     		mov	r0, r1
 2284              	.LVL291:
 2285 000a FFF7FEFF 		bl	strlen
 2286              	.LVL292:
 2287 000e 8046     		mov	r8, r0
 2288              	.LVL293:
 330:ZumoLibrary/esp8266_socket.c ****         ctx->buffer[ctx->pos] = '\0';
 2289              		.loc 1 330 0
 2290 0010 13E0     		b	.L212
 2291              	.LVL294:
 2292              	.L214:
 331:ZumoLibrary/esp8266_socket.c ****         if(strstr(ctx->buffer, p) != NULL) {
 2293              		.loc 1 331 0
 2294 0012 E569     		ldr	r5, [r4, #28]
 2295 0014 6319     		adds	r3, r4, r5
 2296 0016 0022     		movs	r2, #0
 2297 0018 83F82020 		strb	r2, [r3, #32]
 332:ZumoLibrary/esp8266_socket.c ****             result = true;
 2298              		.loc 1 332 0
 2299 001c 04F12006 		add	r6, r4, #32
 2300 0020 3946     		mov	r1, r7
 2301 0022 3046     		mov	r0, r6
 2302 0024 FFF7FEFF 		bl	strstr
 2303              	.LVL295:
 2304 0028 78B9     		cbnz	r0, .L215
 337:ZumoLibrary/esp8266_socket.c ****             --ctx->pos;
 2305              		.loc 1 337 0
 2306 002a 2A46     		mov	r2, r5
 2307 002c 04F12101 		add	r1, r4, #33
 2308 0030 3046     		mov	r0, r6
 2309 0032 FFF7FEFF 		bl	memmove
 2310              	.LVL296:
 338:ZumoLibrary/esp8266_socket.c ****         }
 2311              		.loc 1 338 0
 2312 0036 013D     		subs	r5, r5, #1
 2313 0038 E561     		str	r5, [r4, #28]
 2314              	.L212:
 330:ZumoLibrary/esp8266_socket.c ****         ctx->buffer[ctx->pos] = '\0';
 2315              		.loc 1 330 0
 2316 003a 4146     		mov	r1, r8
 2317 003c 2046     		mov	r0, r4
 2318 003e FFF7FEFF 		bl	sm_read_buffer
 2319              	.LVL297:
 2320 0042 0028     		cmp	r0, #0
 2321 0044 E5D1     		bne	.L214
 2322 0046 BDE8F081 		pop	{r4, r5, r6, r7, r8, pc}
 2323              	.LVL298:
 2324              	.L215:
 333:ZumoLibrary/esp8266_socket.c ****             break;
 2325              		.loc 1 333 0
 2326 004a 0120     		movs	r0, #1
ARM GAS  C:\Users\samue\AppData\Local\Temp\ccJDNHzo.s 			page 63


 2327              	.LVL299:
 342:ZumoLibrary/esp8266_socket.c **** 
 2328              		.loc 1 342 0
 2329 004c BDE8F081 		pop	{r4, r5, r6, r7, r8, pc}
 2330              		.cfi_endproc
 2331              	.LFE86:
 2332              		.size	sm_wait_for, .-sm_wait_for
 2333              		.section	.text.stInit,"ax",%progbits
 2334              		.align	2
 2335              		.global	stInit
 2336              		.thumb
 2337              		.thumb_func
 2338              		.type	stInit, %function
 2339              	stInit:
 2340              	.LFB87:
 345:ZumoLibrary/esp8266_socket.c **** 	switch(e->ev) {
 2341              		.loc 1 345 0
 2342              		.cfi_startproc
 2343              		@ args = 0, pretend = 0, frame = 0
 2344              		@ frame_needed = 0, uses_anonymous_args = 0
 2345              	.LVL300:
 2346 0000 38B5     		push	{r3, r4, r5, lr}
 2347              		.cfi_def_cfa_offset 16
 2348              		.cfi_offset 3, -16
 2349              		.cfi_offset 4, -12
 2350              		.cfi_offset 5, -8
 2351              		.cfi_offset 14, -4
 2352 0002 0546     		mov	r5, r0
 346:ZumoLibrary/esp8266_socket.c **** 	case eEnter:
 2353              		.loc 1 346 0
 2354 0004 0B78     		ldrb	r3, [r1]	@ zero_extendqisi2
 2355 0006 022B     		cmp	r3, #2
 2356 0008 19D0     		beq	.L219
 2357 000a 032B     		cmp	r3, #3
 2358 000c 37D0     		beq	.L220
 2359 000e 002B     		cmp	r3, #0
 2360 0010 3BD1     		bne	.L217
 348:ZumoLibrary/esp8266_socket.c ****         sm_flush(ctx);
 2361              		.loc 1 348 0
 2362 0012 1E48     		ldr	r0, .L230
 2363              	.LVL301:
 2364 0014 FFF7FEFF 		bl	puts
 2365              	.LVL302:
 349:ZumoLibrary/esp8266_socket.c ****         init_counters(ctx);
 2366              		.loc 1 349 0
 2367 0018 2846     		mov	r0, r5
 2368 001a FFF7FEFF 		bl	sm_flush
 2369              	.LVL303:
 350:ZumoLibrary/esp8266_socket.c ****         serial_write_str(ctx, "AT\r\n");
 2370              		.loc 1 350 0
 2371 001e 2846     		mov	r0, r5
 2372 0020 FFF7FEFF 		bl	init_counters
 2373              	.LVL304:
 2374 0024 1A4C     		ldr	r4, .L230+4
 2375 0026 06E0     		b	.L222
 2376              	.LVL305:
 2377              	.L223:
ARM GAS  C:\Users\samue\AppData\Local\Temp\ccJDNHzo.s 			page 64


 2378              	.LBB110:
 2379              	.LBB111:
 104:ZumoLibrary/esp8266_socket.c ****         //UART_1_PutChar(*s++);
 2380              		.loc 1 104 0
 2381 0028 0134     		adds	r4, r4, #1
 2382              	.LVL306:
 2383 002a 4FF0FF32 		mov	r2, #-1
 2384 002e 49B2     		sxtb	r1, r1
 2385 0030 2869     		ldr	r0, [r5, #16]
 2386 0032 FFF7FEFF 		bl	xSerialPutChar
 2387              	.LVL307:
 2388              	.L222:
 103:ZumoLibrary/esp8266_socket.c ****         xSerialPutChar(ctx->ComPort,*s++,portMAX_DELAY);
 2389              		.loc 1 103 0
 2390 0036 2178     		ldrb	r1, [r4]	@ zero_extendqisi2
 2391 0038 0029     		cmp	r1, #0
 2392 003a F5D1     		bne	.L223
 2393 003c 38BD     		pop	{r3, r4, r5, pc}
 2394              	.LVL308:
 2395              	.L219:
 2396              	.LBE111:
 2397              	.LBE110:
 356:ZumoLibrary/esp8266_socket.c ****         //if(ctx->timer == 5) DEBUGP("[%s]", ctx->buffer);
 2398              		.loc 1 356 0
 2399 003e 4369     		ldr	r3, [r0, #20]
 2400 0040 0133     		adds	r3, r3, #1
 2401 0042 4361     		str	r3, [r0, #20]
 358:ZumoLibrary/esp8266_socket.c ****             ctx->timer = 0;
 2402              		.loc 1 358 0
 2403 0044 092B     		cmp	r3, #9
 2404 0046 20DD     		ble	.L217
 359:ZumoLibrary/esp8266_socket.c ****             ++ctx->count;
 2405              		.loc 1 359 0
 2406 0048 0023     		movs	r3, #0
 2407 004a 4361     		str	r3, [r0, #20]
 360:ZumoLibrary/esp8266_socket.c ****             if(ctx->count < 5) {
 2408              		.loc 1 360 0
 2409 004c 8369     		ldr	r3, [r0, #24]
 2410 004e 0133     		adds	r3, r3, #1
 2411 0050 8361     		str	r3, [r0, #24]
 361:ZumoLibrary/esp8266_socket.c ****                 serial_write_str(ctx, "AT\r\n");
 2412              		.loc 1 361 0
 2413 0052 042B     		cmp	r3, #4
 2414 0054 08DD     		ble	.L227
 2415 0056 0CE0     		b	.L228
 2416              	.LVL309:
 2417              	.L226:
 2418              	.LBB112:
 2419              	.LBB113:
 104:ZumoLibrary/esp8266_socket.c ****         //UART_1_PutChar(*s++);
 2420              		.loc 1 104 0
 2421 0058 0134     		adds	r4, r4, #1
 2422              	.LVL310:
 2423 005a 4FF0FF32 		mov	r2, #-1
 2424 005e 49B2     		sxtb	r1, r1
 2425 0060 2869     		ldr	r0, [r5, #16]
 2426 0062 FFF7FEFF 		bl	xSerialPutChar
ARM GAS  C:\Users\samue\AppData\Local\Temp\ccJDNHzo.s 			page 65


 2427              	.LVL311:
 2428 0066 00E0     		b	.L224
 2429              	.LVL312:
 2430              	.L227:
 2431              	.LBE113:
 2432              	.LBE112:
 2433 0068 094C     		ldr	r4, .L230+4
 2434              	.LVL313:
 2435              	.L224:
 2436              	.LBB115:
 2437              	.LBB114:
 103:ZumoLibrary/esp8266_socket.c ****         xSerialPutChar(ctx->ComPort,*s++,portMAX_DELAY);
 2438              		.loc 1 103 0
 2439 006a 2178     		ldrb	r1, [r4]	@ zero_extendqisi2
 2440 006c 0029     		cmp	r1, #0
 2441 006e F3D1     		bne	.L226
 2442 0070 38BD     		pop	{r3, r4, r5, pc}
 2443              	.LVL314:
 2444              	.L228:
 2445              	.LBE114:
 2446              	.LBE115:
 365:ZumoLibrary/esp8266_socket.c ****                 TRAN(stAT);
 2447              		.loc 1 365 0
 2448 0072 0848     		ldr	r0, .L230+8
 2449              	.LVL315:
 2450 0074 FFF7FEFF 		bl	puts
 2451              	.LVL316:
 366:ZumoLibrary/esp8266_socket.c ****             }
 2452              		.loc 1 366 0
 2453 0078 074B     		ldr	r3, .L230+12
 2454 007a 6B60     		str	r3, [r5, #4]
 2455 007c 38BD     		pop	{r3, r4, r5, pc}
 2456              	.LVL317:
 2457              	.L220:
 371:ZumoLibrary/esp8266_socket.c ****             TRAN(stEchoOff);
 2458              		.loc 1 371 0
 2459 007e 0749     		ldr	r1, .L230+16
 2460              	.LVL318:
 2461 0080 FFF7FEFF 		bl	sm_wait_for
 2462              	.LVL319:
 2463 0084 08B1     		cbz	r0, .L217
 372:ZumoLibrary/esp8266_socket.c ****         }
 2464              		.loc 1 372 0
 2465 0086 064B     		ldr	r3, .L230+20
 2466 0088 6B60     		str	r3, [r5, #4]
 2467              	.L217:
 2468 008a 38BD     		pop	{r3, r4, r5, pc}
 2469              	.LVL320:
 2470              	.L231:
 2471              		.align	2
 2472              	.L230:
 2473 008c 58010000 		.word	.LC29
 2474 0090 50010000 		.word	.LC28
 2475 0094 60010000 		.word	.LC30
 2476 0098 00000000 		.word	stAT
 2477 009c 80010000 		.word	.LC31
 2478 00a0 00000000 		.word	stEchoOff
ARM GAS  C:\Users\samue\AppData\Local\Temp\ccJDNHzo.s 			page 66


 2479              		.cfi_endproc
 2480              	.LFE87:
 2481              		.size	stInit, .-stInit
 2482              		.section	.text.stEchoOff,"ax",%progbits
 2483              		.align	2
 2484              		.global	stEchoOff
 2485              		.thumb
 2486              		.thumb_func
 2487              		.type	stEchoOff, %function
 2488              	stEchoOff:
 2489              	.LFB89:
 402:ZumoLibrary/esp8266_socket.c **** 	switch(e->ev) {
 2490              		.loc 1 402 0
 2491              		.cfi_startproc
 2492              		@ args = 0, pretend = 0, frame = 0
 2493              		@ frame_needed = 0, uses_anonymous_args = 0
 2494              	.LVL321:
 2495 0000 38B5     		push	{r3, r4, r5, lr}
 2496              		.cfi_def_cfa_offset 16
 2497              		.cfi_offset 3, -16
 2498              		.cfi_offset 4, -12
 2499              		.cfi_offset 5, -8
 2500              		.cfi_offset 14, -4
 2501 0002 0546     		mov	r5, r0
 403:ZumoLibrary/esp8266_socket.c **** 	case eEnter:
 2502              		.loc 1 403 0
 2503 0004 0B78     		ldrb	r3, [r1]	@ zero_extendqisi2
 2504 0006 022B     		cmp	r3, #2
 2505 0008 19D0     		beq	.L234
 2506 000a 032B     		cmp	r3, #3
 2507 000c 35D0     		beq	.L235
 2508 000e 002B     		cmp	r3, #0
 2509 0010 39D1     		bne	.L232
 405:ZumoLibrary/esp8266_socket.c ****         sm_flush(ctx);
 2510              		.loc 1 405 0
 2511 0012 1D48     		ldr	r0, .L245
 2512              	.LVL322:
 2513 0014 FFF7FEFF 		bl	puts
 2514              	.LVL323:
 406:ZumoLibrary/esp8266_socket.c ****         init_counters(ctx);
 2515              		.loc 1 406 0
 2516 0018 2846     		mov	r0, r5
 2517 001a FFF7FEFF 		bl	sm_flush
 2518              	.LVL324:
 407:ZumoLibrary/esp8266_socket.c ****         serial_write_str(ctx, "ATE0\r\n");
 2519              		.loc 1 407 0
 2520 001e 2846     		mov	r0, r5
 2521 0020 FFF7FEFF 		bl	init_counters
 2522              	.LVL325:
 2523 0024 194C     		ldr	r4, .L245+4
 2524 0026 06E0     		b	.L237
 2525              	.LVL326:
 2526              	.L238:
 2527              	.LBB116:
 2528              	.LBB117:
 104:ZumoLibrary/esp8266_socket.c ****         //UART_1_PutChar(*s++);
 2529              		.loc 1 104 0
ARM GAS  C:\Users\samue\AppData\Local\Temp\ccJDNHzo.s 			page 67


 2530 0028 0134     		adds	r4, r4, #1
 2531              	.LVL327:
 2532 002a 4FF0FF32 		mov	r2, #-1
 2533 002e 49B2     		sxtb	r1, r1
 2534 0030 2869     		ldr	r0, [r5, #16]
 2535 0032 FFF7FEFF 		bl	xSerialPutChar
 2536              	.LVL328:
 2537              	.L237:
 103:ZumoLibrary/esp8266_socket.c ****         xSerialPutChar(ctx->ComPort,*s++,portMAX_DELAY);
 2538              		.loc 1 103 0
 2539 0036 2178     		ldrb	r1, [r4]	@ zero_extendqisi2
 2540 0038 0029     		cmp	r1, #0
 2541 003a F5D1     		bne	.L238
 2542 003c 38BD     		pop	{r3, r4, r5, pc}
 2543              	.LVL329:
 2544              	.L234:
 2545              	.LBE117:
 2546              	.LBE116:
 413:ZumoLibrary/esp8266_socket.c ****         if(ctx->timer >= 10) {
 2547              		.loc 1 413 0
 2548 003e 4369     		ldr	r3, [r0, #20]
 2549 0040 0133     		adds	r3, r3, #1
 2550 0042 4361     		str	r3, [r0, #20]
 414:ZumoLibrary/esp8266_socket.c ****             ++ctx->count;
 2551              		.loc 1 414 0
 2552 0044 092B     		cmp	r3, #9
 2553 0046 1EDD     		ble	.L232
 415:ZumoLibrary/esp8266_socket.c ****             if(ctx->count < 3) {
 2554              		.loc 1 415 0
 2555 0048 8369     		ldr	r3, [r0, #24]
 2556 004a 0133     		adds	r3, r3, #1
 2557 004c 8361     		str	r3, [r0, #24]
 416:ZumoLibrary/esp8266_socket.c ****                 serial_write_str(ctx, "ATE0\r\n");
 2558              		.loc 1 416 0
 2559 004e 022B     		cmp	r3, #2
 2560 0050 08DD     		ble	.L242
 2561 0052 0CE0     		b	.L243
 2562              	.LVL330:
 2563              	.L241:
 2564              	.LBB118:
 2565              	.LBB119:
 104:ZumoLibrary/esp8266_socket.c ****         //UART_1_PutChar(*s++);
 2566              		.loc 1 104 0
 2567 0054 0134     		adds	r4, r4, #1
 2568              	.LVL331:
 2569 0056 4FF0FF32 		mov	r2, #-1
 2570 005a 49B2     		sxtb	r1, r1
 2571 005c 2869     		ldr	r0, [r5, #16]
 2572 005e FFF7FEFF 		bl	xSerialPutChar
 2573              	.LVL332:
 2574 0062 00E0     		b	.L239
 2575              	.LVL333:
 2576              	.L242:
 2577              	.LBE119:
 2578              	.LBE118:
 2579 0064 094C     		ldr	r4, .L245+4
 2580              	.LVL334:
ARM GAS  C:\Users\samue\AppData\Local\Temp\ccJDNHzo.s 			page 68


 2581              	.L239:
 2582              	.LBB121:
 2583              	.LBB120:
 103:ZumoLibrary/esp8266_socket.c ****         xSerialPutChar(ctx->ComPort,*s++,portMAX_DELAY);
 2584              		.loc 1 103 0
 2585 0066 2178     		ldrb	r1, [r4]	@ zero_extendqisi2
 2586 0068 0029     		cmp	r1, #0
 2587 006a F3D1     		bne	.L241
 2588 006c 38BD     		pop	{r3, r4, r5, pc}
 2589              	.LVL335:
 2590              	.L243:
 2591              	.LBE120:
 2592              	.LBE121:
 420:ZumoLibrary/esp8266_socket.c ****                 TRAN(stInit);
 2593              		.loc 1 420 0
 2594 006e 0848     		ldr	r0, .L245+8
 2595              	.LVL336:
 2596 0070 FFF7FEFF 		bl	puts
 2597              	.LVL337:
 421:ZumoLibrary/esp8266_socket.c ****             }
 2598              		.loc 1 421 0
 2599 0074 074B     		ldr	r3, .L245+12
 2600 0076 6B60     		str	r3, [r5, #4]
 2601 0078 38BD     		pop	{r3, r4, r5, pc}
 2602              	.LVL338:
 2603              	.L235:
 426:ZumoLibrary/esp8266_socket.c ****             TRAN(stStationModeCheck);
 2604              		.loc 1 426 0
 2605 007a 0749     		ldr	r1, .L245+16
 2606              	.LVL339:
 2607 007c FFF7FEFF 		bl	sm_wait_for
 2608              	.LVL340:
 2609 0080 08B1     		cbz	r0, .L232
 427:ZumoLibrary/esp8266_socket.c ****         }
 2610              		.loc 1 427 0
 2611 0082 064B     		ldr	r3, .L245+20
 2612 0084 6B60     		str	r3, [r5, #4]
 2613              	.L232:
 2614 0086 38BD     		pop	{r3, r4, r5, pc}
 2615              	.LVL341:
 2616              	.L246:
 2617              		.align	2
 2618              	.L245:
 2619 0088 90010000 		.word	.LC33
 2620 008c 88010000 		.word	.LC32
 2621 0090 9C010000 		.word	.LC34
 2622 0094 00000000 		.word	stInit
 2623 0098 80010000 		.word	.LC31
 2624 009c 00000000 		.word	stStationModeCheck
 2625              		.cfi_endproc
 2626              	.LFE89:
 2627              		.size	stEchoOff, .-stEchoOff
 2628              		.section	.text.stStationModeSet,"ax",%progbits
 2629              		.align	2
 2630              		.global	stStationModeSet
 2631              		.thumb
 2632              		.thumb_func
ARM GAS  C:\Users\samue\AppData\Local\Temp\ccJDNHzo.s 			page 69


 2633              		.type	stStationModeSet, %function
 2634              	stStationModeSet:
 2635              	.LFB91:
 470:ZumoLibrary/esp8266_socket.c **** 	switch(e->ev) {
 2636              		.loc 1 470 0
 2637              		.cfi_startproc
 2638              		@ args = 0, pretend = 0, frame = 0
 2639              		@ frame_needed = 0, uses_anonymous_args = 0
 2640              	.LVL342:
 2641 0000 38B5     		push	{r3, r4, r5, lr}
 2642              		.cfi_def_cfa_offset 16
 2643              		.cfi_offset 3, -16
 2644              		.cfi_offset 4, -12
 2645              		.cfi_offset 5, -8
 2646              		.cfi_offset 14, -4
 2647 0002 0546     		mov	r5, r0
 471:ZumoLibrary/esp8266_socket.c **** 	case eEnter:
 2648              		.loc 1 471 0
 2649 0004 0B78     		ldrb	r3, [r1]	@ zero_extendqisi2
 2650 0006 13B1     		cbz	r3, .L249
 2651 0008 032B     		cmp	r3, #3
 2652 000a 13D0     		beq	.L250
 2653 000c 38BD     		pop	{r3, r4, r5, pc}
 2654              	.L249:
 473:ZumoLibrary/esp8266_socket.c ****         init_counters(ctx);
 2655              		.loc 1 473 0
 2656 000e 0D48     		ldr	r0, .L254
 2657              	.LVL343:
 2658 0010 FFF7FEFF 		bl	puts
 2659              	.LVL344:
 474:ZumoLibrary/esp8266_socket.c ****         serial_write_str(ctx, "AT+CWMODE_CUR=1\r\n");
 2660              		.loc 1 474 0
 2661 0014 2846     		mov	r0, r5
 2662 0016 FFF7FEFF 		bl	init_counters
 2663              	.LVL345:
 2664 001a 0B4C     		ldr	r4, .L254+4
 2665 001c 06E0     		b	.L251
 2666              	.LVL346:
 2667              	.L252:
 2668              	.LBB122:
 2669              	.LBB123:
 104:ZumoLibrary/esp8266_socket.c ****         //UART_1_PutChar(*s++);
 2670              		.loc 1 104 0
 2671 001e 0134     		adds	r4, r4, #1
 2672              	.LVL347:
 2673 0020 4FF0FF32 		mov	r2, #-1
 2674 0024 49B2     		sxtb	r1, r1
 2675 0026 2869     		ldr	r0, [r5, #16]
 2676 0028 FFF7FEFF 		bl	xSerialPutChar
 2677              	.LVL348:
 2678              	.L251:
 103:ZumoLibrary/esp8266_socket.c ****         xSerialPutChar(ctx->ComPort,*s++,portMAX_DELAY);
 2679              		.loc 1 103 0
 2680 002c 2178     		ldrb	r1, [r4]	@ zero_extendqisi2
 2681 002e 0029     		cmp	r1, #0
 2682 0030 F5D1     		bne	.L252
 2683 0032 38BD     		pop	{r3, r4, r5, pc}
ARM GAS  C:\Users\samue\AppData\Local\Temp\ccJDNHzo.s 			page 70


 2684              	.LVL349:
 2685              	.L250:
 2686              	.LBE123:
 2687              	.LBE122:
 482:ZumoLibrary/esp8266_socket.c ****             TRAN(stStationModeCheck);
 2688              		.loc 1 482 0
 2689 0034 0549     		ldr	r1, .L254+8
 2690              	.LVL350:
 2691 0036 FFF7FEFF 		bl	sm_wait_for
 2692              	.LVL351:
 2693 003a 08B1     		cbz	r0, .L247
 483:ZumoLibrary/esp8266_socket.c ****         }
 2694              		.loc 1 483 0
 2695 003c 044B     		ldr	r3, .L254+12
 2696 003e 6B60     		str	r3, [r5, #4]
 2697              	.L247:
 2698 0040 38BD     		pop	{r3, r4, r5, pc}
 2699              	.LVL352:
 2700              	.L255:
 2701 0042 00BF     		.align	2
 2702              	.L254:
 2703 0044 D8010000 		.word	.LC36
 2704 0048 C4010000 		.word	.LC35
 2705 004c 80010000 		.word	.LC31
 2706 0050 00000000 		.word	stStationModeCheck
 2707              		.cfi_endproc
 2708              	.LFE91:
 2709              		.size	stStationModeSet, .-stStationModeSet
 2710              		.section	.text.stPassthroughOK,"ax",%progbits
 2711              		.align	2
 2712              		.global	stPassthroughOK
 2713              		.thumb
 2714              		.thumb_func
 2715              		.type	stPassthroughOK, %function
 2716              	stPassthroughOK:
 2717              	.LFB98:
 641:ZumoLibrary/esp8266_socket.c **** 	switch(e->ev) {
 2718              		.loc 1 641 0
 2719              		.cfi_startproc
 2720              		@ args = 0, pretend = 0, frame = 0
 2721              		@ frame_needed = 0, uses_anonymous_args = 0
 2722              	.LVL353:
 2723 0000 38B5     		push	{r3, r4, r5, lr}
 2724              		.cfi_def_cfa_offset 16
 2725              		.cfi_offset 3, -16
 2726              		.cfi_offset 4, -12
 2727              		.cfi_offset 5, -8
 2728              		.cfi_offset 14, -4
 2729 0002 0546     		mov	r5, r0
 642:ZumoLibrary/esp8266_socket.c **** 	case eEnter:
 2730              		.loc 1 642 0
 2731 0004 0B78     		ldrb	r3, [r1]	@ zero_extendqisi2
 2732 0006 13B1     		cbz	r3, .L258
 2733 0008 032B     		cmp	r3, #3
 2734 000a 13D0     		beq	.L259
 2735 000c 38BD     		pop	{r3, r4, r5, pc}
 2736              	.L258:
ARM GAS  C:\Users\samue\AppData\Local\Temp\ccJDNHzo.s 			page 71


 644:ZumoLibrary/esp8266_socket.c ****         init_counters(ctx);
 2737              		.loc 1 644 0
 2738 000e 0D48     		ldr	r0, .L263
 2739              	.LVL354:
 2740 0010 FFF7FEFF 		bl	puts
 2741              	.LVL355:
 645:ZumoLibrary/esp8266_socket.c ****         serial_write_str(ctx, "AT+CIPSEND\r\n");
 2742              		.loc 1 645 0
 2743 0014 2846     		mov	r0, r5
 2744 0016 FFF7FEFF 		bl	init_counters
 2745              	.LVL356:
 2746 001a 0B4C     		ldr	r4, .L263+4
 2747 001c 06E0     		b	.L260
 2748              	.LVL357:
 2749              	.L261:
 2750              	.LBB124:
 2751              	.LBB125:
 104:ZumoLibrary/esp8266_socket.c ****         //UART_1_PutChar(*s++);
 2752              		.loc 1 104 0
 2753 001e 0134     		adds	r4, r4, #1
 2754              	.LVL358:
 2755 0020 4FF0FF32 		mov	r2, #-1
 2756 0024 49B2     		sxtb	r1, r1
 2757 0026 2869     		ldr	r0, [r5, #16]
 2758 0028 FFF7FEFF 		bl	xSerialPutChar
 2759              	.LVL359:
 2760              	.L260:
 103:ZumoLibrary/esp8266_socket.c ****         xSerialPutChar(ctx->ComPort,*s++,portMAX_DELAY);
 2761              		.loc 1 103 0
 2762 002c 2178     		ldrb	r1, [r4]	@ zero_extendqisi2
 2763 002e 0029     		cmp	r1, #0
 2764 0030 F5D1     		bne	.L261
 2765 0032 38BD     		pop	{r3, r4, r5, pc}
 2766              	.LVL360:
 2767              	.L259:
 2768              	.LBE125:
 2769              	.LBE124:
 653:ZumoLibrary/esp8266_socket.c ****             TRAN(stConnected);
 2770              		.loc 1 653 0
 2771 0034 0549     		ldr	r1, .L263+8
 2772              	.LVL361:
 2773 0036 FFF7FEFF 		bl	sm_wait_for
 2774              	.LVL362:
 2775 003a 08B1     		cbz	r0, .L256
 654:ZumoLibrary/esp8266_socket.c ****         }
 2776              		.loc 1 654 0
 2777 003c 044B     		ldr	r3, .L263+12
 2778 003e 6B60     		str	r3, [r5, #4]
 2779              	.L256:
 2780 0040 38BD     		pop	{r3, r4, r5, pc}
 2781              	.LVL363:
 2782              	.L264:
 2783 0042 00BF     		.align	2
 2784              	.L263:
 2785 0044 FC010000 		.word	.LC38
 2786 0048 EC010000 		.word	.LC37
 2787 004c 0C020000 		.word	.LC39
ARM GAS  C:\Users\samue\AppData\Local\Temp\ccJDNHzo.s 			page 72


 2788 0050 00000000 		.word	stConnected
 2789              		.cfi_endproc
 2790              	.LFE98:
 2791              		.size	stPassthroughOK, .-stPassthroughOK
 2792              		.section	.text.EspTimerCallback,"ax",%progbits
 2793              		.align	2
 2794              		.global	EspTimerCallback
 2795              		.thumb
 2796              		.thumb_func
 2797              		.type	EspTimerCallback, %function
 2798              	EspTimerCallback:
 2799              	.LFB103:
 886:ZumoLibrary/esp8266_socket.c ****     I_DONT_USE(xTimer);
 2800              		.loc 1 886 0
 2801              		.cfi_startproc
 2802              		@ args = 0, pretend = 0, frame = 0
 2803              		@ frame_needed = 0, uses_anonymous_args = 0
 2804              		@ link register save eliminated.
 2805              	.LVL364:
 2806 0000 7047     		bx	lr
 2807              		.cfi_endproc
 2808              	.LFE103:
 2809              		.size	EspTimerCallback, .-EspTimerCallback
 2810              		.comm	EspSocketInstance,204,4
 2811 0002 00BF     		.section	.rodata
 2812              		.align	2
 2813              		.set	.LANCHOR0,. + 0
 2814              		.type	evExit, %object
 2815              		.size	evExit, 16
 2816              	evExit:
 2817 0000 01       		.byte	1
 2818 0001 000000   		.space	3
 2819 0004 00000000 		.word	0
 2820 0008 00000000 		.word	0
 2821 000c 00000000 		.word	0
 2822              		.type	evEnter, %object
 2823              		.size	evEnter, 16
 2824              	evEnter:
 2825 0010 00000000 		.space	16
 2825      00000000 
 2825      00000000 
 2825      00000000 
 2826              		.data
 2827              		.align	2
 2828              		.set	.LANCHOR1,. + 0
 2829              		.type	result_list.9155, %object
 2830              		.size	result_list.9155, 12
 2831              	result_list.9155:
 2832 0000 80010000 		.word	.LC31
 2833 0004 10020000 		.word	.LC40
 2834 0008 00000000 		.word	0
 2835              		.section	.rodata.str1.4,"aMS",%progbits,1
 2836              		.align	2
 2837              	.LC0:
 2838 0000 41542B43 		.ascii	"AT+CWJAP_CUR=\"\000"
 2838      574A4150 
 2838      5F435552 
ARM GAS  C:\Users\samue\AppData\Local\Temp\ccJDNHzo.s 			page 73


 2838      3D2200
 2839 000f 00       		.space	1
 2840              	.LC1:
 2841 0010 222C2200 		.ascii	"\",\"\000"
 2842              	.LC2:
 2843 0014 220D0A00 		.ascii	"\"\015\012\000"
 2844              	.LC3:
 2845 0018 41542B43 		.ascii	"AT+CIPSTART=\"TCP\",\"\000"
 2845      49505354 
 2845      4152543D 
 2845      22544350 
 2845      222C2200 
 2846              	.LC4:
 2847 002c 222C00   		.ascii	"\",\000"
 2848 002f 00       		.space	1
 2849              	.LC5:
 2850 0030 0D0A00   		.ascii	"\015\012\000"
 2851 0033 00       		.space	1
 2852              	.LC6:
 2853 0034 4553505F 		.ascii	"ESP_sock\000"
 2853      736F636B 
 2853      00
 2854 003d 000000   		.space	3
 2855              	.LC7:
 2856 0040 4553505F 		.ascii	"ESP_rxe\000"
 2856      72786500 
 2857              	.LC8:
 2858 0048 4553505F 		.ascii	"ESP_tick\000"
 2858      7469636B 
 2858      00
 2859 0051 000000   		.space	3
 2860              	.LC9:
 2861 0054 2B2B2B00 		.ascii	"+++\000"
 2862              	.LC10:
 2863 0058 73744154 		.ascii	"stAT\000"
 2863      00
 2864 005d 000000   		.space	3
 2865              	.LC11:
 2866 0060 73745265 		.ascii	"stReady\000"
 2866      61647900 
 2867              	.LC12:
 2868 0068 7374436F 		.ascii	"stConnected\000"
 2868      6E6E6563 
 2868      74656400 
 2869              	.LC13:
 2870 0074 7374436F 		.ascii	"stCommandMode\000"
 2870      6D6D616E 
 2870      644D6F64 
 2870      6500
 2871 0082 0000     		.space	2
 2872              	.LC14:
 2873 0084 41542B43 		.ascii	"AT+CWMODE_CUR?\015\012\000"
 2873      574D4F44 
 2873      455F4355 
 2873      523F0D0A 
 2873      00
 2874 0095 000000   		.space	3
ARM GAS  C:\Users\samue\AppData\Local\Temp\ccJDNHzo.s 			page 74


 2875              	.LC15:
 2876 0098 73745374 		.ascii	"stStationModeCheck\000"
 2876      6174696F 
 2876      6E4D6F64 
 2876      65436865 
 2876      636B00
 2877 00ab 00       		.space	1
 2878              	.LC16:
 2879 00ac 25643A20 		.ascii	"%d: %s\000"
 2879      257300
 2880 00b3 00       		.space	1
 2881              	.LC17:
 2882 00b4 2B43574D 		.ascii	"+CWMODE_CUR:1\015\012\000"
 2882      4F44455F 
 2882      4355523A 
 2882      310D0A00 
 2883              	.LC18:
 2884 00c4 7374436F 		.ascii	"stConnectAP\000"
 2884      6E6E6563 
 2884      74415000 
 2885              	.LC19:
 2886 00d0 7374436F 		.ascii	"stConnectTCP\000"
 2886      6E6E6563 
 2886      74544350 
 2886      00
 2887 00dd 000000   		.space	3
 2888              	.LC20:
 2889 00e0 434F4E4E 		.ascii	"CONNECT\015\012\000"
 2889      4543540D 
 2889      0A00
 2890 00ea 0000     		.space	2
 2891              	.LC21:
 2892 00ec 436F6E6E 		.ascii	"Connect failed\000"
 2892      65637420 
 2892      6661696C 
 2892      656400
 2893 00fb 00       		.space	1
 2894              	.LC22:
 2895 00fc 41542B43 		.ascii	"AT+CIPMODE=1\015\012\000"
 2895      49504D4F 
 2895      44453D31 
 2895      0D0A00
 2896 010b 00       		.space	1
 2897              	.LC23:
 2898 010c 73745061 		.ascii	"stPassthrough\000"
 2898      73737468 
 2898      726F7567 
 2898      6800
 2899 011a 0000     		.space	2
 2900              	.LC24:
 2901 011c 41542B43 		.ascii	"AT+CIPMODE=0\015\012\000"
 2901      49504D4F 
 2901      44453D30 
 2901      0D0A00
 2902 012b 00       		.space	1
 2903              	.LC25:
 2904 012c 41542B43 		.ascii	"AT+CIPCLOSE\015\012\000"
ARM GAS  C:\Users\samue\AppData\Local\Temp\ccJDNHzo.s 			page 75


 2904      4950434C 
 2904      4F53450D 
 2904      0A00
 2905 013a 0000     		.space	2
 2906              	.LC26:
 2907 013c 7374436C 		.ascii	"stCloseTCP\000"
 2907      6F736554 
 2907      435000
 2908 0147 00       		.space	1
 2909              	.LC27:
 2910 0148 434C4F53 		.ascii	"CLOSED\000"
 2910      454400
 2911 014f 00       		.space	1
 2912              	.LC28:
 2913 0150 41540D0A 		.ascii	"AT\015\012\000"
 2913      00
 2914 0155 000000   		.space	3
 2915              	.LC29:
 2916 0158 7374496E 		.ascii	"stInit\000"
 2916      697400
 2917 015f 00       		.space	1
 2918              	.LC30:
 2919 0160 4572726F 		.ascii	"Error: Module not responding\000"
 2919      723A204D 
 2919      6F64756C 
 2919      65206E6F 
 2919      74207265 
 2920 017d 000000   		.space	3
 2921              	.LC31:
 2922 0180 4F4B0D0A 		.ascii	"OK\015\012\000"
 2922      00
 2923 0185 000000   		.space	3
 2924              	.LC32:
 2925 0188 41544530 		.ascii	"ATE0\015\012\000"
 2925      0D0A00
 2926 018f 00       		.space	1
 2927              	.LC33:
 2928 0190 73744563 		.ascii	"stEchoOff\000"
 2928      686F4F66 
 2928      6600
 2929 019a 0000     		.space	2
 2930              	.LC34:
 2931 019c 4572726F 		.ascii	"Error: setting local echo off failed\000"
 2931      723A2073 
 2931      65747469 
 2931      6E67206C 
 2931      6F63616C 
 2932 01c1 000000   		.space	3
 2933              	.LC35:
 2934 01c4 41542B43 		.ascii	"AT+CWMODE_CUR=1\015\012\000"
 2934      574D4F44 
 2934      455F4355 
 2934      523D310D 
 2934      0A00
 2935 01d6 0000     		.space	2
 2936              	.LC36:
 2937 01d8 73745374 		.ascii	"stStationModeSet\000"
ARM GAS  C:\Users\samue\AppData\Local\Temp\ccJDNHzo.s 			page 76


 2937      6174696F 
 2937      6E4D6F64 
 2937      65536574 
 2937      00
 2938 01e9 000000   		.space	3
 2939              	.LC37:
 2940 01ec 41542B43 		.ascii	"AT+CIPSEND\015\012\000"
 2940      49505345 
 2940      4E440D0A 
 2940      00
 2941 01f9 000000   		.space	3
 2942              	.LC38:
 2943 01fc 73745061 		.ascii	"stPassthroughOK\000"
 2943      73737468 
 2943      726F7567 
 2943      684F4B00 
 2944              	.LC39:
 2945 020c 3E00     		.ascii	">\000"
 2946 020e 0000     		.space	2
 2947              	.LC40:
 2948 0210 4552524F 		.ascii	"ERROR\015\012\000"
 2948      520D0A00 
 2949              		.text
 2950              	.Letext0:
 2951              		.file 2 "c:\\program files (x86)\\cypress\\psoc creator\\4.2\\psoc creator\\import\\gnu\\arm\\5.4.
 2952              		.file 3 "c:\\program files (x86)\\cypress\\psoc creator\\4.2\\psoc creator\\import\\gnu\\arm\\5.4.
 2953              		.file 4 "..\\FreeRTOS\\Source\\portable\\GCC\\ARM_CM3/portmacro.h"
 2954              		.file 5 "..\\FreeRTOS\\Source\\include/queue.h"
 2955              		.file 6 "..\\FreeRTOS\\Source\\include/semphr.h"
 2956              		.file 7 "..\\FreeRTOS\\Source\\include/timers.h"
 2957              		.file 8 "ZumoLibrary\\serial.h"
 2958              		.file 9 "c:\\program files (x86)\\cypress\\psoc creator\\4.2\\psoc creator\\import\\gnu\\arm\\5.4.
 2959              		.file 10 "Generated_Source\\PSoC5/core_cm3.h"
 2960              		.file 11 "..\\FreeRTOS\\Source\\include/task.h"
 2961              		.file 12 "Generated_Source\\PSoC5/RST_E.h"
 2962              		.file 13 "c:\\program files (x86)\\cypress\\psoc creator\\4.2\\psoc creator\\import\\gnu\\arm\\5.4
 2963              		.file 14 "c:\\program files (x86)\\cypress\\psoc creator\\4.2\\psoc creator\\import\\gnu\\arm\\5.4
 2964              		.file 15 "c:\\program files (x86)\\cypress\\psoc creator\\4.2\\psoc creator\\import\\gnu\\arm\\5.4
 2965              		.file 16 "<built-in>"