ARM GAS  C:\Users\samue\AppData\Local\Temp\ccR5T69m.s 			page 1


   1              		.syntax unified
   2              		.cpu cortex-m3
   3              		.fpu softvfp
   4              		.eabi_attribute 20, 1
   5              		.eabi_attribute 21, 1
   6              		.eabi_attribute 23, 3
   7              		.eabi_attribute 24, 1
   8              		.eabi_attribute 25, 1
   9              		.eabi_attribute 26, 1
  10              		.eabi_attribute 30, 1
  11              		.eabi_attribute 34, 1
  12              		.eabi_attribute 18, 4
  13              		.thumb
  14              		.syntax unified
  15              		.file	"event_groups.c"
  16              		.text
  17              	.Ltext0:
  18              		.cfi_sections	.debug_frame
  19              		.section	.text.prvTestWaitCondition,"ax",%progbits
  20              		.align	2
  21              		.thumb
  22              		.thumb_func
  23              		.type	prvTestWaitCondition, %function
  24              	prvTestWaitCondition:
  25              	.LFB77:
  26              		.file 1 "..\\FreeRTOS\\Source\\event_groups.c"
   1:..\FreeRTOS\Source/event_groups.c **** /*
   2:..\FreeRTOS\Source/event_groups.c ****  * FreeRTOS Kernel V10.0.1
   3:..\FreeRTOS\Source/event_groups.c ****  * Copyright (C) 2017 Amazon.com, Inc. or its affiliates.  All Rights Reserved.
   4:..\FreeRTOS\Source/event_groups.c ****  *
   5:..\FreeRTOS\Source/event_groups.c ****  * Permission is hereby granted, free of charge, to any person obtaining a copy of
   6:..\FreeRTOS\Source/event_groups.c ****  * this software and associated documentation files (the "Software"), to deal in
   7:..\FreeRTOS\Source/event_groups.c ****  * the Software without restriction, including without limitation the rights to
   8:..\FreeRTOS\Source/event_groups.c ****  * use, copy, modify, merge, publish, distribute, sublicense, and/or sell copies of
   9:..\FreeRTOS\Source/event_groups.c ****  * the Software, and to permit persons to whom the Software is furnished to do so,
  10:..\FreeRTOS\Source/event_groups.c ****  * subject to the following conditions:
  11:..\FreeRTOS\Source/event_groups.c ****  *
  12:..\FreeRTOS\Source/event_groups.c ****  * The above copyright notice and this permission notice shall be included in all
  13:..\FreeRTOS\Source/event_groups.c ****  * copies or substantial portions of the Software.
  14:..\FreeRTOS\Source/event_groups.c ****  *
  15:..\FreeRTOS\Source/event_groups.c ****  * THE SOFTWARE IS PROVIDED "AS IS", WITHOUT WARRANTY OF ANY KIND, EXPRESS OR
  16:..\FreeRTOS\Source/event_groups.c ****  * IMPLIED, INCLUDING BUT NOT LIMITED TO THE WARRANTIES OF MERCHANTABILITY, FITNESS
  17:..\FreeRTOS\Source/event_groups.c ****  * FOR A PARTICULAR PURPOSE AND NONINFRINGEMENT. IN NO EVENT SHALL THE AUTHORS OR
  18:..\FreeRTOS\Source/event_groups.c ****  * COPYRIGHT HOLDERS BE LIABLE FOR ANY CLAIM, DAMAGES OR OTHER LIABILITY, WHETHER
  19:..\FreeRTOS\Source/event_groups.c ****  * IN AN ACTION OF CONTRACT, TORT OR OTHERWISE, ARISING FROM, OUT OF OR IN
  20:..\FreeRTOS\Source/event_groups.c ****  * CONNECTION WITH THE SOFTWARE OR THE USE OR OTHER DEALINGS IN THE SOFTWARE.
  21:..\FreeRTOS\Source/event_groups.c ****  *
  22:..\FreeRTOS\Source/event_groups.c ****  * http://www.FreeRTOS.org
  23:..\FreeRTOS\Source/event_groups.c ****  * http://aws.amazon.com/freertos
  24:..\FreeRTOS\Source/event_groups.c ****  *
  25:..\FreeRTOS\Source/event_groups.c ****  * 1 tab == 4 spaces!
  26:..\FreeRTOS\Source/event_groups.c ****  */
  27:..\FreeRTOS\Source/event_groups.c **** 
  28:..\FreeRTOS\Source/event_groups.c **** /* Standard includes. */
  29:..\FreeRTOS\Source/event_groups.c **** #include <stdlib.h>
  30:..\FreeRTOS\Source/event_groups.c **** 
  31:..\FreeRTOS\Source/event_groups.c **** /* Defining MPU_WRAPPERS_INCLUDED_FROM_API_FILE prevents task.h from redefining
ARM GAS  C:\Users\samue\AppData\Local\Temp\ccR5T69m.s 			page 2


  32:..\FreeRTOS\Source/event_groups.c **** all the API functions to use the MPU wrappers.  That should only be done when
  33:..\FreeRTOS\Source/event_groups.c **** task.h is included from an application file. */
  34:..\FreeRTOS\Source/event_groups.c **** #define MPU_WRAPPERS_INCLUDED_FROM_API_FILE
  35:..\FreeRTOS\Source/event_groups.c **** 
  36:..\FreeRTOS\Source/event_groups.c **** /* FreeRTOS includes. */
  37:..\FreeRTOS\Source/event_groups.c **** #include "FreeRTOS.h"
  38:..\FreeRTOS\Source/event_groups.c **** #include "task.h"
  39:..\FreeRTOS\Source/event_groups.c **** #include "timers.h"
  40:..\FreeRTOS\Source/event_groups.c **** #include "event_groups.h"
  41:..\FreeRTOS\Source/event_groups.c **** 
  42:..\FreeRTOS\Source/event_groups.c **** /* Lint e961 and e750 are suppressed as a MISRA exception justified because the
  43:..\FreeRTOS\Source/event_groups.c **** MPU ports require MPU_WRAPPERS_INCLUDED_FROM_API_FILE to be defined for the
  44:..\FreeRTOS\Source/event_groups.c **** header files above, but not in this file, in order to generate the correct
  45:..\FreeRTOS\Source/event_groups.c **** privileged Vs unprivileged linkage and placement. */
  46:..\FreeRTOS\Source/event_groups.c **** #undef MPU_WRAPPERS_INCLUDED_FROM_API_FILE /*lint !e961 !e750. */
  47:..\FreeRTOS\Source/event_groups.c **** 
  48:..\FreeRTOS\Source/event_groups.c **** /* The following bit fields convey control information in a task's event list
  49:..\FreeRTOS\Source/event_groups.c **** item value.  It is important they don't clash with the
  50:..\FreeRTOS\Source/event_groups.c **** taskEVENT_LIST_ITEM_VALUE_IN_USE definition. */
  51:..\FreeRTOS\Source/event_groups.c **** #if configUSE_16_BIT_TICKS == 1
  52:..\FreeRTOS\Source/event_groups.c **** 	#define eventCLEAR_EVENTS_ON_EXIT_BIT	0x0100U
  53:..\FreeRTOS\Source/event_groups.c **** 	#define eventUNBLOCKED_DUE_TO_BIT_SET	0x0200U
  54:..\FreeRTOS\Source/event_groups.c **** 	#define eventWAIT_FOR_ALL_BITS			0x0400U
  55:..\FreeRTOS\Source/event_groups.c **** 	#define eventEVENT_BITS_CONTROL_BYTES	0xff00U
  56:..\FreeRTOS\Source/event_groups.c **** #else
  57:..\FreeRTOS\Source/event_groups.c **** 	#define eventCLEAR_EVENTS_ON_EXIT_BIT	0x01000000UL
  58:..\FreeRTOS\Source/event_groups.c **** 	#define eventUNBLOCKED_DUE_TO_BIT_SET	0x02000000UL
  59:..\FreeRTOS\Source/event_groups.c **** 	#define eventWAIT_FOR_ALL_BITS			0x04000000UL
  60:..\FreeRTOS\Source/event_groups.c **** 	#define eventEVENT_BITS_CONTROL_BYTES	0xff000000UL
  61:..\FreeRTOS\Source/event_groups.c **** #endif
  62:..\FreeRTOS\Source/event_groups.c **** 
  63:..\FreeRTOS\Source/event_groups.c **** typedef struct xEventGroupDefinition
  64:..\FreeRTOS\Source/event_groups.c **** {
  65:..\FreeRTOS\Source/event_groups.c **** 	EventBits_t uxEventBits;
  66:..\FreeRTOS\Source/event_groups.c **** 	List_t xTasksWaitingForBits;		/*< List of tasks waiting for a bit to be set. */
  67:..\FreeRTOS\Source/event_groups.c **** 
  68:..\FreeRTOS\Source/event_groups.c **** 	#if( configUSE_TRACE_FACILITY == 1 )
  69:..\FreeRTOS\Source/event_groups.c **** 		UBaseType_t uxEventGroupNumber;
  70:..\FreeRTOS\Source/event_groups.c **** 	#endif
  71:..\FreeRTOS\Source/event_groups.c **** 
  72:..\FreeRTOS\Source/event_groups.c **** 	#if( ( configSUPPORT_STATIC_ALLOCATION == 1 ) && ( configSUPPORT_DYNAMIC_ALLOCATION == 1 ) )
  73:..\FreeRTOS\Source/event_groups.c **** 		uint8_t ucStaticallyAllocated; /*< Set to pdTRUE if the event group is statically allocated to en
  74:..\FreeRTOS\Source/event_groups.c **** 	#endif
  75:..\FreeRTOS\Source/event_groups.c **** } EventGroup_t;
  76:..\FreeRTOS\Source/event_groups.c **** 
  77:..\FreeRTOS\Source/event_groups.c **** /*-----------------------------------------------------------*/
  78:..\FreeRTOS\Source/event_groups.c **** 
  79:..\FreeRTOS\Source/event_groups.c **** /*
  80:..\FreeRTOS\Source/event_groups.c ****  * Test the bits set in uxCurrentEventBits to see if the wait condition is met.
  81:..\FreeRTOS\Source/event_groups.c ****  * The wait condition is defined by xWaitForAllBits.  If xWaitForAllBits is
  82:..\FreeRTOS\Source/event_groups.c ****  * pdTRUE then the wait condition is met if all the bits set in uxBitsToWaitFor
  83:..\FreeRTOS\Source/event_groups.c ****  * are also set in uxCurrentEventBits.  If xWaitForAllBits is pdFALSE then the
  84:..\FreeRTOS\Source/event_groups.c ****  * wait condition is met if any of the bits set in uxBitsToWait for are also set
  85:..\FreeRTOS\Source/event_groups.c ****  * in uxCurrentEventBits.
  86:..\FreeRTOS\Source/event_groups.c ****  */
  87:..\FreeRTOS\Source/event_groups.c **** static BaseType_t prvTestWaitCondition( const EventBits_t uxCurrentEventBits, const EventBits_t uxB
  88:..\FreeRTOS\Source/event_groups.c **** 
ARM GAS  C:\Users\samue\AppData\Local\Temp\ccR5T69m.s 			page 3


  89:..\FreeRTOS\Source/event_groups.c **** /*-----------------------------------------------------------*/
  90:..\FreeRTOS\Source/event_groups.c **** 
  91:..\FreeRTOS\Source/event_groups.c **** #if( configSUPPORT_STATIC_ALLOCATION == 1 )
  92:..\FreeRTOS\Source/event_groups.c **** 
  93:..\FreeRTOS\Source/event_groups.c **** 	EventGroupHandle_t xEventGroupCreateStatic( StaticEventGroup_t *pxEventGroupBuffer )
  94:..\FreeRTOS\Source/event_groups.c **** 	{
  95:..\FreeRTOS\Source/event_groups.c **** 	EventGroup_t *pxEventBits;
  96:..\FreeRTOS\Source/event_groups.c **** 
  97:..\FreeRTOS\Source/event_groups.c **** 		/* A StaticEventGroup_t object must be provided. */
  98:..\FreeRTOS\Source/event_groups.c **** 		configASSERT( pxEventGroupBuffer );
  99:..\FreeRTOS\Source/event_groups.c **** 
 100:..\FreeRTOS\Source/event_groups.c **** 		#if( configASSERT_DEFINED == 1 )
 101:..\FreeRTOS\Source/event_groups.c **** 		{
 102:..\FreeRTOS\Source/event_groups.c **** 			/* Sanity check that the size of the structure used to declare a
 103:..\FreeRTOS\Source/event_groups.c **** 			variable of type StaticEventGroup_t equals the size of the real
 104:..\FreeRTOS\Source/event_groups.c **** 			event group structure. */
 105:..\FreeRTOS\Source/event_groups.c **** 			volatile size_t xSize = sizeof( StaticEventGroup_t );
 106:..\FreeRTOS\Source/event_groups.c **** 			configASSERT( xSize == sizeof( EventGroup_t ) );
 107:..\FreeRTOS\Source/event_groups.c **** 		}
 108:..\FreeRTOS\Source/event_groups.c **** 		#endif /* configASSERT_DEFINED */
 109:..\FreeRTOS\Source/event_groups.c **** 
 110:..\FreeRTOS\Source/event_groups.c **** 		/* The user has provided a statically allocated event group - use it. */
 111:..\FreeRTOS\Source/event_groups.c **** 		pxEventBits = ( EventGroup_t * ) pxEventGroupBuffer; /*lint !e740 EventGroup_t and StaticEventGro
 112:..\FreeRTOS\Source/event_groups.c **** 
 113:..\FreeRTOS\Source/event_groups.c **** 		if( pxEventBits != NULL )
 114:..\FreeRTOS\Source/event_groups.c **** 		{
 115:..\FreeRTOS\Source/event_groups.c **** 			pxEventBits->uxEventBits = 0;
 116:..\FreeRTOS\Source/event_groups.c **** 			vListInitialise( &( pxEventBits->xTasksWaitingForBits ) );
 117:..\FreeRTOS\Source/event_groups.c **** 
 118:..\FreeRTOS\Source/event_groups.c **** 			#if( configSUPPORT_DYNAMIC_ALLOCATION == 1 )
 119:..\FreeRTOS\Source/event_groups.c **** 			{
 120:..\FreeRTOS\Source/event_groups.c **** 				/* Both static and dynamic allocation can be used, so note that
 121:..\FreeRTOS\Source/event_groups.c **** 				this event group was created statically in case the event group
 122:..\FreeRTOS\Source/event_groups.c **** 				is later deleted. */
 123:..\FreeRTOS\Source/event_groups.c **** 				pxEventBits->ucStaticallyAllocated = pdTRUE;
 124:..\FreeRTOS\Source/event_groups.c **** 			}
 125:..\FreeRTOS\Source/event_groups.c **** 			#endif /* configSUPPORT_DYNAMIC_ALLOCATION */
 126:..\FreeRTOS\Source/event_groups.c **** 
 127:..\FreeRTOS\Source/event_groups.c **** 			traceEVENT_GROUP_CREATE( pxEventBits );
 128:..\FreeRTOS\Source/event_groups.c **** 		}
 129:..\FreeRTOS\Source/event_groups.c **** 		else
 130:..\FreeRTOS\Source/event_groups.c **** 		{
 131:..\FreeRTOS\Source/event_groups.c **** 			traceEVENT_GROUP_CREATE_FAILED();
 132:..\FreeRTOS\Source/event_groups.c **** 		}
 133:..\FreeRTOS\Source/event_groups.c **** 
 134:..\FreeRTOS\Source/event_groups.c **** 		return ( EventGroupHandle_t ) pxEventBits;
 135:..\FreeRTOS\Source/event_groups.c **** 	}
 136:..\FreeRTOS\Source/event_groups.c **** 
 137:..\FreeRTOS\Source/event_groups.c **** #endif /* configSUPPORT_STATIC_ALLOCATION */
 138:..\FreeRTOS\Source/event_groups.c **** /*-----------------------------------------------------------*/
 139:..\FreeRTOS\Source/event_groups.c **** 
 140:..\FreeRTOS\Source/event_groups.c **** #if( configSUPPORT_DYNAMIC_ALLOCATION == 1 )
 141:..\FreeRTOS\Source/event_groups.c **** 
 142:..\FreeRTOS\Source/event_groups.c **** 	EventGroupHandle_t xEventGroupCreate( void )
 143:..\FreeRTOS\Source/event_groups.c **** 	{
 144:..\FreeRTOS\Source/event_groups.c **** 	EventGroup_t *pxEventBits;
 145:..\FreeRTOS\Source/event_groups.c **** 
ARM GAS  C:\Users\samue\AppData\Local\Temp\ccR5T69m.s 			page 4


 146:..\FreeRTOS\Source/event_groups.c **** 		/* Allocate the event group. */
 147:..\FreeRTOS\Source/event_groups.c **** 		pxEventBits = ( EventGroup_t * ) pvPortMalloc( sizeof( EventGroup_t ) );
 148:..\FreeRTOS\Source/event_groups.c **** 
 149:..\FreeRTOS\Source/event_groups.c **** 		if( pxEventBits != NULL )
 150:..\FreeRTOS\Source/event_groups.c **** 		{
 151:..\FreeRTOS\Source/event_groups.c **** 			pxEventBits->uxEventBits = 0;
 152:..\FreeRTOS\Source/event_groups.c **** 			vListInitialise( &( pxEventBits->xTasksWaitingForBits ) );
 153:..\FreeRTOS\Source/event_groups.c **** 
 154:..\FreeRTOS\Source/event_groups.c **** 			#if( configSUPPORT_STATIC_ALLOCATION == 1 )
 155:..\FreeRTOS\Source/event_groups.c **** 			{
 156:..\FreeRTOS\Source/event_groups.c **** 				/* Both static and dynamic allocation can be used, so note this
 157:..\FreeRTOS\Source/event_groups.c **** 				event group was allocated statically in case the event group is
 158:..\FreeRTOS\Source/event_groups.c **** 				later deleted. */
 159:..\FreeRTOS\Source/event_groups.c **** 				pxEventBits->ucStaticallyAllocated = pdFALSE;
 160:..\FreeRTOS\Source/event_groups.c **** 			}
 161:..\FreeRTOS\Source/event_groups.c **** 			#endif /* configSUPPORT_STATIC_ALLOCATION */
 162:..\FreeRTOS\Source/event_groups.c **** 
 163:..\FreeRTOS\Source/event_groups.c **** 			traceEVENT_GROUP_CREATE( pxEventBits );
 164:..\FreeRTOS\Source/event_groups.c **** 		}
 165:..\FreeRTOS\Source/event_groups.c **** 		else
 166:..\FreeRTOS\Source/event_groups.c **** 		{
 167:..\FreeRTOS\Source/event_groups.c **** 			traceEVENT_GROUP_CREATE_FAILED();
 168:..\FreeRTOS\Source/event_groups.c **** 		}
 169:..\FreeRTOS\Source/event_groups.c **** 
 170:..\FreeRTOS\Source/event_groups.c **** 		return ( EventGroupHandle_t ) pxEventBits;
 171:..\FreeRTOS\Source/event_groups.c **** 	}
 172:..\FreeRTOS\Source/event_groups.c **** 
 173:..\FreeRTOS\Source/event_groups.c **** #endif /* configSUPPORT_DYNAMIC_ALLOCATION */
 174:..\FreeRTOS\Source/event_groups.c **** /*-----------------------------------------------------------*/
 175:..\FreeRTOS\Source/event_groups.c **** 
 176:..\FreeRTOS\Source/event_groups.c **** EventBits_t xEventGroupSync( EventGroupHandle_t xEventGroup, const EventBits_t uxBitsToSet, const E
 177:..\FreeRTOS\Source/event_groups.c **** {
 178:..\FreeRTOS\Source/event_groups.c **** EventBits_t uxOriginalBitValue, uxReturn;
 179:..\FreeRTOS\Source/event_groups.c **** EventGroup_t *pxEventBits = ( EventGroup_t * ) xEventGroup;
 180:..\FreeRTOS\Source/event_groups.c **** BaseType_t xAlreadyYielded;
 181:..\FreeRTOS\Source/event_groups.c **** BaseType_t xTimeoutOccurred = pdFALSE;
 182:..\FreeRTOS\Source/event_groups.c **** 
 183:..\FreeRTOS\Source/event_groups.c **** 	configASSERT( ( uxBitsToWaitFor & eventEVENT_BITS_CONTROL_BYTES ) == 0 );
 184:..\FreeRTOS\Source/event_groups.c **** 	configASSERT( uxBitsToWaitFor != 0 );
 185:..\FreeRTOS\Source/event_groups.c **** 	#if ( ( INCLUDE_xTaskGetSchedulerState == 1 ) || ( configUSE_TIMERS == 1 ) )
 186:..\FreeRTOS\Source/event_groups.c **** 	{
 187:..\FreeRTOS\Source/event_groups.c **** 		configASSERT( !( ( xTaskGetSchedulerState() == taskSCHEDULER_SUSPENDED ) && ( xTicksToWait != 0 )
 188:..\FreeRTOS\Source/event_groups.c **** 	}
 189:..\FreeRTOS\Source/event_groups.c **** 	#endif
 190:..\FreeRTOS\Source/event_groups.c **** 
 191:..\FreeRTOS\Source/event_groups.c **** 	vTaskSuspendAll();
 192:..\FreeRTOS\Source/event_groups.c **** 	{
 193:..\FreeRTOS\Source/event_groups.c **** 		uxOriginalBitValue = pxEventBits->uxEventBits;
 194:..\FreeRTOS\Source/event_groups.c **** 
 195:..\FreeRTOS\Source/event_groups.c **** 		( void ) xEventGroupSetBits( xEventGroup, uxBitsToSet );
 196:..\FreeRTOS\Source/event_groups.c **** 
 197:..\FreeRTOS\Source/event_groups.c **** 		if( ( ( uxOriginalBitValue | uxBitsToSet ) & uxBitsToWaitFor ) == uxBitsToWaitFor )
 198:..\FreeRTOS\Source/event_groups.c **** 		{
 199:..\FreeRTOS\Source/event_groups.c **** 			/* All the rendezvous bits are now set - no need to block. */
 200:..\FreeRTOS\Source/event_groups.c **** 			uxReturn = ( uxOriginalBitValue | uxBitsToSet );
 201:..\FreeRTOS\Source/event_groups.c **** 
 202:..\FreeRTOS\Source/event_groups.c **** 			/* Rendezvous always clear the bits.  They will have been cleared
ARM GAS  C:\Users\samue\AppData\Local\Temp\ccR5T69m.s 			page 5


 203:..\FreeRTOS\Source/event_groups.c **** 			already unless this is the only task in the rendezvous. */
 204:..\FreeRTOS\Source/event_groups.c **** 			pxEventBits->uxEventBits &= ~uxBitsToWaitFor;
 205:..\FreeRTOS\Source/event_groups.c **** 
 206:..\FreeRTOS\Source/event_groups.c **** 			xTicksToWait = 0;
 207:..\FreeRTOS\Source/event_groups.c **** 		}
 208:..\FreeRTOS\Source/event_groups.c **** 		else
 209:..\FreeRTOS\Source/event_groups.c **** 		{
 210:..\FreeRTOS\Source/event_groups.c **** 			if( xTicksToWait != ( TickType_t ) 0 )
 211:..\FreeRTOS\Source/event_groups.c **** 			{
 212:..\FreeRTOS\Source/event_groups.c **** 				traceEVENT_GROUP_SYNC_BLOCK( xEventGroup, uxBitsToSet, uxBitsToWaitFor );
 213:..\FreeRTOS\Source/event_groups.c **** 
 214:..\FreeRTOS\Source/event_groups.c **** 				/* Store the bits that the calling task is waiting for in the
 215:..\FreeRTOS\Source/event_groups.c **** 				task's event list item so the kernel knows when a match is
 216:..\FreeRTOS\Source/event_groups.c **** 				found.  Then enter the blocked state. */
 217:..\FreeRTOS\Source/event_groups.c **** 				vTaskPlaceOnUnorderedEventList( &( pxEventBits->xTasksWaitingForBits ), ( uxBitsToWaitFor | eve
 218:..\FreeRTOS\Source/event_groups.c **** 
 219:..\FreeRTOS\Source/event_groups.c **** 				/* This assignment is obsolete as uxReturn will get set after
 220:..\FreeRTOS\Source/event_groups.c **** 				the task unblocks, but some compilers mistakenly generate a
 221:..\FreeRTOS\Source/event_groups.c **** 				warning about uxReturn being returned without being set if the
 222:..\FreeRTOS\Source/event_groups.c **** 				assignment is omitted. */
 223:..\FreeRTOS\Source/event_groups.c **** 				uxReturn = 0;
 224:..\FreeRTOS\Source/event_groups.c **** 			}
 225:..\FreeRTOS\Source/event_groups.c **** 			else
 226:..\FreeRTOS\Source/event_groups.c **** 			{
 227:..\FreeRTOS\Source/event_groups.c **** 				/* The rendezvous bits were not set, but no block time was
 228:..\FreeRTOS\Source/event_groups.c **** 				specified - just return the current event bit value. */
 229:..\FreeRTOS\Source/event_groups.c **** 				uxReturn = pxEventBits->uxEventBits;
 230:..\FreeRTOS\Source/event_groups.c **** 				xTimeoutOccurred = pdTRUE;
 231:..\FreeRTOS\Source/event_groups.c **** 			}
 232:..\FreeRTOS\Source/event_groups.c **** 		}
 233:..\FreeRTOS\Source/event_groups.c **** 	}
 234:..\FreeRTOS\Source/event_groups.c **** 	xAlreadyYielded = xTaskResumeAll();
 235:..\FreeRTOS\Source/event_groups.c **** 
 236:..\FreeRTOS\Source/event_groups.c **** 	if( xTicksToWait != ( TickType_t ) 0 )
 237:..\FreeRTOS\Source/event_groups.c **** 	{
 238:..\FreeRTOS\Source/event_groups.c **** 		if( xAlreadyYielded == pdFALSE )
 239:..\FreeRTOS\Source/event_groups.c **** 		{
 240:..\FreeRTOS\Source/event_groups.c **** 			portYIELD_WITHIN_API();
 241:..\FreeRTOS\Source/event_groups.c **** 		}
 242:..\FreeRTOS\Source/event_groups.c **** 		else
 243:..\FreeRTOS\Source/event_groups.c **** 		{
 244:..\FreeRTOS\Source/event_groups.c **** 			mtCOVERAGE_TEST_MARKER();
 245:..\FreeRTOS\Source/event_groups.c **** 		}
 246:..\FreeRTOS\Source/event_groups.c **** 
 247:..\FreeRTOS\Source/event_groups.c **** 		/* The task blocked to wait for its required bits to be set - at this
 248:..\FreeRTOS\Source/event_groups.c **** 		point either the required bits were set or the block time expired.  If
 249:..\FreeRTOS\Source/event_groups.c **** 		the required bits were set they will have been stored in the task's
 250:..\FreeRTOS\Source/event_groups.c **** 		event list item, and they should now be retrieved then cleared. */
 251:..\FreeRTOS\Source/event_groups.c **** 		uxReturn = uxTaskResetEventItemValue();
 252:..\FreeRTOS\Source/event_groups.c **** 
 253:..\FreeRTOS\Source/event_groups.c **** 		if( ( uxReturn & eventUNBLOCKED_DUE_TO_BIT_SET ) == ( EventBits_t ) 0 )
 254:..\FreeRTOS\Source/event_groups.c **** 		{
 255:..\FreeRTOS\Source/event_groups.c **** 			/* The task timed out, just return the current event bit value. */
 256:..\FreeRTOS\Source/event_groups.c **** 			taskENTER_CRITICAL();
 257:..\FreeRTOS\Source/event_groups.c **** 			{
 258:..\FreeRTOS\Source/event_groups.c **** 				uxReturn = pxEventBits->uxEventBits;
 259:..\FreeRTOS\Source/event_groups.c **** 
ARM GAS  C:\Users\samue\AppData\Local\Temp\ccR5T69m.s 			page 6


 260:..\FreeRTOS\Source/event_groups.c **** 				/* Although the task got here because it timed out before the
 261:..\FreeRTOS\Source/event_groups.c **** 				bits it was waiting for were set, it is possible that since it
 262:..\FreeRTOS\Source/event_groups.c **** 				unblocked another task has set the bits.  If this is the case
 263:..\FreeRTOS\Source/event_groups.c **** 				then it needs to clear the bits before exiting. */
 264:..\FreeRTOS\Source/event_groups.c **** 				if( ( uxReturn & uxBitsToWaitFor ) == uxBitsToWaitFor )
 265:..\FreeRTOS\Source/event_groups.c **** 				{
 266:..\FreeRTOS\Source/event_groups.c **** 					pxEventBits->uxEventBits &= ~uxBitsToWaitFor;
 267:..\FreeRTOS\Source/event_groups.c **** 				}
 268:..\FreeRTOS\Source/event_groups.c **** 				else
 269:..\FreeRTOS\Source/event_groups.c **** 				{
 270:..\FreeRTOS\Source/event_groups.c **** 					mtCOVERAGE_TEST_MARKER();
 271:..\FreeRTOS\Source/event_groups.c **** 				}
 272:..\FreeRTOS\Source/event_groups.c **** 			}
 273:..\FreeRTOS\Source/event_groups.c **** 			taskEXIT_CRITICAL();
 274:..\FreeRTOS\Source/event_groups.c **** 
 275:..\FreeRTOS\Source/event_groups.c **** 			xTimeoutOccurred = pdTRUE;
 276:..\FreeRTOS\Source/event_groups.c **** 		}
 277:..\FreeRTOS\Source/event_groups.c **** 		else
 278:..\FreeRTOS\Source/event_groups.c **** 		{
 279:..\FreeRTOS\Source/event_groups.c **** 			/* The task unblocked because the bits were set. */
 280:..\FreeRTOS\Source/event_groups.c **** 		}
 281:..\FreeRTOS\Source/event_groups.c **** 
 282:..\FreeRTOS\Source/event_groups.c **** 		/* Control bits might be set as the task had blocked should not be
 283:..\FreeRTOS\Source/event_groups.c **** 		returned. */
 284:..\FreeRTOS\Source/event_groups.c **** 		uxReturn &= ~eventEVENT_BITS_CONTROL_BYTES;
 285:..\FreeRTOS\Source/event_groups.c **** 	}
 286:..\FreeRTOS\Source/event_groups.c **** 
 287:..\FreeRTOS\Source/event_groups.c **** 	traceEVENT_GROUP_SYNC_END( xEventGroup, uxBitsToSet, uxBitsToWaitFor, xTimeoutOccurred );
 288:..\FreeRTOS\Source/event_groups.c **** 
 289:..\FreeRTOS\Source/event_groups.c **** 	/* Prevent compiler warnings when trace macros are not used. */
 290:..\FreeRTOS\Source/event_groups.c **** 	( void ) xTimeoutOccurred;
 291:..\FreeRTOS\Source/event_groups.c **** 
 292:..\FreeRTOS\Source/event_groups.c **** 	return uxReturn;
 293:..\FreeRTOS\Source/event_groups.c **** }
 294:..\FreeRTOS\Source/event_groups.c **** /*-----------------------------------------------------------*/
 295:..\FreeRTOS\Source/event_groups.c **** 
 296:..\FreeRTOS\Source/event_groups.c **** EventBits_t xEventGroupWaitBits( EventGroupHandle_t xEventGroup, const EventBits_t uxBitsToWaitFor,
 297:..\FreeRTOS\Source/event_groups.c **** {
 298:..\FreeRTOS\Source/event_groups.c **** EventGroup_t *pxEventBits = ( EventGroup_t * ) xEventGroup;
 299:..\FreeRTOS\Source/event_groups.c **** EventBits_t uxReturn, uxControlBits = 0;
 300:..\FreeRTOS\Source/event_groups.c **** BaseType_t xWaitConditionMet, xAlreadyYielded;
 301:..\FreeRTOS\Source/event_groups.c **** BaseType_t xTimeoutOccurred = pdFALSE;
 302:..\FreeRTOS\Source/event_groups.c **** 
 303:..\FreeRTOS\Source/event_groups.c **** 	/* Check the user is not attempting to wait on the bits used by the kernel
 304:..\FreeRTOS\Source/event_groups.c **** 	itself, and that at least one bit is being requested. */
 305:..\FreeRTOS\Source/event_groups.c **** 	configASSERT( xEventGroup );
 306:..\FreeRTOS\Source/event_groups.c **** 	configASSERT( ( uxBitsToWaitFor & eventEVENT_BITS_CONTROL_BYTES ) == 0 );
 307:..\FreeRTOS\Source/event_groups.c **** 	configASSERT( uxBitsToWaitFor != 0 );
 308:..\FreeRTOS\Source/event_groups.c **** 	#if ( ( INCLUDE_xTaskGetSchedulerState == 1 ) || ( configUSE_TIMERS == 1 ) )
 309:..\FreeRTOS\Source/event_groups.c **** 	{
 310:..\FreeRTOS\Source/event_groups.c **** 		configASSERT( !( ( xTaskGetSchedulerState() == taskSCHEDULER_SUSPENDED ) && ( xTicksToWait != 0 )
 311:..\FreeRTOS\Source/event_groups.c **** 	}
 312:..\FreeRTOS\Source/event_groups.c **** 	#endif
 313:..\FreeRTOS\Source/event_groups.c **** 
 314:..\FreeRTOS\Source/event_groups.c **** 	vTaskSuspendAll();
 315:..\FreeRTOS\Source/event_groups.c **** 	{
 316:..\FreeRTOS\Source/event_groups.c **** 		const EventBits_t uxCurrentEventBits = pxEventBits->uxEventBits;
ARM GAS  C:\Users\samue\AppData\Local\Temp\ccR5T69m.s 			page 7


 317:..\FreeRTOS\Source/event_groups.c **** 
 318:..\FreeRTOS\Source/event_groups.c **** 		/* Check to see if the wait condition is already met or not. */
 319:..\FreeRTOS\Source/event_groups.c **** 		xWaitConditionMet = prvTestWaitCondition( uxCurrentEventBits, uxBitsToWaitFor, xWaitForAllBits );
 320:..\FreeRTOS\Source/event_groups.c **** 
 321:..\FreeRTOS\Source/event_groups.c **** 		if( xWaitConditionMet != pdFALSE )
 322:..\FreeRTOS\Source/event_groups.c **** 		{
 323:..\FreeRTOS\Source/event_groups.c **** 			/* The wait condition has already been met so there is no need to
 324:..\FreeRTOS\Source/event_groups.c **** 			block. */
 325:..\FreeRTOS\Source/event_groups.c **** 			uxReturn = uxCurrentEventBits;
 326:..\FreeRTOS\Source/event_groups.c **** 			xTicksToWait = ( TickType_t ) 0;
 327:..\FreeRTOS\Source/event_groups.c **** 
 328:..\FreeRTOS\Source/event_groups.c **** 			/* Clear the wait bits if requested to do so. */
 329:..\FreeRTOS\Source/event_groups.c **** 			if( xClearOnExit != pdFALSE )
 330:..\FreeRTOS\Source/event_groups.c **** 			{
 331:..\FreeRTOS\Source/event_groups.c **** 				pxEventBits->uxEventBits &= ~uxBitsToWaitFor;
 332:..\FreeRTOS\Source/event_groups.c **** 			}
 333:..\FreeRTOS\Source/event_groups.c **** 			else
 334:..\FreeRTOS\Source/event_groups.c **** 			{
 335:..\FreeRTOS\Source/event_groups.c **** 				mtCOVERAGE_TEST_MARKER();
 336:..\FreeRTOS\Source/event_groups.c **** 			}
 337:..\FreeRTOS\Source/event_groups.c **** 		}
 338:..\FreeRTOS\Source/event_groups.c **** 		else if( xTicksToWait == ( TickType_t ) 0 )
 339:..\FreeRTOS\Source/event_groups.c **** 		{
 340:..\FreeRTOS\Source/event_groups.c **** 			/* The wait condition has not been met, but no block time was
 341:..\FreeRTOS\Source/event_groups.c **** 			specified, so just return the current value. */
 342:..\FreeRTOS\Source/event_groups.c **** 			uxReturn = uxCurrentEventBits;
 343:..\FreeRTOS\Source/event_groups.c **** 			xTimeoutOccurred = pdTRUE;
 344:..\FreeRTOS\Source/event_groups.c **** 		}
 345:..\FreeRTOS\Source/event_groups.c **** 		else
 346:..\FreeRTOS\Source/event_groups.c **** 		{
 347:..\FreeRTOS\Source/event_groups.c **** 			/* The task is going to block to wait for its required bits to be
 348:..\FreeRTOS\Source/event_groups.c **** 			set.  uxControlBits are used to remember the specified behaviour of
 349:..\FreeRTOS\Source/event_groups.c **** 			this call to xEventGroupWaitBits() - for use when the event bits
 350:..\FreeRTOS\Source/event_groups.c **** 			unblock the task. */
 351:..\FreeRTOS\Source/event_groups.c **** 			if( xClearOnExit != pdFALSE )
 352:..\FreeRTOS\Source/event_groups.c **** 			{
 353:..\FreeRTOS\Source/event_groups.c **** 				uxControlBits |= eventCLEAR_EVENTS_ON_EXIT_BIT;
 354:..\FreeRTOS\Source/event_groups.c **** 			}
 355:..\FreeRTOS\Source/event_groups.c **** 			else
 356:..\FreeRTOS\Source/event_groups.c **** 			{
 357:..\FreeRTOS\Source/event_groups.c **** 				mtCOVERAGE_TEST_MARKER();
 358:..\FreeRTOS\Source/event_groups.c **** 			}
 359:..\FreeRTOS\Source/event_groups.c **** 
 360:..\FreeRTOS\Source/event_groups.c **** 			if( xWaitForAllBits != pdFALSE )
 361:..\FreeRTOS\Source/event_groups.c **** 			{
 362:..\FreeRTOS\Source/event_groups.c **** 				uxControlBits |= eventWAIT_FOR_ALL_BITS;
 363:..\FreeRTOS\Source/event_groups.c **** 			}
 364:..\FreeRTOS\Source/event_groups.c **** 			else
 365:..\FreeRTOS\Source/event_groups.c **** 			{
 366:..\FreeRTOS\Source/event_groups.c **** 				mtCOVERAGE_TEST_MARKER();
 367:..\FreeRTOS\Source/event_groups.c **** 			}
 368:..\FreeRTOS\Source/event_groups.c **** 
 369:..\FreeRTOS\Source/event_groups.c **** 			/* Store the bits that the calling task is waiting for in the
 370:..\FreeRTOS\Source/event_groups.c **** 			task's event list item so the kernel knows when a match is
 371:..\FreeRTOS\Source/event_groups.c **** 			found.  Then enter the blocked state. */
 372:..\FreeRTOS\Source/event_groups.c **** 			vTaskPlaceOnUnorderedEventList( &( pxEventBits->xTasksWaitingForBits ), ( uxBitsToWaitFor | uxCo
 373:..\FreeRTOS\Source/event_groups.c **** 
ARM GAS  C:\Users\samue\AppData\Local\Temp\ccR5T69m.s 			page 8


 374:..\FreeRTOS\Source/event_groups.c **** 			/* This is obsolete as it will get set after the task unblocks, but
 375:..\FreeRTOS\Source/event_groups.c **** 			some compilers mistakenly generate a warning about the variable
 376:..\FreeRTOS\Source/event_groups.c **** 			being returned without being set if it is not done. */
 377:..\FreeRTOS\Source/event_groups.c **** 			uxReturn = 0;
 378:..\FreeRTOS\Source/event_groups.c **** 
 379:..\FreeRTOS\Source/event_groups.c **** 			traceEVENT_GROUP_WAIT_BITS_BLOCK( xEventGroup, uxBitsToWaitFor );
 380:..\FreeRTOS\Source/event_groups.c **** 		}
 381:..\FreeRTOS\Source/event_groups.c **** 	}
 382:..\FreeRTOS\Source/event_groups.c **** 	xAlreadyYielded = xTaskResumeAll();
 383:..\FreeRTOS\Source/event_groups.c **** 
 384:..\FreeRTOS\Source/event_groups.c **** 	if( xTicksToWait != ( TickType_t ) 0 )
 385:..\FreeRTOS\Source/event_groups.c **** 	{
 386:..\FreeRTOS\Source/event_groups.c **** 		if( xAlreadyYielded == pdFALSE )
 387:..\FreeRTOS\Source/event_groups.c **** 		{
 388:..\FreeRTOS\Source/event_groups.c **** 			portYIELD_WITHIN_API();
 389:..\FreeRTOS\Source/event_groups.c **** 		}
 390:..\FreeRTOS\Source/event_groups.c **** 		else
 391:..\FreeRTOS\Source/event_groups.c **** 		{
 392:..\FreeRTOS\Source/event_groups.c **** 			mtCOVERAGE_TEST_MARKER();
 393:..\FreeRTOS\Source/event_groups.c **** 		}
 394:..\FreeRTOS\Source/event_groups.c **** 
 395:..\FreeRTOS\Source/event_groups.c **** 		/* The task blocked to wait for its required bits to be set - at this
 396:..\FreeRTOS\Source/event_groups.c **** 		point either the required bits were set or the block time expired.  If
 397:..\FreeRTOS\Source/event_groups.c **** 		the required bits were set they will have been stored in the task's
 398:..\FreeRTOS\Source/event_groups.c **** 		event list item, and they should now be retrieved then cleared. */
 399:..\FreeRTOS\Source/event_groups.c **** 		uxReturn = uxTaskResetEventItemValue();
 400:..\FreeRTOS\Source/event_groups.c **** 
 401:..\FreeRTOS\Source/event_groups.c **** 		if( ( uxReturn & eventUNBLOCKED_DUE_TO_BIT_SET ) == ( EventBits_t ) 0 )
 402:..\FreeRTOS\Source/event_groups.c **** 		{
 403:..\FreeRTOS\Source/event_groups.c **** 			taskENTER_CRITICAL();
 404:..\FreeRTOS\Source/event_groups.c **** 			{
 405:..\FreeRTOS\Source/event_groups.c **** 				/* The task timed out, just return the current event bit value. */
 406:..\FreeRTOS\Source/event_groups.c **** 				uxReturn = pxEventBits->uxEventBits;
 407:..\FreeRTOS\Source/event_groups.c **** 
 408:..\FreeRTOS\Source/event_groups.c **** 				/* It is possible that the event bits were updated between this
 409:..\FreeRTOS\Source/event_groups.c **** 				task leaving the Blocked state and running again. */
 410:..\FreeRTOS\Source/event_groups.c **** 				if( prvTestWaitCondition( uxReturn, uxBitsToWaitFor, xWaitForAllBits ) != pdFALSE )
 411:..\FreeRTOS\Source/event_groups.c **** 				{
 412:..\FreeRTOS\Source/event_groups.c **** 					if( xClearOnExit != pdFALSE )
 413:..\FreeRTOS\Source/event_groups.c **** 					{
 414:..\FreeRTOS\Source/event_groups.c **** 						pxEventBits->uxEventBits &= ~uxBitsToWaitFor;
 415:..\FreeRTOS\Source/event_groups.c **** 					}
 416:..\FreeRTOS\Source/event_groups.c **** 					else
 417:..\FreeRTOS\Source/event_groups.c **** 					{
 418:..\FreeRTOS\Source/event_groups.c **** 						mtCOVERAGE_TEST_MARKER();
 419:..\FreeRTOS\Source/event_groups.c **** 					}
 420:..\FreeRTOS\Source/event_groups.c **** 				}
 421:..\FreeRTOS\Source/event_groups.c **** 				else
 422:..\FreeRTOS\Source/event_groups.c **** 				{
 423:..\FreeRTOS\Source/event_groups.c **** 					mtCOVERAGE_TEST_MARKER();
 424:..\FreeRTOS\Source/event_groups.c **** 				}
 425:..\FreeRTOS\Source/event_groups.c **** 				xTimeoutOccurred = pdTRUE;
 426:..\FreeRTOS\Source/event_groups.c **** 			}
 427:..\FreeRTOS\Source/event_groups.c **** 			taskEXIT_CRITICAL();
 428:..\FreeRTOS\Source/event_groups.c **** 		}
 429:..\FreeRTOS\Source/event_groups.c **** 		else
 430:..\FreeRTOS\Source/event_groups.c **** 		{
ARM GAS  C:\Users\samue\AppData\Local\Temp\ccR5T69m.s 			page 9


 431:..\FreeRTOS\Source/event_groups.c **** 			/* The task unblocked because the bits were set. */
 432:..\FreeRTOS\Source/event_groups.c **** 		}
 433:..\FreeRTOS\Source/event_groups.c **** 
 434:..\FreeRTOS\Source/event_groups.c **** 		/* The task blocked so control bits may have been set. */
 435:..\FreeRTOS\Source/event_groups.c **** 		uxReturn &= ~eventEVENT_BITS_CONTROL_BYTES;
 436:..\FreeRTOS\Source/event_groups.c **** 	}
 437:..\FreeRTOS\Source/event_groups.c **** 	traceEVENT_GROUP_WAIT_BITS_END( xEventGroup, uxBitsToWaitFor, xTimeoutOccurred );
 438:..\FreeRTOS\Source/event_groups.c **** 
 439:..\FreeRTOS\Source/event_groups.c **** 	/* Prevent compiler warnings when trace macros are not used. */
 440:..\FreeRTOS\Source/event_groups.c **** 	( void ) xTimeoutOccurred;
 441:..\FreeRTOS\Source/event_groups.c **** 
 442:..\FreeRTOS\Source/event_groups.c **** 	return uxReturn;
 443:..\FreeRTOS\Source/event_groups.c **** }
 444:..\FreeRTOS\Source/event_groups.c **** /*-----------------------------------------------------------*/
 445:..\FreeRTOS\Source/event_groups.c **** 
 446:..\FreeRTOS\Source/event_groups.c **** EventBits_t xEventGroupClearBits( EventGroupHandle_t xEventGroup, const EventBits_t uxBitsToClear )
 447:..\FreeRTOS\Source/event_groups.c **** {
 448:..\FreeRTOS\Source/event_groups.c **** EventGroup_t *pxEventBits = ( EventGroup_t * ) xEventGroup;
 449:..\FreeRTOS\Source/event_groups.c **** EventBits_t uxReturn;
 450:..\FreeRTOS\Source/event_groups.c **** 
 451:..\FreeRTOS\Source/event_groups.c **** 	/* Check the user is not attempting to clear the bits used by the kernel
 452:..\FreeRTOS\Source/event_groups.c **** 	itself. */
 453:..\FreeRTOS\Source/event_groups.c **** 	configASSERT( xEventGroup );
 454:..\FreeRTOS\Source/event_groups.c **** 	configASSERT( ( uxBitsToClear & eventEVENT_BITS_CONTROL_BYTES ) == 0 );
 455:..\FreeRTOS\Source/event_groups.c **** 
 456:..\FreeRTOS\Source/event_groups.c **** 	taskENTER_CRITICAL();
 457:..\FreeRTOS\Source/event_groups.c **** 	{
 458:..\FreeRTOS\Source/event_groups.c **** 		traceEVENT_GROUP_CLEAR_BITS( xEventGroup, uxBitsToClear );
 459:..\FreeRTOS\Source/event_groups.c **** 
 460:..\FreeRTOS\Source/event_groups.c **** 		/* The value returned is the event group value prior to the bits being
 461:..\FreeRTOS\Source/event_groups.c **** 		cleared. */
 462:..\FreeRTOS\Source/event_groups.c **** 		uxReturn = pxEventBits->uxEventBits;
 463:..\FreeRTOS\Source/event_groups.c **** 
 464:..\FreeRTOS\Source/event_groups.c **** 		/* Clear the bits. */
 465:..\FreeRTOS\Source/event_groups.c **** 		pxEventBits->uxEventBits &= ~uxBitsToClear;
 466:..\FreeRTOS\Source/event_groups.c **** 	}
 467:..\FreeRTOS\Source/event_groups.c **** 	taskEXIT_CRITICAL();
 468:..\FreeRTOS\Source/event_groups.c **** 
 469:..\FreeRTOS\Source/event_groups.c **** 	return uxReturn;
 470:..\FreeRTOS\Source/event_groups.c **** }
 471:..\FreeRTOS\Source/event_groups.c **** /*-----------------------------------------------------------*/
 472:..\FreeRTOS\Source/event_groups.c **** 
 473:..\FreeRTOS\Source/event_groups.c **** #if ( ( configUSE_TRACE_FACILITY == 1 ) && ( INCLUDE_xTimerPendFunctionCall == 1 ) && ( configUSE_T
 474:..\FreeRTOS\Source/event_groups.c **** 
 475:..\FreeRTOS\Source/event_groups.c **** 	BaseType_t xEventGroupClearBitsFromISR( EventGroupHandle_t xEventGroup, const EventBits_t uxBitsTo
 476:..\FreeRTOS\Source/event_groups.c **** 	{
 477:..\FreeRTOS\Source/event_groups.c **** 		BaseType_t xReturn;
 478:..\FreeRTOS\Source/event_groups.c **** 
 479:..\FreeRTOS\Source/event_groups.c **** 		traceEVENT_GROUP_CLEAR_BITS_FROM_ISR( xEventGroup, uxBitsToClear );
 480:..\FreeRTOS\Source/event_groups.c **** 		xReturn = xTimerPendFunctionCallFromISR( vEventGroupClearBitsCallback, ( void * ) xEventGroup, ( 
 481:..\FreeRTOS\Source/event_groups.c **** 
 482:..\FreeRTOS\Source/event_groups.c **** 		return xReturn;
 483:..\FreeRTOS\Source/event_groups.c **** 	}
 484:..\FreeRTOS\Source/event_groups.c **** 
 485:..\FreeRTOS\Source/event_groups.c **** #endif
 486:..\FreeRTOS\Source/event_groups.c **** /*-----------------------------------------------------------*/
 487:..\FreeRTOS\Source/event_groups.c **** 
ARM GAS  C:\Users\samue\AppData\Local\Temp\ccR5T69m.s 			page 10


 488:..\FreeRTOS\Source/event_groups.c **** EventBits_t xEventGroupGetBitsFromISR( EventGroupHandle_t xEventGroup )
 489:..\FreeRTOS\Source/event_groups.c **** {
 490:..\FreeRTOS\Source/event_groups.c **** UBaseType_t uxSavedInterruptStatus;
 491:..\FreeRTOS\Source/event_groups.c **** EventGroup_t *pxEventBits = ( EventGroup_t * ) xEventGroup;
 492:..\FreeRTOS\Source/event_groups.c **** EventBits_t uxReturn;
 493:..\FreeRTOS\Source/event_groups.c **** 
 494:..\FreeRTOS\Source/event_groups.c **** 	uxSavedInterruptStatus = portSET_INTERRUPT_MASK_FROM_ISR();
 495:..\FreeRTOS\Source/event_groups.c **** 	{
 496:..\FreeRTOS\Source/event_groups.c **** 		uxReturn = pxEventBits->uxEventBits;
 497:..\FreeRTOS\Source/event_groups.c **** 	}
 498:..\FreeRTOS\Source/event_groups.c **** 	portCLEAR_INTERRUPT_MASK_FROM_ISR( uxSavedInterruptStatus );
 499:..\FreeRTOS\Source/event_groups.c **** 
 500:..\FreeRTOS\Source/event_groups.c **** 	return uxReturn;
 501:..\FreeRTOS\Source/event_groups.c **** }
 502:..\FreeRTOS\Source/event_groups.c **** /*-----------------------------------------------------------*/
 503:..\FreeRTOS\Source/event_groups.c **** 
 504:..\FreeRTOS\Source/event_groups.c **** EventBits_t xEventGroupSetBits( EventGroupHandle_t xEventGroup, const EventBits_t uxBitsToSet )
 505:..\FreeRTOS\Source/event_groups.c **** {
 506:..\FreeRTOS\Source/event_groups.c **** ListItem_t *pxListItem, *pxNext;
 507:..\FreeRTOS\Source/event_groups.c **** ListItem_t const *pxListEnd;
 508:..\FreeRTOS\Source/event_groups.c **** List_t *pxList;
 509:..\FreeRTOS\Source/event_groups.c **** EventBits_t uxBitsToClear = 0, uxBitsWaitedFor, uxControlBits;
 510:..\FreeRTOS\Source/event_groups.c **** EventGroup_t *pxEventBits = ( EventGroup_t * ) xEventGroup;
 511:..\FreeRTOS\Source/event_groups.c **** BaseType_t xMatchFound = pdFALSE;
 512:..\FreeRTOS\Source/event_groups.c **** 
 513:..\FreeRTOS\Source/event_groups.c **** 	/* Check the user is not attempting to set the bits used by the kernel
 514:..\FreeRTOS\Source/event_groups.c **** 	itself. */
 515:..\FreeRTOS\Source/event_groups.c **** 	configASSERT( xEventGroup );
 516:..\FreeRTOS\Source/event_groups.c **** 	configASSERT( ( uxBitsToSet & eventEVENT_BITS_CONTROL_BYTES ) == 0 );
 517:..\FreeRTOS\Source/event_groups.c **** 
 518:..\FreeRTOS\Source/event_groups.c **** 	pxList = &( pxEventBits->xTasksWaitingForBits );
 519:..\FreeRTOS\Source/event_groups.c **** 	pxListEnd = listGET_END_MARKER( pxList ); /*lint !e826 !e740 The mini list structure is used as th
 520:..\FreeRTOS\Source/event_groups.c **** 	vTaskSuspendAll();
 521:..\FreeRTOS\Source/event_groups.c **** 	{
 522:..\FreeRTOS\Source/event_groups.c **** 		traceEVENT_GROUP_SET_BITS( xEventGroup, uxBitsToSet );
 523:..\FreeRTOS\Source/event_groups.c **** 
 524:..\FreeRTOS\Source/event_groups.c **** 		pxListItem = listGET_HEAD_ENTRY( pxList );
 525:..\FreeRTOS\Source/event_groups.c **** 
 526:..\FreeRTOS\Source/event_groups.c **** 		/* Set the bits. */
 527:..\FreeRTOS\Source/event_groups.c **** 		pxEventBits->uxEventBits |= uxBitsToSet;
 528:..\FreeRTOS\Source/event_groups.c **** 
 529:..\FreeRTOS\Source/event_groups.c **** 		/* See if the new bit value should unblock any tasks. */
 530:..\FreeRTOS\Source/event_groups.c **** 		while( pxListItem != pxListEnd )
 531:..\FreeRTOS\Source/event_groups.c **** 		{
 532:..\FreeRTOS\Source/event_groups.c **** 			pxNext = listGET_NEXT( pxListItem );
 533:..\FreeRTOS\Source/event_groups.c **** 			uxBitsWaitedFor = listGET_LIST_ITEM_VALUE( pxListItem );
 534:..\FreeRTOS\Source/event_groups.c **** 			xMatchFound = pdFALSE;
 535:..\FreeRTOS\Source/event_groups.c **** 
 536:..\FreeRTOS\Source/event_groups.c **** 			/* Split the bits waited for from the control bits. */
 537:..\FreeRTOS\Source/event_groups.c **** 			uxControlBits = uxBitsWaitedFor & eventEVENT_BITS_CONTROL_BYTES;
 538:..\FreeRTOS\Source/event_groups.c **** 			uxBitsWaitedFor &= ~eventEVENT_BITS_CONTROL_BYTES;
 539:..\FreeRTOS\Source/event_groups.c **** 
 540:..\FreeRTOS\Source/event_groups.c **** 			if( ( uxControlBits & eventWAIT_FOR_ALL_BITS ) == ( EventBits_t ) 0 )
 541:..\FreeRTOS\Source/event_groups.c **** 			{
 542:..\FreeRTOS\Source/event_groups.c **** 				/* Just looking for single bit being set. */
 543:..\FreeRTOS\Source/event_groups.c **** 				if( ( uxBitsWaitedFor & pxEventBits->uxEventBits ) != ( EventBits_t ) 0 )
 544:..\FreeRTOS\Source/event_groups.c **** 				{
ARM GAS  C:\Users\samue\AppData\Local\Temp\ccR5T69m.s 			page 11


 545:..\FreeRTOS\Source/event_groups.c **** 					xMatchFound = pdTRUE;
 546:..\FreeRTOS\Source/event_groups.c **** 				}
 547:..\FreeRTOS\Source/event_groups.c **** 				else
 548:..\FreeRTOS\Source/event_groups.c **** 				{
 549:..\FreeRTOS\Source/event_groups.c **** 					mtCOVERAGE_TEST_MARKER();
 550:..\FreeRTOS\Source/event_groups.c **** 				}
 551:..\FreeRTOS\Source/event_groups.c **** 			}
 552:..\FreeRTOS\Source/event_groups.c **** 			else if( ( uxBitsWaitedFor & pxEventBits->uxEventBits ) == uxBitsWaitedFor )
 553:..\FreeRTOS\Source/event_groups.c **** 			{
 554:..\FreeRTOS\Source/event_groups.c **** 				/* All bits are set. */
 555:..\FreeRTOS\Source/event_groups.c **** 				xMatchFound = pdTRUE;
 556:..\FreeRTOS\Source/event_groups.c **** 			}
 557:..\FreeRTOS\Source/event_groups.c **** 			else
 558:..\FreeRTOS\Source/event_groups.c **** 			{
 559:..\FreeRTOS\Source/event_groups.c **** 				/* Need all bits to be set, but not all the bits were set. */
 560:..\FreeRTOS\Source/event_groups.c **** 			}
 561:..\FreeRTOS\Source/event_groups.c **** 
 562:..\FreeRTOS\Source/event_groups.c **** 			if( xMatchFound != pdFALSE )
 563:..\FreeRTOS\Source/event_groups.c **** 			{
 564:..\FreeRTOS\Source/event_groups.c **** 				/* The bits match.  Should the bits be cleared on exit? */
 565:..\FreeRTOS\Source/event_groups.c **** 				if( ( uxControlBits & eventCLEAR_EVENTS_ON_EXIT_BIT ) != ( EventBits_t ) 0 )
 566:..\FreeRTOS\Source/event_groups.c **** 				{
 567:..\FreeRTOS\Source/event_groups.c **** 					uxBitsToClear |= uxBitsWaitedFor;
 568:..\FreeRTOS\Source/event_groups.c **** 				}
 569:..\FreeRTOS\Source/event_groups.c **** 				else
 570:..\FreeRTOS\Source/event_groups.c **** 				{
 571:..\FreeRTOS\Source/event_groups.c **** 					mtCOVERAGE_TEST_MARKER();
 572:..\FreeRTOS\Source/event_groups.c **** 				}
 573:..\FreeRTOS\Source/event_groups.c **** 
 574:..\FreeRTOS\Source/event_groups.c **** 				/* Store the actual event flag value in the task's event list
 575:..\FreeRTOS\Source/event_groups.c **** 				item before removing the task from the event list.  The
 576:..\FreeRTOS\Source/event_groups.c **** 				eventUNBLOCKED_DUE_TO_BIT_SET bit is set so the task knows
 577:..\FreeRTOS\Source/event_groups.c **** 				that is was unblocked due to its required bits matching, rather
 578:..\FreeRTOS\Source/event_groups.c **** 				than because it timed out. */
 579:..\FreeRTOS\Source/event_groups.c **** 				vTaskRemoveFromUnorderedEventList( pxListItem, pxEventBits->uxEventBits | eventUNBLOCKED_DUE_TO
 580:..\FreeRTOS\Source/event_groups.c **** 			}
 581:..\FreeRTOS\Source/event_groups.c **** 
 582:..\FreeRTOS\Source/event_groups.c **** 			/* Move onto the next list item.  Note pxListItem->pxNext is not
 583:..\FreeRTOS\Source/event_groups.c **** 			used here as the list item may have been removed from the event list
 584:..\FreeRTOS\Source/event_groups.c **** 			and inserted into the ready/pending reading list. */
 585:..\FreeRTOS\Source/event_groups.c **** 			pxListItem = pxNext;
 586:..\FreeRTOS\Source/event_groups.c **** 		}
 587:..\FreeRTOS\Source/event_groups.c **** 
 588:..\FreeRTOS\Source/event_groups.c **** 		/* Clear any bits that matched when the eventCLEAR_EVENTS_ON_EXIT_BIT
 589:..\FreeRTOS\Source/event_groups.c **** 		bit was set in the control word. */
 590:..\FreeRTOS\Source/event_groups.c **** 		pxEventBits->uxEventBits &= ~uxBitsToClear;
 591:..\FreeRTOS\Source/event_groups.c **** 	}
 592:..\FreeRTOS\Source/event_groups.c **** 	( void ) xTaskResumeAll();
 593:..\FreeRTOS\Source/event_groups.c **** 
 594:..\FreeRTOS\Source/event_groups.c **** 	return pxEventBits->uxEventBits;
 595:..\FreeRTOS\Source/event_groups.c **** }
 596:..\FreeRTOS\Source/event_groups.c **** /*-----------------------------------------------------------*/
 597:..\FreeRTOS\Source/event_groups.c **** 
 598:..\FreeRTOS\Source/event_groups.c **** void vEventGroupDelete( EventGroupHandle_t xEventGroup )
 599:..\FreeRTOS\Source/event_groups.c **** {
 600:..\FreeRTOS\Source/event_groups.c **** EventGroup_t *pxEventBits = ( EventGroup_t * ) xEventGroup;
 601:..\FreeRTOS\Source/event_groups.c **** const List_t *pxTasksWaitingForBits = &( pxEventBits->xTasksWaitingForBits );
ARM GAS  C:\Users\samue\AppData\Local\Temp\ccR5T69m.s 			page 12


 602:..\FreeRTOS\Source/event_groups.c **** 
 603:..\FreeRTOS\Source/event_groups.c **** 	vTaskSuspendAll();
 604:..\FreeRTOS\Source/event_groups.c **** 	{
 605:..\FreeRTOS\Source/event_groups.c **** 		traceEVENT_GROUP_DELETE( xEventGroup );
 606:..\FreeRTOS\Source/event_groups.c **** 
 607:..\FreeRTOS\Source/event_groups.c **** 		while( listCURRENT_LIST_LENGTH( pxTasksWaitingForBits ) > ( UBaseType_t ) 0 )
 608:..\FreeRTOS\Source/event_groups.c **** 		{
 609:..\FreeRTOS\Source/event_groups.c **** 			/* Unblock the task, returning 0 as the event list is being deleted
 610:..\FreeRTOS\Source/event_groups.c **** 			and cannot therefore have any bits set. */
 611:..\FreeRTOS\Source/event_groups.c **** 			configASSERT( pxTasksWaitingForBits->xListEnd.pxNext != ( const ListItem_t * ) &( pxTasksWaiting
 612:..\FreeRTOS\Source/event_groups.c **** 			vTaskRemoveFromUnorderedEventList( pxTasksWaitingForBits->xListEnd.pxNext, eventUNBLOCKED_DUE_TO
 613:..\FreeRTOS\Source/event_groups.c **** 		}
 614:..\FreeRTOS\Source/event_groups.c **** 
 615:..\FreeRTOS\Source/event_groups.c **** 		#if( ( configSUPPORT_DYNAMIC_ALLOCATION == 1 ) && ( configSUPPORT_STATIC_ALLOCATION == 0 ) )
 616:..\FreeRTOS\Source/event_groups.c **** 		{
 617:..\FreeRTOS\Source/event_groups.c **** 			/* The event group can only have been allocated dynamically - free
 618:..\FreeRTOS\Source/event_groups.c **** 			it again. */
 619:..\FreeRTOS\Source/event_groups.c **** 			vPortFree( pxEventBits );
 620:..\FreeRTOS\Source/event_groups.c **** 		}
 621:..\FreeRTOS\Source/event_groups.c **** 		#elif( ( configSUPPORT_DYNAMIC_ALLOCATION == 1 ) && ( configSUPPORT_STATIC_ALLOCATION == 1 ) )
 622:..\FreeRTOS\Source/event_groups.c **** 		{
 623:..\FreeRTOS\Source/event_groups.c **** 			/* The event group could have been allocated statically or
 624:..\FreeRTOS\Source/event_groups.c **** 			dynamically, so check before attempting to free the memory. */
 625:..\FreeRTOS\Source/event_groups.c **** 			if( pxEventBits->ucStaticallyAllocated == ( uint8_t ) pdFALSE )
 626:..\FreeRTOS\Source/event_groups.c **** 			{
 627:..\FreeRTOS\Source/event_groups.c **** 				vPortFree( pxEventBits );
 628:..\FreeRTOS\Source/event_groups.c **** 			}
 629:..\FreeRTOS\Source/event_groups.c **** 			else
 630:..\FreeRTOS\Source/event_groups.c **** 			{
 631:..\FreeRTOS\Source/event_groups.c **** 				mtCOVERAGE_TEST_MARKER();
 632:..\FreeRTOS\Source/event_groups.c **** 			}
 633:..\FreeRTOS\Source/event_groups.c **** 		}
 634:..\FreeRTOS\Source/event_groups.c **** 		#endif /* configSUPPORT_DYNAMIC_ALLOCATION */
 635:..\FreeRTOS\Source/event_groups.c **** 	}
 636:..\FreeRTOS\Source/event_groups.c **** 	( void ) xTaskResumeAll();
 637:..\FreeRTOS\Source/event_groups.c **** }
 638:..\FreeRTOS\Source/event_groups.c **** /*-----------------------------------------------------------*/
 639:..\FreeRTOS\Source/event_groups.c **** 
 640:..\FreeRTOS\Source/event_groups.c **** /* For internal use only - execute a 'set bits' command that was pended from
 641:..\FreeRTOS\Source/event_groups.c **** an interrupt. */
 642:..\FreeRTOS\Source/event_groups.c **** void vEventGroupSetBitsCallback( void *pvEventGroup, const uint32_t ulBitsToSet )
 643:..\FreeRTOS\Source/event_groups.c **** {
 644:..\FreeRTOS\Source/event_groups.c **** 	( void ) xEventGroupSetBits( pvEventGroup, ( EventBits_t ) ulBitsToSet );
 645:..\FreeRTOS\Source/event_groups.c **** }
 646:..\FreeRTOS\Source/event_groups.c **** /*-----------------------------------------------------------*/
 647:..\FreeRTOS\Source/event_groups.c **** 
 648:..\FreeRTOS\Source/event_groups.c **** /* For internal use only - execute a 'clear bits' command that was pended from
 649:..\FreeRTOS\Source/event_groups.c **** an interrupt. */
 650:..\FreeRTOS\Source/event_groups.c **** void vEventGroupClearBitsCallback( void *pvEventGroup, const uint32_t ulBitsToClear )
 651:..\FreeRTOS\Source/event_groups.c **** {
 652:..\FreeRTOS\Source/event_groups.c **** 	( void ) xEventGroupClearBits( pvEventGroup, ( EventBits_t ) ulBitsToClear );
 653:..\FreeRTOS\Source/event_groups.c **** }
 654:..\FreeRTOS\Source/event_groups.c **** /*-----------------------------------------------------------*/
 655:..\FreeRTOS\Source/event_groups.c **** 
 656:..\FreeRTOS\Source/event_groups.c **** static BaseType_t prvTestWaitCondition( const EventBits_t uxCurrentEventBits, const EventBits_t uxB
 657:..\FreeRTOS\Source/event_groups.c **** {
  27              		.loc 1 657 0
ARM GAS  C:\Users\samue\AppData\Local\Temp\ccR5T69m.s 			page 13


  28              		.cfi_startproc
  29              		@ args = 0, pretend = 0, frame = 0
  30              		@ frame_needed = 0, uses_anonymous_args = 0
  31              		@ link register save eliminated.
  32              	.LVL0:
 658:..\FreeRTOS\Source/event_groups.c **** BaseType_t xWaitConditionMet = pdFALSE;
 659:..\FreeRTOS\Source/event_groups.c **** 
 660:..\FreeRTOS\Source/event_groups.c **** 	if( xWaitForAllBits == pdFALSE )
  33              		.loc 1 660 0
  34 0000 1AB9     		cbnz	r2, .L2
 661:..\FreeRTOS\Source/event_groups.c **** 	{
 662:..\FreeRTOS\Source/event_groups.c **** 		/* Task only has to wait for one bit within uxBitsToWaitFor to be
 663:..\FreeRTOS\Source/event_groups.c **** 		set.  Is one already set? */
 664:..\FreeRTOS\Source/event_groups.c **** 		if( ( uxCurrentEventBits & uxBitsToWaitFor ) != ( EventBits_t ) 0 )
  35              		.loc 1 664 0
  36 0002 0842     		tst	r0, r1
  37 0004 06D1     		bne	.L4
 658:..\FreeRTOS\Source/event_groups.c **** BaseType_t xWaitConditionMet = pdFALSE;
  38              		.loc 1 658 0
  39 0006 0020     		movs	r0, #0
  40              	.LVL1:
  41 0008 7047     		bx	lr
  42              	.LVL2:
  43              	.L2:
 665:..\FreeRTOS\Source/event_groups.c **** 		{
 666:..\FreeRTOS\Source/event_groups.c **** 			xWaitConditionMet = pdTRUE;
 667:..\FreeRTOS\Source/event_groups.c **** 		}
 668:..\FreeRTOS\Source/event_groups.c **** 		else
 669:..\FreeRTOS\Source/event_groups.c **** 		{
 670:..\FreeRTOS\Source/event_groups.c **** 			mtCOVERAGE_TEST_MARKER();
 671:..\FreeRTOS\Source/event_groups.c **** 		}
 672:..\FreeRTOS\Source/event_groups.c **** 	}
 673:..\FreeRTOS\Source/event_groups.c **** 	else
 674:..\FreeRTOS\Source/event_groups.c **** 	{
 675:..\FreeRTOS\Source/event_groups.c **** 		/* Task has to wait for all the bits in uxBitsToWaitFor to be set.
 676:..\FreeRTOS\Source/event_groups.c **** 		Are they set already? */
 677:..\FreeRTOS\Source/event_groups.c **** 		if( ( uxCurrentEventBits & uxBitsToWaitFor ) == uxBitsToWaitFor )
  44              		.loc 1 677 0
  45 000a 31EA0003 		bics	r3, r1, r0
  46 000e 03D0     		beq	.L5
 658:..\FreeRTOS\Source/event_groups.c **** 
  47              		.loc 1 658 0
  48 0010 0020     		movs	r0, #0
  49              	.LVL3:
  50 0012 7047     		bx	lr
  51              	.LVL4:
  52              	.L4:
 666:..\FreeRTOS\Source/event_groups.c **** 		}
  53              		.loc 1 666 0
  54 0014 0120     		movs	r0, #1
  55              	.LVL5:
  56 0016 7047     		bx	lr
  57              	.LVL6:
  58              	.L5:
 678:..\FreeRTOS\Source/event_groups.c **** 		{
 679:..\FreeRTOS\Source/event_groups.c **** 			xWaitConditionMet = pdTRUE;
  59              		.loc 1 679 0
ARM GAS  C:\Users\samue\AppData\Local\Temp\ccR5T69m.s 			page 14


  60 0018 0120     		movs	r0, #1
  61              	.LVL7:
 680:..\FreeRTOS\Source/event_groups.c **** 		}
 681:..\FreeRTOS\Source/event_groups.c **** 		else
 682:..\FreeRTOS\Source/event_groups.c **** 		{
 683:..\FreeRTOS\Source/event_groups.c **** 			mtCOVERAGE_TEST_MARKER();
 684:..\FreeRTOS\Source/event_groups.c **** 		}
 685:..\FreeRTOS\Source/event_groups.c **** 	}
 686:..\FreeRTOS\Source/event_groups.c **** 
 687:..\FreeRTOS\Source/event_groups.c **** 	return xWaitConditionMet;
 688:..\FreeRTOS\Source/event_groups.c **** }
  62              		.loc 1 688 0
  63 001a 7047     		bx	lr
  64              		.cfi_endproc
  65              	.LFE77:
  66              		.size	prvTestWaitCondition, .-prvTestWaitCondition
  67              		.section	.text.xEventGroupCreate,"ax",%progbits
  68              		.align	2
  69              		.global	xEventGroupCreate
  70              		.thumb
  71              		.thumb_func
  72              		.type	xEventGroupCreate, %function
  73              	xEventGroupCreate:
  74              	.LFB68:
 143:..\FreeRTOS\Source/event_groups.c **** 	EventGroup_t *pxEventBits;
  75              		.loc 1 143 0
  76              		.cfi_startproc
  77              		@ args = 0, pretend = 0, frame = 0
  78              		@ frame_needed = 0, uses_anonymous_args = 0
  79 0000 10B5     		push	{r4, lr}
  80              		.cfi_def_cfa_offset 8
  81              		.cfi_offset 4, -8
  82              		.cfi_offset 14, -4
 147:..\FreeRTOS\Source/event_groups.c **** 
  83              		.loc 1 147 0
  84 0002 1C20     		movs	r0, #28
  85 0004 FFF7FEFF 		bl	pvPortMalloc
  86              	.LVL8:
 149:..\FreeRTOS\Source/event_groups.c **** 		{
  87              		.loc 1 149 0
  88 0008 0446     		mov	r4, r0
  89 000a 20B1     		cbz	r0, .L7
 151:..\FreeRTOS\Source/event_groups.c **** 			vListInitialise( &( pxEventBits->xTasksWaitingForBits ) );
  90              		.loc 1 151 0
  91 000c 0023     		movs	r3, #0
  92 000e 40F8043B 		str	r3, [r0], #4
  93              	.LVL9:
 152:..\FreeRTOS\Source/event_groups.c **** 
  94              		.loc 1 152 0
  95 0012 FFF7FEFF 		bl	vListInitialise
  96              	.LVL10:
  97              	.L7:
 171:..\FreeRTOS\Source/event_groups.c **** 
  98              		.loc 1 171 0
  99 0016 2046     		mov	r0, r4
 100 0018 10BD     		pop	{r4, pc}
 101              		.cfi_endproc
ARM GAS  C:\Users\samue\AppData\Local\Temp\ccR5T69m.s 			page 15


 102              	.LFE68:
 103              		.size	xEventGroupCreate, .-xEventGroupCreate
 104 001a 00BF     		.section	.text.xEventGroupWaitBits,"ax",%progbits
 105              		.align	2
 106              		.global	xEventGroupWaitBits
 107              		.thumb
 108              		.thumb_func
 109              		.type	xEventGroupWaitBits, %function
 110              	xEventGroupWaitBits:
 111              	.LFB70:
 297:..\FreeRTOS\Source/event_groups.c **** EventGroup_t *pxEventBits = ( EventGroup_t * ) xEventGroup;
 112              		.loc 1 297 0
 113              		.cfi_startproc
 114              		@ args = 4, pretend = 0, frame = 0
 115              		@ frame_needed = 0, uses_anonymous_args = 0
 116              	.LVL11:
 117 0000 2DE9F843 		push	{r3, r4, r5, r6, r7, r8, r9, lr}
 118              		.cfi_def_cfa_offset 32
 119              		.cfi_offset 3, -32
 120              		.cfi_offset 4, -28
 121              		.cfi_offset 5, -24
 122              		.cfi_offset 6, -20
 123              		.cfi_offset 7, -16
 124              		.cfi_offset 8, -12
 125              		.cfi_offset 9, -8
 126              		.cfi_offset 14, -4
 127 0004 0746     		mov	r7, r0
 128 0006 0E46     		mov	r6, r1
 129 0008 9146     		mov	r9, r2
 130 000a 9846     		mov	r8, r3
 131 000c 089D     		ldr	r5, [sp, #32]
 132              	.LVL12:
 314:..\FreeRTOS\Source/event_groups.c **** 	{
 133              		.loc 1 314 0
 134 000e FFF7FEFF 		bl	vTaskSuspendAll
 135              	.LVL13:
 136              	.LBB6:
 316:..\FreeRTOS\Source/event_groups.c **** 
 137              		.loc 1 316 0
 138 0012 3C68     		ldr	r4, [r7]
 139              	.LVL14:
 319:..\FreeRTOS\Source/event_groups.c **** 
 140              		.loc 1 319 0
 141 0014 4246     		mov	r2, r8
 142 0016 3146     		mov	r1, r6
 143 0018 2046     		mov	r0, r4
 144 001a FFF7FEFF 		bl	prvTestWaitCondition
 145              	.LVL15:
 321:..\FreeRTOS\Source/event_groups.c **** 		{
 146              		.loc 1 321 0
 147 001e 38B1     		cbz	r0, .L10
 148              	.LVL16:
 329:..\FreeRTOS\Source/event_groups.c **** 			{
 149              		.loc 1 329 0
 150 0020 B9F1000F 		cmp	r9, #0
 151 0024 18D0     		beq	.L18
 331:..\FreeRTOS\Source/event_groups.c **** 			}
ARM GAS  C:\Users\samue\AppData\Local\Temp\ccR5T69m.s 			page 16


 152              		.loc 1 331 0
 153 0026 24EA0603 		bic	r3, r4, r6
 154 002a 3B60     		str	r3, [r7]
 326:..\FreeRTOS\Source/event_groups.c **** 
 155              		.loc 1 326 0
 156 002c 0025     		movs	r5, #0
 157 002e 14E0     		b	.L11
 158              	.LVL17:
 159              	.L10:
 338:..\FreeRTOS\Source/event_groups.c **** 		{
 160              		.loc 1 338 0
 161 0030 9DB1     		cbz	r5, .L11
 351:..\FreeRTOS\Source/event_groups.c **** 			{
 162              		.loc 1 351 0
 163 0032 B9F1000F 		cmp	r9, #0
 164 0036 01D1     		bne	.L19
 165              	.LBE6:
 299:..\FreeRTOS\Source/event_groups.c **** BaseType_t xWaitConditionMet, xAlreadyYielded;
 166              		.loc 1 299 0
 167 0038 0021     		movs	r1, #0
 168 003a 01E0     		b	.L12
 169              	.L19:
 170              	.LBB7:
 353:..\FreeRTOS\Source/event_groups.c **** 			}
 171              		.loc 1 353 0
 172 003c 4FF08071 		mov	r1, #16777216
 173              	.L12:
 174              	.LVL18:
 360:..\FreeRTOS\Source/event_groups.c **** 			{
 175              		.loc 1 360 0
 176 0040 B8F1000F 		cmp	r8, #0
 177 0044 01D0     		beq	.L13
 362:..\FreeRTOS\Source/event_groups.c **** 			}
 178              		.loc 1 362 0
 179 0046 41F08061 		orr	r1, r1, #67108864
 180              	.LVL19:
 181              	.L13:
 372:..\FreeRTOS\Source/event_groups.c **** 
 182              		.loc 1 372 0
 183 004a 2A46     		mov	r2, r5
 184 004c 3143     		orrs	r1, r1, r6
 185              	.LVL20:
 186 004e 381D     		adds	r0, r7, #4
 187              	.LVL21:
 188 0050 FFF7FEFF 		bl	vTaskPlaceOnUnorderedEventList
 189              	.LVL22:
 377:..\FreeRTOS\Source/event_groups.c **** 
 190              		.loc 1 377 0
 191 0054 0024     		movs	r4, #0
 192              	.LVL23:
 193 0056 00E0     		b	.L11
 194              	.LVL24:
 195              	.L18:
 326:..\FreeRTOS\Source/event_groups.c **** 
 196              		.loc 1 326 0
 197 0058 0025     		movs	r5, #0
 198              	.LVL25:
ARM GAS  C:\Users\samue\AppData\Local\Temp\ccR5T69m.s 			page 17


 199              	.L11:
 200              	.LBE7:
 382:..\FreeRTOS\Source/event_groups.c **** 
 201              		.loc 1 382 0
 202 005a FFF7FEFF 		bl	xTaskResumeAll
 203              	.LVL26:
 384:..\FreeRTOS\Source/event_groups.c **** 	{
 204              		.loc 1 384 0
 205 005e 0DB3     		cbz	r5, .L14
 386:..\FreeRTOS\Source/event_groups.c **** 		{
 206              		.loc 1 386 0
 207 0060 38B9     		cbnz	r0, .L15
 388:..\FreeRTOS\Source/event_groups.c **** 		}
 208              		.loc 1 388 0
 209 0062 4FF08052 		mov	r2, #268435456
 210 0066 114B     		ldr	r3, .L21
 211 0068 1A60     		str	r2, [r3]
 212              		.syntax unified
 213              	@ 388 "..\FreeRTOS\Source\event_groups.c" 1
 214 006a BFF34F8F 		dsb
 215              	@ 0 "" 2
 216              	@ 388 "..\FreeRTOS\Source\event_groups.c" 1
 217 006e BFF36F8F 		isb
 218              	@ 0 "" 2
 219              		.thumb
 220              		.syntax unified
 221              	.L15:
 399:..\FreeRTOS\Source/event_groups.c **** 
 222              		.loc 1 399 0
 223 0072 FFF7FEFF 		bl	uxTaskResetEventItemValue
 224              	.LVL27:
 225 0076 0446     		mov	r4, r0
 226              	.LVL28:
 401:..\FreeRTOS\Source/event_groups.c **** 		{
 227              		.loc 1 401 0
 228 0078 10F0007F 		tst	r0, #33554432
 229 007c 10D1     		bne	.L16
 403:..\FreeRTOS\Source/event_groups.c **** 			{
 230              		.loc 1 403 0
 231 007e FFF7FEFF 		bl	vPortEnterCritical
 232              	.LVL29:
 406:..\FreeRTOS\Source/event_groups.c **** 
 233              		.loc 1 406 0
 234 0082 3C68     		ldr	r4, [r7]
 235              	.LVL30:
 410:..\FreeRTOS\Source/event_groups.c **** 				{
 236              		.loc 1 410 0
 237 0084 4246     		mov	r2, r8
 238 0086 3146     		mov	r1, r6
 239 0088 2046     		mov	r0, r4
 240 008a FFF7FEFF 		bl	prvTestWaitCondition
 241              	.LVL31:
 242 008e 28B1     		cbz	r0, .L17
 412:..\FreeRTOS\Source/event_groups.c **** 					{
 243              		.loc 1 412 0
 244 0090 B9F1000F 		cmp	r9, #0
 245 0094 02D0     		beq	.L17
ARM GAS  C:\Users\samue\AppData\Local\Temp\ccR5T69m.s 			page 18


 414:..\FreeRTOS\Source/event_groups.c **** 					}
 246              		.loc 1 414 0
 247 0096 24EA0606 		bic	r6, r4, r6
 248              	.LVL32:
 249 009a 3E60     		str	r6, [r7]
 250              	.L17:
 251              	.LVL33:
 427:..\FreeRTOS\Source/event_groups.c **** 		}
 252              		.loc 1 427 0
 253 009c FFF7FEFF 		bl	vPortExitCritical
 254              	.LVL34:
 255              	.L16:
 435:..\FreeRTOS\Source/event_groups.c **** 	}
 256              		.loc 1 435 0
 257 00a0 24F07F44 		bic	r4, r4, #-16777216
 258              	.LVL35:
 259              	.L14:
 443:..\FreeRTOS\Source/event_groups.c **** /*-----------------------------------------------------------*/
 260              		.loc 1 443 0
 261 00a4 2046     		mov	r0, r4
 262 00a6 BDE8F883 		pop	{r3, r4, r5, r6, r7, r8, r9, pc}
 263              	.LVL36:
 264              	.L22:
 265 00aa 00BF     		.align	2
 266              	.L21:
 267 00ac 04ED00E0 		.word	-536810236
 268              		.cfi_endproc
 269              	.LFE70:
 270              		.size	xEventGroupWaitBits, .-xEventGroupWaitBits
 271              		.section	.text.xEventGroupClearBits,"ax",%progbits
 272              		.align	2
 273              		.global	xEventGroupClearBits
 274              		.thumb
 275              		.thumb_func
 276              		.type	xEventGroupClearBits, %function
 277              	xEventGroupClearBits:
 278              	.LFB71:
 447:..\FreeRTOS\Source/event_groups.c **** EventGroup_t *pxEventBits = ( EventGroup_t * ) xEventGroup;
 279              		.loc 1 447 0
 280              		.cfi_startproc
 281              		@ args = 0, pretend = 0, frame = 0
 282              		@ frame_needed = 0, uses_anonymous_args = 0
 283              	.LVL37:
 284 0000 70B5     		push	{r4, r5, r6, lr}
 285              		.cfi_def_cfa_offset 16
 286              		.cfi_offset 4, -16
 287              		.cfi_offset 5, -12
 288              		.cfi_offset 6, -8
 289              		.cfi_offset 14, -4
 290 0002 0646     		mov	r6, r0
 291 0004 0C46     		mov	r4, r1
 292              	.LVL38:
 456:..\FreeRTOS\Source/event_groups.c **** 	{
 293              		.loc 1 456 0
 294 0006 FFF7FEFF 		bl	vPortEnterCritical
 295              	.LVL39:
 462:..\FreeRTOS\Source/event_groups.c **** 
ARM GAS  C:\Users\samue\AppData\Local\Temp\ccR5T69m.s 			page 19


 296              		.loc 1 462 0
 297 000a 3568     		ldr	r5, [r6]
 298              	.LVL40:
 465:..\FreeRTOS\Source/event_groups.c **** 	}
 299              		.loc 1 465 0
 300 000c 25EA0404 		bic	r4, r5, r4
 301              	.LVL41:
 302 0010 3460     		str	r4, [r6]
 467:..\FreeRTOS\Source/event_groups.c **** 
 303              		.loc 1 467 0
 304 0012 FFF7FEFF 		bl	vPortExitCritical
 305              	.LVL42:
 470:..\FreeRTOS\Source/event_groups.c **** /*-----------------------------------------------------------*/
 306              		.loc 1 470 0
 307 0016 2846     		mov	r0, r5
 308 0018 70BD     		pop	{r4, r5, r6, pc}
 309              		.cfi_endproc
 310              	.LFE71:
 311              		.size	xEventGroupClearBits, .-xEventGroupClearBits
 312 001a 00BF     		.section	.text.xEventGroupGetBitsFromISR,"ax",%progbits
 313              		.align	2
 314              		.global	xEventGroupGetBitsFromISR
 315              		.thumb
 316              		.thumb_func
 317              		.type	xEventGroupGetBitsFromISR, %function
 318              	xEventGroupGetBitsFromISR:
 319              	.LFB72:
 489:..\FreeRTOS\Source/event_groups.c **** UBaseType_t uxSavedInterruptStatus;
 320              		.loc 1 489 0
 321              		.cfi_startproc
 322              		@ args = 0, pretend = 0, frame = 0
 323              		@ frame_needed = 0, uses_anonymous_args = 0
 324              		@ link register save eliminated.
 325              	.LVL43:
 326              	.LBB8:
 327              	.LBB9:
 328              		.file 2 "..\\FreeRTOS\\Source\\portable\\GCC\\ARM_CM3/portmacro.h"
   1:..\FreeRTOS\Source\portable\GCC\ARM_CM3/portmacro.h **** /*
   2:..\FreeRTOS\Source\portable\GCC\ARM_CM3/portmacro.h ****  * FreeRTOS Kernel V10.0.1
   3:..\FreeRTOS\Source\portable\GCC\ARM_CM3/portmacro.h ****  * Copyright (C) 2017 Amazon.com, Inc. or its affiliates.  All Rights Reserved.
   4:..\FreeRTOS\Source\portable\GCC\ARM_CM3/portmacro.h ****  *
   5:..\FreeRTOS\Source\portable\GCC\ARM_CM3/portmacro.h ****  * Permission is hereby granted, free of charge, to any person obtaining a copy of
   6:..\FreeRTOS\Source\portable\GCC\ARM_CM3/portmacro.h ****  * this software and associated documentation files (the "Software"), to deal in
   7:..\FreeRTOS\Source\portable\GCC\ARM_CM3/portmacro.h ****  * the Software without restriction, including without limitation the rights to
   8:..\FreeRTOS\Source\portable\GCC\ARM_CM3/portmacro.h ****  * use, copy, modify, merge, publish, distribute, sublicense, and/or sell copies of
   9:..\FreeRTOS\Source\portable\GCC\ARM_CM3/portmacro.h ****  * the Software, and to permit persons to whom the Software is furnished to do so,
  10:..\FreeRTOS\Source\portable\GCC\ARM_CM3/portmacro.h ****  * subject to the following conditions:
  11:..\FreeRTOS\Source\portable\GCC\ARM_CM3/portmacro.h ****  *
  12:..\FreeRTOS\Source\portable\GCC\ARM_CM3/portmacro.h ****  * The above copyright notice and this permission notice shall be included in all
  13:..\FreeRTOS\Source\portable\GCC\ARM_CM3/portmacro.h ****  * copies or substantial portions of the Software.
  14:..\FreeRTOS\Source\portable\GCC\ARM_CM3/portmacro.h ****  *
  15:..\FreeRTOS\Source\portable\GCC\ARM_CM3/portmacro.h ****  * THE SOFTWARE IS PROVIDED "AS IS", WITHOUT WARRANTY OF ANY KIND, EXPRESS OR
  16:..\FreeRTOS\Source\portable\GCC\ARM_CM3/portmacro.h ****  * IMPLIED, INCLUDING BUT NOT LIMITED TO THE WARRANTIES OF MERCHANTABILITY, FITNESS
  17:..\FreeRTOS\Source\portable\GCC\ARM_CM3/portmacro.h ****  * FOR A PARTICULAR PURPOSE AND NONINFRINGEMENT. IN NO EVENT SHALL THE AUTHORS OR
  18:..\FreeRTOS\Source\portable\GCC\ARM_CM3/portmacro.h ****  * COPYRIGHT HOLDERS BE LIABLE FOR ANY CLAIM, DAMAGES OR OTHER LIABILITY, WHETHER
  19:..\FreeRTOS\Source\portable\GCC\ARM_CM3/portmacro.h ****  * IN AN ACTION OF CONTRACT, TORT OR OTHERWISE, ARISING FROM, OUT OF OR IN
  20:..\FreeRTOS\Source\portable\GCC\ARM_CM3/portmacro.h ****  * CONNECTION WITH THE SOFTWARE OR THE USE OR OTHER DEALINGS IN THE SOFTWARE.
ARM GAS  C:\Users\samue\AppData\Local\Temp\ccR5T69m.s 			page 20


  21:..\FreeRTOS\Source\portable\GCC\ARM_CM3/portmacro.h ****  *
  22:..\FreeRTOS\Source\portable\GCC\ARM_CM3/portmacro.h ****  * http://www.FreeRTOS.org
  23:..\FreeRTOS\Source\portable\GCC\ARM_CM3/portmacro.h ****  * http://aws.amazon.com/freertos
  24:..\FreeRTOS\Source\portable\GCC\ARM_CM3/portmacro.h ****  *
  25:..\FreeRTOS\Source\portable\GCC\ARM_CM3/portmacro.h ****  * 1 tab == 4 spaces!
  26:..\FreeRTOS\Source\portable\GCC\ARM_CM3/portmacro.h ****  */
  27:..\FreeRTOS\Source\portable\GCC\ARM_CM3/portmacro.h **** 
  28:..\FreeRTOS\Source\portable\GCC\ARM_CM3/portmacro.h **** 
  29:..\FreeRTOS\Source\portable\GCC\ARM_CM3/portmacro.h **** #ifndef PORTMACRO_H
  30:..\FreeRTOS\Source\portable\GCC\ARM_CM3/portmacro.h **** #define PORTMACRO_H
  31:..\FreeRTOS\Source\portable\GCC\ARM_CM3/portmacro.h **** 
  32:..\FreeRTOS\Source\portable\GCC\ARM_CM3/portmacro.h **** #ifdef __cplusplus
  33:..\FreeRTOS\Source\portable\GCC\ARM_CM3/portmacro.h **** extern "C" {
  34:..\FreeRTOS\Source\portable\GCC\ARM_CM3/portmacro.h **** #endif
  35:..\FreeRTOS\Source\portable\GCC\ARM_CM3/portmacro.h **** 
  36:..\FreeRTOS\Source\portable\GCC\ARM_CM3/portmacro.h **** /*-----------------------------------------------------------
  37:..\FreeRTOS\Source\portable\GCC\ARM_CM3/portmacro.h ****  * Port specific definitions.
  38:..\FreeRTOS\Source\portable\GCC\ARM_CM3/portmacro.h ****  *
  39:..\FreeRTOS\Source\portable\GCC\ARM_CM3/portmacro.h ****  * The settings in this file configure FreeRTOS correctly for the
  40:..\FreeRTOS\Source\portable\GCC\ARM_CM3/portmacro.h ****  * given hardware and compiler.
  41:..\FreeRTOS\Source\portable\GCC\ARM_CM3/portmacro.h ****  *
  42:..\FreeRTOS\Source\portable\GCC\ARM_CM3/portmacro.h ****  * These settings should not be altered.
  43:..\FreeRTOS\Source\portable\GCC\ARM_CM3/portmacro.h ****  *-----------------------------------------------------------
  44:..\FreeRTOS\Source\portable\GCC\ARM_CM3/portmacro.h ****  */
  45:..\FreeRTOS\Source\portable\GCC\ARM_CM3/portmacro.h **** 
  46:..\FreeRTOS\Source\portable\GCC\ARM_CM3/portmacro.h **** /* Type definitions. */
  47:..\FreeRTOS\Source\portable\GCC\ARM_CM3/portmacro.h **** #define portCHAR		char
  48:..\FreeRTOS\Source\portable\GCC\ARM_CM3/portmacro.h **** #define portFLOAT		float
  49:..\FreeRTOS\Source\portable\GCC\ARM_CM3/portmacro.h **** #define portDOUBLE		double
  50:..\FreeRTOS\Source\portable\GCC\ARM_CM3/portmacro.h **** #define portLONG		long
  51:..\FreeRTOS\Source\portable\GCC\ARM_CM3/portmacro.h **** #define portSHORT		short
  52:..\FreeRTOS\Source\portable\GCC\ARM_CM3/portmacro.h **** #define portSTACK_TYPE	uint32_t
  53:..\FreeRTOS\Source\portable\GCC\ARM_CM3/portmacro.h **** #define portBASE_TYPE	long
  54:..\FreeRTOS\Source\portable\GCC\ARM_CM3/portmacro.h **** 
  55:..\FreeRTOS\Source\portable\GCC\ARM_CM3/portmacro.h **** typedef portSTACK_TYPE StackType_t;
  56:..\FreeRTOS\Source\portable\GCC\ARM_CM3/portmacro.h **** typedef long BaseType_t;
  57:..\FreeRTOS\Source\portable\GCC\ARM_CM3/portmacro.h **** typedef unsigned long UBaseType_t;
  58:..\FreeRTOS\Source\portable\GCC\ARM_CM3/portmacro.h **** 
  59:..\FreeRTOS\Source\portable\GCC\ARM_CM3/portmacro.h **** #if( configUSE_16_BIT_TICKS == 1 )
  60:..\FreeRTOS\Source\portable\GCC\ARM_CM3/portmacro.h **** 	typedef uint16_t TickType_t;
  61:..\FreeRTOS\Source\portable\GCC\ARM_CM3/portmacro.h **** 	#define portMAX_DELAY ( TickType_t ) 0xffff
  62:..\FreeRTOS\Source\portable\GCC\ARM_CM3/portmacro.h **** #else
  63:..\FreeRTOS\Source\portable\GCC\ARM_CM3/portmacro.h **** 	typedef uint32_t TickType_t;
  64:..\FreeRTOS\Source\portable\GCC\ARM_CM3/portmacro.h **** 	#define portMAX_DELAY ( TickType_t ) 0xffffffffUL
  65:..\FreeRTOS\Source\portable\GCC\ARM_CM3/portmacro.h **** 
  66:..\FreeRTOS\Source\portable\GCC\ARM_CM3/portmacro.h **** 	/* 32-bit tick type on a 32-bit architecture, so reads of the tick count do
  67:..\FreeRTOS\Source\portable\GCC\ARM_CM3/portmacro.h **** 	not need to be guarded with a critical section. */
  68:..\FreeRTOS\Source\portable\GCC\ARM_CM3/portmacro.h **** 	#define portTICK_TYPE_IS_ATOMIC 1
  69:..\FreeRTOS\Source\portable\GCC\ARM_CM3/portmacro.h **** #endif
  70:..\FreeRTOS\Source\portable\GCC\ARM_CM3/portmacro.h **** /*-----------------------------------------------------------*/
  71:..\FreeRTOS\Source\portable\GCC\ARM_CM3/portmacro.h **** 
  72:..\FreeRTOS\Source\portable\GCC\ARM_CM3/portmacro.h **** /* Architecture specifics. */
  73:..\FreeRTOS\Source\portable\GCC\ARM_CM3/portmacro.h **** #define portSTACK_GROWTH			( -1 )
  74:..\FreeRTOS\Source\portable\GCC\ARM_CM3/portmacro.h **** #define portTICK_PERIOD_MS			( ( TickType_t ) 1000 / configTICK_RATE_HZ )
  75:..\FreeRTOS\Source\portable\GCC\ARM_CM3/portmacro.h **** #define portBYTE_ALIGNMENT			8
  76:..\FreeRTOS\Source\portable\GCC\ARM_CM3/portmacro.h **** /*-----------------------------------------------------------*/
  77:..\FreeRTOS\Source\portable\GCC\ARM_CM3/portmacro.h **** 
ARM GAS  C:\Users\samue\AppData\Local\Temp\ccR5T69m.s 			page 21


  78:..\FreeRTOS\Source\portable\GCC\ARM_CM3/portmacro.h **** /* Scheduler utilities. */
  79:..\FreeRTOS\Source\portable\GCC\ARM_CM3/portmacro.h **** #define portYIELD() 															\
  80:..\FreeRTOS\Source\portable\GCC\ARM_CM3/portmacro.h **** {																				\
  81:..\FreeRTOS\Source\portable\GCC\ARM_CM3/portmacro.h **** 	/* Set a PendSV to request a context switch. */								\
  82:..\FreeRTOS\Source\portable\GCC\ARM_CM3/portmacro.h **** 	portNVIC_INT_CTRL_REG = portNVIC_PENDSVSET_BIT;								\
  83:..\FreeRTOS\Source\portable\GCC\ARM_CM3/portmacro.h **** 																				\
  84:..\FreeRTOS\Source\portable\GCC\ARM_CM3/portmacro.h **** 	/* Barriers are normally not required but do ensure the code is completely	\
  85:..\FreeRTOS\Source\portable\GCC\ARM_CM3/portmacro.h **** 	within the specified behaviour for the architecture. */						\
  86:..\FreeRTOS\Source\portable\GCC\ARM_CM3/portmacro.h **** 	__asm volatile( "dsb" ::: "memory" );										\
  87:..\FreeRTOS\Source\portable\GCC\ARM_CM3/portmacro.h **** 	__asm volatile( "isb" );													\
  88:..\FreeRTOS\Source\portable\GCC\ARM_CM3/portmacro.h **** }
  89:..\FreeRTOS\Source\portable\GCC\ARM_CM3/portmacro.h **** 
  90:..\FreeRTOS\Source\portable\GCC\ARM_CM3/portmacro.h **** #define portNVIC_INT_CTRL_REG		( * ( ( volatile uint32_t * ) 0xe000ed04 ) )
  91:..\FreeRTOS\Source\portable\GCC\ARM_CM3/portmacro.h **** #define portNVIC_PENDSVSET_BIT		( 1UL << 28UL )
  92:..\FreeRTOS\Source\portable\GCC\ARM_CM3/portmacro.h **** #define portEND_SWITCHING_ISR( xSwitchRequired ) if( xSwitchRequired != pdFALSE ) portYIELD()
  93:..\FreeRTOS\Source\portable\GCC\ARM_CM3/portmacro.h **** #define portYIELD_FROM_ISR( x ) portEND_SWITCHING_ISR( x )
  94:..\FreeRTOS\Source\portable\GCC\ARM_CM3/portmacro.h **** /*-----------------------------------------------------------*/
  95:..\FreeRTOS\Source\portable\GCC\ARM_CM3/portmacro.h **** 
  96:..\FreeRTOS\Source\portable\GCC\ARM_CM3/portmacro.h **** /* Critical section management. */
  97:..\FreeRTOS\Source\portable\GCC\ARM_CM3/portmacro.h **** extern void vPortEnterCritical( void );
  98:..\FreeRTOS\Source\portable\GCC\ARM_CM3/portmacro.h **** extern void vPortExitCritical( void );
  99:..\FreeRTOS\Source\portable\GCC\ARM_CM3/portmacro.h **** #define portSET_INTERRUPT_MASK_FROM_ISR()		ulPortRaiseBASEPRI()
 100:..\FreeRTOS\Source\portable\GCC\ARM_CM3/portmacro.h **** #define portCLEAR_INTERRUPT_MASK_FROM_ISR(x)	vPortSetBASEPRI(x)
 101:..\FreeRTOS\Source\portable\GCC\ARM_CM3/portmacro.h **** #define portDISABLE_INTERRUPTS()				vPortRaiseBASEPRI()
 102:..\FreeRTOS\Source\portable\GCC\ARM_CM3/portmacro.h **** #define portENABLE_INTERRUPTS()					vPortSetBASEPRI(0)
 103:..\FreeRTOS\Source\portable\GCC\ARM_CM3/portmacro.h **** #define portENTER_CRITICAL()					vPortEnterCritical()
 104:..\FreeRTOS\Source\portable\GCC\ARM_CM3/portmacro.h **** #define portEXIT_CRITICAL()						vPortExitCritical()
 105:..\FreeRTOS\Source\portable\GCC\ARM_CM3/portmacro.h **** 
 106:..\FreeRTOS\Source\portable\GCC\ARM_CM3/portmacro.h **** /*-----------------------------------------------------------*/
 107:..\FreeRTOS\Source\portable\GCC\ARM_CM3/portmacro.h **** 
 108:..\FreeRTOS\Source\portable\GCC\ARM_CM3/portmacro.h **** /* Task function macros as described on the FreeRTOS.org WEB site.  These are
 109:..\FreeRTOS\Source\portable\GCC\ARM_CM3/portmacro.h **** not necessary for to use this port.  They are defined so the common demo files
 110:..\FreeRTOS\Source\portable\GCC\ARM_CM3/portmacro.h **** (which build with all the ports) will build. */
 111:..\FreeRTOS\Source\portable\GCC\ARM_CM3/portmacro.h **** #define portTASK_FUNCTION_PROTO( vFunction, pvParameters ) void vFunction( void *pvParameters )
 112:..\FreeRTOS\Source\portable\GCC\ARM_CM3/portmacro.h **** #define portTASK_FUNCTION( vFunction, pvParameters ) void vFunction( void *pvParameters )
 113:..\FreeRTOS\Source\portable\GCC\ARM_CM3/portmacro.h **** /*-----------------------------------------------------------*/
 114:..\FreeRTOS\Source\portable\GCC\ARM_CM3/portmacro.h **** 
 115:..\FreeRTOS\Source\portable\GCC\ARM_CM3/portmacro.h **** /* Tickless idle/low power functionality. */
 116:..\FreeRTOS\Source\portable\GCC\ARM_CM3/portmacro.h **** #ifndef portSUPPRESS_TICKS_AND_SLEEP
 117:..\FreeRTOS\Source\portable\GCC\ARM_CM3/portmacro.h **** 	extern void vPortSuppressTicksAndSleep( TickType_t xExpectedIdleTime );
 118:..\FreeRTOS\Source\portable\GCC\ARM_CM3/portmacro.h **** 	#define portSUPPRESS_TICKS_AND_SLEEP( xExpectedIdleTime ) vPortSuppressTicksAndSleep( xExpectedIdl
 119:..\FreeRTOS\Source\portable\GCC\ARM_CM3/portmacro.h **** #endif
 120:..\FreeRTOS\Source\portable\GCC\ARM_CM3/portmacro.h **** /*-----------------------------------------------------------*/
 121:..\FreeRTOS\Source\portable\GCC\ARM_CM3/portmacro.h **** 
 122:..\FreeRTOS\Source\portable\GCC\ARM_CM3/portmacro.h **** /* Architecture specific optimisations. */
 123:..\FreeRTOS\Source\portable\GCC\ARM_CM3/portmacro.h **** #ifndef configUSE_PORT_OPTIMISED_TASK_SELECTION
 124:..\FreeRTOS\Source\portable\GCC\ARM_CM3/portmacro.h **** 	#define configUSE_PORT_OPTIMISED_TASK_SELECTION 1
 125:..\FreeRTOS\Source\portable\GCC\ARM_CM3/portmacro.h **** #endif
 126:..\FreeRTOS\Source\portable\GCC\ARM_CM3/portmacro.h **** 
 127:..\FreeRTOS\Source\portable\GCC\ARM_CM3/portmacro.h **** #if configUSE_PORT_OPTIMISED_TASK_SELECTION == 1
 128:..\FreeRTOS\Source\portable\GCC\ARM_CM3/portmacro.h **** 
 129:..\FreeRTOS\Source\portable\GCC\ARM_CM3/portmacro.h **** 	/* Generic helper function. */
 130:..\FreeRTOS\Source\portable\GCC\ARM_CM3/portmacro.h **** 	__attribute__( ( always_inline ) ) static inline uint8_t ucPortCountLeadingZeros( uint32_t ulBitma
 131:..\FreeRTOS\Source\portable\GCC\ARM_CM3/portmacro.h **** 	{
 132:..\FreeRTOS\Source\portable\GCC\ARM_CM3/portmacro.h **** 	uint8_t ucReturn;
 133:..\FreeRTOS\Source\portable\GCC\ARM_CM3/portmacro.h **** 
 134:..\FreeRTOS\Source\portable\GCC\ARM_CM3/portmacro.h **** 		__asm volatile ( "clz %0, %1" : "=r" ( ucReturn ) : "r" ( ulBitmap ) : "memory" );
ARM GAS  C:\Users\samue\AppData\Local\Temp\ccR5T69m.s 			page 22


 135:..\FreeRTOS\Source\portable\GCC\ARM_CM3/portmacro.h **** 		return ucReturn;
 136:..\FreeRTOS\Source\portable\GCC\ARM_CM3/portmacro.h **** 	}
 137:..\FreeRTOS\Source\portable\GCC\ARM_CM3/portmacro.h **** 
 138:..\FreeRTOS\Source\portable\GCC\ARM_CM3/portmacro.h **** 	/* Check the configuration. */
 139:..\FreeRTOS\Source\portable\GCC\ARM_CM3/portmacro.h **** 	#if( configMAX_PRIORITIES > 32 )
 140:..\FreeRTOS\Source\portable\GCC\ARM_CM3/portmacro.h **** 		#error configUSE_PORT_OPTIMISED_TASK_SELECTION can only be set to 1 when configMAX_PRIORITIES is 
 141:..\FreeRTOS\Source\portable\GCC\ARM_CM3/portmacro.h **** 	#endif
 142:..\FreeRTOS\Source\portable\GCC\ARM_CM3/portmacro.h **** 
 143:..\FreeRTOS\Source\portable\GCC\ARM_CM3/portmacro.h **** 	/* Store/clear the ready priorities in a bit map. */
 144:..\FreeRTOS\Source\portable\GCC\ARM_CM3/portmacro.h **** 	#define portRECORD_READY_PRIORITY( uxPriority, uxReadyPriorities ) ( uxReadyPriorities ) |= ( 1UL 
 145:..\FreeRTOS\Source\portable\GCC\ARM_CM3/portmacro.h **** 	#define portRESET_READY_PRIORITY( uxPriority, uxReadyPriorities ) ( uxReadyPriorities ) &= ~( 1UL 
 146:..\FreeRTOS\Source\portable\GCC\ARM_CM3/portmacro.h **** 
 147:..\FreeRTOS\Source\portable\GCC\ARM_CM3/portmacro.h **** 	/*-----------------------------------------------------------*/
 148:..\FreeRTOS\Source\portable\GCC\ARM_CM3/portmacro.h **** 
 149:..\FreeRTOS\Source\portable\GCC\ARM_CM3/portmacro.h **** 	#define portGET_HIGHEST_PRIORITY( uxTopPriority, uxReadyPriorities ) uxTopPriority = ( 31UL - ( ui
 150:..\FreeRTOS\Source\portable\GCC\ARM_CM3/portmacro.h **** 
 151:..\FreeRTOS\Source\portable\GCC\ARM_CM3/portmacro.h **** #endif /* configUSE_PORT_OPTIMISED_TASK_SELECTION */
 152:..\FreeRTOS\Source\portable\GCC\ARM_CM3/portmacro.h **** 
 153:..\FreeRTOS\Source\portable\GCC\ARM_CM3/portmacro.h **** /*-----------------------------------------------------------*/
 154:..\FreeRTOS\Source\portable\GCC\ARM_CM3/portmacro.h **** 
 155:..\FreeRTOS\Source\portable\GCC\ARM_CM3/portmacro.h **** #ifdef configASSERT
 156:..\FreeRTOS\Source\portable\GCC\ARM_CM3/portmacro.h **** 	void vPortValidateInterruptPriority( void );
 157:..\FreeRTOS\Source\portable\GCC\ARM_CM3/portmacro.h **** 	#define portASSERT_IF_INTERRUPT_PRIORITY_INVALID() 	vPortValidateInterruptPriority()
 158:..\FreeRTOS\Source\portable\GCC\ARM_CM3/portmacro.h **** #endif
 159:..\FreeRTOS\Source\portable\GCC\ARM_CM3/portmacro.h **** 
 160:..\FreeRTOS\Source\portable\GCC\ARM_CM3/portmacro.h **** /* portNOP() is not required by this port. */
 161:..\FreeRTOS\Source\portable\GCC\ARM_CM3/portmacro.h **** #define portNOP()
 162:..\FreeRTOS\Source\portable\GCC\ARM_CM3/portmacro.h **** 
 163:..\FreeRTOS\Source\portable\GCC\ARM_CM3/portmacro.h **** #define portINLINE	__inline
 164:..\FreeRTOS\Source\portable\GCC\ARM_CM3/portmacro.h **** 
 165:..\FreeRTOS\Source\portable\GCC\ARM_CM3/portmacro.h **** #ifndef portFORCE_INLINE
 166:..\FreeRTOS\Source\portable\GCC\ARM_CM3/portmacro.h **** 	#define portFORCE_INLINE inline __attribute__(( always_inline))
 167:..\FreeRTOS\Source\portable\GCC\ARM_CM3/portmacro.h **** #endif
 168:..\FreeRTOS\Source\portable\GCC\ARM_CM3/portmacro.h **** 
 169:..\FreeRTOS\Source\portable\GCC\ARM_CM3/portmacro.h **** portFORCE_INLINE static BaseType_t xPortIsInsideInterrupt( void )
 170:..\FreeRTOS\Source\portable\GCC\ARM_CM3/portmacro.h **** {
 171:..\FreeRTOS\Source\portable\GCC\ARM_CM3/portmacro.h **** uint32_t ulCurrentInterrupt;
 172:..\FreeRTOS\Source\portable\GCC\ARM_CM3/portmacro.h **** BaseType_t xReturn;
 173:..\FreeRTOS\Source\portable\GCC\ARM_CM3/portmacro.h **** 
 174:..\FreeRTOS\Source\portable\GCC\ARM_CM3/portmacro.h **** 	/* Obtain the number of the currently executing interrupt. */
 175:..\FreeRTOS\Source\portable\GCC\ARM_CM3/portmacro.h **** 	__asm volatile( "mrs %0, ipsr" : "=r"( ulCurrentInterrupt ) :: "memory" );
 176:..\FreeRTOS\Source\portable\GCC\ARM_CM3/portmacro.h **** 
 177:..\FreeRTOS\Source\portable\GCC\ARM_CM3/portmacro.h **** 	if( ulCurrentInterrupt == 0 )
 178:..\FreeRTOS\Source\portable\GCC\ARM_CM3/portmacro.h **** 	{
 179:..\FreeRTOS\Source\portable\GCC\ARM_CM3/portmacro.h **** 		xReturn = pdFALSE;
 180:..\FreeRTOS\Source\portable\GCC\ARM_CM3/portmacro.h **** 	}
 181:..\FreeRTOS\Source\portable\GCC\ARM_CM3/portmacro.h **** 	else
 182:..\FreeRTOS\Source\portable\GCC\ARM_CM3/portmacro.h **** 	{
 183:..\FreeRTOS\Source\portable\GCC\ARM_CM3/portmacro.h **** 		xReturn = pdTRUE;
 184:..\FreeRTOS\Source\portable\GCC\ARM_CM3/portmacro.h **** 	}
 185:..\FreeRTOS\Source\portable\GCC\ARM_CM3/portmacro.h **** 
 186:..\FreeRTOS\Source\portable\GCC\ARM_CM3/portmacro.h **** 	return xReturn;
 187:..\FreeRTOS\Source\portable\GCC\ARM_CM3/portmacro.h **** }
 188:..\FreeRTOS\Source\portable\GCC\ARM_CM3/portmacro.h **** 
 189:..\FreeRTOS\Source\portable\GCC\ARM_CM3/portmacro.h **** /*-----------------------------------------------------------*/
 190:..\FreeRTOS\Source\portable\GCC\ARM_CM3/portmacro.h **** 
 191:..\FreeRTOS\Source\portable\GCC\ARM_CM3/portmacro.h **** portFORCE_INLINE static void vPortRaiseBASEPRI( void )
ARM GAS  C:\Users\samue\AppData\Local\Temp\ccR5T69m.s 			page 23


 192:..\FreeRTOS\Source\portable\GCC\ARM_CM3/portmacro.h **** {
 193:..\FreeRTOS\Source\portable\GCC\ARM_CM3/portmacro.h **** uint32_t ulNewBASEPRI;
 194:..\FreeRTOS\Source\portable\GCC\ARM_CM3/portmacro.h **** 
 195:..\FreeRTOS\Source\portable\GCC\ARM_CM3/portmacro.h **** 	__asm volatile
 196:..\FreeRTOS\Source\portable\GCC\ARM_CM3/portmacro.h **** 	(
 197:..\FreeRTOS\Source\portable\GCC\ARM_CM3/portmacro.h **** 		"	mov %0, %1												\n" \
 198:..\FreeRTOS\Source\portable\GCC\ARM_CM3/portmacro.h **** 		"	msr basepri, %0											\n" \
 199:..\FreeRTOS\Source\portable\GCC\ARM_CM3/portmacro.h **** 		"	isb														\n" \
 200:..\FreeRTOS\Source\portable\GCC\ARM_CM3/portmacro.h **** 		"	dsb														\n" \
 201:..\FreeRTOS\Source\portable\GCC\ARM_CM3/portmacro.h **** 		:"=r" (ulNewBASEPRI) : "i" ( configMAX_SYSCALL_INTERRUPT_PRIORITY ) : "memory"
 202:..\FreeRTOS\Source\portable\GCC\ARM_CM3/portmacro.h **** 	);
 203:..\FreeRTOS\Source\portable\GCC\ARM_CM3/portmacro.h **** }
 204:..\FreeRTOS\Source\portable\GCC\ARM_CM3/portmacro.h **** 
 205:..\FreeRTOS\Source\portable\GCC\ARM_CM3/portmacro.h **** /*-----------------------------------------------------------*/
 206:..\FreeRTOS\Source\portable\GCC\ARM_CM3/portmacro.h **** 
 207:..\FreeRTOS\Source\portable\GCC\ARM_CM3/portmacro.h **** portFORCE_INLINE static uint32_t ulPortRaiseBASEPRI( void )
 208:..\FreeRTOS\Source\portable\GCC\ARM_CM3/portmacro.h **** {
 209:..\FreeRTOS\Source\portable\GCC\ARM_CM3/portmacro.h **** uint32_t ulOriginalBASEPRI, ulNewBASEPRI;
 210:..\FreeRTOS\Source\portable\GCC\ARM_CM3/portmacro.h **** 
 211:..\FreeRTOS\Source\portable\GCC\ARM_CM3/portmacro.h **** 	__asm volatile
 329              		.loc 2 211 0
 330              		.syntax unified
 331              	@ 211 "..\FreeRTOS\Source\portable\GCC\ARM_CM3/portmacro.h" 1
 332 0000 EFF31183 			mrs r3, basepri											
 333 0004 4FF0A002 		mov r2, #160												
 334 0008 82F31188 		msr basepri, r2											
 335 000c BFF36F8F 		isb														
 336 0010 BFF34F8F 		dsb														
 337              	
 338              	@ 0 "" 2
 339              		.thumb
 340              		.syntax unified
 341              	.LBE9:
 342              	.LBE8:
 496:..\FreeRTOS\Source/event_groups.c **** 	}
 343              		.loc 1 496 0
 344 0014 0068     		ldr	r0, [r0]
 345              	.LVL44:
 346              	.LBB10:
 347              	.LBB11:
 212:..\FreeRTOS\Source\portable\GCC\ARM_CM3/portmacro.h **** 	(
 213:..\FreeRTOS\Source\portable\GCC\ARM_CM3/portmacro.h **** 		"	mrs %0, basepri											\n" \
 214:..\FreeRTOS\Source\portable\GCC\ARM_CM3/portmacro.h **** 		"	mov %1, %2												\n" \
 215:..\FreeRTOS\Source\portable\GCC\ARM_CM3/portmacro.h **** 		"	msr basepri, %1											\n" \
 216:..\FreeRTOS\Source\portable\GCC\ARM_CM3/portmacro.h **** 		"	isb														\n" \
 217:..\FreeRTOS\Source\portable\GCC\ARM_CM3/portmacro.h **** 		"	dsb														\n" \
 218:..\FreeRTOS\Source\portable\GCC\ARM_CM3/portmacro.h **** 		:"=r" (ulOriginalBASEPRI), "=r" (ulNewBASEPRI) : "i" ( configMAX_SYSCALL_INTERRUPT_PRIORITY ) : "
 219:..\FreeRTOS\Source\portable\GCC\ARM_CM3/portmacro.h **** 	);
 220:..\FreeRTOS\Source\portable\GCC\ARM_CM3/portmacro.h **** 
 221:..\FreeRTOS\Source\portable\GCC\ARM_CM3/portmacro.h **** 	/* This return will not be reached but is necessary to prevent compiler
 222:..\FreeRTOS\Source\portable\GCC\ARM_CM3/portmacro.h **** 	warnings. */
 223:..\FreeRTOS\Source\portable\GCC\ARM_CM3/portmacro.h **** 	return ulOriginalBASEPRI;
 224:..\FreeRTOS\Source\portable\GCC\ARM_CM3/portmacro.h **** }
 225:..\FreeRTOS\Source\portable\GCC\ARM_CM3/portmacro.h **** /*-----------------------------------------------------------*/
 226:..\FreeRTOS\Source\portable\GCC\ARM_CM3/portmacro.h **** 
 227:..\FreeRTOS\Source\portable\GCC\ARM_CM3/portmacro.h **** portFORCE_INLINE static void vPortSetBASEPRI( uint32_t ulNewMaskValue )
 228:..\FreeRTOS\Source\portable\GCC\ARM_CM3/portmacro.h **** {
ARM GAS  C:\Users\samue\AppData\Local\Temp\ccR5T69m.s 			page 24


 229:..\FreeRTOS\Source\portable\GCC\ARM_CM3/portmacro.h **** 	__asm volatile
 348              		.loc 2 229 0
 349              		.syntax unified
 350              	@ 229 "..\FreeRTOS\Source\portable\GCC\ARM_CM3/portmacro.h" 1
 351 0016 83F31188 			msr basepri, r3	
 352              	@ 0 "" 2
 353              		.thumb
 354              		.syntax unified
 355              	.LBE11:
 356              	.LBE10:
 501:..\FreeRTOS\Source/event_groups.c **** /*-----------------------------------------------------------*/
 357              		.loc 1 501 0
 358 001a 7047     		bx	lr
 359              		.cfi_endproc
 360              	.LFE72:
 361              		.size	xEventGroupGetBitsFromISR, .-xEventGroupGetBitsFromISR
 362              		.section	.text.xEventGroupSetBits,"ax",%progbits
 363              		.align	2
 364              		.global	xEventGroupSetBits
 365              		.thumb
 366              		.thumb_func
 367              		.type	xEventGroupSetBits, %function
 368              	xEventGroupSetBits:
 369              	.LFB73:
 505:..\FreeRTOS\Source/event_groups.c **** ListItem_t *pxListItem, *pxNext;
 370              		.loc 1 505 0
 371              		.cfi_startproc
 372              		@ args = 0, pretend = 0, frame = 0
 373              		@ frame_needed = 0, uses_anonymous_args = 0
 374              	.LVL45:
 375 0000 F8B5     		push	{r3, r4, r5, r6, r7, lr}
 376              		.cfi_def_cfa_offset 24
 377              		.cfi_offset 3, -24
 378              		.cfi_offset 4, -20
 379              		.cfi_offset 5, -16
 380              		.cfi_offset 6, -12
 381              		.cfi_offset 7, -8
 382              		.cfi_offset 14, -4
 383 0002 0446     		mov	r4, r0
 384 0004 0D46     		mov	r5, r1
 385              	.LVL46:
 519:..\FreeRTOS\Source/event_groups.c **** 	vTaskSuspendAll();
 386              		.loc 1 519 0
 387 0006 00F10C06 		add	r6, r0, #12
 388              	.LVL47:
 520:..\FreeRTOS\Source/event_groups.c **** 	{
 389              		.loc 1 520 0
 390 000a FFF7FEFF 		bl	vTaskSuspendAll
 391              	.LVL48:
 524:..\FreeRTOS\Source/event_groups.c **** 
 392              		.loc 1 524 0
 393 000e 2069     		ldr	r0, [r4, #16]
 394              	.LVL49:
 527:..\FreeRTOS\Source/event_groups.c **** 
 395              		.loc 1 527 0
 396 0010 2368     		ldr	r3, [r4]
 397 0012 1D43     		orrs	r5, r5, r3
ARM GAS  C:\Users\samue\AppData\Local\Temp\ccR5T69m.s 			page 25


 398              	.LVL50:
 399 0014 2560     		str	r5, [r4]
 509:..\FreeRTOS\Source/event_groups.c **** EventGroup_t *pxEventBits = ( EventGroup_t * ) xEventGroup;
 400              		.loc 1 509 0
 401 0016 0027     		movs	r7, #0
 530:..\FreeRTOS\Source/event_groups.c **** 		{
 402              		.loc 1 530 0
 403 0018 1FE0     		b	.L27
 404              	.LVL51:
 405              	.L32:
 532:..\FreeRTOS\Source/event_groups.c **** 			uxBitsWaitedFor = listGET_LIST_ITEM_VALUE( pxListItem );
 406              		.loc 1 532 0
 407 001a 4568     		ldr	r5, [r0, #4]
 408              	.LVL52:
 533:..\FreeRTOS\Source/event_groups.c **** 			xMatchFound = pdFALSE;
 409              		.loc 1 533 0
 410 001c 0368     		ldr	r3, [r0]
 411              	.LVL53:
 538:..\FreeRTOS\Source/event_groups.c **** 
 412              		.loc 1 538 0
 413 001e 23F07F42 		bic	r2, r3, #-16777216
 414              	.LVL54:
 540:..\FreeRTOS\Source/event_groups.c **** 			{
 415              		.loc 1 540 0
 416 0022 13F0806F 		tst	r3, #67108864
 417 0026 04D1     		bne	.L28
 543:..\FreeRTOS\Source/event_groups.c **** 				{
 418              		.loc 1 543 0
 419 0028 2168     		ldr	r1, [r4]
 420 002a 0A42     		tst	r2, r1
 421 002c 07D1     		bne	.L33
 534:..\FreeRTOS\Source/event_groups.c **** 
 422              		.loc 1 534 0
 423 002e 0021     		movs	r1, #0
 424 0030 08E0     		b	.L29
 425              	.L28:
 552:..\FreeRTOS\Source/event_groups.c **** 			{
 426              		.loc 1 552 0
 427 0032 2168     		ldr	r1, [r4]
 428 0034 32EA0101 		bics	r1, r2, r1
 429 0038 03D0     		beq	.L34
 534:..\FreeRTOS\Source/event_groups.c **** 
 430              		.loc 1 534 0
 431 003a 0021     		movs	r1, #0
 432 003c 02E0     		b	.L29
 433              	.L33:
 545:..\FreeRTOS\Source/event_groups.c **** 				}
 434              		.loc 1 545 0
 435 003e 0121     		movs	r1, #1
 436 0040 00E0     		b	.L29
 437              	.L34:
 555:..\FreeRTOS\Source/event_groups.c **** 			}
 438              		.loc 1 555 0
 439 0042 0121     		movs	r1, #1
 440              	.L29:
 441              	.LVL55:
 562:..\FreeRTOS\Source/event_groups.c **** 			{
ARM GAS  C:\Users\samue\AppData\Local\Temp\ccR5T69m.s 			page 26


 442              		.loc 1 562 0
 443 0044 41B1     		cbz	r1, .L30
 565:..\FreeRTOS\Source/event_groups.c **** 				{
 444              		.loc 1 565 0
 445 0046 13F0807F 		tst	r3, #16777216
 446 004a 00D0     		beq	.L31
 567:..\FreeRTOS\Source/event_groups.c **** 				}
 447              		.loc 1 567 0
 448 004c 1743     		orrs	r7, r7, r2
 449              	.LVL56:
 450              	.L31:
 579:..\FreeRTOS\Source/event_groups.c **** 			}
 451              		.loc 1 579 0
 452 004e 2168     		ldr	r1, [r4]
 453              	.LVL57:
 454 0050 41F00071 		orr	r1, r1, #33554432
 455 0054 FFF7FEFF 		bl	vTaskRemoveFromUnorderedEventList
 456              	.LVL58:
 457              	.L30:
 534:..\FreeRTOS\Source/event_groups.c **** 
 458              		.loc 1 534 0
 459 0058 2846     		mov	r0, r5
 460              	.LVL59:
 461              	.L27:
 530:..\FreeRTOS\Source/event_groups.c **** 		{
 462              		.loc 1 530 0
 463 005a B042     		cmp	r0, r6
 464 005c DDD1     		bne	.L32
 590:..\FreeRTOS\Source/event_groups.c **** 	}
 465              		.loc 1 590 0
 466 005e 2368     		ldr	r3, [r4]
 467 0060 23EA0707 		bic	r7, r3, r7
 468              	.LVL60:
 469 0064 2760     		str	r7, [r4]
 592:..\FreeRTOS\Source/event_groups.c **** 
 470              		.loc 1 592 0
 471 0066 FFF7FEFF 		bl	xTaskResumeAll
 472              	.LVL61:
 595:..\FreeRTOS\Source/event_groups.c **** /*-----------------------------------------------------------*/
 473              		.loc 1 595 0
 474 006a 2068     		ldr	r0, [r4]
 475 006c F8BD     		pop	{r3, r4, r5, r6, r7, pc}
 476              		.cfi_endproc
 477              	.LFE73:
 478              		.size	xEventGroupSetBits, .-xEventGroupSetBits
 479 006e 00BF     		.section	.text.xEventGroupSync,"ax",%progbits
 480              		.align	2
 481              		.global	xEventGroupSync
 482              		.thumb
 483              		.thumb_func
 484              		.type	xEventGroupSync, %function
 485              	xEventGroupSync:
 486              	.LFB69:
 177:..\FreeRTOS\Source/event_groups.c **** EventBits_t uxOriginalBitValue, uxReturn;
 487              		.loc 1 177 0
 488              		.cfi_startproc
 489              		@ args = 0, pretend = 0, frame = 0
ARM GAS  C:\Users\samue\AppData\Local\Temp\ccR5T69m.s 			page 27


 490              		@ frame_needed = 0, uses_anonymous_args = 0
 491              	.LVL62:
 492 0000 2DE9F041 		push	{r4, r5, r6, r7, r8, lr}
 493              		.cfi_def_cfa_offset 24
 494              		.cfi_offset 4, -24
 495              		.cfi_offset 5, -20
 496              		.cfi_offset 6, -16
 497              		.cfi_offset 7, -12
 498              		.cfi_offset 8, -8
 499              		.cfi_offset 14, -4
 500 0004 0546     		mov	r5, r0
 501 0006 0C46     		mov	r4, r1
 502 0008 1746     		mov	r7, r2
 503 000a 1E46     		mov	r6, r3
 504              	.LVL63:
 191:..\FreeRTOS\Source/event_groups.c **** 	{
 505              		.loc 1 191 0
 506 000c FFF7FEFF 		bl	vTaskSuspendAll
 507              	.LVL64:
 193:..\FreeRTOS\Source/event_groups.c **** 
 508              		.loc 1 193 0
 509 0010 D5F80080 		ldr	r8, [r5]
 510              	.LVL65:
 195:..\FreeRTOS\Source/event_groups.c **** 
 511              		.loc 1 195 0
 512 0014 2146     		mov	r1, r4
 513 0016 2846     		mov	r0, r5
 514 0018 FFF7FEFF 		bl	xEventGroupSetBits
 515              	.LVL66:
 197:..\FreeRTOS\Source/event_groups.c **** 		{
 516              		.loc 1 197 0
 517 001c 48EA0404 		orr	r4, r8, r4
 518              	.LVL67:
 519 0020 37EA0403 		bics	r3, r7, r4
 520 0024 05D1     		bne	.L37
 521              	.LVL68:
 204:..\FreeRTOS\Source/event_groups.c **** 
 522              		.loc 1 204 0
 523 0026 2B68     		ldr	r3, [r5]
 524 0028 23EA0703 		bic	r3, r3, r7
 525 002c 2B60     		str	r3, [r5]
 526              	.LVL69:
 206:..\FreeRTOS\Source/event_groups.c **** 		}
 527              		.loc 1 206 0
 528 002e 0026     		movs	r6, #0
 529 0030 09E0     		b	.L38
 530              	.LVL70:
 531              	.L37:
 210:..\FreeRTOS\Source/event_groups.c **** 			{
 532              		.loc 1 210 0
 533 0032 3EB1     		cbz	r6, .L39
 217:..\FreeRTOS\Source/event_groups.c **** 
 534              		.loc 1 217 0
 535 0034 3246     		mov	r2, r6
 536 0036 47F0A061 		orr	r1, r7, #83886080
 537 003a 281D     		adds	r0, r5, #4
 538 003c FFF7FEFF 		bl	vTaskPlaceOnUnorderedEventList
ARM GAS  C:\Users\samue\AppData\Local\Temp\ccR5T69m.s 			page 28


 539              	.LVL71:
 223:..\FreeRTOS\Source/event_groups.c **** 			}
 540              		.loc 1 223 0
 541 0040 0024     		movs	r4, #0
 542 0042 00E0     		b	.L38
 543              	.LVL72:
 544              	.L39:
 229:..\FreeRTOS\Source/event_groups.c **** 				xTimeoutOccurred = pdTRUE;
 545              		.loc 1 229 0
 546 0044 2C68     		ldr	r4, [r5]
 547              	.LVL73:
 548              	.L38:
 234:..\FreeRTOS\Source/event_groups.c **** 
 549              		.loc 1 234 0
 550 0046 FFF7FEFF 		bl	xTaskResumeAll
 551              	.LVL74:
 236:..\FreeRTOS\Source/event_groups.c **** 	{
 552              		.loc 1 236 0
 553 004a DEB1     		cbz	r6, .L40
 238:..\FreeRTOS\Source/event_groups.c **** 		{
 554              		.loc 1 238 0
 555 004c 38B9     		cbnz	r0, .L41
 240:..\FreeRTOS\Source/event_groups.c **** 		}
 556              		.loc 1 240 0
 557 004e 4FF08052 		mov	r2, #268435456
 558 0052 0E4B     		ldr	r3, .L45
 559 0054 1A60     		str	r2, [r3]
 560              		.syntax unified
 561              	@ 240 "..\FreeRTOS\Source\event_groups.c" 1
 562 0056 BFF34F8F 		dsb
 563              	@ 0 "" 2
 564              	@ 240 "..\FreeRTOS\Source\event_groups.c" 1
 565 005a BFF36F8F 		isb
 566              	@ 0 "" 2
 567              		.thumb
 568              		.syntax unified
 569              	.L41:
 251:..\FreeRTOS\Source/event_groups.c **** 
 570              		.loc 1 251 0
 571 005e FFF7FEFF 		bl	uxTaskResetEventItemValue
 572              	.LVL75:
 573 0062 0446     		mov	r4, r0
 574              	.LVL76:
 253:..\FreeRTOS\Source/event_groups.c **** 		{
 575              		.loc 1 253 0
 576 0064 10F0007F 		tst	r0, #33554432
 577 0068 0AD1     		bne	.L42
 256:..\FreeRTOS\Source/event_groups.c **** 			{
 578              		.loc 1 256 0
 579 006a FFF7FEFF 		bl	vPortEnterCritical
 580              	.LVL77:
 258:..\FreeRTOS\Source/event_groups.c **** 
 581              		.loc 1 258 0
 582 006e 2C68     		ldr	r4, [r5]
 583              	.LVL78:
 264:..\FreeRTOS\Source/event_groups.c **** 				{
 584              		.loc 1 264 0
ARM GAS  C:\Users\samue\AppData\Local\Temp\ccR5T69m.s 			page 29


 585 0070 37EA0403 		bics	r3, r7, r4
 586 0074 02D1     		bne	.L43
 266:..\FreeRTOS\Source/event_groups.c **** 				}
 587              		.loc 1 266 0
 588 0076 24EA0707 		bic	r7, r4, r7
 589              	.LVL79:
 590 007a 2F60     		str	r7, [r5]
 591              	.L43:
 273:..\FreeRTOS\Source/event_groups.c **** 
 592              		.loc 1 273 0
 593 007c FFF7FEFF 		bl	vPortExitCritical
 594              	.LVL80:
 595              	.L42:
 284:..\FreeRTOS\Source/event_groups.c **** 	}
 596              		.loc 1 284 0
 597 0080 24F07F44 		bic	r4, r4, #-16777216
 598              	.LVL81:
 599              	.L40:
 293:..\FreeRTOS\Source/event_groups.c **** /*-----------------------------------------------------------*/
 600              		.loc 1 293 0
 601 0084 2046     		mov	r0, r4
 602 0086 BDE8F081 		pop	{r4, r5, r6, r7, r8, pc}
 603              	.LVL82:
 604              	.L46:
 605 008a 00BF     		.align	2
 606              	.L45:
 607 008c 04ED00E0 		.word	-536810236
 608              		.cfi_endproc
 609              	.LFE69:
 610              		.size	xEventGroupSync, .-xEventGroupSync
 611              		.section	.text.vEventGroupDelete,"ax",%progbits
 612              		.align	2
 613              		.global	vEventGroupDelete
 614              		.thumb
 615              		.thumb_func
 616              		.type	vEventGroupDelete, %function
 617              	vEventGroupDelete:
 618              	.LFB74:
 599:..\FreeRTOS\Source/event_groups.c **** EventGroup_t *pxEventBits = ( EventGroup_t * ) xEventGroup;
 619              		.loc 1 599 0
 620              		.cfi_startproc
 621              		@ args = 0, pretend = 0, frame = 0
 622              		@ frame_needed = 0, uses_anonymous_args = 0
 623              	.LVL83:
 624 0000 10B5     		push	{r4, lr}
 625              		.cfi_def_cfa_offset 8
 626              		.cfi_offset 4, -8
 627              		.cfi_offset 14, -4
 628 0002 0446     		mov	r4, r0
 629              	.LVL84:
 603:..\FreeRTOS\Source/event_groups.c **** 	{
 630              		.loc 1 603 0
 631 0004 FFF7FEFF 		bl	vTaskSuspendAll
 632              	.LVL85:
 607:..\FreeRTOS\Source/event_groups.c **** 		{
 633              		.loc 1 607 0
 634 0008 04E0     		b	.L48
ARM GAS  C:\Users\samue\AppData\Local\Temp\ccR5T69m.s 			page 30


 635              	.L49:
 612:..\FreeRTOS\Source/event_groups.c **** 		}
 636              		.loc 1 612 0
 637 000a 4FF00071 		mov	r1, #33554432
 638 000e 2069     		ldr	r0, [r4, #16]
 639 0010 FFF7FEFF 		bl	vTaskRemoveFromUnorderedEventList
 640              	.LVL86:
 641              	.L48:
 607:..\FreeRTOS\Source/event_groups.c **** 		{
 642              		.loc 1 607 0
 643 0014 6368     		ldr	r3, [r4, #4]
 644 0016 002B     		cmp	r3, #0
 645 0018 F7D1     		bne	.L49
 619:..\FreeRTOS\Source/event_groups.c **** 		}
 646              		.loc 1 619 0
 647 001a 2046     		mov	r0, r4
 648 001c FFF7FEFF 		bl	vPortFree
 649              	.LVL87:
 636:..\FreeRTOS\Source/event_groups.c **** }
 650              		.loc 1 636 0
 651 0020 FFF7FEFF 		bl	xTaskResumeAll
 652              	.LVL88:
 653 0024 10BD     		pop	{r4, pc}
 654              		.cfi_endproc
 655              	.LFE74:
 656              		.size	vEventGroupDelete, .-vEventGroupDelete
 657 0026 00BF     		.section	.text.vEventGroupSetBitsCallback,"ax",%progbits
 658              		.align	2
 659              		.global	vEventGroupSetBitsCallback
 660              		.thumb
 661              		.thumb_func
 662              		.type	vEventGroupSetBitsCallback, %function
 663              	vEventGroupSetBitsCallback:
 664              	.LFB75:
 643:..\FreeRTOS\Source/event_groups.c **** 	( void ) xEventGroupSetBits( pvEventGroup, ( EventBits_t ) ulBitsToSet );
 665              		.loc 1 643 0
 666              		.cfi_startproc
 667              		@ args = 0, pretend = 0, frame = 0
 668              		@ frame_needed = 0, uses_anonymous_args = 0
 669              	.LVL89:
 670 0000 08B5     		push	{r3, lr}
 671              		.cfi_def_cfa_offset 8
 672              		.cfi_offset 3, -8
 673              		.cfi_offset 14, -4
 644:..\FreeRTOS\Source/event_groups.c **** }
 674              		.loc 1 644 0
 675 0002 FFF7FEFF 		bl	xEventGroupSetBits
 676              	.LVL90:
 677 0006 08BD     		pop	{r3, pc}
 678              		.cfi_endproc
 679              	.LFE75:
 680              		.size	vEventGroupSetBitsCallback, .-vEventGroupSetBitsCallback
 681              		.section	.text.vEventGroupClearBitsCallback,"ax",%progbits
 682              		.align	2
 683              		.global	vEventGroupClearBitsCallback
 684              		.thumb
 685              		.thumb_func
ARM GAS  C:\Users\samue\AppData\Local\Temp\ccR5T69m.s 			page 31


 686              		.type	vEventGroupClearBitsCallback, %function
 687              	vEventGroupClearBitsCallback:
 688              	.LFB76:
 651:..\FreeRTOS\Source/event_groups.c **** 	( void ) xEventGroupClearBits( pvEventGroup, ( EventBits_t ) ulBitsToClear );
 689              		.loc 1 651 0
 690              		.cfi_startproc
 691              		@ args = 0, pretend = 0, frame = 0
 692              		@ frame_needed = 0, uses_anonymous_args = 0
 693              	.LVL91:
 694 0000 08B5     		push	{r3, lr}
 695              		.cfi_def_cfa_offset 8
 696              		.cfi_offset 3, -8
 697              		.cfi_offset 14, -4
 652:..\FreeRTOS\Source/event_groups.c **** }
 698              		.loc 1 652 0
 699 0002 FFF7FEFF 		bl	xEventGroupClearBits
 700              	.LVL92:
 701 0006 08BD     		pop	{r3, pc}
 702              		.cfi_endproc
 703              	.LFE76:
 704              		.size	vEventGroupClearBitsCallback, .-vEventGroupClearBitsCallback
 705              		.section	.text.uxEventGroupGetNumber,"ax",%progbits
 706              		.align	2
 707              		.global	uxEventGroupGetNumber
 708              		.thumb
 709              		.thumb_func
 710              		.type	uxEventGroupGetNumber, %function
 711              	uxEventGroupGetNumber:
 712              	.LFB78:
 689:..\FreeRTOS\Source/event_groups.c **** /*-----------------------------------------------------------*/
 690:..\FreeRTOS\Source/event_groups.c **** 
 691:..\FreeRTOS\Source/event_groups.c **** #if ( ( configUSE_TRACE_FACILITY == 1 ) && ( INCLUDE_xTimerPendFunctionCall == 1 ) && ( configUSE_T
 692:..\FreeRTOS\Source/event_groups.c **** 
 693:..\FreeRTOS\Source/event_groups.c **** 	BaseType_t xEventGroupSetBitsFromISR( EventGroupHandle_t xEventGroup, const EventBits_t uxBitsToSe
 694:..\FreeRTOS\Source/event_groups.c **** 	{
 695:..\FreeRTOS\Source/event_groups.c **** 	BaseType_t xReturn;
 696:..\FreeRTOS\Source/event_groups.c **** 
 697:..\FreeRTOS\Source/event_groups.c **** 		traceEVENT_GROUP_SET_BITS_FROM_ISR( xEventGroup, uxBitsToSet );
 698:..\FreeRTOS\Source/event_groups.c **** 		xReturn = xTimerPendFunctionCallFromISR( vEventGroupSetBitsCallback, ( void * ) xEventGroup, ( ui
 699:..\FreeRTOS\Source/event_groups.c **** 
 700:..\FreeRTOS\Source/event_groups.c **** 		return xReturn;
 701:..\FreeRTOS\Source/event_groups.c **** 	}
 702:..\FreeRTOS\Source/event_groups.c **** 
 703:..\FreeRTOS\Source/event_groups.c **** #endif
 704:..\FreeRTOS\Source/event_groups.c **** /*-----------------------------------------------------------*/
 705:..\FreeRTOS\Source/event_groups.c **** 
 706:..\FreeRTOS\Source/event_groups.c **** #if (configUSE_TRACE_FACILITY == 1)
 707:..\FreeRTOS\Source/event_groups.c **** 
 708:..\FreeRTOS\Source/event_groups.c **** 	UBaseType_t uxEventGroupGetNumber( void* xEventGroup )
 709:..\FreeRTOS\Source/event_groups.c **** 	{
 713              		.loc 1 709 0
 714              		.cfi_startproc
 715              		@ args = 0, pretend = 0, frame = 0
 716              		@ frame_needed = 0, uses_anonymous_args = 0
 717              		@ link register save eliminated.
 718              	.LVL93:
 710:..\FreeRTOS\Source/event_groups.c **** 	UBaseType_t xReturn;
ARM GAS  C:\Users\samue\AppData\Local\Temp\ccR5T69m.s 			page 32


 711:..\FreeRTOS\Source/event_groups.c **** 	EventGroup_t *pxEventBits = ( EventGroup_t * ) xEventGroup;
 712:..\FreeRTOS\Source/event_groups.c **** 
 713:..\FreeRTOS\Source/event_groups.c **** 		if( xEventGroup == NULL )
 719              		.loc 1 713 0
 720 0000 08B1     		cbz	r0, .L57
 714:..\FreeRTOS\Source/event_groups.c **** 		{
 715:..\FreeRTOS\Source/event_groups.c **** 			xReturn = 0;
 716:..\FreeRTOS\Source/event_groups.c **** 		}
 717:..\FreeRTOS\Source/event_groups.c **** 		else
 718:..\FreeRTOS\Source/event_groups.c **** 		{
 719:..\FreeRTOS\Source/event_groups.c **** 			xReturn = pxEventBits->uxEventGroupNumber;
 721              		.loc 1 719 0
 722 0002 8069     		ldr	r0, [r0, #24]
 723              	.LVL94:
 724 0004 7047     		bx	lr
 725              	.LVL95:
 726              	.L57:
 715:..\FreeRTOS\Source/event_groups.c **** 		}
 727              		.loc 1 715 0
 728 0006 0020     		movs	r0, #0
 729              	.LVL96:
 720:..\FreeRTOS\Source/event_groups.c **** 		}
 721:..\FreeRTOS\Source/event_groups.c **** 
 722:..\FreeRTOS\Source/event_groups.c **** 		return xReturn;
 723:..\FreeRTOS\Source/event_groups.c **** 	}
 730              		.loc 1 723 0
 731 0008 7047     		bx	lr
 732              		.cfi_endproc
 733              	.LFE78:
 734              		.size	uxEventGroupGetNumber, .-uxEventGroupGetNumber
 735 000a 00BF     		.section	.text.vEventGroupSetNumber,"ax",%progbits
 736              		.align	2
 737              		.global	vEventGroupSetNumber
 738              		.thumb
 739              		.thumb_func
 740              		.type	vEventGroupSetNumber, %function
 741              	vEventGroupSetNumber:
 742              	.LFB79:
 724:..\FreeRTOS\Source/event_groups.c **** 
 725:..\FreeRTOS\Source/event_groups.c **** #endif /* configUSE_TRACE_FACILITY */
 726:..\FreeRTOS\Source/event_groups.c **** /*-----------------------------------------------------------*/
 727:..\FreeRTOS\Source/event_groups.c **** 
 728:..\FreeRTOS\Source/event_groups.c **** #if ( configUSE_TRACE_FACILITY == 1 )
 729:..\FreeRTOS\Source/event_groups.c **** 
 730:..\FreeRTOS\Source/event_groups.c **** 	void vEventGroupSetNumber( void * xEventGroup, UBaseType_t uxEventGroupNumber )
 731:..\FreeRTOS\Source/event_groups.c **** 	{
 743              		.loc 1 731 0
 744              		.cfi_startproc
 745              		@ args = 0, pretend = 0, frame = 0
 746              		@ frame_needed = 0, uses_anonymous_args = 0
 747              		@ link register save eliminated.
 748              	.LVL97:
 732:..\FreeRTOS\Source/event_groups.c **** 		( ( EventGroup_t * ) xEventGroup )->uxEventGroupNumber = uxEventGroupNumber;
 749              		.loc 1 732 0
 750 0000 8161     		str	r1, [r0, #24]
 751 0002 7047     		bx	lr
 752              		.cfi_endproc
ARM GAS  C:\Users\samue\AppData\Local\Temp\ccR5T69m.s 			page 33


 753              	.LFE79:
 754              		.size	vEventGroupSetNumber, .-vEventGroupSetNumber
 755              		.text
 756              	.Letext0:
 757              		.file 3 "c:\\program files (x86)\\cypress\\psoc creator\\4.2\\psoc creator\\import\\gnu\\arm\\5.4.
 758              		.file 4 "c:\\program files (x86)\\cypress\\psoc creator\\4.2\\psoc creator\\import\\gnu\\arm\\5.4.
 759              		.file 5 "..\\FreeRTOS\\Source\\include/list.h"
 760              		.file 6 "..\\FreeRTOS\\Source\\include/event_groups.h"
 761              		.file 7 "..\\FreeRTOS\\Source\\include/portable.h"
 762              		.file 8 "..\\FreeRTOS\\Source\\include/task.h"
 763              		.file 9 "Generated_Source\\PSoC5/core_cm3.h"