ARM GAS  C:\Users\samue\AppData\Local\Temp\ccpYGVMt.s 			page 1


   1              		.syntax unified
   2              		.cpu cortex-m3
   3              		.fpu softvfp
   4              		.eabi_attribute 20, 1
   5              		.eabi_attribute 21, 1
   6              		.eabi_attribute 23, 3
   7              		.eabi_attribute 24, 1
   8              		.eabi_attribute 25, 1
   9              		.eabi_attribute 26, 1
  10              		.eabi_attribute 30, 1
  11              		.eabi_attribute 34, 1
  12              		.eabi_attribute 18, 4
  13              		.thumb
  14              		.syntax unified
  15              		.file	"Gyro.c"
  16              		.text
  17              	.Ltext0:
  18              		.cfi_sections	.debug_frame
  19              		.section	.text.writeReg,"ax",%progbits
  20              		.align	2
  21              		.global	writeReg
  22              		.thumb
  23              		.thumb_func
  24              		.type	writeReg, %function
  25              	writeReg:
  26              	.LFB69:
  27              		.file 1 "ZumoLibrary\\Gyro.c"
   1:ZumoLibrary/Gyro.c **** /**
   2:ZumoLibrary/Gyro.c ****  * @file    Gyro.c
   3:ZumoLibrary/Gyro.c ****  * @brief   Basic methods for operating gyroscope. For more details, please refer to Gyro.h file. 
   4:ZumoLibrary/Gyro.c ****  * @details part number: L3GD20H (included in Zumo shield)
   5:ZumoLibrary/Gyro.c **** */
   6:ZumoLibrary/Gyro.c **** #include <stdio.h>
   7:ZumoLibrary/Gyro.c **** #include "FreeRTOS.h"
   8:ZumoLibrary/Gyro.c **** #include "task.h"
   9:ZumoLibrary/Gyro.c **** #include "I2C_Common.h"
  10:ZumoLibrary/Gyro.c **** #include "Gyro.h"
  11:ZumoLibrary/Gyro.c **** 
  12:ZumoLibrary/Gyro.c ****     // register addresses
  13:ZumoLibrary/Gyro.c ****     enum regAddr
  14:ZumoLibrary/Gyro.c ****     {
  15:ZumoLibrary/Gyro.c ****        WHO_AM_I       = 0x0F,
  16:ZumoLibrary/Gyro.c **** 
  17:ZumoLibrary/Gyro.c ****        CTRL1          = 0x20, // D20H
  18:ZumoLibrary/Gyro.c ****        CTRL_REG1      = 0x20, // D20, 4200D
  19:ZumoLibrary/Gyro.c ****        CTRL2          = 0x21, // D20H
  20:ZumoLibrary/Gyro.c ****        CTRL_REG2      = 0x21, // D20, 4200D
  21:ZumoLibrary/Gyro.c ****        CTRL3          = 0x22, // D20H
  22:ZumoLibrary/Gyro.c ****        CTRL_REG3      = 0x22, // D20, 4200D
  23:ZumoLibrary/Gyro.c ****        CTRL4          = 0x23, // D20H
  24:ZumoLibrary/Gyro.c ****        CTRL_REG4      = 0x23, // D20, 4200D
  25:ZumoLibrary/Gyro.c ****        CTRL5          = 0x24, // D20H
  26:ZumoLibrary/Gyro.c ****        CTRL_REG5      = 0x24, // D20, 4200D
  27:ZumoLibrary/Gyro.c ****        REFERENCE      = 0x25,
  28:ZumoLibrary/Gyro.c ****        OUT_TEMP       = 0x26,
  29:ZumoLibrary/Gyro.c ****        STATUS         = 0x27, // D20H
  30:ZumoLibrary/Gyro.c ****        STATUS_REG     = 0x27, // D20, 4200D
ARM GAS  C:\Users\samue\AppData\Local\Temp\ccpYGVMt.s 			page 2


  31:ZumoLibrary/Gyro.c **** 
  32:ZumoLibrary/Gyro.c ****        OUT_X_L        = 0x28,
  33:ZumoLibrary/Gyro.c ****        OUT_X_H        = 0x29,
  34:ZumoLibrary/Gyro.c ****        OUT_Y_L        = 0x2A,
  35:ZumoLibrary/Gyro.c ****        OUT_Y_H        = 0x2B,
  36:ZumoLibrary/Gyro.c ****        OUT_Z_L        = 0x2C,
  37:ZumoLibrary/Gyro.c ****        OUT_Z_H        = 0x2D,
  38:ZumoLibrary/Gyro.c **** 
  39:ZumoLibrary/Gyro.c ****        FIFO_CTRL      = 0x2E, // D20H
  40:ZumoLibrary/Gyro.c ****        FIFO_CTRL_REG  = 0x2E, // D20, 4200D
  41:ZumoLibrary/Gyro.c ****        FIFO_SRC       = 0x2F, // D20H
  42:ZumoLibrary/Gyro.c ****        FIFO_SRC_REG   = 0x2F, // D20, 4200D
  43:ZumoLibrary/Gyro.c **** 
  44:ZumoLibrary/Gyro.c ****        IG_CFG         = 0x30, // D20H
  45:ZumoLibrary/Gyro.c ****        INT1_CFG       = 0x30, // D20, 4200D
  46:ZumoLibrary/Gyro.c ****        IG_SRC         = 0x31, // D20H
  47:ZumoLibrary/Gyro.c ****        INT1_SRC       = 0x31, // D20, 4200D
  48:ZumoLibrary/Gyro.c ****        IG_THS_XH      = 0x32, // D20H
  49:ZumoLibrary/Gyro.c ****        INT1_THS_XH    = 0x32, // D20, 4200D
  50:ZumoLibrary/Gyro.c ****        IG_THS_XL      = 0x33, // D20H
  51:ZumoLibrary/Gyro.c ****        INT1_THS_XL    = 0x33, // D20, 4200D
  52:ZumoLibrary/Gyro.c ****        IG_THS_YH      = 0x34, // D20H
  53:ZumoLibrary/Gyro.c ****        INT1_THS_YH    = 0x34, // D20, 4200D
  54:ZumoLibrary/Gyro.c ****        IG_THS_YL      = 0x35, // D20H
  55:ZumoLibrary/Gyro.c ****        INT1_THS_YL    = 0x35, // D20, 4200D
  56:ZumoLibrary/Gyro.c ****        IG_THS_ZH      = 0x36, // D20H
  57:ZumoLibrary/Gyro.c ****        INT1_THS_ZH    = 0x36, // D20, 4200D
  58:ZumoLibrary/Gyro.c ****        IG_THS_ZL      = 0x37, // D20H
  59:ZumoLibrary/Gyro.c ****        INT1_THS_ZL    = 0x37, // D20, 4200D
  60:ZumoLibrary/Gyro.c ****        IG_DURATION    = 0x38, // D20H
  61:ZumoLibrary/Gyro.c ****        INT1_DURATION  = 0x38, // D20, 4200D
  62:ZumoLibrary/Gyro.c **** 
  63:ZumoLibrary/Gyro.c ****        LOW_ODR        = 0x39  // D20H
  64:ZumoLibrary/Gyro.c ****     };
  65:ZumoLibrary/Gyro.c **** 
  66:ZumoLibrary/Gyro.c **** #define D20_SA0_HIGH_ADDRESS      0b1101011 // also applies to D20H
  67:ZumoLibrary/Gyro.c **** void writeReg(uint8 reg, uint8 value)
  68:ZumoLibrary/Gyro.c **** {
  28              		.loc 1 68 0
  29              		.cfi_startproc
  30              		@ args = 0, pretend = 0, frame = 0
  31              		@ frame_needed = 0, uses_anonymous_args = 0
  32              	.LVL0:
  33 0000 08B5     		push	{r3, lr}
  34              		.cfi_def_cfa_offset 8
  35              		.cfi_offset 3, -8
  36              		.cfi_offset 14, -4
  69:ZumoLibrary/Gyro.c ****     I2C_Write(D20_SA0_HIGH_ADDRESS, reg, value);
  37              		.loc 1 69 0
  38 0002 0A46     		mov	r2, r1
  39 0004 0146     		mov	r1, r0
  40              	.LVL1:
  41 0006 6B20     		movs	r0, #107
  42              	.LVL2:
  43 0008 FFF7FEFF 		bl	I2C_Write
  44              	.LVL3:
  45 000c 08BD     		pop	{r3, pc}
ARM GAS  C:\Users\samue\AppData\Local\Temp\ccpYGVMt.s 			page 3


  46              		.cfi_endproc
  47              	.LFE69:
  48              		.size	writeReg, .-writeReg
  49 000e 00BF     		.section	.text.readReg,"ax",%progbits
  50              		.align	2
  51              		.global	readReg
  52              		.thumb
  53              		.thumb_func
  54              		.type	readReg, %function
  55              	readReg:
  56              	.LFB70:
  70:ZumoLibrary/Gyro.c **** }   
  71:ZumoLibrary/Gyro.c **** 
  72:ZumoLibrary/Gyro.c **** uint8 readReg(uint8 reg)
  73:ZumoLibrary/Gyro.c **** {
  57              		.loc 1 73 0
  58              		.cfi_startproc
  59              		@ args = 0, pretend = 0, frame = 0
  60              		@ frame_needed = 0, uses_anonymous_args = 0
  61              	.LVL4:
  62 0000 08B5     		push	{r3, lr}
  63              		.cfi_def_cfa_offset 8
  64              		.cfi_offset 3, -8
  65              		.cfi_offset 14, -4
  74:ZumoLibrary/Gyro.c ****     return I2C_Read(D20_SA0_HIGH_ADDRESS, reg);
  66              		.loc 1 74 0
  67 0002 0146     		mov	r1, r0
  68 0004 6B20     		movs	r0, #107
  69              	.LVL5:
  70 0006 FFF7FEFF 		bl	I2C_Read
  71              	.LVL6:
  75:ZumoLibrary/Gyro.c **** }
  72              		.loc 1 75 0
  73 000a 08BD     		pop	{r3, pc}
  74              		.cfi_endproc
  75              	.LFE70:
  76              		.size	readReg, .-readReg
  77              		.section	.text.read,"ax",%progbits
  78              		.align	2
  79              		.global	read
  80              		.thumb
  81              		.thumb_func
  82              		.type	read, %function
  83              	read:
  84              	.LFB71:
  76:ZumoLibrary/Gyro.c **** 
  77:ZumoLibrary/Gyro.c **** void read(void)
  78:ZumoLibrary/Gyro.c **** {
  85              		.loc 1 78 0
  86              		.cfi_startproc
  87              		@ args = 0, pretend = 0, frame = 8
  88              		@ frame_needed = 0, uses_anonymous_args = 0
  89 0000 30B5     		push	{r4, r5, lr}
  90              		.cfi_def_cfa_offset 12
  91              		.cfi_offset 4, -12
  92              		.cfi_offset 5, -8
  93              		.cfi_offset 14, -4
ARM GAS  C:\Users\samue\AppData\Local\Temp\ccpYGVMt.s 			page 4


  94 0002 83B0     		sub	sp, sp, #12
  95              		.cfi_def_cfa_offset 24
  79:ZumoLibrary/Gyro.c ****     uint8 data[6];
  80:ZumoLibrary/Gyro.c ****     int16 x;
  81:ZumoLibrary/Gyro.c ****     int16 y;
  82:ZumoLibrary/Gyro.c ****     int16 z;
  83:ZumoLibrary/Gyro.c ****     I2C_Read_Multiple(D20_SA0_HIGH_ADDRESS, OUT_X_L | 0x80, data, 6);
  96              		.loc 1 83 0
  97 0004 0623     		movs	r3, #6
  98 0006 6A46     		mov	r2, sp
  99 0008 A821     		movs	r1, #168
 100 000a 6B20     		movs	r0, #107
 101 000c FFF7FEFF 		bl	I2C_Read_Multiple
 102              	.LVL7:
  84:ZumoLibrary/Gyro.c ****     x = (int16) ((data[1] << 8) | data[0]);
 103              		.loc 1 84 0
 104 0010 9DF80110 		ldrb	r1, [sp, #1]	@ zero_extendqisi2
 105 0014 0902     		lsls	r1, r1, #8
 106 0016 09B2     		sxth	r1, r1
 107 0018 9DF80000 		ldrb	r0, [sp]	@ zero_extendqisi2
 108              	.LVL8:
  85:ZumoLibrary/Gyro.c ****     y = (int16) ((data[3] << 8) | data[2]);
 109              		.loc 1 85 0
 110 001c 9DF80320 		ldrb	r2, [sp, #3]	@ zero_extendqisi2
 111 0020 1202     		lsls	r2, r2, #8
 112 0022 12B2     		sxth	r2, r2
 113 0024 9DF80240 		ldrb	r4, [sp, #2]	@ zero_extendqisi2
 114              	.LVL9:
  86:ZumoLibrary/Gyro.c ****     z = (int16) ((data[5] << 8) | data[4]);
 115              		.loc 1 86 0
 116 0028 9DF80530 		ldrb	r3, [sp, #5]	@ zero_extendqisi2
 117 002c 1B02     		lsls	r3, r3, #8
 118 002e 1BB2     		sxth	r3, r3
 119 0030 9DF80450 		ldrb	r5, [sp, #4]	@ zero_extendqisi2
 120              	.LVL10:
  87:ZumoLibrary/Gyro.c ****     
  88:ZumoLibrary/Gyro.c ****     printf("%d, %d, %d\n", x, y, z);
 121              		.loc 1 88 0
 122 0034 2B43     		orrs	r3, r3, r5
 123              	.LVL11:
 124 0036 2243     		orrs	r2, r2, r4
 125              	.LVL12:
 126 0038 0143     		orrs	r1, r1, r0
 127              	.LVL13:
 128 003a 0248     		ldr	r0, .L7
 129              	.LVL14:
 130 003c FFF7FEFF 		bl	printf
 131              	.LVL15:
  89:ZumoLibrary/Gyro.c **** }
 132              		.loc 1 89 0
 133 0040 03B0     		add	sp, sp, #12
 134              		.cfi_def_cfa_offset 12
 135              		@ sp needed
 136 0042 30BD     		pop	{r4, r5, pc}
 137              	.L8:
 138              		.align	2
 139              	.L7:
ARM GAS  C:\Users\samue\AppData\Local\Temp\ccpYGVMt.s 			page 5


 140 0044 00000000 		.word	.LC0
 141              		.cfi_endproc
 142              	.LFE71:
 143              		.size	read, .-read
 144              		.section	.text.enableDefault,"ax",%progbits
 145              		.align	2
 146              		.global	enableDefault
 147              		.thumb
 148              		.thumb_func
 149              		.type	enableDefault, %function
 150              	enableDefault:
 151              	.LFB72:
  90:ZumoLibrary/Gyro.c **** 
  91:ZumoLibrary/Gyro.c **** void enableDefault(void)
  92:ZumoLibrary/Gyro.c **** {
 152              		.loc 1 92 0
 153              		.cfi_startproc
 154              		@ args = 0, pretend = 0, frame = 0
 155              		@ frame_needed = 0, uses_anonymous_args = 0
 156 0000 08B5     		push	{r3, lr}
 157              		.cfi_def_cfa_offset 8
 158              		.cfi_offset 3, -8
 159              		.cfi_offset 14, -4
  93:ZumoLibrary/Gyro.c ****     // 0x00 = 0b00000000
  94:ZumoLibrary/Gyro.c ****     // Low_ODR = 0 (low speed ODR disabled)
  95:ZumoLibrary/Gyro.c ****     writeReg(LOW_ODR, 0x00);
 160              		.loc 1 95 0
 161 0002 0021     		movs	r1, #0
 162 0004 3920     		movs	r0, #57
 163 0006 FFF7FEFF 		bl	writeReg
 164              	.LVL16:
  96:ZumoLibrary/Gyro.c ****   
  97:ZumoLibrary/Gyro.c ****     // 0x00 = 0b00000000
  98:ZumoLibrary/Gyro.c ****     // FS = 00 (+/- 250 dps full scale)
  99:ZumoLibrary/Gyro.c ****     writeReg(CTRL_REG4, 0x00);
 165              		.loc 1 99 0
 166 000a 0021     		movs	r1, #0
 167 000c 2320     		movs	r0, #35
 168 000e FFF7FEFF 		bl	writeReg
 169              	.LVL17:
 100:ZumoLibrary/Gyro.c ****   
 101:ZumoLibrary/Gyro.c ****     // 0x6F = 0b01101111
 102:ZumoLibrary/Gyro.c ****     // DR = 01 (200 Hz ODR); BW = 10 (50 Hz bandwidth); PD = 1 (normal mode); Zen = Yen = Xen = 1 (
 103:ZumoLibrary/Gyro.c ****     writeReg(CTRL_REG1, 0x6F);
 170              		.loc 1 103 0
 171 0012 6F21     		movs	r1, #111
 172 0014 2020     		movs	r0, #32
 173 0016 FFF7FEFF 		bl	writeReg
 174              	.LVL18:
 175 001a 08BD     		pop	{r3, pc}
 176              		.cfi_endproc
 177              	.LFE72:
 178              		.size	enableDefault, .-enableDefault
 179              		.global	__aeabi_ui2f
 180              		.global	__aeabi_fmul
 181              		.global	__aeabi_f2uiz
 182              		.section	.text.value_convert_gyro,"ax",%progbits
ARM GAS  C:\Users\samue\AppData\Local\Temp\ccpYGVMt.s 			page 6


 183              		.align	2
 184              		.global	value_convert_gyro
 185              		.thumb
 186              		.thumb_func
 187              		.type	value_convert_gyro, %function
 188              	value_convert_gyro:
 189              	.LFB73:
 104:ZumoLibrary/Gyro.c **** }
 105:ZumoLibrary/Gyro.c ****     
 106:ZumoLibrary/Gyro.c ****     
 107:ZumoLibrary/Gyro.c **** uint16 value_convert_gyro(uint16 raw)
 108:ZumoLibrary/Gyro.c **** {
 190              		.loc 1 108 0
 191              		.cfi_startproc
 192              		@ args = 0, pretend = 0, frame = 0
 193              		@ frame_needed = 0, uses_anonymous_args = 0
 194              	.LVL19:
 195 0000 08B5     		push	{r3, lr}
 196              		.cfi_def_cfa_offset 8
 197              		.cfi_offset 3, -8
 198              		.cfi_offset 14, -4
 199              	.LVL20:
 109:ZumoLibrary/Gyro.c ****     float rate_result;
 110:ZumoLibrary/Gyro.c ****     float G_GAIN = 0.07;                        // FS = 2000 dps
 111:ZumoLibrary/Gyro.c ****   
 112:ZumoLibrary/Gyro.c ****     rate_result = (float)raw * G_GAIN;          // degrees per second for Gyroscope
 200              		.loc 1 112 0
 201 0002 FFF7FEFF 		bl	__aeabi_ui2f
 202              	.LVL21:
 203 0006 0349     		ldr	r1, .L13
 204 0008 FFF7FEFF 		bl	__aeabi_fmul
 205              	.LVL22:
 113:ZumoLibrary/Gyro.c ****     
 114:ZumoLibrary/Gyro.c ****     return rate_result;
 206              		.loc 1 114 0
 207 000c FFF7FEFF 		bl	__aeabi_f2uiz
 208              	.LVL23:
 115:ZumoLibrary/Gyro.c **** }
 209              		.loc 1 115 0
 210 0010 80B2     		uxth	r0, r0
 211 0012 08BD     		pop	{r3, pc}
 212              	.L14:
 213              		.align	2
 214              	.L13:
 215 0014 295C8F3D 		.word	1032805417
 216              		.cfi_endproc
 217              	.LFE73:
 218              		.size	value_convert_gyro, .-value_convert_gyro
 219              		.section	.rodata.str1.4,"aMS",%progbits,1
 220              		.align	2
 221              	.LC0:
 222 0000 25642C20 		.ascii	"%d, %d, %d\012\000"
 222      25642C20 
 222      25640A00 
 223              		.text
 224              	.Letext0:
 225              		.file 2 "c:\\program files (x86)\\cypress\\psoc creator\\4.2\\psoc creator\\import\\gnu\\arm\\5.4.
ARM GAS  C:\Users\samue\AppData\Local\Temp\ccpYGVMt.s 			page 7


 226              		.file 3 "c:\\program files (x86)\\cypress\\psoc creator\\4.2\\psoc creator\\import\\gnu\\arm\\5.4.
 227              		.file 4 "Generated_Source\\PSoC5/cytypes.h"
 228              		.file 5 "ZumoLibrary\\I2C_Common.h"
 229              		.file 6 "c:\\program files (x86)\\cypress\\psoc creator\\4.2\\psoc creator\\import\\gnu\\arm\\5.4.
 230              		.file 7 "Generated_Source\\PSoC5/core_cm3.h"