ARM GAS  C:\Users\samue\AppData\Local\Temp\cc2r8HUZ.s 			page 1


   1              		.syntax unified
   2              		.cpu cortex-m3
   3              		.fpu softvfp
   4              		.eabi_attribute 20, 1
   5              		.eabi_attribute 21, 1
   6              		.eabi_attribute 23, 3
   7              		.eabi_attribute 24, 1
   8              		.eabi_attribute 25, 1
   9              		.eabi_attribute 26, 1
  10              		.eabi_attribute 30, 1
  11              		.eabi_attribute 34, 1
  12              		.eabi_attribute 18, 4
  13              		.thumb
  14              		.syntax unified
  15              		.file	"heap_2.c"
  16              		.text
  17              	.Ltext0:
  18              		.cfi_sections	.debug_frame
  19              		.section	.text.prvHeapInit,"ax",%progbits
  20              		.align	2
  21              		.thumb
  22              		.thumb_func
  23              		.type	prvHeapInit, %function
  24              	prvHeapInit:
  25              	.LFB72:
  26              		.file 1 "..\\FreeRTOS\\Source\\portable\\MemMang\\heap_2.c"
   1:..\FreeRTOS\Source\portable\MemMang/heap_2.c **** /*
   2:..\FreeRTOS\Source\portable\MemMang/heap_2.c ****  * FreeRTOS Kernel V10.0.1
   3:..\FreeRTOS\Source\portable\MemMang/heap_2.c ****  * Copyright (C) 2017 Amazon.com, Inc. or its affiliates.  All Rights Reserved.
   4:..\FreeRTOS\Source\portable\MemMang/heap_2.c ****  *
   5:..\FreeRTOS\Source\portable\MemMang/heap_2.c ****  * Permission is hereby granted, free of charge, to any person obtaining a copy of
   6:..\FreeRTOS\Source\portable\MemMang/heap_2.c ****  * this software and associated documentation files (the "Software"), to deal in
   7:..\FreeRTOS\Source\portable\MemMang/heap_2.c ****  * the Software without restriction, including without limitation the rights to
   8:..\FreeRTOS\Source\portable\MemMang/heap_2.c ****  * use, copy, modify, merge, publish, distribute, sublicense, and/or sell copies of
   9:..\FreeRTOS\Source\portable\MemMang/heap_2.c ****  * the Software, and to permit persons to whom the Software is furnished to do so,
  10:..\FreeRTOS\Source\portable\MemMang/heap_2.c ****  * subject to the following conditions:
  11:..\FreeRTOS\Source\portable\MemMang/heap_2.c ****  *
  12:..\FreeRTOS\Source\portable\MemMang/heap_2.c ****  * The above copyright notice and this permission notice shall be included in all
  13:..\FreeRTOS\Source\portable\MemMang/heap_2.c ****  * copies or substantial portions of the Software.
  14:..\FreeRTOS\Source\portable\MemMang/heap_2.c ****  *
  15:..\FreeRTOS\Source\portable\MemMang/heap_2.c ****  * THE SOFTWARE IS PROVIDED "AS IS", WITHOUT WARRANTY OF ANY KIND, EXPRESS OR
  16:..\FreeRTOS\Source\portable\MemMang/heap_2.c ****  * IMPLIED, INCLUDING BUT NOT LIMITED TO THE WARRANTIES OF MERCHANTABILITY, FITNESS
  17:..\FreeRTOS\Source\portable\MemMang/heap_2.c ****  * FOR A PARTICULAR PURPOSE AND NONINFRINGEMENT. IN NO EVENT SHALL THE AUTHORS OR
  18:..\FreeRTOS\Source\portable\MemMang/heap_2.c ****  * COPYRIGHT HOLDERS BE LIABLE FOR ANY CLAIM, DAMAGES OR OTHER LIABILITY, WHETHER
  19:..\FreeRTOS\Source\portable\MemMang/heap_2.c ****  * IN AN ACTION OF CONTRACT, TORT OR OTHERWISE, ARISING FROM, OUT OF OR IN
  20:..\FreeRTOS\Source\portable\MemMang/heap_2.c ****  * CONNECTION WITH THE SOFTWARE OR THE USE OR OTHER DEALINGS IN THE SOFTWARE.
  21:..\FreeRTOS\Source\portable\MemMang/heap_2.c ****  *
  22:..\FreeRTOS\Source\portable\MemMang/heap_2.c ****  * http://www.FreeRTOS.org
  23:..\FreeRTOS\Source\portable\MemMang/heap_2.c ****  * http://aws.amazon.com/freertos
  24:..\FreeRTOS\Source\portable\MemMang/heap_2.c ****  *
  25:..\FreeRTOS\Source\portable\MemMang/heap_2.c ****  * 1 tab == 4 spaces!
  26:..\FreeRTOS\Source\portable\MemMang/heap_2.c ****  */
  27:..\FreeRTOS\Source\portable\MemMang/heap_2.c **** 
  28:..\FreeRTOS\Source\portable\MemMang/heap_2.c **** /*
  29:..\FreeRTOS\Source\portable\MemMang/heap_2.c ****  * A sample implementation of pvPortMalloc() and vPortFree() that permits
  30:..\FreeRTOS\Source\portable\MemMang/heap_2.c ****  * allocated blocks to be freed, but does not combine adjacent free blocks
  31:..\FreeRTOS\Source\portable\MemMang/heap_2.c ****  * into a single larger block (and so will fragment memory).  See heap_4.c for
ARM GAS  C:\Users\samue\AppData\Local\Temp\cc2r8HUZ.s 			page 2


  32:..\FreeRTOS\Source\portable\MemMang/heap_2.c ****  * an equivalent that does combine adjacent blocks into single larger blocks.
  33:..\FreeRTOS\Source\portable\MemMang/heap_2.c ****  *
  34:..\FreeRTOS\Source\portable\MemMang/heap_2.c ****  * See heap_1.c, heap_3.c and heap_4.c for alternative implementations, and the
  35:..\FreeRTOS\Source\portable\MemMang/heap_2.c ****  * memory management pages of http://www.FreeRTOS.org for more information.
  36:..\FreeRTOS\Source\portable\MemMang/heap_2.c ****  */
  37:..\FreeRTOS\Source\portable\MemMang/heap_2.c **** #include <stdlib.h>
  38:..\FreeRTOS\Source\portable\MemMang/heap_2.c **** 
  39:..\FreeRTOS\Source\portable\MemMang/heap_2.c **** /* Defining MPU_WRAPPERS_INCLUDED_FROM_API_FILE prevents task.h from redefining
  40:..\FreeRTOS\Source\portable\MemMang/heap_2.c **** all the API functions to use the MPU wrappers.  That should only be done when
  41:..\FreeRTOS\Source\portable\MemMang/heap_2.c **** task.h is included from an application file. */
  42:..\FreeRTOS\Source\portable\MemMang/heap_2.c **** #define MPU_WRAPPERS_INCLUDED_FROM_API_FILE
  43:..\FreeRTOS\Source\portable\MemMang/heap_2.c **** 
  44:..\FreeRTOS\Source\portable\MemMang/heap_2.c **** #include "FreeRTOS.h"
  45:..\FreeRTOS\Source\portable\MemMang/heap_2.c **** #include "task.h"
  46:..\FreeRTOS\Source\portable\MemMang/heap_2.c **** 
  47:..\FreeRTOS\Source\portable\MemMang/heap_2.c **** #undef MPU_WRAPPERS_INCLUDED_FROM_API_FILE
  48:..\FreeRTOS\Source\portable\MemMang/heap_2.c **** 
  49:..\FreeRTOS\Source\portable\MemMang/heap_2.c **** #if( configSUPPORT_DYNAMIC_ALLOCATION == 0 )
  50:..\FreeRTOS\Source\portable\MemMang/heap_2.c **** 	#error This file must not be used if configSUPPORT_DYNAMIC_ALLOCATION is 0
  51:..\FreeRTOS\Source\portable\MemMang/heap_2.c **** #endif
  52:..\FreeRTOS\Source\portable\MemMang/heap_2.c **** 
  53:..\FreeRTOS\Source\portable\MemMang/heap_2.c **** /* A few bytes might be lost to byte aligning the heap start address. */
  54:..\FreeRTOS\Source\portable\MemMang/heap_2.c **** #define configADJUSTED_HEAP_SIZE	( configTOTAL_HEAP_SIZE - portBYTE_ALIGNMENT )
  55:..\FreeRTOS\Source\portable\MemMang/heap_2.c **** 
  56:..\FreeRTOS\Source\portable\MemMang/heap_2.c **** /*
  57:..\FreeRTOS\Source\portable\MemMang/heap_2.c ****  * Initialises the heap structures before their first use.
  58:..\FreeRTOS\Source\portable\MemMang/heap_2.c ****  */
  59:..\FreeRTOS\Source\portable\MemMang/heap_2.c **** static void prvHeapInit( void );
  60:..\FreeRTOS\Source\portable\MemMang/heap_2.c **** 
  61:..\FreeRTOS\Source\portable\MemMang/heap_2.c **** /* Allocate the memory for the heap. */
  62:..\FreeRTOS\Source\portable\MemMang/heap_2.c **** #if( configAPPLICATION_ALLOCATED_HEAP == 1 )
  63:..\FreeRTOS\Source\portable\MemMang/heap_2.c **** 	/* The application writer has already defined the array used for the RTOS
  64:..\FreeRTOS\Source\portable\MemMang/heap_2.c **** 	heap - probably so it can be placed in a special segment or address. */
  65:..\FreeRTOS\Source\portable\MemMang/heap_2.c **** 	extern uint8_t ucHeap[ configTOTAL_HEAP_SIZE ];
  66:..\FreeRTOS\Source\portable\MemMang/heap_2.c **** #else
  67:..\FreeRTOS\Source\portable\MemMang/heap_2.c **** 	static uint8_t ucHeap[ configTOTAL_HEAP_SIZE ];
  68:..\FreeRTOS\Source\portable\MemMang/heap_2.c **** #endif /* configAPPLICATION_ALLOCATED_HEAP */
  69:..\FreeRTOS\Source\portable\MemMang/heap_2.c **** 
  70:..\FreeRTOS\Source\portable\MemMang/heap_2.c **** 
  71:..\FreeRTOS\Source\portable\MemMang/heap_2.c **** /* Define the linked list structure.  This is used to link free blocks in order
  72:..\FreeRTOS\Source\portable\MemMang/heap_2.c **** of their size. */
  73:..\FreeRTOS\Source\portable\MemMang/heap_2.c **** typedef struct A_BLOCK_LINK
  74:..\FreeRTOS\Source\portable\MemMang/heap_2.c **** {
  75:..\FreeRTOS\Source\portable\MemMang/heap_2.c **** 	struct A_BLOCK_LINK *pxNextFreeBlock;	/*<< The next free block in the list. */
  76:..\FreeRTOS\Source\portable\MemMang/heap_2.c **** 	size_t xBlockSize;						/*<< The size of the free block. */
  77:..\FreeRTOS\Source\portable\MemMang/heap_2.c **** } BlockLink_t;
  78:..\FreeRTOS\Source\portable\MemMang/heap_2.c **** 
  79:..\FreeRTOS\Source\portable\MemMang/heap_2.c **** 
  80:..\FreeRTOS\Source\portable\MemMang/heap_2.c **** static const uint16_t heapSTRUCT_SIZE	= ( ( sizeof ( BlockLink_t ) + ( portBYTE_ALIGNMENT - 1 ) ) &
  81:..\FreeRTOS\Source\portable\MemMang/heap_2.c **** #define heapMINIMUM_BLOCK_SIZE	( ( size_t ) ( heapSTRUCT_SIZE * 2 ) )
  82:..\FreeRTOS\Source\portable\MemMang/heap_2.c **** 
  83:..\FreeRTOS\Source\portable\MemMang/heap_2.c **** /* Create a couple of list links to mark the start and end of the list. */
  84:..\FreeRTOS\Source\portable\MemMang/heap_2.c **** static BlockLink_t xStart, xEnd;
  85:..\FreeRTOS\Source\portable\MemMang/heap_2.c **** 
  86:..\FreeRTOS\Source\portable\MemMang/heap_2.c **** /* Keeps track of the number of free bytes remaining, but says nothing about
  87:..\FreeRTOS\Source\portable\MemMang/heap_2.c **** fragmentation. */
  88:..\FreeRTOS\Source\portable\MemMang/heap_2.c **** static size_t xFreeBytesRemaining = configADJUSTED_HEAP_SIZE;
ARM GAS  C:\Users\samue\AppData\Local\Temp\cc2r8HUZ.s 			page 3


  89:..\FreeRTOS\Source\portable\MemMang/heap_2.c **** 
  90:..\FreeRTOS\Source\portable\MemMang/heap_2.c **** /* STATIC FUNCTIONS ARE DEFINED AS MACROS TO MINIMIZE THE FUNCTION CALL DEPTH. */
  91:..\FreeRTOS\Source\portable\MemMang/heap_2.c **** 
  92:..\FreeRTOS\Source\portable\MemMang/heap_2.c **** /*
  93:..\FreeRTOS\Source\portable\MemMang/heap_2.c ****  * Insert a block into the list of free blocks - which is ordered by size of
  94:..\FreeRTOS\Source\portable\MemMang/heap_2.c ****  * the block.  Small blocks at the start of the list and large blocks at the end
  95:..\FreeRTOS\Source\portable\MemMang/heap_2.c ****  * of the list.
  96:..\FreeRTOS\Source\portable\MemMang/heap_2.c ****  */
  97:..\FreeRTOS\Source\portable\MemMang/heap_2.c **** #define prvInsertBlockIntoFreeList( pxBlockToInsert )								\
  98:..\FreeRTOS\Source\portable\MemMang/heap_2.c **** {																					\
  99:..\FreeRTOS\Source\portable\MemMang/heap_2.c **** BlockLink_t *pxIterator;															\
 100:..\FreeRTOS\Source\portable\MemMang/heap_2.c **** size_t xBlockSize;																	\
 101:..\FreeRTOS\Source\portable\MemMang/heap_2.c **** 																					\
 102:..\FreeRTOS\Source\portable\MemMang/heap_2.c **** 	xBlockSize = pxBlockToInsert->xBlockSize;										\
 103:..\FreeRTOS\Source\portable\MemMang/heap_2.c **** 																					\
 104:..\FreeRTOS\Source\portable\MemMang/heap_2.c **** 	/* Iterate through the list until a block is found that has a larger size */	\
 105:..\FreeRTOS\Source\portable\MemMang/heap_2.c **** 	/* than the block we are inserting. */											\
 106:..\FreeRTOS\Source\portable\MemMang/heap_2.c **** 	for( pxIterator = &xStart; pxIterator->pxNextFreeBlock->xBlockSize < xBlockSize; pxIterator = pxIt
 107:..\FreeRTOS\Source\portable\MemMang/heap_2.c **** 	{																				\
 108:..\FreeRTOS\Source\portable\MemMang/heap_2.c **** 		/* There is nothing to do here - just iterate to the correct position. */	\
 109:..\FreeRTOS\Source\portable\MemMang/heap_2.c **** 	}																				\
 110:..\FreeRTOS\Source\portable\MemMang/heap_2.c **** 																					\
 111:..\FreeRTOS\Source\portable\MemMang/heap_2.c **** 	/* Update the list to include the block being inserted in the correct */		\
 112:..\FreeRTOS\Source\portable\MemMang/heap_2.c **** 	/* position. */																	\
 113:..\FreeRTOS\Source\portable\MemMang/heap_2.c **** 	pxBlockToInsert->pxNextFreeBlock = pxIterator->pxNextFreeBlock;					\
 114:..\FreeRTOS\Source\portable\MemMang/heap_2.c **** 	pxIterator->pxNextFreeBlock = pxBlockToInsert;									\
 115:..\FreeRTOS\Source\portable\MemMang/heap_2.c **** }
 116:..\FreeRTOS\Source\portable\MemMang/heap_2.c **** /*-----------------------------------------------------------*/
 117:..\FreeRTOS\Source\portable\MemMang/heap_2.c **** 
 118:..\FreeRTOS\Source\portable\MemMang/heap_2.c **** void *pvPortMalloc( size_t xWantedSize )
 119:..\FreeRTOS\Source\portable\MemMang/heap_2.c **** {
 120:..\FreeRTOS\Source\portable\MemMang/heap_2.c **** BlockLink_t *pxBlock, *pxPreviousBlock, *pxNewBlockLink;
 121:..\FreeRTOS\Source\portable\MemMang/heap_2.c **** static BaseType_t xHeapHasBeenInitialised = pdFALSE;
 122:..\FreeRTOS\Source\portable\MemMang/heap_2.c **** void *pvReturn = NULL;
 123:..\FreeRTOS\Source\portable\MemMang/heap_2.c **** 
 124:..\FreeRTOS\Source\portable\MemMang/heap_2.c **** 	vTaskSuspendAll();
 125:..\FreeRTOS\Source\portable\MemMang/heap_2.c **** 	{
 126:..\FreeRTOS\Source\portable\MemMang/heap_2.c **** 		/* If this is the first call to malloc then the heap will require
 127:..\FreeRTOS\Source\portable\MemMang/heap_2.c **** 		initialisation to setup the list of free blocks. */
 128:..\FreeRTOS\Source\portable\MemMang/heap_2.c **** 		if( xHeapHasBeenInitialised == pdFALSE )
 129:..\FreeRTOS\Source\portable\MemMang/heap_2.c **** 		{
 130:..\FreeRTOS\Source\portable\MemMang/heap_2.c **** 			prvHeapInit();
 131:..\FreeRTOS\Source\portable\MemMang/heap_2.c **** 			xHeapHasBeenInitialised = pdTRUE;
 132:..\FreeRTOS\Source\portable\MemMang/heap_2.c **** 		}
 133:..\FreeRTOS\Source\portable\MemMang/heap_2.c **** 
 134:..\FreeRTOS\Source\portable\MemMang/heap_2.c **** 		/* The wanted size is increased so it can contain a BlockLink_t
 135:..\FreeRTOS\Source\portable\MemMang/heap_2.c **** 		structure in addition to the requested amount of bytes. */
 136:..\FreeRTOS\Source\portable\MemMang/heap_2.c **** 		if( xWantedSize > 0 )
 137:..\FreeRTOS\Source\portable\MemMang/heap_2.c **** 		{
 138:..\FreeRTOS\Source\portable\MemMang/heap_2.c **** 			xWantedSize += heapSTRUCT_SIZE;
 139:..\FreeRTOS\Source\portable\MemMang/heap_2.c **** 
 140:..\FreeRTOS\Source\portable\MemMang/heap_2.c **** 			/* Ensure that blocks are always aligned to the required number of bytes. */
 141:..\FreeRTOS\Source\portable\MemMang/heap_2.c **** 			if( ( xWantedSize & portBYTE_ALIGNMENT_MASK ) != 0 )
 142:..\FreeRTOS\Source\portable\MemMang/heap_2.c **** 			{
 143:..\FreeRTOS\Source\portable\MemMang/heap_2.c **** 				/* Byte alignment required. */
 144:..\FreeRTOS\Source\portable\MemMang/heap_2.c **** 				xWantedSize += ( portBYTE_ALIGNMENT - ( xWantedSize & portBYTE_ALIGNMENT_MASK ) );
 145:..\FreeRTOS\Source\portable\MemMang/heap_2.c **** 			}
ARM GAS  C:\Users\samue\AppData\Local\Temp\cc2r8HUZ.s 			page 4


 146:..\FreeRTOS\Source\portable\MemMang/heap_2.c **** 		}
 147:..\FreeRTOS\Source\portable\MemMang/heap_2.c **** 
 148:..\FreeRTOS\Source\portable\MemMang/heap_2.c **** 		if( ( xWantedSize > 0 ) && ( xWantedSize < configADJUSTED_HEAP_SIZE ) )
 149:..\FreeRTOS\Source\portable\MemMang/heap_2.c **** 		{
 150:..\FreeRTOS\Source\portable\MemMang/heap_2.c **** 			/* Blocks are stored in byte order - traverse the list from the start
 151:..\FreeRTOS\Source\portable\MemMang/heap_2.c **** 			(smallest) block until one of adequate size is found. */
 152:..\FreeRTOS\Source\portable\MemMang/heap_2.c **** 			pxPreviousBlock = &xStart;
 153:..\FreeRTOS\Source\portable\MemMang/heap_2.c **** 			pxBlock = xStart.pxNextFreeBlock;
 154:..\FreeRTOS\Source\portable\MemMang/heap_2.c **** 			while( ( pxBlock->xBlockSize < xWantedSize ) && ( pxBlock->pxNextFreeBlock != NULL ) )
 155:..\FreeRTOS\Source\portable\MemMang/heap_2.c **** 			{
 156:..\FreeRTOS\Source\portable\MemMang/heap_2.c **** 				pxPreviousBlock = pxBlock;
 157:..\FreeRTOS\Source\portable\MemMang/heap_2.c **** 				pxBlock = pxBlock->pxNextFreeBlock;
 158:..\FreeRTOS\Source\portable\MemMang/heap_2.c **** 			}
 159:..\FreeRTOS\Source\portable\MemMang/heap_2.c **** 
 160:..\FreeRTOS\Source\portable\MemMang/heap_2.c **** 			/* If we found the end marker then a block of adequate size was not found. */
 161:..\FreeRTOS\Source\portable\MemMang/heap_2.c **** 			if( pxBlock != &xEnd )
 162:..\FreeRTOS\Source\portable\MemMang/heap_2.c **** 			{
 163:..\FreeRTOS\Source\portable\MemMang/heap_2.c **** 				/* Return the memory space - jumping over the BlockLink_t structure
 164:..\FreeRTOS\Source\portable\MemMang/heap_2.c **** 				at its start. */
 165:..\FreeRTOS\Source\portable\MemMang/heap_2.c **** 				pvReturn = ( void * ) ( ( ( uint8_t * ) pxPreviousBlock->pxNextFreeBlock ) + heapSTRUCT_SIZE );
 166:..\FreeRTOS\Source\portable\MemMang/heap_2.c **** 
 167:..\FreeRTOS\Source\portable\MemMang/heap_2.c **** 				/* This block is being returned for use so must be taken out of the
 168:..\FreeRTOS\Source\portable\MemMang/heap_2.c **** 				list of free blocks. */
 169:..\FreeRTOS\Source\portable\MemMang/heap_2.c **** 				pxPreviousBlock->pxNextFreeBlock = pxBlock->pxNextFreeBlock;
 170:..\FreeRTOS\Source\portable\MemMang/heap_2.c **** 
 171:..\FreeRTOS\Source\portable\MemMang/heap_2.c **** 				/* If the block is larger than required it can be split into two. */
 172:..\FreeRTOS\Source\portable\MemMang/heap_2.c **** 				if( ( pxBlock->xBlockSize - xWantedSize ) > heapMINIMUM_BLOCK_SIZE )
 173:..\FreeRTOS\Source\portable\MemMang/heap_2.c **** 				{
 174:..\FreeRTOS\Source\portable\MemMang/heap_2.c **** 					/* This block is to be split into two.  Create a new block
 175:..\FreeRTOS\Source\portable\MemMang/heap_2.c **** 					following the number of bytes requested. The void cast is
 176:..\FreeRTOS\Source\portable\MemMang/heap_2.c **** 					used to prevent byte alignment warnings from the compiler. */
 177:..\FreeRTOS\Source\portable\MemMang/heap_2.c **** 					pxNewBlockLink = ( void * ) ( ( ( uint8_t * ) pxBlock ) + xWantedSize );
 178:..\FreeRTOS\Source\portable\MemMang/heap_2.c **** 
 179:..\FreeRTOS\Source\portable\MemMang/heap_2.c **** 					/* Calculate the sizes of two blocks split from the single
 180:..\FreeRTOS\Source\portable\MemMang/heap_2.c **** 					block. */
 181:..\FreeRTOS\Source\portable\MemMang/heap_2.c **** 					pxNewBlockLink->xBlockSize = pxBlock->xBlockSize - xWantedSize;
 182:..\FreeRTOS\Source\portable\MemMang/heap_2.c **** 					pxBlock->xBlockSize = xWantedSize;
 183:..\FreeRTOS\Source\portable\MemMang/heap_2.c **** 
 184:..\FreeRTOS\Source\portable\MemMang/heap_2.c **** 					/* Insert the new block into the list of free blocks. */
 185:..\FreeRTOS\Source\portable\MemMang/heap_2.c **** 					prvInsertBlockIntoFreeList( ( pxNewBlockLink ) );
 186:..\FreeRTOS\Source\portable\MemMang/heap_2.c **** 				}
 187:..\FreeRTOS\Source\portable\MemMang/heap_2.c **** 
 188:..\FreeRTOS\Source\portable\MemMang/heap_2.c **** 				xFreeBytesRemaining -= pxBlock->xBlockSize;
 189:..\FreeRTOS\Source\portable\MemMang/heap_2.c **** 			}
 190:..\FreeRTOS\Source\portable\MemMang/heap_2.c **** 		}
 191:..\FreeRTOS\Source\portable\MemMang/heap_2.c **** 
 192:..\FreeRTOS\Source\portable\MemMang/heap_2.c **** 		traceMALLOC( pvReturn, xWantedSize );
 193:..\FreeRTOS\Source\portable\MemMang/heap_2.c **** 	}
 194:..\FreeRTOS\Source\portable\MemMang/heap_2.c **** 	( void ) xTaskResumeAll();
 195:..\FreeRTOS\Source\portable\MemMang/heap_2.c **** 
 196:..\FreeRTOS\Source\portable\MemMang/heap_2.c **** 	#if( configUSE_MALLOC_FAILED_HOOK == 1 )
 197:..\FreeRTOS\Source\portable\MemMang/heap_2.c **** 	{
 198:..\FreeRTOS\Source\portable\MemMang/heap_2.c **** 		if( pvReturn == NULL )
 199:..\FreeRTOS\Source\portable\MemMang/heap_2.c **** 		{
 200:..\FreeRTOS\Source\portable\MemMang/heap_2.c **** 			extern void vApplicationMallocFailedHook( void );
 201:..\FreeRTOS\Source\portable\MemMang/heap_2.c **** 			vApplicationMallocFailedHook();
 202:..\FreeRTOS\Source\portable\MemMang/heap_2.c **** 		}
ARM GAS  C:\Users\samue\AppData\Local\Temp\cc2r8HUZ.s 			page 5


 203:..\FreeRTOS\Source\portable\MemMang/heap_2.c **** 	}
 204:..\FreeRTOS\Source\portable\MemMang/heap_2.c **** 	#endif
 205:..\FreeRTOS\Source\portable\MemMang/heap_2.c **** 
 206:..\FreeRTOS\Source\portable\MemMang/heap_2.c **** 	return pvReturn;
 207:..\FreeRTOS\Source\portable\MemMang/heap_2.c **** }
 208:..\FreeRTOS\Source\portable\MemMang/heap_2.c **** /*-----------------------------------------------------------*/
 209:..\FreeRTOS\Source\portable\MemMang/heap_2.c **** 
 210:..\FreeRTOS\Source\portable\MemMang/heap_2.c **** void vPortFree( void *pv )
 211:..\FreeRTOS\Source\portable\MemMang/heap_2.c **** {
 212:..\FreeRTOS\Source\portable\MemMang/heap_2.c **** uint8_t *puc = ( uint8_t * ) pv;
 213:..\FreeRTOS\Source\portable\MemMang/heap_2.c **** BlockLink_t *pxLink;
 214:..\FreeRTOS\Source\portable\MemMang/heap_2.c **** 
 215:..\FreeRTOS\Source\portable\MemMang/heap_2.c **** 	if( pv != NULL )
 216:..\FreeRTOS\Source\portable\MemMang/heap_2.c **** 	{
 217:..\FreeRTOS\Source\portable\MemMang/heap_2.c **** 		/* The memory being freed will have an BlockLink_t structure immediately
 218:..\FreeRTOS\Source\portable\MemMang/heap_2.c **** 		before it. */
 219:..\FreeRTOS\Source\portable\MemMang/heap_2.c **** 		puc -= heapSTRUCT_SIZE;
 220:..\FreeRTOS\Source\portable\MemMang/heap_2.c **** 
 221:..\FreeRTOS\Source\portable\MemMang/heap_2.c **** 		/* This unexpected casting is to keep some compilers from issuing
 222:..\FreeRTOS\Source\portable\MemMang/heap_2.c **** 		byte alignment warnings. */
 223:..\FreeRTOS\Source\portable\MemMang/heap_2.c **** 		pxLink = ( void * ) puc;
 224:..\FreeRTOS\Source\portable\MemMang/heap_2.c **** 
 225:..\FreeRTOS\Source\portable\MemMang/heap_2.c **** 		vTaskSuspendAll();
 226:..\FreeRTOS\Source\portable\MemMang/heap_2.c **** 		{
 227:..\FreeRTOS\Source\portable\MemMang/heap_2.c **** 			/* Add this block to the list of free blocks. */
 228:..\FreeRTOS\Source\portable\MemMang/heap_2.c **** 			prvInsertBlockIntoFreeList( ( ( BlockLink_t * ) pxLink ) );
 229:..\FreeRTOS\Source\portable\MemMang/heap_2.c **** 			xFreeBytesRemaining += pxLink->xBlockSize;
 230:..\FreeRTOS\Source\portable\MemMang/heap_2.c **** 			traceFREE( pv, pxLink->xBlockSize );
 231:..\FreeRTOS\Source\portable\MemMang/heap_2.c **** 		}
 232:..\FreeRTOS\Source\portable\MemMang/heap_2.c **** 		( void ) xTaskResumeAll();
 233:..\FreeRTOS\Source\portable\MemMang/heap_2.c **** 	}
 234:..\FreeRTOS\Source\portable\MemMang/heap_2.c **** }
 235:..\FreeRTOS\Source\portable\MemMang/heap_2.c **** /*-----------------------------------------------------------*/
 236:..\FreeRTOS\Source\portable\MemMang/heap_2.c **** 
 237:..\FreeRTOS\Source\portable\MemMang/heap_2.c **** size_t xPortGetFreeHeapSize( void )
 238:..\FreeRTOS\Source\portable\MemMang/heap_2.c **** {
 239:..\FreeRTOS\Source\portable\MemMang/heap_2.c **** 	return xFreeBytesRemaining;
 240:..\FreeRTOS\Source\portable\MemMang/heap_2.c **** }
 241:..\FreeRTOS\Source\portable\MemMang/heap_2.c **** /*-----------------------------------------------------------*/
 242:..\FreeRTOS\Source\portable\MemMang/heap_2.c **** 
 243:..\FreeRTOS\Source\portable\MemMang/heap_2.c **** void vPortInitialiseBlocks( void )
 244:..\FreeRTOS\Source\portable\MemMang/heap_2.c **** {
 245:..\FreeRTOS\Source\portable\MemMang/heap_2.c **** 	/* This just exists to keep the linker quiet. */
 246:..\FreeRTOS\Source\portable\MemMang/heap_2.c **** }
 247:..\FreeRTOS\Source\portable\MemMang/heap_2.c **** /*-----------------------------------------------------------*/
 248:..\FreeRTOS\Source\portable\MemMang/heap_2.c **** 
 249:..\FreeRTOS\Source\portable\MemMang/heap_2.c **** static void prvHeapInit( void )
 250:..\FreeRTOS\Source\portable\MemMang/heap_2.c **** {
  27              		.loc 1 250 0
  28              		.cfi_startproc
  29              		@ args = 0, pretend = 0, frame = 0
  30              		@ frame_needed = 0, uses_anonymous_args = 0
  31              		@ link register save eliminated.
 251:..\FreeRTOS\Source\portable\MemMang/heap_2.c **** BlockLink_t *pxFirstFreeBlock;
 252:..\FreeRTOS\Source\portable\MemMang/heap_2.c **** uint8_t *pucAlignedHeap;
 253:..\FreeRTOS\Source\portable\MemMang/heap_2.c **** 
 254:..\FreeRTOS\Source\portable\MemMang/heap_2.c **** 	/* Ensure the heap starts on a correctly aligned boundary. */
ARM GAS  C:\Users\samue\AppData\Local\Temp\cc2r8HUZ.s 			page 6


 255:..\FreeRTOS\Source\portable\MemMang/heap_2.c **** 	pucAlignedHeap = ( uint8_t * ) ( ( ( portPOINTER_SIZE_TYPE ) &ucHeap[ portBYTE_ALIGNMENT ] ) & ( ~
  32              		.loc 1 255 0
  33 0000 094A     		ldr	r2, .L2
  34 0002 22F00702 		bic	r2, r2, #7
  35              	.LVL0:
 256:..\FreeRTOS\Source\portable\MemMang/heap_2.c **** 
 257:..\FreeRTOS\Source\portable\MemMang/heap_2.c **** 	/* xStart is used to hold a pointer to the first item in the list of free
 258:..\FreeRTOS\Source\portable\MemMang/heap_2.c **** 	blocks.  The void cast is used to prevent compiler warnings. */
 259:..\FreeRTOS\Source\portable\MemMang/heap_2.c **** 	xStart.pxNextFreeBlock = ( void * ) pucAlignedHeap;
  36              		.loc 1 259 0
  37 0006 094B     		ldr	r3, .L2+4
  38 0008 C3F84028 		str	r2, [r3, #2112]
 260:..\FreeRTOS\Source\portable\MemMang/heap_2.c **** 	xStart.xBlockSize = ( size_t ) 0;
  39              		.loc 1 260 0
  40 000c 0020     		movs	r0, #0
  41 000e C3F84408 		str	r0, [r3, #2116]
 261:..\FreeRTOS\Source\portable\MemMang/heap_2.c **** 
 262:..\FreeRTOS\Source\portable\MemMang/heap_2.c **** 	/* xEnd is used to mark the end of the list of free blocks. */
 263:..\FreeRTOS\Source\portable\MemMang/heap_2.c **** 	xEnd.xBlockSize = configADJUSTED_HEAP_SIZE;
  42              		.loc 1 263 0
  43 0012 48F6F871 		movw	r1, #36856
  44 0016 C3F84C18 		str	r1, [r3, #2124]
 264:..\FreeRTOS\Source\portable\MemMang/heap_2.c **** 	xEnd.pxNextFreeBlock = NULL;
  45              		.loc 1 264 0
  46 001a C3F84808 		str	r0, [r3, #2120]
  47              	.LVL1:
 265:..\FreeRTOS\Source\portable\MemMang/heap_2.c **** 
 266:..\FreeRTOS\Source\portable\MemMang/heap_2.c **** 	/* To start with there is a single free block that is sized to take up the
 267:..\FreeRTOS\Source\portable\MemMang/heap_2.c **** 	entire heap space. */
 268:..\FreeRTOS\Source\portable\MemMang/heap_2.c **** 	pxFirstFreeBlock = ( void * ) pucAlignedHeap;
 269:..\FreeRTOS\Source\portable\MemMang/heap_2.c **** 	pxFirstFreeBlock->xBlockSize = configADJUSTED_HEAP_SIZE;
  48              		.loc 1 269 0
  49 001e 5160     		str	r1, [r2, #4]
 270:..\FreeRTOS\Source\portable\MemMang/heap_2.c **** 	pxFirstFreeBlock->pxNextFreeBlock = &xEnd;
  50              		.loc 1 270 0
  51 0020 03F64803 		addw	r3, r3, #2120
  52 0024 1360     		str	r3, [r2]
  53 0026 7047     		bx	lr
  54              	.L3:
  55              		.align	2
  56              	.L2:
  57 0028 08000000 		.word	.LANCHOR0+8
  58 002c C0870000 		.word	.LANCHOR1
  59              		.cfi_endproc
  60              	.LFE72:
  61              		.size	prvHeapInit, .-prvHeapInit
  62              		.section	.text.pvPortMalloc,"ax",%progbits
  63              		.align	2
  64              		.global	pvPortMalloc
  65              		.thumb
  66              		.thumb_func
  67              		.type	pvPortMalloc, %function
  68              	pvPortMalloc:
  69              	.LFB68:
 119:..\FreeRTOS\Source\portable\MemMang/heap_2.c **** BlockLink_t *pxBlock, *pxPreviousBlock, *pxNewBlockLink;
  70              		.loc 1 119 0
  71              		.cfi_startproc
ARM GAS  C:\Users\samue\AppData\Local\Temp\cc2r8HUZ.s 			page 7


  72              		@ args = 0, pretend = 0, frame = 0
  73              		@ frame_needed = 0, uses_anonymous_args = 0
  74              	.LVL2:
  75 0000 70B5     		push	{r4, r5, r6, lr}
  76              		.cfi_def_cfa_offset 16
  77              		.cfi_offset 4, -16
  78              		.cfi_offset 5, -12
  79              		.cfi_offset 6, -8
  80              		.cfi_offset 14, -4
  81 0002 0446     		mov	r4, r0
  82              	.LVL3:
 124:..\FreeRTOS\Source\portable\MemMang/heap_2.c **** 	{
  83              		.loc 1 124 0
  84 0004 FFF7FEFF 		bl	vTaskSuspendAll
  85              	.LVL4:
 128:..\FreeRTOS\Source\portable\MemMang/heap_2.c **** 		{
  86              		.loc 1 128 0
  87 0008 264B     		ldr	r3, .L18
  88 000a D3F85038 		ldr	r3, [r3, #2128]
  89 000e 2BB9     		cbnz	r3, .L5
 130:..\FreeRTOS\Source\portable\MemMang/heap_2.c **** 			xHeapHasBeenInitialised = pdTRUE;
  90              		.loc 1 130 0
  91 0010 FFF7FEFF 		bl	prvHeapInit
  92              	.LVL5:
 131:..\FreeRTOS\Source\portable\MemMang/heap_2.c **** 		}
  93              		.loc 1 131 0
  94 0014 0122     		movs	r2, #1
  95 0016 234B     		ldr	r3, .L18
  96 0018 C3F85028 		str	r2, [r3, #2128]
  97              	.L5:
 136:..\FreeRTOS\Source\portable\MemMang/heap_2.c **** 		{
  98              		.loc 1 136 0
  99 001c 34B1     		cbz	r4, .L6
 138:..\FreeRTOS\Source\portable\MemMang/heap_2.c **** 
 100              		.loc 1 138 0
 101 001e 0834     		adds	r4, r4, #8
 102              	.LVL6:
 141:..\FreeRTOS\Source\portable\MemMang/heap_2.c **** 			{
 103              		.loc 1 141 0
 104 0020 14F0070F 		tst	r4, #7
 105 0024 02D0     		beq	.L6
 144:..\FreeRTOS\Source\portable\MemMang/heap_2.c **** 			}
 106              		.loc 1 144 0
 107 0026 24F00704 		bic	r4, r4, #7
 108              	.LVL7:
 109 002a 0834     		adds	r4, r4, #8
 110              	.LVL8:
 111              	.L6:
 148:..\FreeRTOS\Source\portable\MemMang/heap_2.c **** 		{
 112              		.loc 1 148 0
 113 002c 621E     		subs	r2, r4, #1
 114 002e 48F6F673 		movw	r3, #36854
 115 0032 9A42     		cmp	r2, r3
 116 0034 2BD8     		bhi	.L13
 117              	.LVL9:
 153:..\FreeRTOS\Source\portable\MemMang/heap_2.c **** 			while( ( pxBlock->xBlockSize < xWantedSize ) && ( pxBlock->pxNextFreeBlock != NULL ) )
 118              		.loc 1 153 0
ARM GAS  C:\Users\samue\AppData\Local\Temp\cc2r8HUZ.s 			page 8


 119 0036 1B49     		ldr	r1, .L18
 120 0038 D1F84038 		ldr	r3, [r1, #2112]
 121              	.LVL10:
 152:..\FreeRTOS\Source\portable\MemMang/heap_2.c **** 			pxBlock = xStart.pxNextFreeBlock;
 122              		.loc 1 152 0
 123 003c 01F50461 		add	r1, r1, #2112
 154:..\FreeRTOS\Source\portable\MemMang/heap_2.c **** 			{
 124              		.loc 1 154 0
 125 0040 01E0     		b	.L9
 126              	.LVL11:
 127              	.L14:
 156:..\FreeRTOS\Source\portable\MemMang/heap_2.c **** 				pxBlock = pxBlock->pxNextFreeBlock;
 128              		.loc 1 156 0
 129 0042 1946     		mov	r1, r3
 130              	.LVL12:
 157:..\FreeRTOS\Source\portable\MemMang/heap_2.c **** 			}
 131              		.loc 1 157 0
 132 0044 1346     		mov	r3, r2
 133              	.LVL13:
 134              	.L9:
 154:..\FreeRTOS\Source\portable\MemMang/heap_2.c **** 			{
 135              		.loc 1 154 0
 136 0046 5A68     		ldr	r2, [r3, #4]
 137 0048 9442     		cmp	r4, r2
 138 004a 02D9     		bls	.L8
 154:..\FreeRTOS\Source\portable\MemMang/heap_2.c **** 			{
 139              		.loc 1 154 0 is_stmt 0 discriminator 1
 140 004c 1A68     		ldr	r2, [r3]
 141 004e 002A     		cmp	r2, #0
 142 0050 F7D1     		bne	.L14
 143              	.L8:
 161:..\FreeRTOS\Source\portable\MemMang/heap_2.c **** 			{
 144              		.loc 1 161 0 is_stmt 1
 145 0052 154A     		ldr	r2, .L18+4
 146 0054 9342     		cmp	r3, r2
 147 0056 1CD0     		beq	.L15
 165:..\FreeRTOS\Source\portable\MemMang/heap_2.c **** 
 148              		.loc 1 165 0
 149 0058 0D68     		ldr	r5, [r1]
 150 005a 0835     		adds	r5, r5, #8
 151              	.LVL14:
 169:..\FreeRTOS\Source\portable\MemMang/heap_2.c **** 
 152              		.loc 1 169 0
 153 005c 1A68     		ldr	r2, [r3]
 154 005e 0A60     		str	r2, [r1]
 172:..\FreeRTOS\Source\portable\MemMang/heap_2.c **** 				{
 155              		.loc 1 172 0
 156 0060 5A68     		ldr	r2, [r3, #4]
 157 0062 121B     		subs	r2, r2, r4
 158 0064 102A     		cmp	r2, #16
 159 0066 0CD9     		bls	.L10
 177:..\FreeRTOS\Source\portable\MemMang/heap_2.c **** 
 160              		.loc 1 177 0
 161 0068 1E19     		adds	r6, r3, r4
 162              	.LVL15:
 181:..\FreeRTOS\Source\portable\MemMang/heap_2.c **** 					pxBlock->xBlockSize = xWantedSize;
 163              		.loc 1 181 0
ARM GAS  C:\Users\samue\AppData\Local\Temp\cc2r8HUZ.s 			page 9


 164 006a 7260     		str	r2, [r6, #4]
 182:..\FreeRTOS\Source\portable\MemMang/heap_2.c **** 
 165              		.loc 1 182 0
 166 006c 5C60     		str	r4, [r3, #4]
 167              	.LBB2:
 185:..\FreeRTOS\Source\portable\MemMang/heap_2.c **** 				}
 168              		.loc 1 185 0
 169 006e 7468     		ldr	r4, [r6, #4]
 170              	.LVL16:
 171 0070 0E49     		ldr	r1, .L18+8
 172              	.LVL17:
 173 0072 00E0     		b	.L11
 174              	.LVL18:
 175              	.L16:
 176 0074 1146     		mov	r1, r2
 177              	.LVL19:
 178              	.L11:
 185:..\FreeRTOS\Source\portable\MemMang/heap_2.c **** 				}
 179              		.loc 1 185 0 is_stmt 0 discriminator 1
 180 0076 0A68     		ldr	r2, [r1]
 181 0078 5068     		ldr	r0, [r2, #4]
 182 007a 8442     		cmp	r4, r0
 183 007c FAD8     		bhi	.L16
 185:..\FreeRTOS\Source\portable\MemMang/heap_2.c **** 				}
 184              		.loc 1 185 0 discriminator 4
 185 007e 3260     		str	r2, [r6]
 186              	.LVL20:
 187 0080 0E60     		str	r6, [r1]
 188              	.LVL21:
 189              	.L10:
 190              	.LBE2:
 188:..\FreeRTOS\Source\portable\MemMang/heap_2.c **** 			}
 191              		.loc 1 188 0 is_stmt 1
 192 0082 5968     		ldr	r1, [r3, #4]
 193 0084 0A4A     		ldr	r2, .L18+12
 194 0086 1368     		ldr	r3, [r2]
 195              	.LVL22:
 196 0088 5B1A     		subs	r3, r3, r1
 197 008a 1360     		str	r3, [r2]
 198 008c 02E0     		b	.L7
 199              	.LVL23:
 200              	.L13:
 122:..\FreeRTOS\Source\portable\MemMang/heap_2.c **** 
 201              		.loc 1 122 0
 202 008e 0025     		movs	r5, #0
 203 0090 00E0     		b	.L7
 204              	.LVL24:
 205              	.L15:
 206 0092 0025     		movs	r5, #0
 207              	.LVL25:
 208              	.L7:
 194:..\FreeRTOS\Source\portable\MemMang/heap_2.c **** 
 209              		.loc 1 194 0
 210 0094 FFF7FEFF 		bl	xTaskResumeAll
 211              	.LVL26:
 198:..\FreeRTOS\Source\portable\MemMang/heap_2.c **** 		{
 212              		.loc 1 198 0
ARM GAS  C:\Users\samue\AppData\Local\Temp\cc2r8HUZ.s 			page 10


 213 0098 0DB9     		cbnz	r5, .L12
 214              	.LBB3:
 201:..\FreeRTOS\Source\portable\MemMang/heap_2.c **** 		}
 215              		.loc 1 201 0
 216 009a FFF7FEFF 		bl	vApplicationMallocFailedHook
 217              	.LVL27:
 218              	.L12:
 219              	.LBE3:
 207:..\FreeRTOS\Source\portable\MemMang/heap_2.c **** /*-----------------------------------------------------------*/
 220              		.loc 1 207 0
 221 009e 2846     		mov	r0, r5
 222 00a0 70BD     		pop	{r4, r5, r6, pc}
 223              	.LVL28:
 224              	.L19:
 225 00a2 00BF     		.align	2
 226              	.L18:
 227 00a4 C0870000 		.word	.LANCHOR1
 228 00a8 08900000 		.word	.LANCHOR1+2120
 229 00ac 00900000 		.word	.LANCHOR1+2112
 230 00b0 00000000 		.word	.LANCHOR2
 231              		.cfi_endproc
 232              	.LFE68:
 233              		.size	pvPortMalloc, .-pvPortMalloc
 234              		.section	.text.vPortFree,"ax",%progbits
 235              		.align	2
 236              		.global	vPortFree
 237              		.thumb
 238              		.thumb_func
 239              		.type	vPortFree, %function
 240              	vPortFree:
 241              	.LFB69:
 211:..\FreeRTOS\Source\portable\MemMang/heap_2.c **** uint8_t *puc = ( uint8_t * ) pv;
 242              		.loc 1 211 0
 243              		.cfi_startproc
 244              		@ args = 0, pretend = 0, frame = 0
 245              		@ frame_needed = 0, uses_anonymous_args = 0
 246              	.LVL29:
 215:..\FreeRTOS\Source\portable\MemMang/heap_2.c **** 	{
 247              		.loc 1 215 0
 248 0000 D0B1     		cbz	r0, .L25
 211:..\FreeRTOS\Source\portable\MemMang/heap_2.c **** uint8_t *puc = ( uint8_t * ) pv;
 249              		.loc 1 211 0
 250 0002 70B5     		push	{r4, r5, r6, lr}
 251              		.cfi_def_cfa_offset 16
 252              		.cfi_offset 4, -16
 253              		.cfi_offset 5, -12
 254              		.cfi_offset 6, -8
 255              		.cfi_offset 14, -4
 256 0004 0546     		mov	r5, r0
 219:..\FreeRTOS\Source\portable\MemMang/heap_2.c **** 
 257              		.loc 1 219 0
 258 0006 A0F10806 		sub	r6, r0, #8
 259              	.LVL30:
 225:..\FreeRTOS\Source\portable\MemMang/heap_2.c **** 		{
 260              		.loc 1 225 0
 261 000a FFF7FEFF 		bl	vTaskSuspendAll
 262              	.LVL31:
ARM GAS  C:\Users\samue\AppData\Local\Temp\cc2r8HUZ.s 			page 11


 263              	.LBB4:
 228:..\FreeRTOS\Source\portable\MemMang/heap_2.c **** 			xFreeBytesRemaining += pxLink->xBlockSize;
 264              		.loc 1 228 0
 265 000e 55F8044C 		ldr	r4, [r5, #-4]
 266              	.LVL32:
 267 0012 0A4A     		ldr	r2, .L26
 268 0014 00E0     		b	.L22
 269              	.LVL33:
 270              	.L23:
 271 0016 1A46     		mov	r2, r3
 272              	.LVL34:
 273              	.L22:
 228:..\FreeRTOS\Source\portable\MemMang/heap_2.c **** 			xFreeBytesRemaining += pxLink->xBlockSize;
 274              		.loc 1 228 0 is_stmt 0 discriminator 1
 275 0018 1368     		ldr	r3, [r2]
 276 001a 5968     		ldr	r1, [r3, #4]
 277 001c 8C42     		cmp	r4, r1
 278 001e FAD8     		bhi	.L23
 228:..\FreeRTOS\Source\portable\MemMang/heap_2.c **** 			xFreeBytesRemaining += pxLink->xBlockSize;
 279              		.loc 1 228 0 discriminator 4
 280 0020 45F8083C 		str	r3, [r5, #-8]
 281 0024 1660     		str	r6, [r2]
 282              	.LBE4:
 229:..\FreeRTOS\Source\portable\MemMang/heap_2.c **** 			traceFREE( pv, pxLink->xBlockSize );
 283              		.loc 1 229 0 is_stmt 1 discriminator 4
 284 0026 55F8043C 		ldr	r3, [r5, #-4]
 285 002a 054A     		ldr	r2, .L26+4
 286              	.LVL35:
 287 002c 1168     		ldr	r1, [r2]
 288 002e 0B44     		add	r3, r3, r1
 289 0030 1360     		str	r3, [r2]
 232:..\FreeRTOS\Source\portable\MemMang/heap_2.c **** 	}
 290              		.loc 1 232 0 discriminator 4
 291 0032 FFF7FEFF 		bl	xTaskResumeAll
 292              	.LVL36:
 293 0036 70BD     		pop	{r4, r5, r6, pc}
 294              	.LVL37:
 295              	.L25:
 296              		.cfi_def_cfa_offset 0
 297              		.cfi_restore 4
 298              		.cfi_restore 5
 299              		.cfi_restore 6
 300              		.cfi_restore 14
 301 0038 7047     		bx	lr
 302              	.L27:
 303 003a 00BF     		.align	2
 304              	.L26:
 305 003c 00900000 		.word	.LANCHOR1+2112
 306 0040 00000000 		.word	.LANCHOR2
 307              		.cfi_endproc
 308              	.LFE69:
 309              		.size	vPortFree, .-vPortFree
 310              		.section	.text.xPortGetFreeHeapSize,"ax",%progbits
 311              		.align	2
 312              		.global	xPortGetFreeHeapSize
 313              		.thumb
 314              		.thumb_func
ARM GAS  C:\Users\samue\AppData\Local\Temp\cc2r8HUZ.s 			page 12


 315              		.type	xPortGetFreeHeapSize, %function
 316              	xPortGetFreeHeapSize:
 317              	.LFB70:
 238:..\FreeRTOS\Source\portable\MemMang/heap_2.c **** 	return xFreeBytesRemaining;
 318              		.loc 1 238 0
 319              		.cfi_startproc
 320              		@ args = 0, pretend = 0, frame = 0
 321              		@ frame_needed = 0, uses_anonymous_args = 0
 322              		@ link register save eliminated.
 240:..\FreeRTOS\Source\portable\MemMang/heap_2.c **** /*-----------------------------------------------------------*/
 323              		.loc 1 240 0
 324 0000 014B     		ldr	r3, .L29
 325 0002 1868     		ldr	r0, [r3]
 326 0004 7047     		bx	lr
 327              	.L30:
 328 0006 00BF     		.align	2
 329              	.L29:
 330 0008 00000000 		.word	.LANCHOR2
 331              		.cfi_endproc
 332              	.LFE70:
 333              		.size	xPortGetFreeHeapSize, .-xPortGetFreeHeapSize
 334              		.section	.text.vPortInitialiseBlocks,"ax",%progbits
 335              		.align	2
 336              		.global	vPortInitialiseBlocks
 337              		.thumb
 338              		.thumb_func
 339              		.type	vPortInitialiseBlocks, %function
 340              	vPortInitialiseBlocks:
 341              	.LFB71:
 244:..\FreeRTOS\Source\portable\MemMang/heap_2.c **** 	/* This just exists to keep the linker quiet. */
 342              		.loc 1 244 0
 343              		.cfi_startproc
 344              		@ args = 0, pretend = 0, frame = 0
 345              		@ frame_needed = 0, uses_anonymous_args = 0
 346              		@ link register save eliminated.
 347 0000 7047     		bx	lr
 348              		.cfi_endproc
 349              	.LFE71:
 350              		.size	vPortInitialiseBlocks, .-vPortInitialiseBlocks
 351 0002 00BF     		.data
 352              		.align	2
 353              		.set	.LANCHOR2,. + 0
 354              		.type	xFreeBytesRemaining, %object
 355              		.size	xFreeBytesRemaining, 4
 356              	xFreeBytesRemaining:
 357 0000 F88F0000 		.word	36856
 358              		.bss
 359              		.align	2
 360              		.set	.LANCHOR0,. + 0
 361              		.set	.LANCHOR1,. + 34752
 362              		.type	ucHeap, %object
 363              		.size	ucHeap, 36864
 364              	ucHeap:
 365 0000 00000000 		.space	36864
 365      00000000 
 365      00000000 
 365      00000000 
ARM GAS  C:\Users\samue\AppData\Local\Temp\cc2r8HUZ.s 			page 13


 365      00000000 
 366              		.type	xStart, %object
 367              		.size	xStart, 8
 368              	xStart:
 369 9000 00000000 		.space	8
 369      00000000 
 370              		.type	xEnd, %object
 371              		.size	xEnd, 8
 372              	xEnd:
 373 9008 00000000 		.space	8
 373      00000000 
 374              		.type	xHeapHasBeenInitialised.7923, %object
 375              		.size	xHeapHasBeenInitialised.7923, 4
 376              	xHeapHasBeenInitialised.7923:
 377 9010 00000000 		.space	4
 378              		.text
 379              	.Letext0:
 380              		.file 2 "c:\\program files (x86)\\cypress\\psoc creator\\4.2\\psoc creator\\import\\gnu\\arm\\5.4.
 381              		.file 3 "c:\\program files (x86)\\cypress\\psoc creator\\4.2\\psoc creator\\import\\gnu\\arm\\5.4.
 382              		.file 4 "c:\\program files (x86)\\cypress\\psoc creator\\4.2\\psoc creator\\import\\gnu\\arm\\5.4.
 383              		.file 5 "..\\FreeRTOS\\Source\\portable\\GCC\\ARM_CM3/portmacro.h"
 384              		.file 6 "..\\FreeRTOS\\Source\\include/task.h"
 385              		.file 7 "Generated_Source\\PSoC5/core_cm3.h"