ARM GAS  C:\Users\samue\AppData\Local\Temp\ccO0StkV.s 			page 1


   1              		.syntax unified
   2              		.cpu cortex-m3
   3              		.fpu softvfp
   4              		.eabi_attribute 20, 1
   5              		.eabi_attribute 21, 1
   6              		.eabi_attribute 23, 3
   7              		.eabi_attribute 24, 1
   8              		.eabi_attribute 25, 1
   9              		.eabi_attribute 26, 1
  10              		.eabi_attribute 30, 1
  11              		.eabi_attribute 34, 1
  12              		.eabi_attribute 18, 4
  13              		.thumb
  14              		.syntax unified
  15              		.file	"I2C_Common.c"
  16              		.text
  17              	.Ltext0:
  18              		.cfi_sections	.debug_frame
  19              		.section	.text.I2C_Write,"ax",%progbits
  20              		.align	2
  21              		.global	I2C_Write
  22              		.thumb
  23              		.thumb_func
  24              		.type	I2C_Write, %function
  25              	I2C_Write:
  26              	.LFB0:
  27              		.file 1 "ZumoLibrary\\I2C_Common.c"
   1:ZumoLibrary/I2C_Common.c **** /**
   2:ZumoLibrary/I2C_Common.c ****  * @file    I2C_made.c
   3:ZumoLibrary/I2C_Common.c ****  * @brief   Basic methods for I2C communication. For more details, please refer to I2C_made.h file.
   4:ZumoLibrary/I2C_Common.c ****  * @details 
   5:ZumoLibrary/I2C_Common.c **** */
   6:ZumoLibrary/I2C_Common.c **** #include "I2C_Common.h"
   7:ZumoLibrary/I2C_Common.c **** #include "I2C.h"
   8:ZumoLibrary/I2C_Common.c **** 
   9:ZumoLibrary/I2C_Common.c **** /**
  10:ZumoLibrary/I2C_Common.c **** * @brief    Function for generic I2C byte write
  11:ZumoLibrary/I2C_Common.c **** * @details  Single byte write 
  12:ZumoLibrary/I2C_Common.c **** * @param    uint8 device : Slave Device address
  13:ZumoLibrary/I2C_Common.c **** * @param    uint8 regAdd : register address to be written to
  14:ZumoLibrary/I2C_Common.c **** * @param    uint8 data : value to be written
  15:ZumoLibrary/I2C_Common.c **** */
  16:ZumoLibrary/I2C_Common.c **** uint8_t I2C_Write(uint8_t device, uint8_t regAdd, uint8_t data){
  28              		.loc 1 16 0
  29              		.cfi_startproc
  30              		@ args = 0, pretend = 0, frame = 8
  31              		@ frame_needed = 0, uses_anonymous_args = 0
  32              	.LVL0:
  33 0000 10B5     		push	{r4, lr}
  34              		.cfi_def_cfa_offset 8
  35              		.cfi_offset 4, -8
  36              		.cfi_offset 14, -4
  37 0002 82B0     		sub	sp, sp, #8
  38              		.cfi_def_cfa_offset 16
  39 0004 0446     		mov	r4, r0
  17:ZumoLibrary/I2C_Common.c **** 
  18:ZumoLibrary/I2C_Common.c ****     uint8 write_buf[2] = {regAdd, data};
ARM GAS  C:\Users\samue\AppData\Local\Temp\ccO0StkV.s 			page 2


  40              		.loc 1 18 0
  41 0006 8DF80410 		strb	r1, [sp, #4]
  42 000a 8DF80520 		strb	r2, [sp, #5]
  19:ZumoLibrary/I2C_Common.c ****  
  20:ZumoLibrary/I2C_Common.c ****     I2C_MasterClearStatus(); // clear any pending status flags
  43              		.loc 1 20 0
  44 000e FFF7FEFF 		bl	I2C_MasterClearStatus
  45              	.LVL1:
  21:ZumoLibrary/I2C_Common.c ****     I2C_MasterWriteBuf(device, write_buf, 2, I2C_MODE_COMPLETE_XFER); // one complete byte transfer
  46              		.loc 1 21 0
  47 0012 0023     		movs	r3, #0
  48 0014 0222     		movs	r2, #2
  49 0016 01A9     		add	r1, sp, #4
  50 0018 2046     		mov	r0, r4
  51 001a FFF7FEFF 		bl	I2C_MasterWriteBuf
  52              	.LVL2:
  53              	.L2:
  22:ZumoLibrary/I2C_Common.c ****     while(((I2C_MasterStatus()) & I2C_MSTAT_WR_CMPLT) == 0); //Check status and make sure it has co
  54              		.loc 1 22 0 discriminator 1
  55 001e FFF7FEFF 		bl	I2C_MasterStatus
  56              	.LVL3:
  57 0022 10F0020F 		tst	r0, #2
  58 0026 FAD0     		beq	.L2
  23:ZumoLibrary/I2C_Common.c ****     return 0;
  24:ZumoLibrary/I2C_Common.c **** }
  59              		.loc 1 24 0
  60 0028 0020     		movs	r0, #0
  61 002a 02B0     		add	sp, sp, #8
  62              		.cfi_def_cfa_offset 8
  63              		@ sp needed
  64 002c 10BD     		pop	{r4, pc}
  65              		.cfi_endproc
  66              	.LFE0:
  67              		.size	I2C_Write, .-I2C_Write
  68 002e 00BF     		.section	.text.I2C_Read_Multiple,"ax",%progbits
  69              		.align	2
  70              		.global	I2C_Read_Multiple
  71              		.thumb
  72              		.thumb_func
  73              		.type	I2C_Read_Multiple, %function
  74              	I2C_Read_Multiple:
  75              	.LFB2:
  25:ZumoLibrary/I2C_Common.c **** 
  26:ZumoLibrary/I2C_Common.c **** /**
  27:ZumoLibrary/I2C_Common.c **** * @brief    Function for generic I2C single byte read
  28:ZumoLibrary/I2C_Common.c **** * @details  Single byte read 
  29:ZumoLibrary/I2C_Common.c **** * @param    uint8 device : Slave Device address
  30:ZumoLibrary/I2C_Common.c **** * @param    uint8 regAdd : register address to be read from
  31:ZumoLibrary/I2C_Common.c **** */
  32:ZumoLibrary/I2C_Common.c **** 
  33:ZumoLibrary/I2C_Common.c **** uint8_t I2C_Read(uint8_t device, uint8_t regAdd){
  34:ZumoLibrary/I2C_Common.c ****     
  35:ZumoLibrary/I2C_Common.c ****     uint8_t data; // Variable for data to be read
  36:ZumoLibrary/I2C_Common.c ****     
  37:ZumoLibrary/I2C_Common.c ****     I2C_Read_Multiple(device, regAdd, &data, 1);
  38:ZumoLibrary/I2C_Common.c ****     
  39:ZumoLibrary/I2C_Common.c ****     return data;
ARM GAS  C:\Users\samue\AppData\Local\Temp\ccO0StkV.s 			page 3


  40:ZumoLibrary/I2C_Common.c **** }
  41:ZumoLibrary/I2C_Common.c **** 
  42:ZumoLibrary/I2C_Common.c **** /**
  43:ZumoLibrary/I2C_Common.c **** * @brief    Function for generic I2C multi byte read
  44:ZumoLibrary/I2C_Common.c **** * @details  Multiple byte read 
  45:ZumoLibrary/I2C_Common.c **** * @param    uint8 device : Slave Device address
  46:ZumoLibrary/I2C_Common.c **** * @param    uint8 startAdd : The address of the first register to be read. Subsequent reads will au
  47:ZumoLibrary/I2C_Common.c **** * @param    uint8 data : Pointer for value/values to be read
  48:ZumoLibrary/I2C_Common.c **** * @param    uint8 num_bytes_to_be_read : number of bytes to be read 
  49:ZumoLibrary/I2C_Common.c **** */
  50:ZumoLibrary/I2C_Common.c **** 
  51:ZumoLibrary/I2C_Common.c **** void I2C_Read_Multiple(uint8_t device, uint8_t startAdd, uint8_t* data, uint8_t num_bytes_to_be_rea
  76              		.loc 1 51 0
  77              		.cfi_startproc
  78              		@ args = 0, pretend = 0, frame = 8
  79              		@ frame_needed = 0, uses_anonymous_args = 0
  80              	.LVL4:
  81 0000 F0B5     		push	{r4, r5, r6, r7, lr}
  82              		.cfi_def_cfa_offset 20
  83              		.cfi_offset 4, -20
  84              		.cfi_offset 5, -16
  85              		.cfi_offset 6, -12
  86              		.cfi_offset 7, -8
  87              		.cfi_offset 14, -4
  88 0002 83B0     		sub	sp, sp, #12
  89              		.cfi_def_cfa_offset 32
  90 0004 0546     		mov	r5, r0
  91 0006 1646     		mov	r6, r2
  92 0008 1F46     		mov	r7, r3
  93 000a 02AC     		add	r4, sp, #8
  94 000c 04F8011D 		strb	r1, [r4, #-1]!
  52:ZumoLibrary/I2C_Common.c ****     
  53:ZumoLibrary/I2C_Common.c ****     I2C_MasterClearStatus(); // clear any pending status flags
  95              		.loc 1 53 0
  96 0010 FFF7FEFF 		bl	I2C_MasterClearStatus
  97              	.LVL5:
  54:ZumoLibrary/I2C_Common.c ****     I2C_MasterWriteBuf(device, &startAdd, 1, I2C_MODE_COMPLETE_XFER); // one complete byte transfer
  98              		.loc 1 54 0
  99 0014 0023     		movs	r3, #0
 100 0016 0122     		movs	r2, #1
 101 0018 2146     		mov	r1, r4
 102 001a 2846     		mov	r0, r5
 103 001c FFF7FEFF 		bl	I2C_MasterWriteBuf
 104              	.LVL6:
 105              	.L5:
  55:ZumoLibrary/I2C_Common.c ****     while((I2C_MasterStatus() & I2C_MSTAT_WR_CMPLT) == 0); //Check status and make sure it has comp
 106              		.loc 1 55 0 discriminator 1
 107 0020 FFF7FEFF 		bl	I2C_MasterStatus
 108              	.LVL7:
 109 0024 10F0020F 		tst	r0, #2
 110 0028 FAD0     		beq	.L5
  56:ZumoLibrary/I2C_Common.c ****     I2C_MasterClearStatus(); // clear any pending status flags
 111              		.loc 1 56 0
 112 002a FFF7FEFF 		bl	I2C_MasterClearStatus
 113              	.LVL8:
  57:ZumoLibrary/I2C_Common.c ****     I2C_MasterReadBuf(device, data, num_bytes_to_be_read, I2C_MODE_COMPLETE_XFER);//  complete byte
 114              		.loc 1 57 0
ARM GAS  C:\Users\samue\AppData\Local\Temp\ccO0StkV.s 			page 4


 115 002e 0023     		movs	r3, #0
 116 0030 3A46     		mov	r2, r7
 117 0032 3146     		mov	r1, r6
 118 0034 2846     		mov	r0, r5
 119 0036 FFF7FEFF 		bl	I2C_MasterReadBuf
 120              	.LVL9:
 121              	.L6:
  58:ZumoLibrary/I2C_Common.c ****     while((I2C_MasterStatus() & I2C_MSTAT_RD_CMPLT) == 0); //Check status and make sure it has comp
 122              		.loc 1 58 0 discriminator 1
 123 003a FFF7FEFF 		bl	I2C_MasterStatus
 124              	.LVL10:
 125 003e 10F0010F 		tst	r0, #1
 126 0042 FAD0     		beq	.L6
  59:ZumoLibrary/I2C_Common.c **** 
  60:ZumoLibrary/I2C_Common.c **** }
 127              		.loc 1 60 0
 128 0044 03B0     		add	sp, sp, #12
 129              		.cfi_def_cfa_offset 20
 130              		@ sp needed
 131 0046 F0BD     		pop	{r4, r5, r6, r7, pc}
 132              		.cfi_endproc
 133              	.LFE2:
 134              		.size	I2C_Read_Multiple, .-I2C_Read_Multiple
 135              		.section	.text.I2C_Read,"ax",%progbits
 136              		.align	2
 137              		.global	I2C_Read
 138              		.thumb
 139              		.thumb_func
 140              		.type	I2C_Read, %function
 141              	I2C_Read:
 142              	.LFB1:
  33:ZumoLibrary/I2C_Common.c ****     
 143              		.loc 1 33 0
 144              		.cfi_startproc
 145              		@ args = 0, pretend = 0, frame = 8
 146              		@ frame_needed = 0, uses_anonymous_args = 0
 147              	.LVL11:
 148 0000 00B5     		push	{lr}
 149              		.cfi_def_cfa_offset 4
 150              		.cfi_offset 14, -4
 151 0002 83B0     		sub	sp, sp, #12
 152              		.cfi_def_cfa_offset 16
  37:ZumoLibrary/I2C_Common.c ****     
 153              		.loc 1 37 0
 154 0004 0123     		movs	r3, #1
 155 0006 0DF10702 		add	r2, sp, #7
 156 000a FFF7FEFF 		bl	I2C_Read_Multiple
 157              	.LVL12:
  40:ZumoLibrary/I2C_Common.c **** 
 158              		.loc 1 40 0
 159 000e 9DF80700 		ldrb	r0, [sp, #7]	@ zero_extendqisi2
 160 0012 03B0     		add	sp, sp, #12
 161              		.cfi_def_cfa_offset 4
 162              		@ sp needed
 163 0014 5DF804FB 		ldr	pc, [sp], #4
 164              		.cfi_endproc
 165              	.LFE1:
ARM GAS  C:\Users\samue\AppData\Local\Temp\ccO0StkV.s 			page 5


 166              		.size	I2C_Read, .-I2C_Read
 167              		.text
 168              	.Letext0:
 169              		.file 2 "c:\\program files (x86)\\cypress\\psoc creator\\4.2\\psoc creator\\import\\gnu\\arm\\5.4.
 170              		.file 3 "c:\\program files (x86)\\cypress\\psoc creator\\4.2\\psoc creator\\import\\gnu\\arm\\5.4.
 171              		.file 4 "Generated_Source\\PSoC5/cytypes.h"
 172              		.file 5 "Generated_Source\\PSoC5/I2C.h"