ARM GAS  C:\Users\samue\AppData\Local\Temp\cctSwjJH.s 			page 1


   1              		.syntax unified
   2              		.cpu cortex-m3
   3              		.fpu softvfp
   4              		.eabi_attribute 20, 1
   5              		.eabi_attribute 21, 1
   6              		.eabi_attribute 23, 3
   7              		.eabi_attribute 24, 1
   8              		.eabi_attribute 25, 1
   9              		.eabi_attribute 26, 1
  10              		.eabi_attribute 30, 1
  11              		.eabi_attribute 34, 1
  12              		.eabi_attribute 18, 4
  13              		.thumb
  14              		.syntax unified
  15              		.file	"IR.c"
  16              		.text
  17              	.Ltext0:
  18              		.cfi_sections	.debug_frame
  19              		.section	.text.IR_capture_isr,"ax",%progbits
  20              		.align	2
  21              		.global	IR_capture_isr
  22              		.thumb
  23              		.thumb_func
  24              		.type	IR_capture_isr, %function
  25              	IR_capture_isr:
  26              	.LFB68:
  27              		.file 1 "ZumoLibrary\\IR.c"
   1:ZumoLibrary/IR.c **** /**
   2:ZumoLibrary/IR.c ****  * @file IR.c
   3:ZumoLibrary/IR.c ****  * @brief Basic methods for operating IR receiver. For more details, please refer to IR.h file. 
   4:ZumoLibrary/IR.c ****  * @details part number: TSOP-2236
   5:ZumoLibrary/IR.c **** */
   6:ZumoLibrary/IR.c **** #include "FreeRTOS.h"
   7:ZumoLibrary/IR.c **** #include "task.h"
   8:ZumoLibrary/IR.c **** #include "queue.h"
   9:ZumoLibrary/IR.c **** #include "project.h"
  10:ZumoLibrary/IR.c **** #include "IR.h"
  11:ZumoLibrary/IR.c **** 
  12:ZumoLibrary/IR.c **** #define IRB_SIZE 64
  13:ZumoLibrary/IR.c **** 
  14:ZumoLibrary/IR.c **** static QueueHandle_t ir_q;
  15:ZumoLibrary/IR.c **** 
  16:ZumoLibrary/IR.c **** CY_ISR(IR_capture_isr)
  17:ZumoLibrary/IR.c **** {
  28              		.loc 1 17 0
  29              		.cfi_startproc
  30              		@ args = 0, pretend = 0, frame = 8
  31              		@ frame_needed = 0, uses_anonymous_args = 0
  32 0000 00B5     		push	{lr}
  33              		.cfi_def_cfa_offset 4
  34              		.cfi_offset 14, -4
  35 0002 83B0     		sub	sp, sp, #12
  36              		.cfi_def_cfa_offset 16
  18:ZumoLibrary/IR.c ****     static uint32_t old;
  19:ZumoLibrary/IR.c ****     BaseType_t xHigherPriorityTaskWoken = pdFALSE;
  37              		.loc 1 19 0
  38 0004 0023     		movs	r3, #0
ARM GAS  C:\Users\samue\AppData\Local\Temp\cctSwjJH.s 			page 2


  39 0006 0193     		str	r3, [sp, #4]
  20:ZumoLibrary/IR.c ****     uint32_t status = Timer_IR_ReadStatusRegister();
  40              		.loc 1 20 0
  41 0008 FFF7FEFF 		bl	Timer_IR_ReadStatusRegister
  42              	.LVL0:
  21:ZumoLibrary/IR.c ****     if(status & Timer_IR_STATUS_CAPTURE) {
  43              		.loc 1 21 0
  44 000c 10F0020F 		tst	r0, #2
  45 0010 16D0     		beq	.L2
  46              	.LBB2:
  22:ZumoLibrary/IR.c ****         uint32_t capture = Timer_IR_ReadCapture();
  47              		.loc 1 22 0
  48 0012 FFF7FEFF 		bl	Timer_IR_ReadCapture
  49              	.LVL1:
  23:ZumoLibrary/IR.c ****         uint32_t value  = (old - capture) & 0xFFFFFFUL;
  50              		.loc 1 23 0
  51 0016 114A     		ldr	r2, .L6
  52 0018 1368     		ldr	r3, [r2]
  53 001a 1B1A     		subs	r3, r3, r0
  54 001c 23F07F43 		bic	r3, r3, #-16777216
  55 0020 0093     		str	r3, [sp]
  24:ZumoLibrary/IR.c ****         old = capture;
  56              		.loc 1 24 0
  57 0022 1060     		str	r0, [r2]
  25:ZumoLibrary/IR.c ****         //Pin_1_Write(IR_receiver_Read()); // for debugging with scope
  26:ZumoLibrary/IR.c ****         if(IR_receiver_Read()==0) { // signal was low --> we captured falling edge
  58              		.loc 1 26 0
  59 0024 FFF7FEFF 		bl	IR_receiver_Read
  60              	.LVL2:
  61 0028 18B9     		cbnz	r0, .L3
  27:ZumoLibrary/IR.c ****             value |= IR_SIGNAL_HIGH;
  62              		.loc 1 27 0
  63 002a 009B     		ldr	r3, [sp]
  64 002c 43F00043 		orr	r3, r3, #-2147483648
  65 0030 0093     		str	r3, [sp]
  66              	.L3:
  28:ZumoLibrary/IR.c ****         }
  29:ZumoLibrary/IR.c ****         xQueueSendToBackFromISR(ir_q, &value, &xHigherPriorityTaskWoken);
  67              		.loc 1 29 0
  68 0032 0023     		movs	r3, #0
  69 0034 01AA     		add	r2, sp, #4
  70 0036 6946     		mov	r1, sp
  71 0038 0848     		ldr	r0, .L6
  72 003a 4068     		ldr	r0, [r0, #4]
  73 003c FFF7FEFF 		bl	xQueueGenericSendFromISR
  74              	.LVL3:
  75              	.L2:
  76              	.LBE2:
  30:ZumoLibrary/IR.c ****     }
  31:ZumoLibrary/IR.c ****     portEND_SWITCHING_ISR(xHigherPriorityTaskWoken);
  77              		.loc 1 31 0
  78 0040 019B     		ldr	r3, [sp, #4]
  79 0042 3BB1     		cbz	r3, .L1
  80              		.loc 1 31 0 is_stmt 0 discriminator 1
  81 0044 4FF08052 		mov	r2, #268435456
  82 0048 054B     		ldr	r3, .L6+4
  83 004a 1A60     		str	r2, [r3]
ARM GAS  C:\Users\samue\AppData\Local\Temp\cctSwjJH.s 			page 3


  84              		.syntax unified
  85              	@ 31 "ZumoLibrary\IR.c" 1
  86 004c BFF34F8F 		dsb
  87              	@ 0 "" 2
  88              	@ 31 "ZumoLibrary\IR.c" 1
  89 0050 BFF36F8F 		isb
  90              	@ 0 "" 2
  91              		.thumb
  92              		.syntax unified
  93              	.L1:
  32:ZumoLibrary/IR.c **** }
  94              		.loc 1 32 0 is_stmt 1
  95 0054 03B0     		add	sp, sp, #12
  96              		.cfi_def_cfa_offset 4
  97              		@ sp needed
  98 0056 5DF804FB 		ldr	pc, [sp], #4
  99              	.L7:
 100 005a 00BF     		.align	2
 101              	.L6:
 102 005c 00000000 		.word	.LANCHOR0
 103 0060 04ED00E0 		.word	-536810236
 104              		.cfi_endproc
 105              	.LFE68:
 106              		.size	IR_capture_isr, .-IR_capture_isr
 107              		.section	.text.IR_get,"ax",%progbits
 108              		.align	2
 109              		.global	IR_get
 110              		.thumb
 111              		.thumb_func
 112              		.type	IR_get, %function
 113              	IR_get:
 114              	.LFB69:
  33:ZumoLibrary/IR.c **** 
  34:ZumoLibrary/IR.c **** bool IR_get(uint32_t *value, uint32_t wait) {
 115              		.loc 1 34 0
 116              		.cfi_startproc
 117              		@ args = 0, pretend = 0, frame = 0
 118              		@ frame_needed = 0, uses_anonymous_args = 0
 119              	.LVL4:
 120 0000 08B5     		push	{r3, lr}
 121              		.cfi_def_cfa_offset 8
 122              		.cfi_offset 3, -8
 123              		.cfi_offset 14, -4
  35:ZumoLibrary/IR.c ****     return xQueueReceive(ir_q, value, wait);
 124              		.loc 1 35 0
 125 0002 0A46     		mov	r2, r1
 126 0004 0146     		mov	r1, r0
 127              	.LVL5:
 128 0006 044B     		ldr	r3, .L10
 129 0008 5868     		ldr	r0, [r3, #4]
 130              	.LVL6:
 131 000a FFF7FEFF 		bl	xQueueReceive
 132              	.LVL7:
  36:ZumoLibrary/IR.c **** }
 133              		.loc 1 36 0
 134 000e 0030     		adds	r0, r0, #0
 135 0010 18BF     		it	ne
ARM GAS  C:\Users\samue\AppData\Local\Temp\cctSwjJH.s 			page 4


 136 0012 0120     		movne	r0, #1
 137 0014 08BD     		pop	{r3, pc}
 138              	.L11:
 139 0016 00BF     		.align	2
 140              	.L10:
 141 0018 00000000 		.word	.LANCHOR0
 142              		.cfi_endproc
 143              	.LFE69:
 144              		.size	IR_get, .-IR_get
 145              		.section	.text.IR_flush,"ax",%progbits
 146              		.align	2
 147              		.global	IR_flush
 148              		.thumb
 149              		.thumb_func
 150              		.type	IR_flush, %function
 151              	IR_flush:
 152              	.LFB70:
  37:ZumoLibrary/IR.c **** 
  38:ZumoLibrary/IR.c **** void IR_flush(void)
  39:ZumoLibrary/IR.c **** {
 153              		.loc 1 39 0
 154              		.cfi_startproc
 155              		@ args = 0, pretend = 0, frame = 8
 156              		@ frame_needed = 0, uses_anonymous_args = 0
 157 0000 00B5     		push	{lr}
 158              		.cfi_def_cfa_offset 4
 159              		.cfi_offset 14, -4
 160 0002 83B0     		sub	sp, sp, #12
 161              		.cfi_def_cfa_offset 16
 162              	.L13:
  40:ZumoLibrary/IR.c ****     uint32_t tmp;
  41:ZumoLibrary/IR.c ****     while(IR_get(&tmp, 0)); // flush IR rcv buffer
 163              		.loc 1 41 0 discriminator 1
 164 0004 0021     		movs	r1, #0
 165 0006 01A8     		add	r0, sp, #4
 166 0008 FFF7FEFF 		bl	IR_get
 167              	.LVL8:
 168 000c 0028     		cmp	r0, #0
 169 000e F9D1     		bne	.L13
  42:ZumoLibrary/IR.c **** }
 170              		.loc 1 42 0
 171 0010 03B0     		add	sp, sp, #12
 172              		.cfi_def_cfa_offset 4
 173              		@ sp needed
 174 0012 5DF804FB 		ldr	pc, [sp], #4
 175              		.cfi_endproc
 176              	.LFE70:
 177              		.size	IR_flush, .-IR_flush
 178 0016 00BF     		.section	.text.IR_wait,"ax",%progbits
 179              		.align	2
 180              		.global	IR_wait
 181              		.thumb
 182              		.thumb_func
 183              		.type	IR_wait, %function
 184              	IR_wait:
 185              	.LFB71:
  43:ZumoLibrary/IR.c **** 
ARM GAS  C:\Users\samue\AppData\Local\Temp\cctSwjJH.s 			page 5


  44:ZumoLibrary/IR.c **** 
  45:ZumoLibrary/IR.c **** void IR_wait(void)
  46:ZumoLibrary/IR.c **** {
 186              		.loc 1 46 0
 187              		.cfi_startproc
 188              		@ args = 0, pretend = 0, frame = 8
 189              		@ frame_needed = 0, uses_anonymous_args = 0
 190 0000 10B5     		push	{r4, lr}
 191              		.cfi_def_cfa_offset 8
 192              		.cfi_offset 4, -8
 193              		.cfi_offset 14, -4
 194 0002 82B0     		sub	sp, sp, #8
 195              		.cfi_def_cfa_offset 16
 196              	.LVL9:
  47:ZumoLibrary/IR.c ****     int count = 0;
  48:ZumoLibrary/IR.c ****     IR_flush();
 197              		.loc 1 48 0
 198 0004 FFF7FEFF 		bl	IR_flush
 199              	.LVL10:
  47:ZumoLibrary/IR.c ****     int count = 0;
 200              		.loc 1 47 0
 201 0008 0024     		movs	r4, #0
 202              	.LVL11:
 203              	.L18:
 204              	.LBB3:
  49:ZumoLibrary/IR.c **** 
  50:ZumoLibrary/IR.c ****     while(true) {
  51:ZumoLibrary/IR.c ****         uint32_t tmp;
  52:ZumoLibrary/IR.c ****         if(IR_get(&tmp, configTICK_RATE_HZ / 5)) {
 205              		.loc 1 52 0
 206 000a C821     		movs	r1, #200
 207 000c 01A8     		add	r0, sp, #4
 208 000e FFF7FEFF 		bl	IR_get
 209              	.LVL12:
 210 0012 70B1     		cbz	r0, .L19
  53:ZumoLibrary/IR.c ****             if(!(tmp & IR_SIGNAL_HIGH)) {
 211              		.loc 1 53 0
 212 0014 019B     		ldr	r3, [sp, #4]
 213 0016 002B     		cmp	r3, #0
 214 0018 F7DB     		blt	.L18
  54:ZumoLibrary/IR.c ****                 tmp &= IR_SIGNAL_MASK;
 215              		.loc 1 54 0
 216 001a 23F00043 		bic	r3, r3, #-2147483648
 217 001e 0193     		str	r3, [sp, #4]
  55:ZumoLibrary/IR.c ****                 if(tmp > IR_LOWER_LIMIT) {
 218              		.loc 1 55 0
 219 0020 B3F5FA7F 		cmp	r3, #500
 220 0024 07D9     		bls	.L20
  56:ZumoLibrary/IR.c ****                     count += tmp;
 221              		.loc 1 56 0
 222 0026 1C44     		add	r4, r4, r3
 223              	.LVL13:
  57:ZumoLibrary/IR.c ****                     if(count>20000) break;
 224              		.loc 1 57 0
 225 0028 44F62063 		movw	r3, #20000
 226 002c 9C42     		cmp	r4, r3
 227 002e ECDD     		ble	.L18
ARM GAS  C:\Users\samue\AppData\Local\Temp\cctSwjJH.s 			page 6


 228 0030 03E0     		b	.L15
 229              	.L19:
  58:ZumoLibrary/IR.c ****                 }
  59:ZumoLibrary/IR.c ****                 else {
  60:ZumoLibrary/IR.c ****                     count = 0;
  61:ZumoLibrary/IR.c ****                 }
  62:ZumoLibrary/IR.c ****             }
  63:ZumoLibrary/IR.c ****         }
  64:ZumoLibrary/IR.c ****         else {
  65:ZumoLibrary/IR.c ****             count = 0;
 230              		.loc 1 65 0
 231 0032 0024     		movs	r4, #0
 232              	.LVL14:
 233 0034 E9E7     		b	.L18
 234              	.LVL15:
 235              	.L20:
  60:ZumoLibrary/IR.c ****                 }
 236              		.loc 1 60 0
 237 0036 0024     		movs	r4, #0
 238              	.LVL16:
 239              	.LBE3:
  66:ZumoLibrary/IR.c ****         }
  67:ZumoLibrary/IR.c ****     }
 240              		.loc 1 67 0
 241 0038 E7E7     		b	.L18
 242              	.L15:
  68:ZumoLibrary/IR.c **** }    
 243              		.loc 1 68 0
 244 003a 02B0     		add	sp, sp, #8
 245              		.cfi_def_cfa_offset 8
 246              		@ sp needed
 247 003c 10BD     		pop	{r4, pc}
 248              		.cfi_endproc
 249              	.LFE71:
 250              		.size	IR_wait, .-IR_wait
 251 003e 00BF     		.section	.text.IR_Start,"ax",%progbits
 252              		.align	2
 253              		.global	IR_Start
 254              		.thumb
 255              		.thumb_func
 256              		.type	IR_Start, %function
 257              	IR_Start:
 258              	.LFB72:
  69:ZumoLibrary/IR.c **** 
  70:ZumoLibrary/IR.c **** /**
  71:ZumoLibrary/IR.c **** * @brief    Starting Ultra Sonic Sensor
  72:ZumoLibrary/IR.c **** * @details  
  73:ZumoLibrary/IR.c **** */
  74:ZumoLibrary/IR.c **** void IR_Start(void)
  75:ZumoLibrary/IR.c **** {
 259              		.loc 1 75 0
 260              		.cfi_startproc
 261              		@ args = 0, pretend = 0, frame = 0
 262              		@ frame_needed = 0, uses_anonymous_args = 0
  76:ZumoLibrary/IR.c ****     static bool init = false;
  77:ZumoLibrary/IR.c ****     
  78:ZumoLibrary/IR.c ****     if(!init) {
ARM GAS  C:\Users\samue\AppData\Local\Temp\cctSwjJH.s 			page 7


 263              		.loc 1 78 0
 264 0000 094B     		ldr	r3, .L26
 265 0002 1B7A     		ldrb	r3, [r3, #8]	@ zero_extendqisi2
 266 0004 7BB9     		cbnz	r3, .L25
  75:ZumoLibrary/IR.c ****     static bool init = false;
 267              		.loc 1 75 0
 268 0006 10B5     		push	{r4, lr}
 269              		.cfi_def_cfa_offset 8
 270              		.cfi_offset 4, -8
 271              		.cfi_offset 14, -4
  79:ZumoLibrary/IR.c ****         init = true;
 272              		.loc 1 79 0
 273 0008 074C     		ldr	r4, .L26
 274 000a 0123     		movs	r3, #1
 275 000c 2372     		strb	r3, [r4, #8]
  80:ZumoLibrary/IR.c ****         ir_q = xQueueCreate(IRB_SIZE, sizeof(uint32_t));
 276              		.loc 1 80 0
 277 000e 0022     		movs	r2, #0
 278 0010 0421     		movs	r1, #4
 279 0012 4020     		movs	r0, #64
 280 0014 FFF7FEFF 		bl	xQueueGenericCreate
 281              	.LVL17:
 282 0018 6060     		str	r0, [r4, #4]
  81:ZumoLibrary/IR.c ****         IR_isr_StartEx(IR_capture_isr);               // Start ultra sonic interrupt
 283              		.loc 1 81 0
 284 001a 0448     		ldr	r0, .L26+4
 285 001c FFF7FEFF 		bl	IR_isr_StartEx
 286              	.LVL18:
  82:ZumoLibrary/IR.c ****         Timer_IR_Start();                                      // Start Timer
 287              		.loc 1 82 0
 288 0020 FFF7FEFF 		bl	Timer_IR_Start
 289              	.LVL19:
 290 0024 10BD     		pop	{r4, pc}
 291              	.L25:
 292              		.cfi_def_cfa_offset 0
 293              		.cfi_restore 4
 294              		.cfi_restore 14
 295 0026 7047     		bx	lr
 296              	.L27:
 297              		.align	2
 298              	.L26:
 299 0028 00000000 		.word	.LANCHOR0
 300 002c 00000000 		.word	IR_capture_isr
 301              		.cfi_endproc
 302              	.LFE72:
 303              		.size	IR_Start, .-IR_Start
 304              		.bss
 305              		.align	2
 306              		.set	.LANCHOR0,. + 0
 307              		.type	old.7630, %object
 308              		.size	old.7630, 4
 309              	old.7630:
 310 0000 00000000 		.space	4
 311              		.type	ir_q, %object
 312              		.size	ir_q, 4
 313              	ir_q:
 314 0004 00000000 		.space	4
ARM GAS  C:\Users\samue\AppData\Local\Temp\cctSwjJH.s 			page 8


 315              		.type	init.7656, %object
 316              		.size	init.7656, 1
 317              	init.7656:
 318 0008 00       		.space	1
 319              		.text
 320              	.Letext0:
 321              		.file 2 "c:\\program files (x86)\\cypress\\psoc creator\\4.2\\psoc creator\\import\\gnu\\arm\\5.4.
 322              		.file 3 "c:\\program files (x86)\\cypress\\psoc creator\\4.2\\psoc creator\\import\\gnu\\arm\\5.4.
 323              		.file 4 "Generated_Source\\PSoC5/cytypes.h"
 324              		.file 5 "..\\FreeRTOS\\Source\\portable\\GCC\\ARM_CM3/portmacro.h"
 325              		.file 6 "..\\FreeRTOS\\Source\\include/queue.h"
 326              		.file 7 "Generated_Source\\PSoC5/Timer_IR.h"
 327              		.file 8 "Generated_Source\\PSoC5/IR_receiver.h"
 328              		.file 9 "Generated_Source\\PSoC5/IR_isr.h"
 329              		.file 10 "Generated_Source\\PSoC5/core_cm3.h"