ARM GAS  C:\Users\samue\AppData\Local\Temp\ccDykOiD.s 			page 1


   1              		.syntax unified
   2              		.cpu cortex-m3
   3              		.fpu softvfp
   4              		.eabi_attribute 20, 1
   5              		.eabi_attribute 21, 1
   6              		.eabi_attribute 23, 3
   7              		.eabi_attribute 24, 1
   8              		.eabi_attribute 25, 1
   9              		.eabi_attribute 26, 1
  10              		.eabi_attribute 30, 1
  11              		.eabi_attribute 34, 1
  12              		.eabi_attribute 18, 4
  13              		.thumb
  14              		.syntax unified
  15              		.file	"list.c"
  16              		.text
  17              	.Ltext0:
  18              		.cfi_sections	.debug_frame
  19              		.section	.text.vListInitialise,"ax",%progbits
  20              		.align	2
  21              		.global	vListInitialise
  22              		.thumb
  23              		.thumb_func
  24              		.type	vListInitialise, %function
  25              	vListInitialise:
  26              	.LFB68:
  27              		.file 1 "..\\FreeRTOS\\Source\\list.c"
   1:..\FreeRTOS\Source/list.c **** /*
   2:..\FreeRTOS\Source/list.c ****  * FreeRTOS Kernel V10.0.1
   3:..\FreeRTOS\Source/list.c ****  * Copyright (C) 2017 Amazon.com, Inc. or its affiliates.  All Rights Reserved.
   4:..\FreeRTOS\Source/list.c ****  *
   5:..\FreeRTOS\Source/list.c ****  * Permission is hereby granted, free of charge, to any person obtaining a copy of
   6:..\FreeRTOS\Source/list.c ****  * this software and associated documentation files (the "Software"), to deal in
   7:..\FreeRTOS\Source/list.c ****  * the Software without restriction, including without limitation the rights to
   8:..\FreeRTOS\Source/list.c ****  * use, copy, modify, merge, publish, distribute, sublicense, and/or sell copies of
   9:..\FreeRTOS\Source/list.c ****  * the Software, and to permit persons to whom the Software is furnished to do so,
  10:..\FreeRTOS\Source/list.c ****  * subject to the following conditions:
  11:..\FreeRTOS\Source/list.c ****  *
  12:..\FreeRTOS\Source/list.c ****  * The above copyright notice and this permission notice shall be included in all
  13:..\FreeRTOS\Source/list.c ****  * copies or substantial portions of the Software.
  14:..\FreeRTOS\Source/list.c ****  *
  15:..\FreeRTOS\Source/list.c ****  * THE SOFTWARE IS PROVIDED "AS IS", WITHOUT WARRANTY OF ANY KIND, EXPRESS OR
  16:..\FreeRTOS\Source/list.c ****  * IMPLIED, INCLUDING BUT NOT LIMITED TO THE WARRANTIES OF MERCHANTABILITY, FITNESS
  17:..\FreeRTOS\Source/list.c ****  * FOR A PARTICULAR PURPOSE AND NONINFRINGEMENT. IN NO EVENT SHALL THE AUTHORS OR
  18:..\FreeRTOS\Source/list.c ****  * COPYRIGHT HOLDERS BE LIABLE FOR ANY CLAIM, DAMAGES OR OTHER LIABILITY, WHETHER
  19:..\FreeRTOS\Source/list.c ****  * IN AN ACTION OF CONTRACT, TORT OR OTHERWISE, ARISING FROM, OUT OF OR IN
  20:..\FreeRTOS\Source/list.c ****  * CONNECTION WITH THE SOFTWARE OR THE USE OR OTHER DEALINGS IN THE SOFTWARE.
  21:..\FreeRTOS\Source/list.c ****  *
  22:..\FreeRTOS\Source/list.c ****  * http://www.FreeRTOS.org
  23:..\FreeRTOS\Source/list.c ****  * http://aws.amazon.com/freertos
  24:..\FreeRTOS\Source/list.c ****  *
  25:..\FreeRTOS\Source/list.c ****  * 1 tab == 4 spaces!
  26:..\FreeRTOS\Source/list.c ****  */
  27:..\FreeRTOS\Source/list.c **** 
  28:..\FreeRTOS\Source/list.c **** 
  29:..\FreeRTOS\Source/list.c **** #include <stdlib.h>
  30:..\FreeRTOS\Source/list.c **** #include "FreeRTOS.h"
ARM GAS  C:\Users\samue\AppData\Local\Temp\ccDykOiD.s 			page 2


  31:..\FreeRTOS\Source/list.c **** #include "list.h"
  32:..\FreeRTOS\Source/list.c **** 
  33:..\FreeRTOS\Source/list.c **** /*-----------------------------------------------------------
  34:..\FreeRTOS\Source/list.c ****  * PUBLIC LIST API documented in list.h
  35:..\FreeRTOS\Source/list.c ****  *----------------------------------------------------------*/
  36:..\FreeRTOS\Source/list.c **** 
  37:..\FreeRTOS\Source/list.c **** void vListInitialise( List_t * const pxList )
  38:..\FreeRTOS\Source/list.c **** {
  28              		.loc 1 38 0
  29              		.cfi_startproc
  30              		@ args = 0, pretend = 0, frame = 0
  31              		@ frame_needed = 0, uses_anonymous_args = 0
  32              		@ link register save eliminated.
  33              	.LVL0:
  39:..\FreeRTOS\Source/list.c **** 	/* The list structure contains a list item which is used to mark the
  40:..\FreeRTOS\Source/list.c **** 	end of the list.  To initialise the list the list end is inserted
  41:..\FreeRTOS\Source/list.c **** 	as the only list entry. */
  42:..\FreeRTOS\Source/list.c **** 	pxList->pxIndex = ( ListItem_t * ) &( pxList->xListEnd );			/*lint !e826 !e740 The mini list struc
  34              		.loc 1 42 0
  35 0000 00F10803 		add	r3, r0, #8
  36 0004 4360     		str	r3, [r0, #4]
  43:..\FreeRTOS\Source/list.c **** 
  44:..\FreeRTOS\Source/list.c **** 	/* The list end value is the highest possible value in the list to
  45:..\FreeRTOS\Source/list.c **** 	ensure it remains at the end of the list. */
  46:..\FreeRTOS\Source/list.c **** 	pxList->xListEnd.xItemValue = portMAX_DELAY;
  37              		.loc 1 46 0
  38 0006 4FF0FF32 		mov	r2, #-1
  39 000a 8260     		str	r2, [r0, #8]
  47:..\FreeRTOS\Source/list.c **** 
  48:..\FreeRTOS\Source/list.c **** 	/* The list end next and previous pointers point to itself so we know
  49:..\FreeRTOS\Source/list.c **** 	when the list is empty. */
  50:..\FreeRTOS\Source/list.c **** 	pxList->xListEnd.pxNext = ( ListItem_t * ) &( pxList->xListEnd );	/*lint !e826 !e740 The mini list
  40              		.loc 1 50 0
  41 000c C360     		str	r3, [r0, #12]
  51:..\FreeRTOS\Source/list.c **** 	pxList->xListEnd.pxPrevious = ( ListItem_t * ) &( pxList->xListEnd );/*lint !e826 !e740 The mini l
  42              		.loc 1 51 0
  43 000e 0361     		str	r3, [r0, #16]
  52:..\FreeRTOS\Source/list.c **** 
  53:..\FreeRTOS\Source/list.c **** 	pxList->uxNumberOfItems = ( UBaseType_t ) 0U;
  44              		.loc 1 53 0
  45 0010 0023     		movs	r3, #0
  46 0012 0360     		str	r3, [r0]
  47 0014 7047     		bx	lr
  48              		.cfi_endproc
  49              	.LFE68:
  50              		.size	vListInitialise, .-vListInitialise
  51 0016 00BF     		.section	.text.vListInitialiseItem,"ax",%progbits
  52              		.align	2
  53              		.global	vListInitialiseItem
  54              		.thumb
  55              		.thumb_func
  56              		.type	vListInitialiseItem, %function
  57              	vListInitialiseItem:
  58              	.LFB69:
  54:..\FreeRTOS\Source/list.c **** 
  55:..\FreeRTOS\Source/list.c **** 	/* Write known values into the list if
  56:..\FreeRTOS\Source/list.c **** 	configUSE_LIST_DATA_INTEGRITY_CHECK_BYTES is set to 1. */
ARM GAS  C:\Users\samue\AppData\Local\Temp\ccDykOiD.s 			page 3


  57:..\FreeRTOS\Source/list.c **** 	listSET_LIST_INTEGRITY_CHECK_1_VALUE( pxList );
  58:..\FreeRTOS\Source/list.c **** 	listSET_LIST_INTEGRITY_CHECK_2_VALUE( pxList );
  59:..\FreeRTOS\Source/list.c **** }
  60:..\FreeRTOS\Source/list.c **** /*-----------------------------------------------------------*/
  61:..\FreeRTOS\Source/list.c **** 
  62:..\FreeRTOS\Source/list.c **** void vListInitialiseItem( ListItem_t * const pxItem )
  63:..\FreeRTOS\Source/list.c **** {
  59              		.loc 1 63 0
  60              		.cfi_startproc
  61              		@ args = 0, pretend = 0, frame = 0
  62              		@ frame_needed = 0, uses_anonymous_args = 0
  63              		@ link register save eliminated.
  64              	.LVL1:
  64:..\FreeRTOS\Source/list.c **** 	/* Make sure the list item is not recorded as being on a list. */
  65:..\FreeRTOS\Source/list.c **** 	pxItem->pvContainer = NULL;
  65              		.loc 1 65 0
  66 0000 0023     		movs	r3, #0
  67 0002 0361     		str	r3, [r0, #16]
  68 0004 7047     		bx	lr
  69              		.cfi_endproc
  70              	.LFE69:
  71              		.size	vListInitialiseItem, .-vListInitialiseItem
  72 0006 00BF     		.section	.text.vListInsertEnd,"ax",%progbits
  73              		.align	2
  74              		.global	vListInsertEnd
  75              		.thumb
  76              		.thumb_func
  77              		.type	vListInsertEnd, %function
  78              	vListInsertEnd:
  79              	.LFB70:
  66:..\FreeRTOS\Source/list.c **** 
  67:..\FreeRTOS\Source/list.c **** 	/* Write known values into the list item if
  68:..\FreeRTOS\Source/list.c **** 	configUSE_LIST_DATA_INTEGRITY_CHECK_BYTES is set to 1. */
  69:..\FreeRTOS\Source/list.c **** 	listSET_FIRST_LIST_ITEM_INTEGRITY_CHECK_VALUE( pxItem );
  70:..\FreeRTOS\Source/list.c **** 	listSET_SECOND_LIST_ITEM_INTEGRITY_CHECK_VALUE( pxItem );
  71:..\FreeRTOS\Source/list.c **** }
  72:..\FreeRTOS\Source/list.c **** /*-----------------------------------------------------------*/
  73:..\FreeRTOS\Source/list.c **** 
  74:..\FreeRTOS\Source/list.c **** void vListInsertEnd( List_t * const pxList, ListItem_t * const pxNewListItem )
  75:..\FreeRTOS\Source/list.c **** {
  80              		.loc 1 75 0
  81              		.cfi_startproc
  82              		@ args = 0, pretend = 0, frame = 0
  83              		@ frame_needed = 0, uses_anonymous_args = 0
  84              		@ link register save eliminated.
  85              	.LVL2:
  76:..\FreeRTOS\Source/list.c **** ListItem_t * const pxIndex = pxList->pxIndex;
  86              		.loc 1 76 0
  87 0000 4368     		ldr	r3, [r0, #4]
  88              	.LVL3:
  77:..\FreeRTOS\Source/list.c **** 
  78:..\FreeRTOS\Source/list.c **** 	/* Only effective when configASSERT() is also defined, these tests may catch
  79:..\FreeRTOS\Source/list.c **** 	the list data structures being overwritten in memory.  They will not catch
  80:..\FreeRTOS\Source/list.c **** 	data errors caused by incorrect configuration or use of FreeRTOS. */
  81:..\FreeRTOS\Source/list.c **** 	listTEST_LIST_INTEGRITY( pxList );
  82:..\FreeRTOS\Source/list.c **** 	listTEST_LIST_ITEM_INTEGRITY( pxNewListItem );
  83:..\FreeRTOS\Source/list.c **** 
ARM GAS  C:\Users\samue\AppData\Local\Temp\ccDykOiD.s 			page 4


  84:..\FreeRTOS\Source/list.c **** 	/* Insert a new list item into pxList, but rather than sort the list,
  85:..\FreeRTOS\Source/list.c **** 	makes the new list item the last item to be removed by a call to
  86:..\FreeRTOS\Source/list.c **** 	listGET_OWNER_OF_NEXT_ENTRY(). */
  87:..\FreeRTOS\Source/list.c **** 	pxNewListItem->pxNext = pxIndex;
  89              		.loc 1 87 0
  90 0002 4B60     		str	r3, [r1, #4]
  88:..\FreeRTOS\Source/list.c **** 	pxNewListItem->pxPrevious = pxIndex->pxPrevious;
  91              		.loc 1 88 0
  92 0004 9A68     		ldr	r2, [r3, #8]
  93 0006 8A60     		str	r2, [r1, #8]
  89:..\FreeRTOS\Source/list.c **** 
  90:..\FreeRTOS\Source/list.c **** 	/* Only used during decision coverage testing. */
  91:..\FreeRTOS\Source/list.c **** 	mtCOVERAGE_TEST_DELAY();
  92:..\FreeRTOS\Source/list.c **** 
  93:..\FreeRTOS\Source/list.c **** 	pxIndex->pxPrevious->pxNext = pxNewListItem;
  94              		.loc 1 93 0
  95 0008 9A68     		ldr	r2, [r3, #8]
  96 000a 5160     		str	r1, [r2, #4]
  94:..\FreeRTOS\Source/list.c **** 	pxIndex->pxPrevious = pxNewListItem;
  97              		.loc 1 94 0
  98 000c 9960     		str	r1, [r3, #8]
  95:..\FreeRTOS\Source/list.c **** 
  96:..\FreeRTOS\Source/list.c **** 	/* Remember which list the item is in. */
  97:..\FreeRTOS\Source/list.c **** 	pxNewListItem->pvContainer = ( void * ) pxList;
  99              		.loc 1 97 0
 100 000e 0861     		str	r0, [r1, #16]
  98:..\FreeRTOS\Source/list.c **** 
  99:..\FreeRTOS\Source/list.c **** 	( pxList->uxNumberOfItems )++;
 101              		.loc 1 99 0
 102 0010 0368     		ldr	r3, [r0]
 103              	.LVL4:
 104 0012 0133     		adds	r3, r3, #1
 105 0014 0360     		str	r3, [r0]
 106 0016 7047     		bx	lr
 107              		.cfi_endproc
 108              	.LFE70:
 109              		.size	vListInsertEnd, .-vListInsertEnd
 110              		.section	.text.vListInsert,"ax",%progbits
 111              		.align	2
 112              		.global	vListInsert
 113              		.thumb
 114              		.thumb_func
 115              		.type	vListInsert, %function
 116              	vListInsert:
 117              	.LFB71:
 100:..\FreeRTOS\Source/list.c **** }
 101:..\FreeRTOS\Source/list.c **** /*-----------------------------------------------------------*/
 102:..\FreeRTOS\Source/list.c **** 
 103:..\FreeRTOS\Source/list.c **** void vListInsert( List_t * const pxList, ListItem_t * const pxNewListItem )
 104:..\FreeRTOS\Source/list.c **** {
 118              		.loc 1 104 0
 119              		.cfi_startproc
 120              		@ args = 0, pretend = 0, frame = 0
 121              		@ frame_needed = 0, uses_anonymous_args = 0
 122              		@ link register save eliminated.
 123              	.LVL5:
 124 0000 30B4     		push	{r4, r5}
ARM GAS  C:\Users\samue\AppData\Local\Temp\ccDykOiD.s 			page 5


 125              		.cfi_def_cfa_offset 8
 126              		.cfi_offset 4, -8
 127              		.cfi_offset 5, -4
 105:..\FreeRTOS\Source/list.c **** ListItem_t *pxIterator;
 106:..\FreeRTOS\Source/list.c **** const TickType_t xValueOfInsertion = pxNewListItem->xItemValue;
 128              		.loc 1 106 0
 129 0002 0D68     		ldr	r5, [r1]
 130              	.LVL6:
 107:..\FreeRTOS\Source/list.c **** 
 108:..\FreeRTOS\Source/list.c **** 	/* Only effective when configASSERT() is also defined, these tests may catch
 109:..\FreeRTOS\Source/list.c **** 	the list data structures being overwritten in memory.  They will not catch
 110:..\FreeRTOS\Source/list.c **** 	data errors caused by incorrect configuration or use of FreeRTOS. */
 111:..\FreeRTOS\Source/list.c **** 	listTEST_LIST_INTEGRITY( pxList );
 112:..\FreeRTOS\Source/list.c **** 	listTEST_LIST_ITEM_INTEGRITY( pxNewListItem );
 113:..\FreeRTOS\Source/list.c **** 
 114:..\FreeRTOS\Source/list.c **** 	/* Insert the new list item into the list, sorted in xItemValue order.
 115:..\FreeRTOS\Source/list.c **** 
 116:..\FreeRTOS\Source/list.c **** 	If the list already contains a list item with the same item value then the
 117:..\FreeRTOS\Source/list.c **** 	new list item should be placed after it.  This ensures that TCB's which are
 118:..\FreeRTOS\Source/list.c **** 	stored in ready lists (all of which have the same xItemValue value) get a
 119:..\FreeRTOS\Source/list.c **** 	share of the CPU.  However, if the xItemValue is the same as the back marker
 120:..\FreeRTOS\Source/list.c **** 	the iteration loop below will not end.  Therefore the value is checked
 121:..\FreeRTOS\Source/list.c **** 	first, and the algorithm slightly modified if necessary. */
 122:..\FreeRTOS\Source/list.c **** 	if( xValueOfInsertion == portMAX_DELAY )
 131              		.loc 1 122 0
 132 0004 B5F1FF3F 		cmp	r5, #-1
 133 0008 01D1     		bne	.L5
 123:..\FreeRTOS\Source/list.c **** 	{
 124:..\FreeRTOS\Source/list.c **** 		pxIterator = pxList->xListEnd.pxPrevious;
 134              		.loc 1 124 0
 135 000a 0269     		ldr	r2, [r0, #16]
 136              	.LVL7:
 137 000c 07E0     		b	.L6
 138              	.LVL8:
 139              	.L5:
 125:..\FreeRTOS\Source/list.c **** 	}
 126:..\FreeRTOS\Source/list.c **** 	else
 127:..\FreeRTOS\Source/list.c **** 	{
 128:..\FreeRTOS\Source/list.c **** 		/* *** NOTE ***********************************************************
 129:..\FreeRTOS\Source/list.c **** 		If you find your application is crashing here then likely causes are
 130:..\FreeRTOS\Source/list.c **** 		listed below.  In addition see http://www.freertos.org/FAQHelp.html for
 131:..\FreeRTOS\Source/list.c **** 		more tips, and ensure configASSERT() is defined!
 132:..\FreeRTOS\Source/list.c **** 		http://www.freertos.org/a00110.html#configASSERT
 133:..\FreeRTOS\Source/list.c **** 
 134:..\FreeRTOS\Source/list.c **** 			1) Stack overflow -
 135:..\FreeRTOS\Source/list.c **** 			   see http://www.freertos.org/Stacks-and-stack-overflow-checking.html
 136:..\FreeRTOS\Source/list.c **** 			2) Incorrect interrupt priority assignment, especially on Cortex-M
 137:..\FreeRTOS\Source/list.c **** 			   parts where numerically high priority values denote low actual
 138:..\FreeRTOS\Source/list.c **** 			   interrupt priorities, which can seem counter intuitive.  See
 139:..\FreeRTOS\Source/list.c **** 			   http://www.freertos.org/RTOS-Cortex-M3-M4.html and the definition
 140:..\FreeRTOS\Source/list.c **** 			   of configMAX_SYSCALL_INTERRUPT_PRIORITY on
 141:..\FreeRTOS\Source/list.c **** 			   http://www.freertos.org/a00110.html
 142:..\FreeRTOS\Source/list.c **** 			3) Calling an API function from within a critical section or when
 143:..\FreeRTOS\Source/list.c **** 			   the scheduler is suspended, or calling an API function that does
 144:..\FreeRTOS\Source/list.c **** 			   not end in "FromISR" from an interrupt.
 145:..\FreeRTOS\Source/list.c **** 			4) Using a queue or semaphore before it has been initialised or
 146:..\FreeRTOS\Source/list.c **** 			   before the scheduler has been started (are interrupts firing
ARM GAS  C:\Users\samue\AppData\Local\Temp\ccDykOiD.s 			page 6


 147:..\FreeRTOS\Source/list.c **** 			   before vTaskStartScheduler() has been called?).
 148:..\FreeRTOS\Source/list.c **** 		**********************************************************************/
 149:..\FreeRTOS\Source/list.c **** 
 150:..\FreeRTOS\Source/list.c **** 		for( pxIterator = ( ListItem_t * ) &( pxList->xListEnd ); pxIterator->pxNext->xItemValue <= xValu
 140              		.loc 1 150 0
 141 000e 00F10802 		add	r2, r0, #8
 142              	.LVL9:
 143 0012 00E0     		b	.L7
 144              	.L8:
 145 0014 1A46     		mov	r2, r3
 146              	.LVL10:
 147              	.L7:
 148              		.loc 1 150 0 is_stmt 0 discriminator 1
 149 0016 5368     		ldr	r3, [r2, #4]
 150 0018 1C68     		ldr	r4, [r3]
 151 001a A542     		cmp	r5, r4
 152 001c FAD2     		bcs	.L8
 153              	.L6:
 151:..\FreeRTOS\Source/list.c **** 		{
 152:..\FreeRTOS\Source/list.c **** 			/* There is nothing to do here, just iterating to the wanted
 153:..\FreeRTOS\Source/list.c **** 			insertion position. */
 154:..\FreeRTOS\Source/list.c **** 		}
 155:..\FreeRTOS\Source/list.c **** 	}
 156:..\FreeRTOS\Source/list.c **** 
 157:..\FreeRTOS\Source/list.c **** 	pxNewListItem->pxNext = pxIterator->pxNext;
 154              		.loc 1 157 0 is_stmt 1
 155 001e 5368     		ldr	r3, [r2, #4]
 156 0020 4B60     		str	r3, [r1, #4]
 158:..\FreeRTOS\Source/list.c **** 	pxNewListItem->pxNext->pxPrevious = pxNewListItem;
 157              		.loc 1 158 0
 158 0022 9960     		str	r1, [r3, #8]
 159:..\FreeRTOS\Source/list.c **** 	pxNewListItem->pxPrevious = pxIterator;
 159              		.loc 1 159 0
 160 0024 8A60     		str	r2, [r1, #8]
 160:..\FreeRTOS\Source/list.c **** 	pxIterator->pxNext = pxNewListItem;
 161              		.loc 1 160 0
 162 0026 5160     		str	r1, [r2, #4]
 161:..\FreeRTOS\Source/list.c **** 
 162:..\FreeRTOS\Source/list.c **** 	/* Remember which list the item is in.  This allows fast removal of the
 163:..\FreeRTOS\Source/list.c **** 	item later. */
 164:..\FreeRTOS\Source/list.c **** 	pxNewListItem->pvContainer = ( void * ) pxList;
 163              		.loc 1 164 0
 164 0028 0861     		str	r0, [r1, #16]
 165:..\FreeRTOS\Source/list.c **** 
 166:..\FreeRTOS\Source/list.c **** 	( pxList->uxNumberOfItems )++;
 165              		.loc 1 166 0
 166 002a 0368     		ldr	r3, [r0]
 167 002c 0133     		adds	r3, r3, #1
 168 002e 0360     		str	r3, [r0]
 167:..\FreeRTOS\Source/list.c **** }
 169              		.loc 1 167 0
 170 0030 30BC     		pop	{r4, r5}
 171              		.cfi_restore 5
 172              		.cfi_restore 4
 173              		.cfi_def_cfa_offset 0
 174              	.LVL11:
 175 0032 7047     		bx	lr
ARM GAS  C:\Users\samue\AppData\Local\Temp\ccDykOiD.s 			page 7


 176              		.cfi_endproc
 177              	.LFE71:
 178              		.size	vListInsert, .-vListInsert
 179              		.section	.text.uxListRemove,"ax",%progbits
 180              		.align	2
 181              		.global	uxListRemove
 182              		.thumb
 183              		.thumb_func
 184              		.type	uxListRemove, %function
 185              	uxListRemove:
 186              	.LFB72:
 168:..\FreeRTOS\Source/list.c **** /*-----------------------------------------------------------*/
 169:..\FreeRTOS\Source/list.c **** 
 170:..\FreeRTOS\Source/list.c **** UBaseType_t uxListRemove( ListItem_t * const pxItemToRemove )
 171:..\FreeRTOS\Source/list.c **** {
 187              		.loc 1 171 0
 188              		.cfi_startproc
 189              		@ args = 0, pretend = 0, frame = 0
 190              		@ frame_needed = 0, uses_anonymous_args = 0
 191              		@ link register save eliminated.
 192              	.LVL12:
 172:..\FreeRTOS\Source/list.c **** /* The list item knows which list it is in.  Obtain the list from the list
 173:..\FreeRTOS\Source/list.c **** item. */
 174:..\FreeRTOS\Source/list.c **** List_t * const pxList = ( List_t * ) pxItemToRemove->pvContainer;
 193              		.loc 1 174 0
 194 0000 0369     		ldr	r3, [r0, #16]
 195              	.LVL13:
 175:..\FreeRTOS\Source/list.c **** 
 176:..\FreeRTOS\Source/list.c **** 	pxItemToRemove->pxNext->pxPrevious = pxItemToRemove->pxPrevious;
 196              		.loc 1 176 0
 197 0002 4268     		ldr	r2, [r0, #4]
 198 0004 8168     		ldr	r1, [r0, #8]
 199 0006 9160     		str	r1, [r2, #8]
 177:..\FreeRTOS\Source/list.c **** 	pxItemToRemove->pxPrevious->pxNext = pxItemToRemove->pxNext;
 200              		.loc 1 177 0
 201 0008 8268     		ldr	r2, [r0, #8]
 202 000a 4168     		ldr	r1, [r0, #4]
 203 000c 5160     		str	r1, [r2, #4]
 178:..\FreeRTOS\Source/list.c **** 
 179:..\FreeRTOS\Source/list.c **** 	/* Only used during decision coverage testing. */
 180:..\FreeRTOS\Source/list.c **** 	mtCOVERAGE_TEST_DELAY();
 181:..\FreeRTOS\Source/list.c **** 
 182:..\FreeRTOS\Source/list.c **** 	/* Make sure the index is left pointing to a valid item. */
 183:..\FreeRTOS\Source/list.c **** 	if( pxList->pxIndex == pxItemToRemove )
 204              		.loc 1 183 0
 205 000e 5A68     		ldr	r2, [r3, #4]
 206 0010 9042     		cmp	r0, r2
 207 0012 01D1     		bne	.L11
 184:..\FreeRTOS\Source/list.c **** 	{
 185:..\FreeRTOS\Source/list.c **** 		pxList->pxIndex = pxItemToRemove->pxPrevious;
 208              		.loc 1 185 0
 209 0014 8268     		ldr	r2, [r0, #8]
 210 0016 5A60     		str	r2, [r3, #4]
 211              	.L11:
 186:..\FreeRTOS\Source/list.c **** 	}
 187:..\FreeRTOS\Source/list.c **** 	else
 188:..\FreeRTOS\Source/list.c **** 	{
ARM GAS  C:\Users\samue\AppData\Local\Temp\ccDykOiD.s 			page 8


 189:..\FreeRTOS\Source/list.c **** 		mtCOVERAGE_TEST_MARKER();
 190:..\FreeRTOS\Source/list.c **** 	}
 191:..\FreeRTOS\Source/list.c **** 
 192:..\FreeRTOS\Source/list.c **** 	pxItemToRemove->pvContainer = NULL;
 212              		.loc 1 192 0
 213 0018 0022     		movs	r2, #0
 214 001a 0261     		str	r2, [r0, #16]
 193:..\FreeRTOS\Source/list.c **** 	( pxList->uxNumberOfItems )--;
 215              		.loc 1 193 0
 216 001c 1A68     		ldr	r2, [r3]
 217 001e 013A     		subs	r2, r2, #1
 218 0020 1A60     		str	r2, [r3]
 194:..\FreeRTOS\Source/list.c **** 
 195:..\FreeRTOS\Source/list.c **** 	return pxList->uxNumberOfItems;
 219              		.loc 1 195 0
 220 0022 1868     		ldr	r0, [r3]
 221              	.LVL14:
 196:..\FreeRTOS\Source/list.c **** }
 222              		.loc 1 196 0
 223 0024 7047     		bx	lr
 224              		.cfi_endproc
 225              	.LFE72:
 226              		.size	uxListRemove, .-uxListRemove
 227 0026 00BF     		.text
 228              	.Letext0:
 229              		.file 2 "c:\\program files (x86)\\cypress\\psoc creator\\4.2\\psoc creator\\import\\gnu\\arm\\5.4.
 230              		.file 3 "c:\\program files (x86)\\cypress\\psoc creator\\4.2\\psoc creator\\import\\gnu\\arm\\5.4.
 231              		.file 4 "..\\FreeRTOS\\Source\\portable\\GCC\\ARM_CM3/portmacro.h"
 232              		.file 5 "..\\FreeRTOS\\Source\\include/list.h"
 233              		.file 6 "Generated_Source\\PSoC5/core_cm3.h"