ARM GAS  C:\Users\samue\AppData\Local\Temp\ccOkP4b7.s 			page 1


   1              		.syntax unified
   2              		.cpu cortex-m3
   3              		.fpu softvfp
   4              		.eabi_attribute 20, 1
   5              		.eabi_attribute 21, 1
   6              		.eabi_attribute 23, 3
   7              		.eabi_attribute 24, 1
   8              		.eabi_attribute 25, 1
   9              		.eabi_attribute 26, 1
  10              		.eabi_attribute 30, 1
  11              		.eabi_attribute 34, 1
  12              		.eabi_attribute 18, 4
  13              		.thumb
  14              		.syntax unified
  15              		.file	"LSM303D.c"
  16              		.text
  17              	.Ltext0:
  18              		.cfi_sections	.debug_frame
  19              		.section	.text.LSM303D_Start,"ax",%progbits
  20              		.align	2
  21              		.global	LSM303D_Start
  22              		.thumb
  23              		.thumb_func
  24              		.type	LSM303D_Start, %function
  25              	LSM303D_Start:
  26              	.LFB68:
  27              		.file 1 "ZumoLibrary\\LSM303D.c"
   1:ZumoLibrary/LSM303D.c **** /* ========================================
   2:ZumoLibrary/LSM303D.c ****  *
   3:ZumoLibrary/LSM303D.c ****  * Copyright YOUR COMPANY, THE YEAR
   4:ZumoLibrary/LSM303D.c ****  * All Rights Reserved
   5:ZumoLibrary/LSM303D.c ****  * UNPUBLISHED, LICENSED SOFTWARE.
   6:ZumoLibrary/LSM303D.c ****  *
   7:ZumoLibrary/LSM303D.c ****  * CONFIDENTIAL AND PROPRIETARY INFORMATION
   8:ZumoLibrary/LSM303D.c ****  * WHICH IS THE PROPERTY OF your company.
   9:ZumoLibrary/LSM303D.c ****  *
  10:ZumoLibrary/LSM303D.c ****  * ========================================
  11:ZumoLibrary/LSM303D.c **** */
  12:ZumoLibrary/LSM303D.c **** 
  13:ZumoLibrary/LSM303D.c **** /*Usage Example at the bottom of this file!!!*/
  14:ZumoLibrary/LSM303D.c **** #include "FreeRTOS.h"
  15:ZumoLibrary/LSM303D.c **** #include "task.h"
  16:ZumoLibrary/LSM303D.c **** 
  17:ZumoLibrary/LSM303D.c **** 
  18:ZumoLibrary/LSM303D.c **** #include"LSM303D.h"
  19:ZumoLibrary/LSM303D.c **** #include"I2C.h"
  20:ZumoLibrary/LSM303D.c **** #include"I2C_Common.h"
  21:ZumoLibrary/LSM303D.c **** 
  22:ZumoLibrary/LSM303D.c **** uint8_t LSM303D_Start(void){
  28              		.loc 1 22 0
  29              		.cfi_startproc
  30              		@ args = 0, pretend = 0, frame = 0
  31              		@ frame_needed = 0, uses_anonymous_args = 0
  32 0000 08B5     		push	{r3, lr}
  33              		.cfi_def_cfa_offset 8
  34              		.cfi_offset 3, -8
  35              		.cfi_offset 14, -4
ARM GAS  C:\Users\samue\AppData\Local\Temp\ccOkP4b7.s 			page 2


  23:ZumoLibrary/LSM303D.c ****     
  24:ZumoLibrary/LSM303D.c ****     I2C_Start();
  36              		.loc 1 24 0
  37 0002 FFF7FEFF 		bl	I2C_Start
  38              	.LVL0:
  25:ZumoLibrary/LSM303D.c ****     I2C_Write(LSM303D, CTRL_1, 0x77);           // set accelerometer & magnetometer into active mod
  39              		.loc 1 25 0
  40 0006 7722     		movs	r2, #119
  41 0008 2021     		movs	r1, #32
  42 000a 1D20     		movs	r0, #29
  43 000c FFF7FEFF 		bl	I2C_Write
  44              	.LVL1:
  26:ZumoLibrary/LSM303D.c ****     I2C_Write(LSM303D, CTRL_7, 0x83);
  45              		.loc 1 26 0
  46 0010 8322     		movs	r2, #131
  47 0012 2621     		movs	r1, #38
  48 0014 1D20     		movs	r0, #29
  49 0016 FFF7FEFF 		bl	I2C_Write
  50              	.LVL2:
  27:ZumoLibrary/LSM303D.c ****     
  28:ZumoLibrary/LSM303D.c ****     if(I2C_Read(LSM303D, WHO_AM_I) == DEV_ID){
  51              		.loc 1 28 0
  52 001a 0F21     		movs	r1, #15
  53 001c 1D20     		movs	r0, #29
  54 001e FFF7FEFF 		bl	I2C_Read
  55              	.LVL3:
  56 0022 4928     		cmp	r0, #73
  57 0024 01D1     		bne	.L3
  29:ZumoLibrary/LSM303D.c **** 
  30:ZumoLibrary/LSM303D.c ****         return 1;
  58              		.loc 1 30 0
  59 0026 0120     		movs	r0, #1
  60 0028 08BD     		pop	{r3, pc}
  61              	.L3:
  31:ZumoLibrary/LSM303D.c **** 
  32:ZumoLibrary/LSM303D.c ****     }
  33:ZumoLibrary/LSM303D.c ****     else {
  34:ZumoLibrary/LSM303D.c ****     
  35:ZumoLibrary/LSM303D.c ****         return 0;
  62              		.loc 1 35 0
  63 002a 0020     		movs	r0, #0
  36:ZumoLibrary/LSM303D.c ****     
  37:ZumoLibrary/LSM303D.c ****     }
  38:ZumoLibrary/LSM303D.c **** }
  64              		.loc 1 38 0
  65 002c 08BD     		pop	{r3, pc}
  66              		.cfi_endproc
  67              	.LFE68:
  68              		.size	LSM303D_Start, .-LSM303D_Start
  69 002e 00BF     		.section	.text.LSM303D_Read_Acc,"ax",%progbits
  70              		.align	2
  71              		.global	LSM303D_Read_Acc
  72              		.thumb
  73              		.thumb_func
  74              		.type	LSM303D_Read_Acc, %function
  75              	LSM303D_Read_Acc:
  76              	.LFB69:
ARM GAS  C:\Users\samue\AppData\Local\Temp\ccOkP4b7.s 			page 3


  39:ZumoLibrary/LSM303D.c **** 
  40:ZumoLibrary/LSM303D.c **** 
  41:ZumoLibrary/LSM303D.c **** 
  42:ZumoLibrary/LSM303D.c **** void LSM303D_Read_Acc(struct accData_* data){
  77              		.loc 1 42 0
  78              		.cfi_startproc
  79              		@ args = 0, pretend = 0, frame = 8
  80              		@ frame_needed = 0, uses_anonymous_args = 0
  81              	.LVL4:
  82 0000 10B5     		push	{r4, lr}
  83              		.cfi_def_cfa_offset 8
  84              		.cfi_offset 4, -8
  85              		.cfi_offset 14, -4
  86 0002 82B0     		sub	sp, sp, #8
  87              		.cfi_def_cfa_offset 16
  88 0004 0446     		mov	r4, r0
  43:ZumoLibrary/LSM303D.c ****     
  44:ZumoLibrary/LSM303D.c ****     uint8_t xyz[6];
  45:ZumoLibrary/LSM303D.c ****     
  46:ZumoLibrary/LSM303D.c ****     I2C_Read_Multiple(LSM303D, OUT_X_L_A | MULTIPLE_READ, xyz, 6);
  89              		.loc 1 46 0
  90 0006 0623     		movs	r3, #6
  91 0008 6A46     		mov	r2, sp
  92 000a A821     		movs	r1, #168
  93 000c 1D20     		movs	r0, #29
  94              	.LVL5:
  95 000e FFF7FEFF 		bl	I2C_Read_Multiple
  96              	.LVL6:
  47:ZumoLibrary/LSM303D.c ****     
  48:ZumoLibrary/LSM303D.c ****     data->accX = (int16)(xyz[1] << 8 | xyz[0]);
  97              		.loc 1 48 0
  98 0012 9DF80120 		ldrb	r2, [sp, #1]	@ zero_extendqisi2
  99 0016 9DF80030 		ldrb	r3, [sp]	@ zero_extendqisi2
 100 001a 43EA0223 		orr	r3, r3, r2, lsl #8
 101 001e 2380     		strh	r3, [r4]	@ movhi
  49:ZumoLibrary/LSM303D.c ****     data->accY = (int16)(xyz[3] << 8 | xyz[2]);
 102              		.loc 1 49 0
 103 0020 9DF80320 		ldrb	r2, [sp, #3]	@ zero_extendqisi2
 104 0024 9DF80230 		ldrb	r3, [sp, #2]	@ zero_extendqisi2
 105 0028 43EA0223 		orr	r3, r3, r2, lsl #8
 106 002c 6380     		strh	r3, [r4, #2]	@ movhi
  50:ZumoLibrary/LSM303D.c ****     data->accZ = (int16)(xyz[5] << 8 | xyz[4]);
 107              		.loc 1 50 0
 108 002e 9DF80520 		ldrb	r2, [sp, #5]	@ zero_extendqisi2
 109 0032 9DF80430 		ldrb	r3, [sp, #4]	@ zero_extendqisi2
 110 0036 43EA0223 		orr	r3, r3, r2, lsl #8
 111 003a A380     		strh	r3, [r4, #4]	@ movhi
  51:ZumoLibrary/LSM303D.c **** }
 112              		.loc 1 51 0
 113 003c 02B0     		add	sp, sp, #8
 114              		.cfi_def_cfa_offset 8
 115              		@ sp needed
 116 003e 10BD     		pop	{r4, pc}
 117              		.cfi_endproc
 118              	.LFE69:
 119              		.size	LSM303D_Read_Acc, .-LSM303D_Read_Acc
 120              		.text
ARM GAS  C:\Users\samue\AppData\Local\Temp\ccOkP4b7.s 			page 4


 121              	.Letext0:
 122              		.file 2 "c:\\program files (x86)\\cypress\\psoc creator\\4.2\\psoc creator\\import\\gnu\\arm\\5.4.
 123              		.file 3 "c:\\program files (x86)\\cypress\\psoc creator\\4.2\\psoc creator\\import\\gnu\\arm\\5.4.
 124              		.file 4 "Generated_Source\\PSoC5/cytypes.h"
 125              		.file 5 "ZumoLibrary\\LSM303D.h"
 126              		.file 6 "Generated_Source\\PSoC5/I2C.h"
 127              		.file 7 "ZumoLibrary\\I2C_Common.h"
 128              		.file 8 "Generated_Source\\PSoC5/core_cm3.h"