ARM GAS  C:\Users\samue\AppData\Local\Temp\ccm0rw4c.s 			page 1


   1              		.syntax unified
   2              		.cpu cortex-m3
   3              		.fpu softvfp
   4              		.eabi_attribute 20, 1
   5              		.eabi_attribute 21, 1
   6              		.eabi_attribute 23, 3
   7              		.eabi_attribute 24, 1
   8              		.eabi_attribute 25, 1
   9              		.eabi_attribute 26, 1
  10              		.eabi_attribute 30, 1
  11              		.eabi_attribute 34, 1
  12              		.eabi_attribute 18, 4
  13              		.thumb
  14              		.syntax unified
  15              		.file	"main.c"
  16              		.text
  17              	.Ltext0:
  18              		.cfi_sections	.debug_frame
  19              		.section	.text.respondToHit,"ax",%progbits
  20              		.align	2
  21              		.global	respondToHit
  22              		.thumb
  23              		.thumb_func
  24              		.type	respondToHit, %function
  25              	respondToHit:
  26              	.LFB90:
  27              		.file 1 "main.c"
   1:main.c        **** /**
   2:main.c        **** * @mainpage ZumoBot Project
   3:main.c        **** * @brief    You can make your own ZumoBot with various sensors.
   4:main.c        **** * @details  <br><br>
   5:main.c        ****     <p>
   6:main.c        ****     <B>General</B><br>
   7:main.c        ****     You will use Pololu Zumo Shields for your robot project with 
   8:main.c        ****     CY8CKIT-059(PSoC 5LP) from Cypress semiconductor. This library has basic 
   9:main.c        ****     methods of various sensors and communications so that you can make what you 
  10:main.c        ****     want with them. <br> 
  11:main.c        ****     <br><br>
  12:main.c        ****     </p>
  13:main.c        ****     
  14:main.c        ****     <p>
  15:main.c        ****     <B>Sensors</B><br>
  16:main.c        ****     &nbsp;Included: <br>
  17:main.c        ****         &nbsp;&nbsp;&nbsp;&nbsp;LSM303D: Accelerometer & Magnetometer<br>
  18:main.c        ****         &nbsp;&nbsp;&nbsp;&nbsp;L3GD20H: Gyroscope<br>
  19:main.c        ****         &nbsp;&nbsp;&nbsp;&nbsp;Reflectance sensor<br>
  20:main.c        ****         &nbsp;&nbsp;&nbsp;&nbsp;Motors
  21:main.c        ****     &nbsp;Wii nunchuck<br>
  22:main.c        ****     &nbsp;TSOP-2236: IR Receiver<br>
  23:main.c        ****     &nbsp;HC-SR04: Ultrasonic sensor<br>
  24:main.c        ****     &nbsp;APDS-9301: Ambient light sensor<br>
  25:main.c        ****     &nbsp;IR LED <br><br><br>
  26:main.c        ****     </p>
  27:main.c        ****     
  28:main.c        ****     <p>
  29:main.c        ****     <B>Communication</B><br>
  30:main.c        ****     I2C, UART, Serial<br>
ARM GAS  C:\Users\samue\AppData\Local\Temp\ccm0rw4c.s 			page 2


  31:main.c        ****     </p>
  32:main.c        **** */
  33:main.c        **** 
  34:main.c        **** #include <project.h>
  35:main.c        **** #include <stdio.h>
  36:main.c        **** #include "FreeRTOS.h"
  37:main.c        **** #include "task.h"
  38:main.c        **** #include "Motor.h"
  39:main.c        **** #include "Ultra.h"
  40:main.c        **** #include "Nunchuk.h"
  41:main.c        **** #include "Reflectance.h"
  42:main.c        **** #include "Gyro.h"
  43:main.c        **** #include "Accel_magnet.h"
  44:main.c        **** #include "LSM303D.h"
  45:main.c        **** #include "IR.h"
  46:main.c        **** #include "Beep.h"
  47:main.c        **** #include "mqtt_sender.h"
  48:main.c        **** #include <time.h>
  49:main.c        **** #include <sys/time.h>
  50:main.c        **** #include "serial1.h"
  51:main.c        **** #include <unistd.h>
  52:main.c        **** #include <stdlib.h>
  53:main.c        **** #include <math.h>
  54:main.c        **** 
  55:main.c        **** #define PI 3.14159265358979323846;
  56:main.c        **** 
  57:main.c        **** /**
  58:main.c        ****  * @file    main.c
  59:main.c        ****  * @brief   
  60:main.c        ****  * @details  ** Enable global interrupt since Zumo library uses interrupts. 
  61:main.c        ****  **<br>&nbsp;&nbsp;&nbsp;CyGlobalIntEnable;<br>
  62:main.c        **** */
  63:main.c        **** 
  64:main.c        **** /*  Smart IoT-devices        TX00DJ98-3009
  65:main.c        ****  __  __ ___ _____ ____  _____ ___  _____ _    _  ___
  66:main.c        **** |  \/  | _ |_   _|  _ \/  _  \ _ \/  _  \ |  | |/ _ \
  67:main.c        **** | \__/ | _|  | | | |/ /| |_| |  _/| |_| | |__| |  _  |
  68:main.c        **** |_|  |_|___| |_| |_|\_\\_____/_|  \_____/____|_|_| |_|
  69:main.c        ****  _____ _  __ _  __ _  ___  ___  __    ____
  70:main.c        **** |_   _| \/ /| |/ /_ |/ _ \/ __\/_ |__|    \
  71:main.c        ****   | |  |  | |   | | |\__  \__ \ | |__| |\ |
  72:main.c        ****   |_| /_/\_\|_|\_\|_|/___/____/ |_|  |____/
  73:main.c        ****  _____ ___  ___  __  __       __  __      __
  74:main.c        **** |_   _| _ |/ _ \|  \/  |     / / / /   _/   /
  75:main.c        ****   | | | _||  _  | \__/ |  __/ /_/ /_ /__   /
  76:main.c        ****   |_| |___|_| |_|_|  |_| /_  __  __/   /  /
  77:main.c        ****                         __/ /_/ /_    /  /
  78:main.c        ****     Samuel Aitamaa     /_  __  __/   /  /
  79:main.c        ****      Jere Lampola       / / / /     /  /
  80:main.c        ****     Tuomas Rajala      /_/ /_/     /__/
  81:main.c        **** 
  82:main.c        **** MORE OR LESS PROUDLY PRESENTS THEIR CODE */
  83:main.c        **** 
  84:main.c        **** /* SOME SYNTAX REMINDERS
  85:main.c        **** 
  86:main.c        **** Tab is equal to 2 spaces.
  87:main.c        **** 
ARM GAS  C:\Users\samue\AppData\Local\Temp\ccm0rw4c.s 			page 3


  88:main.c        **** Multi-line comments should be limited to 80 characters in width, end-of-line
  89:main.c        **** comments may exceed to 100 characters, but preferentially stay within 80 char
  90:main.c        **** limit.
  91:main.c        **** 
  92:main.c        **** Curly brackets open after function/loop/etc. declaration on the same line, and
  93:main.c        **** end at Col same as the first character on the line it was started at.
  94:main.c        **** 
  95:main.c        **** Function and variable names are written in camelCase.
  96:main.c        **** 
  97:main.c        **** Arithmetics are written "loosely", with empty space on each side, example:
  98:main.c        **** "d = a + b * c" instead of "d=a+b*c". "d = a + b*c" is also ok for clarity.
  99:main.c        **** */
 100:main.c        **** 
 101:main.c        **** void rp_sumoWrestling();
 102:main.c        **** void rp_lineFollower();
 103:main.c        **** void rp_maze();
 104:main.c        **** 
 105:main.c        **** void blinkMorse();
 106:main.c        **** void ledOnFor();
 107:main.c        **** float ADCtoBatteryRatio(float R1,float R2,float V_ref,int ADC_res);
 108:main.c        **** void turn90deg();
 109:main.c        **** void tankTurn();
 110:main.c        **** void playMusic();
 111:main.c        **** bool overLine();
 112:main.c        **** 
 113:main.c        **** bool allSensorsBlack();
 114:main.c        **** bool anySensorBlack();
 115:main.c        **** int blackSensors();
 116:main.c        **** 
 117:main.c        **** bool inIntersection();
 118:main.c        **** int followLine();
 119:main.c        **** void moveToNextLine();
 120:main.c        **** void moveToStartLine();
 121:main.c        **** 
 122:main.c        **** TickType_t startWrestling();
 123:main.c        **** int detectZumoHit();
 124:main.c        **** void reportZumoHit();
 125:main.c        **** void wrestlingEnd();
 126:main.c        **** void chaseObject();
 127:main.c        **** float turnToCenter();
 128:main.c        **** void goToCenter();
 129:main.c        **** void goToCenterTest();
 130:main.c        **** TickType_t respondToHit();
 131:main.c        **** 
 132:main.c        **** void startComponents();
 133:main.c        **** void moveToStartLineAndWait();
 134:main.c        **** TickType_t startLineFollowing();
 135:main.c        **** void moveToFinishLine();
 136:main.c        **** void reportMQTT();
 137:main.c        **** 
 138:main.c        **** void accTest();
 139:main.c        **** void refTest();
 140:main.c        **** void irTest();
 141:main.c        **** void mqttTest();
 142:main.c        **** void irMsgTest();
 143:main.c        **** void mazeSolver2000();
 144:main.c        **** void moveToNextIntersection();
ARM GAS  C:\Users\samue\AppData\Local\Temp\ccm0rw4c.s 			page 4


 145:main.c        **** void mazeMain();
 146:main.c        **** void followLine2();
 147:main.c        **** 
 148:main.c        **** void zmain(void){
 149:main.c        ****   /*
 150:main.c        ****   ======== Robot projects ========
 151:main.c        ****   rp_sumoWrestling();
 152:main.c        ****   rp_lineFollower();
 153:main.c        ****   rp_maze();
 154:main.c        ****     
 155:main.c        ****   =========== Testing: ===========
 156:main.c        ****   accTest();
 157:main.c        ****   refTest();
 158:main.c        ****   irTest();
 159:main.c        ****   mqttTest();
 160:main.c        ****   irMsgTest();
 161:main.c        ****   */
 162:main.c        ****     
 163:main.c        ****   // COPY A FUNCTION YOU WANT TO BE EXECUTED (FROM THE LIST ABOVE) UNDER HERE:
 164:main.c        ****   //rp_lineFollower();
 165:main.c        ****   // rp_sumoWrestling();
 166:main.c        ****   // chaseObject();
 167:main.c        ****   rp_sumoWrestling();
 168:main.c        **** 
 169:main.c        ****  /*
 170:main.c        ****   // == BUTTON PRESS TESTING ==
 171:main.c        ****   TickType_t start = xTaskGetTickCount();
 172:main.c        ****   struct accData_ data;
 173:main.c        ****   LSM303D_Start();
 174:main.c        **** 
 175:main.c        ****   while(true){
 176:main.c        ****     while(SW1_Read()){};
 177:main.c        ****     print_mqtt("Zumo035/start","",1);
 178:main.c        ****     vTaskDelay(500);
 179:main.c        ****     motor_start();
 180:main.c        ****     motor_forward(50,0);
 181:main.c        ****     while(true){//xTaskGetTickCount() - start < 10000
 182:main.c        ****       LSM303D_Read_Acc(&data);
 183:main.c        ****       if(data.accX < -2000){
 184:main.c        ****         break;
 185:main.c        ****       }
 186:main.c        ****       //print_mqtt("Zumo035/bump","%d %d",data.accX,data.accY);
 187:main.c        **** 
 188:main.c        ****     }
 189:main.c        ****     motor_forward(0,0);
 190:main.c        ****     motor_stop();
 191:main.c        ****   }
 192:main.c        **** */
 193:main.c        **** 
 194:main.c        ****   /*[[[[[FOR YOUR OWN SAFETY, DO NOT REMOVE THIS]]]]]
 195:main.c        ****     [[[[[[[[[*/while(true)vTaskDelay(200);/*]]]]]]]]]
 196:main.c        ****     [[[[[[[[[THANK YOU FOR YOUR CO-OPERATION]]]]]]]]]*/
 197:main.c        **** }
 198:main.c        **** 
 199:main.c        **** /*////////////////////////////// Robot projects \\\\\\\\\\\\\\\\\\\\\\\\\\\\\\*\
 200:main.c        **** --------------------------------- MQTT topics ----------------------------------
 201:main.c        **** Each robot has a unique serial number. The serial number is on a sticker on the 
ARM GAS  C:\Users\samue\AppData\Local\Temp\ccm0rw4c.s 			page 5


 202:main.c        **** battery box cover. The serial number is “Zumo” and three digits, for example 
 203:main.c        **** Zumo018. The robot serial number must be used as the top-level topic on all data
 204:main.c        **** that the robot publishes to the broker. Do not use spaces in the top-level 
 205:main.c        **** topic. Subtopics to use depend on the project in question. See project 
 206:main.c        **** descriptions for details on what to send.
 207:main.c        **** 
 208:main.c        **** All data must be sent as text without linefeeds. If you send multiple values 
 209:main.c        **** separate them with spaces. MQTT is a packet protocol so there is no need to send
 210:main.c        **** linefeeds with the data. Sending linefeeds in the competition is considered an 
 211:main.c        **** error that lowers your project grade.
 212:main.c        **** 
 213:main.c        **** ================================ Sumo wrestling ================================
 214:main.c        **** Robot must drive along the line to the edge of the sumo ring and wait for start 
 215:main.c        **** signal. The start signal is given with an IR remote. Three robots wrestle at a 
 216:main.c        **** time and one starting place is left empty at random. The robot tries to push 
 217:main.c        **** other robots out of the ring. The last robot in the ring is the winner. Robot is
 218:main.c        **** considered to be out of the ring if the back wheels cross the line. Instructors 
 219:main.c        **** will judge who is out and who is not.
 220:main.c        **** 
 221:main.c        **** \                                     /
 222:main.c        ****   \          __---------__          /
 223:main.c        ****     \    _ --             -- _    /
 224:main.c        ****       \ /                     \ /
 225:main.c        ****       /                         \
 226:main.c        ****     /                             \
 227:main.c        ****    |                               |
 228:main.c        ****   |                                 |
 229:main.c        ****  |                                   |
 230:main.c        ****  |                                   |      Start:
 231:main.c        ****  |                                   |    / Robot drives to the edge of
 232:main.c        ****  |                                   |   /  the ring and waits for a start
 233:main.c        ****   |                                 |   /   signal. The start signal is
 234:main.c        ****    |                               |   /    given with an IR remote
 235:main.c        ****     \                             /   /
 236:main.c        ****       \                         /    /
 237:main.c        ****       / \_                   _/ \   /
 238:main.c        ****     /      --__         __--      \/
 239:main.c        ****   /            ---------            \
 240:main.c        **** /                                     \
 241:main.c        **** 
 242:main.c        **** Robot must send the following data over MQTT connection:
 243:main.c        **** - Ready indicator when robot stops on the start line and starts to wait for IR 
 244:main.c        ****   start signal:
 245:main.c        ****  > Subtopic: ready
 246:main.c        ****  > Data: “zumo”
 247:main.c        **** - Start time (systick based time stamp = number of milliseconds since the robot 
 248:main.c        ****   code started)
 249:main.c        ****  > Subtopic: start
 250:main.c        **** - Stop time (when the user button is pressed robot stops and sends stop time 
 251:main.c        ****   stamp)
 252:main.c        ****  > Subtopic: stop
 253:main.c        **** - Run time (from start to finish, number of milliseconds between start and stop)
 254:main.c        ****  > Subtopic: time
 255:main.c        **** - Timestamp of each hit it gets (or gives)
 256:main.c        ****  > Subtopic: hit
 257:main.c        ****  > Bonus (optional): send also the direction of the hit (calculate hit angle)
 258:main.c        **** 
ARM GAS  C:\Users\samue\AppData\Local\Temp\ccm0rw4c.s 			page 6


 259:main.c        ****                                                _   _                 0       
 260:main.c        **** For example, Zumo028 sends:                _ -|_|-|_|- _             |      45
 261:main.c        **** Zumo028/ready zumo  Zumo028/ready zumo    | |'-|-|-|-'| |         _ -+- _  /
 262:main.c        **** Zumo028/start 2301  Zumo028/start 2301    | |' | _ | '| |       /    |   /\
 263:main.c        **** Zumo028/hit 3570    Zumo028/hit 3570 75   | |' ||_|| '| |      |     | /   |
 264:main.c        **** Zumo028/hit 4553    Zumo028/hit 4553 185  | |' | o | '| | 270-|------+------|-90
 265:main.c        **** Zumo028/hit 4988    Zumo028/hit 4988 25   |_|'-|. .|-'|_|      |   / |     |
 266:main.c        **** Zumo028/stop 5210   Zumo028/stop 5210 \     |__|---|__|         \/_  |  _ /
 267:main.c        **** Zumo028/time 2909   Zumo028/time 2909  \       |_-_|           /    -+- 
 268:main.c        ****      /              (with hit angles)   \       |_|         225      |
 269:main.c        ****     /                                    \                          180
 270:main.c        ****    /                                      \
 271:main.c        **** This is topic/subtopic. It will be   This is data. The space between topic and 
 272:main.c        **** displayed automatically in the log   data is added automatically in the log. Use 
 273:main.c        ****                                      spaces only to separate data values if you 
 274:main.c        ****                                      send multiple values.
 275:main.c        **** --------------------------------------------------------------------------------
 276:main.c        **** TEAM'S NOTES ABOUT THE PROJECT:
 277:main.c        **** - When calculating the hit direction in XY-plane, we can completely ignore Z-
 278:main.c        ****   values of accelerometer (it's only [slightly] relevant when calculating hit
 279:main.c        ****   force). For direction calculation we use arc tangent and convert radians to
 280:main.c        ****   degrees we multiply by 180 / PI. We also need to have an if-statement, because
 281:main.c        ****   if Y-value is negative, 180 degrees needs to be added to the hit angle. 
 282:main.c        ****   <math.h> needs to be included for atan() and PI defined for, well, pi... of
 283:main.c        ****   course we could use precalculated 180/3.14159265358979323846, but for clarity
 284:main.c        ****   we use defined PI here.
 285:main.c        **** 
 286:main.c        ****   1| float hitAngle = atan(y / x) * 180 / PI;
 287:main.c        ****   2| if(y < 0){
 288:main.c        ****   3|   hitAngle += 180;
 289:main.c        ****   4| }
 290:main.c        **** 
 291:main.c        **** Applications for sensors:
 292:main.c        **** ULTRASONIC:
 293:main.c        **** - Detect opponents.
 294:main.c        **** - Spinning and using ultrasonic sensor could be used as a "radar" and act based
 295:main.c        ****   on it. Here are some thoughts:
 296:main.c        ****   1) lock on an opponent when one is detected
 297:main.c        ****   2) dodge at the last moment when an opponent advances
 298:main.c        ****   3) track number of opponents left
 299:main.c        **** 
 300:main.c        **** ACCELEROMETER:
 301:main.c        **** - Detect hits and calculate hit directions.
 302:main.c        **** 
 303:main.c        **** GROUND SENSORS:
 304:main.c        **** - Detect edge of the ring.
 305:main.c        **** 
 306:main.c        **** --------------------------------------------------------------------------------
 307:main.c        **** */
 308:main.c        **** 
 309:main.c        **** void rp_sumoWrestling(){
 310:main.c        ****   struct sensors_ ref, dig = {0,0,0,0,0,0};
 311:main.c        ****   struct accData_ acc      = {0,0,0};
 312:main.c        ****   TickType_t start         = 0;
 313:main.c        ****   TickType_t lastHitTime   = 0;
 314:main.c        ****   TickType_t dodgeEndTime  = INFINITY;
 315:main.c        ****   TickType_t atCenterTime  = INFINITY;
ARM GAS  C:\Users\samue\AppData\Local\Temp\ccm0rw4c.s 			page 7


 316:main.c        ****   bool runningToEdge       = false;
 317:main.c        ****   bool headedForCenter     = false;
 318:main.c        ****   bool atCenter            = false;
 319:main.c        ****   bool enemyDetected       = false;
 320:main.c        ****   int hit                  = 361;
 321:main.c        ****   int defSpeed             = 200;
 322:main.c        ****   int atkSpeed             = 255;
 323:main.c        **** 
 324:main.c        ****   startComponents("zumo");  
 325:main.c        ****   moveToStartLineAndWait("zumo",dig);
 326:main.c        ****   start = startWrestling(dig);
 327:main.c        ****   while(SW1_Read()){
 328:main.c        ****     hit = detectZumoHit(acc);
 329:main.c        ****     
 330:main.c        ****     if(hit<361.0 && xTaskGetTickCount() - lastHitTime > 200 && !enemyDetected){
 331:main.c        ****       if(headedForCenter){
 332:main.c        ****         headedForCenter = false;
 333:main.c        ****         runningToEdge = true;
 334:main.c        ****         motor_forward(defSpeed,0);
 335:main.c        ****       }
 336:main.c        ****       if(!runningToEdge){
 337:main.c        ****         dodgeEndTime = respondToHit(hit);
 338:main.c        ****       }
 339:main.c        ****       reportZumoHit(hit);
 340:main.c        ****       lastHitTime = xTaskGetTickCount();
 341:main.c        ****       hit = 361.0;
 342:main.c        ****     }
 343:main.c        ****     
 344:main.c        ****     if(dodgeEndTime < xTaskGetTickCount()){
 345:main.c        ****       atCenter = false;
 346:main.c        ****       if(Ultra_GetDistance() < 10){
 347:main.c        ****         enemyDetected = true;
 348:main.c        ****         motor_forward(atkSpeed,0);
 349:main.c        ****       } else {
 350:main.c        ****         runningToEdge = true;
 351:main.c        ****         motor_forward(defSpeed,0);
 352:main.c        ****       }
 353:main.c        ****       dodgeEndTime = INFINITY;
 354:main.c        ****     }
 355:main.c        ****     
 356:main.c        ****     if(enemyDetected){
 357:main.c        ****       while(Ultra_GetDistance() < 15 && blackSensors(dig) < 2){
 358:main.c        ****         vTaskDelay(20);
 359:main.c        ****       }
 360:main.c        ****       enemyDetected = false;
 361:main.c        ****       runningToEdge = true;
 362:main.c        ****       motor_forward(defSpeed,0);
 363:main.c        ****     }
 364:main.c        ****     
 365:main.c        ****     if(blackSensors(dig) > 1){
 366:main.c        ****       while(turnToCenter(ref)>100&&blackSensors(dig)>0&&blackSensors(dig)<6){};
 367:main.c        ****       runningToEdge = false;
 368:main.c        ****       headedForCenter = true;
 369:main.c        ****       atCenterTime = xTaskGetTickCount() + 1500; // adjust
 370:main.c        ****       motor_backward(defSpeed,0);
 371:main.c        ****     } else if(atCenterTime < xTaskGetTickCount()){
 372:main.c        ****       runningToEdge = false;
ARM GAS  C:\Users\samue\AppData\Local\Temp\ccm0rw4c.s 			page 8


 373:main.c        ****       headedForCenter = false;
 374:main.c        ****       atCenter = true;
 375:main.c        ****       atCenterTime = INFINITY;
 376:main.c        ****       tankTurn(150,1);
 377:main.c        ****     } else if(atCenter && Ultra_GetDistance() < 10){
 378:main.c        ****       enemyDetected = true;
 379:main.c        ****       atCenter = false;
 380:main.c        ****       motor_forward(atkSpeed,0);
 381:main.c        ****     }
 382:main.c        ****   }
 383:main.c        ****   wrestlingEnd(start);
 384:main.c        **** }
 385:main.c        **** 
 386:main.c        **** 
 387:main.c        **** 
 388:main.c        **** void goToCenter(struct sensors_ dig, struct sensors_ ref){
 389:main.c        ****     while(turnToCenter(ref)>100&&blackSensors(dig)>0&&blackSensors(dig)<6){};
 390:main.c        ****     motor_backward(150,500);
 391:main.c        ****     turn90deg(0);
 392:main.c        ****     turn90deg(0);
 393:main.c        ****     motor_forward(150,0);
 394:main.c        **** }
 395:main.c        **** 
 396:main.c        **** void goToCenterTest(){
 397:main.c        ****   struct sensors_ ref, dig;
 398:main.c        ****   startComponents("zumo");
 399:main.c        ****   IR_wait();
 400:main.c        ****   motor_forward(150,0);
 401:main.c        ****   while(true){
 402:main.c        ****     if(blackSensors(dig) > 1){
 403:main.c        ****       while(turnToCenter(ref)>50&&blackSensors(dig)>0&&blackSensors(dig)<6){};
 404:main.c        ****       motor_backward(150,1000);
 405:main.c        ****       tankTurn(200,0);
 406:main.c        ****       vTaskDelay(200);
 407:main.c        ****       motor_forward(150,0);
 408:main.c        ****     }
 409:main.c        ****   }
 410:main.c        **** }
 411:main.c        **** 
 412:main.c        **** void goToCenter2(){ // struct sensors_ dig, struct sensors_ ref
 413:main.c        ****   struct sensors_ ref, dig;
 414:main.c        ****   startComponents("zumo");
 415:main.c        ****   IR_wait();
 416:main.c        ****   while(true){
 417:main.c        ****     motor_forward(150,0);
 418:main.c        ****     reflectance_digital(&dig);
 419:main.c        ****     while(!(dig.l3|dig.l2|dig.l1|dig.r1|dig.r2|dig.r3)){
 420:main.c        ****       reflectance_digital(&dig);
 421:main.c        ****     };
 422:main.c        ****     while(turnToCenter(ref)>100&&blackSensors(dig)>0&&blackSensors(dig)<6){};
 423:main.c        ****     motor_backward(150,500);
 424:main.c        ****     turn90deg(0);
 425:main.c        ****     turn90deg(0);
 426:main.c        ****     motor_forward(150,0);
 427:main.c        ****   }
 428:main.c        **** }
 429:main.c        **** 
ARM GAS  C:\Users\samue\AppData\Local\Temp\ccm0rw4c.s 			page 9


 430:main.c        **** TickType_t respondToHit(int hit){
  28              		.loc 1 430 0
  29              		.cfi_startproc
  30              		@ args = 0, pretend = 0, frame = 0
  31              		@ frame_needed = 0, uses_anonymous_args = 0
  32              	.LVL0:
  33 0000 38B5     		push	{r3, r4, r5, lr}
  34              		.cfi_def_cfa_offset 16
  35              		.cfi_offset 3, -16
  36              		.cfi_offset 4, -12
  37              		.cfi_offset 5, -8
  38              		.cfi_offset 14, -4
  39 0002 0446     		mov	r4, r0
 431:main.c        ****   TickType_t dodgeStart = xTaskGetTickCount();
  40              		.loc 1 431 0
  41 0004 FFF7FEFF 		bl	xTaskGetTickCount
  42              	.LVL1:
  43 0008 0546     		mov	r5, r0
  44              	.LVL2:
 432:main.c        ****   int delay = 0;
 433:main.c        ****   if(hit<45){
  45              		.loc 1 433 0
  46 000a 2C2C     		cmp	r4, #44
  47 000c 0BDC     		bgt	.L2
 434:main.c        ****     motor_backward(0,0);
  48              		.loc 1 434 0
  49 000e 0021     		movs	r1, #0
  50 0010 0846     		mov	r0, r1
  51              	.LVL3:
  52 0012 FFF7FEFF 		bl	motor_backward
  53              	.LVL4:
 435:main.c        ****     motor_turn(255,50,0);
  54              		.loc 1 435 0
  55 0016 0022     		movs	r2, #0
  56 0018 3221     		movs	r1, #50
  57 001a FF20     		movs	r0, #255
  58 001c FFF7FEFF 		bl	motor_turn
  59              	.LVL5:
 436:main.c        ****     delay = 500;
  60              		.loc 1 436 0
  61 0020 4FF4FA70 		mov	r0, #500
  62 0024 65E0     		b	.L3
  63              	.LVL6:
  64              	.L2:
 437:main.c        ****   } else if (hit<90){
  65              		.loc 1 437 0
  66 0026 592C     		cmp	r4, #89
  67 0028 0BDC     		bgt	.L4
 438:main.c        ****     motor_backward(0,0);
  68              		.loc 1 438 0
  69 002a 0021     		movs	r1, #0
  70 002c 0846     		mov	r0, r1
  71              	.LVL7:
  72 002e FFF7FEFF 		bl	motor_backward
  73              	.LVL8:
 439:main.c        ****     motor_turn(255,50,0);
  74              		.loc 1 439 0
ARM GAS  C:\Users\samue\AppData\Local\Temp\ccm0rw4c.s 			page 10


  75 0032 0022     		movs	r2, #0
  76 0034 3221     		movs	r1, #50
  77 0036 FF20     		movs	r0, #255
  78 0038 FFF7FEFF 		bl	motor_turn
  79              	.LVL9:
 440:main.c        ****     delay = 350;
  80              		.loc 1 440 0
  81 003c 4FF4AF70 		mov	r0, #350
  82 0040 57E0     		b	.L3
  83              	.LVL10:
  84              	.L4:
 441:main.c        ****   } else if (hit<135){
  85              		.loc 1 441 0
  86 0042 862C     		cmp	r4, #134
  87 0044 0BDC     		bgt	.L5
 442:main.c        ****     motor_forward(0,0);
  88              		.loc 1 442 0
  89 0046 0021     		movs	r1, #0
  90 0048 0846     		mov	r0, r1
  91              	.LVL11:
  92 004a FFF7FEFF 		bl	motor_forward
  93              	.LVL12:
 443:main.c        ****     motor_turn(255,50,0);
  94              		.loc 1 443 0
  95 004e 0022     		movs	r2, #0
  96 0050 3221     		movs	r1, #50
  97 0052 FF20     		movs	r0, #255
  98 0054 FFF7FEFF 		bl	motor_turn
  99              	.LVL13:
 444:main.c        ****     delay = 400;
 100              		.loc 1 444 0
 101 0058 4FF4C870 		mov	r0, #400
 102 005c 49E0     		b	.L3
 103              	.LVL14:
 104              	.L5:
 445:main.c        ****   } else if (hit<180){
 105              		.loc 1 445 0
 106 005e B32C     		cmp	r4, #179
 107 0060 0BDC     		bgt	.L6
 446:main.c        ****     motor_forward(0,0);
 108              		.loc 1 446 0
 109 0062 0021     		movs	r1, #0
 110 0064 0846     		mov	r0, r1
 111              	.LVL15:
 112 0066 FFF7FEFF 		bl	motor_forward
 113              	.LVL16:
 447:main.c        ****     motor_turn(255,50,0);
 114              		.loc 1 447 0
 115 006a 0022     		movs	r2, #0
 116 006c 3221     		movs	r1, #50
 117 006e FF20     		movs	r0, #255
 118 0070 FFF7FEFF 		bl	motor_turn
 119              	.LVL17:
 448:main.c        ****     delay = 500;
 120              		.loc 1 448 0
 121 0074 4FF4FA70 		mov	r0, #500
 122 0078 3BE0     		b	.L3
ARM GAS  C:\Users\samue\AppData\Local\Temp\ccm0rw4c.s 			page 11


 123              	.LVL18:
 124              	.L6:
 449:main.c        ****   } else if (hit<225){
 125              		.loc 1 449 0
 126 007a E02C     		cmp	r4, #224
 127 007c 0BDC     		bgt	.L7
 450:main.c        ****     motor_forward(0,0);
 128              		.loc 1 450 0
 129 007e 0021     		movs	r1, #0
 130 0080 0846     		mov	r0, r1
 131              	.LVL19:
 132 0082 FFF7FEFF 		bl	motor_forward
 133              	.LVL20:
 451:main.c        ****     motor_turn(50,255,0);
 134              		.loc 1 451 0
 135 0086 0022     		movs	r2, #0
 136 0088 FF21     		movs	r1, #255
 137 008a 3220     		movs	r0, #50
 138 008c FFF7FEFF 		bl	motor_turn
 139              	.LVL21:
 452:main.c        ****     delay = 500;
 140              		.loc 1 452 0
 141 0090 4FF4FA70 		mov	r0, #500
 142 0094 2DE0     		b	.L3
 143              	.LVL22:
 144              	.L7:
 453:main.c        ****   } else if (hit<270){
 145              		.loc 1 453 0
 146 0096 B4F5877F 		cmp	r4, #270
 147 009a 0BDA     		bge	.L8
 454:main.c        ****     motor_forward(0,0);
 148              		.loc 1 454 0
 149 009c 0021     		movs	r1, #0
 150 009e 0846     		mov	r0, r1
 151              	.LVL23:
 152 00a0 FFF7FEFF 		bl	motor_forward
 153              	.LVL24:
 455:main.c        ****     motor_turn(50,255,0);
 154              		.loc 1 455 0
 155 00a4 0022     		movs	r2, #0
 156 00a6 FF21     		movs	r1, #255
 157 00a8 3220     		movs	r0, #50
 158 00aa FFF7FEFF 		bl	motor_turn
 159              	.LVL25:
 456:main.c        ****     delay = 400;
 160              		.loc 1 456 0
 161 00ae 4FF4C870 		mov	r0, #400
 162 00b2 1EE0     		b	.L3
 163              	.LVL26:
 164              	.L8:
 457:main.c        ****   } else if (hit<315){
 165              		.loc 1 457 0
 166 00b4 B4F59D7F 		cmp	r4, #314
 167 00b8 0BDC     		bgt	.L9
 458:main.c        ****     motor_backward(0,0);
 168              		.loc 1 458 0
 169 00ba 0021     		movs	r1, #0
ARM GAS  C:\Users\samue\AppData\Local\Temp\ccm0rw4c.s 			page 12


 170 00bc 0846     		mov	r0, r1
 171              	.LVL27:
 172 00be FFF7FEFF 		bl	motor_backward
 173              	.LVL28:
 459:main.c        ****     motor_turn(50,255,0);
 174              		.loc 1 459 0
 175 00c2 0022     		movs	r2, #0
 176 00c4 FF21     		movs	r1, #255
 177 00c6 3220     		movs	r0, #50
 178 00c8 FFF7FEFF 		bl	motor_turn
 179              	.LVL29:
 460:main.c        ****     delay = 350;
 180              		.loc 1 460 0
 181 00cc 4FF4AF70 		mov	r0, #350
 182 00d0 0FE0     		b	.L3
 183              	.LVL30:
 184              	.L9:
 461:main.c        ****   } else if (hit<360){
 185              		.loc 1 461 0
 186 00d2 B4F5B47F 		cmp	r4, #360
 187 00d6 0BDA     		bge	.L10
 462:main.c        ****     motor_backward(0,0);
 188              		.loc 1 462 0
 189 00d8 0021     		movs	r1, #0
 190 00da 0846     		mov	r0, r1
 191              	.LVL31:
 192 00dc FFF7FEFF 		bl	motor_backward
 193              	.LVL32:
 463:main.c        ****     motor_turn(50,255,0);
 194              		.loc 1 463 0
 195 00e0 0022     		movs	r2, #0
 196 00e2 FF21     		movs	r1, #255
 197 00e4 3220     		movs	r0, #50
 198 00e6 FFF7FEFF 		bl	motor_turn
 199              	.LVL33:
 464:main.c        ****     delay = 500;
 200              		.loc 1 464 0
 201 00ea 4FF4FA70 		mov	r0, #500
 202 00ee 00E0     		b	.L3
 203              	.LVL34:
 204              	.L10:
 432:main.c        ****   if(hit<45){
 205              		.loc 1 432 0
 206 00f0 0020     		movs	r0, #0
 207              	.LVL35:
 208              	.L3:
 465:main.c        ****   }
 466:main.c        ****   return dodgeStart + delay;
 467:main.c        **** }
 209              		.loc 1 467 0
 210 00f2 2844     		add	r0, r0, r5
 211              	.LVL36:
 212 00f4 38BD     		pop	{r3, r4, r5, pc}
 213              		.cfi_endproc
 214              	.LFE90:
 215              		.size	respondToHit, .-respondToHit
 216              		.global	__aeabi_i2d
ARM GAS  C:\Users\samue\AppData\Local\Temp\ccm0rw4c.s 			page 13


 217              		.global	__aeabi_dadd
 218              		.global	__aeabi_dcmpgt
 219              		.global	__aeabi_ddiv
 220              		.global	__aeabi_dmul
 221              		.global	__aeabi_d2iz
 222 00f6 00BF     		.section	.text.detectZumoHit,"ax",%progbits
 223              		.align	2
 224              		.global	detectZumoHit
 225              		.thumb
 226              		.thumb_func
 227              		.type	detectZumoHit, %function
 228              	detectZumoHit:
 229              	.LFB92:
 468:main.c        **** 
 469:main.c        **** TickType_t startWrestling(struct sensors_ dig){
 470:main.c        ****   TickType_t start = xTaskGetTickCount();
 471:main.c        ****   print_mqtt("Zumo035/start","%d",start);
 472:main.c        ****   reportMQTT("start",start);
 473:main.c        ****   motor_forward(50,0);
 474:main.c        ****   while(overLine(dig)){};
 475:main.c        ****   return start;
 476:main.c        **** }
 477:main.c        **** 
 478:main.c        **** int detectZumoHit(struct accData_ acc){
 230              		.loc 1 478 0
 231              		.cfi_startproc
 232              		@ args = 0, pretend = 0, frame = 8
 233              		@ frame_needed = 0, uses_anonymous_args = 0
 234 0000 F0B5     		push	{r4, r5, r6, r7, lr}
 235              		.cfi_def_cfa_offset 20
 236              		.cfi_offset 4, -20
 237              		.cfi_offset 5, -16
 238              		.cfi_offset 6, -12
 239              		.cfi_offset 7, -8
 240              		.cfi_offset 14, -4
 241 0002 83B0     		sub	sp, sp, #12
 242              		.cfi_def_cfa_offset 32
 243 0004 8DE80300 		stmia	sp, {r0, r1}
 244              	.LVL37:
 479:main.c        ****   double hit = 361.0;
 480:main.c        ****   LSM303D_Read_Acc(&acc);
 245              		.loc 1 480 0
 246 0008 6846     		mov	r0, sp
 247 000a FFF7FEFF 		bl	LSM303D_Read_Acc
 248              	.LVL38:
 481:main.c        ****   if(sqrt(pow(acc.accX,2.0)+pow(acc.accY,2.0)) > 6000.0){
 249              		.loc 1 481 0
 250 000e 0026     		movs	r6, #0
 251 0010 4FF08047 		mov	r7, #1073741824
 252 0014 BDF90000 		ldrsh	r0, [sp]
 253 0018 FFF7FEFF 		bl	__aeabi_i2d
 254              	.LVL39:
 255 001c 3246     		mov	r2, r6
 256 001e 3B46     		mov	r3, r7
 257 0020 FFF7FEFF 		bl	pow
 258              	.LVL40:
 259 0024 0446     		mov	r4, r0
ARM GAS  C:\Users\samue\AppData\Local\Temp\ccm0rw4c.s 			page 14


 260 0026 0D46     		mov	r5, r1
 261 0028 BDF90200 		ldrsh	r0, [sp, #2]
 262 002c FFF7FEFF 		bl	__aeabi_i2d
 263              	.LVL41:
 264 0030 3246     		mov	r2, r6
 265 0032 3B46     		mov	r3, r7
 266 0034 FFF7FEFF 		bl	pow
 267              	.LVL42:
 268 0038 0646     		mov	r6, r0
 269 003a 0F46     		mov	r7, r1
 270 003c 3246     		mov	r2, r6
 271 003e 3B46     		mov	r3, r7
 272 0040 2046     		mov	r0, r4
 273 0042 2946     		mov	r1, r5
 274 0044 FFF7FEFF 		bl	__aeabi_dadd
 275              	.LVL43:
 276 0048 FFF7FEFF 		bl	sqrt
 277              	.LVL44:
 278 004c 18A3     		adr	r3, .L19
 279 004e D3E90023 		ldrd	r2, [r3]
 280 0052 FFF7FEFF 		bl	__aeabi_dcmpgt
 281              	.LVL45:
 282 0056 10B3     		cbz	r0, .L17
 482:main.c        ****     hit = atan((double)acc.accX/(double)acc.accY)*57.29577951308232+90.0;
 283              		.loc 1 482 0
 284 0058 BDF90000 		ldrsh	r0, [sp]
 285 005c FFF7FEFF 		bl	__aeabi_i2d
 286              	.LVL46:
 287 0060 0646     		mov	r6, r0
 288 0062 0F46     		mov	r7, r1
 289 0064 BDF90240 		ldrsh	r4, [sp, #2]
 290 0068 2046     		mov	r0, r4
 291 006a FFF7FEFF 		bl	__aeabi_i2d
 292              	.LVL47:
 293 006e 0246     		mov	r2, r0
 294 0070 0B46     		mov	r3, r1
 295 0072 3046     		mov	r0, r6
 296 0074 3946     		mov	r1, r7
 297 0076 FFF7FEFF 		bl	__aeabi_ddiv
 298              	.LVL48:
 299 007a FFF7FEFF 		bl	atan
 300              	.LVL49:
 301 007e 0EA3     		adr	r3, .L19+8
 302 0080 D3E90023 		ldrd	r2, [r3]
 303 0084 FFF7FEFF 		bl	__aeabi_dmul
 304              	.LVL50:
 305 0088 0022     		movs	r2, #0
 306 008a 0F4B     		ldr	r3, .L19+24
 307 008c FFF7FEFF 		bl	__aeabi_dadd
 308              	.LVL51:
 483:main.c        ****     if(acc.accY < 0){
 309              		.loc 1 483 0
 310 0090 002C     		cmp	r4, #0
 311 0092 07DA     		bge	.L13
 484:main.c        ****       hit += 180.0;
 312              		.loc 1 484 0
 313 0094 0022     		movs	r2, #0
ARM GAS  C:\Users\samue\AppData\Local\Temp\ccm0rw4c.s 			page 15


 314 0096 0D4B     		ldr	r3, .L19+28
 315 0098 FFF7FEFF 		bl	__aeabi_dadd
 316              	.LVL52:
 317 009c 02E0     		b	.L13
 318              	.LVL53:
 319              	.L17:
 479:main.c        ****   LSM303D_Read_Acc(&acc);
 320              		.loc 1 479 0
 321 009e 08A1     		adr	r1, .L19+16
 322 00a0 D1E90001 		ldrd	r0, [r1]
 323              	.LVL54:
 324              	.L13:
 485:main.c        ****     }
 486:main.c        ****   }
 487:main.c        ****   return (int)hit;
 325              		.loc 1 487 0
 326 00a4 FFF7FEFF 		bl	__aeabi_d2iz
 327              	.LVL55:
 488:main.c        **** }
 328              		.loc 1 488 0
 329 00a8 03B0     		add	sp, sp, #12
 330              		.cfi_def_cfa_offset 20
 331              		@ sp needed
 332 00aa F0BD     		pop	{r4, r5, r6, r7, pc}
 333              	.L20:
 334 00ac AFF30080 		.align	3
 335              	.L19:
 336 00b0 00000000 		.word	0
 337 00b4 0070B740 		.word	1085763584
 338 00b8 F8C1631A 		.word	442745336
 339 00bc DCA54C40 		.word	1078765020
 340 00c0 00000000 		.word	0
 341 00c4 00907640 		.word	1081511936
 342 00c8 00805640 		.word	1079410688
 343 00cc 00806640 		.word	1080459264
 344              		.cfi_endproc
 345              	.LFE92:
 346              		.size	detectZumoHit, .-detectZumoHit
 347              		.section	.text.reportZumoHit,"ax",%progbits
 348              		.align	2
 349              		.global	reportZumoHit
 350              		.thumb
 351              		.thumb_func
 352              		.type	reportZumoHit, %function
 353              	reportZumoHit:
 354              	.LFB93:
 489:main.c        **** 
 490:main.c        **** void reportZumoHit(int hitDir){
 355              		.loc 1 490 0
 356              		.cfi_startproc
 357              		@ args = 0, pretend = 0, frame = 0
 358              		@ frame_needed = 0, uses_anonymous_args = 0
 359              	.LVL56:
 360 0000 10B5     		push	{r4, lr}
 361              		.cfi_def_cfa_offset 8
 362              		.cfi_offset 4, -8
 363              		.cfi_offset 14, -4
ARM GAS  C:\Users\samue\AppData\Local\Temp\ccm0rw4c.s 			page 16


 364 0002 0446     		mov	r4, r0
 491:main.c        ****   print_mqtt("Zumo035/hit","%d %d",xTaskGetTickCount(), hitDir);
 365              		.loc 1 491 0
 366 0004 FFF7FEFF 		bl	xTaskGetTickCount
 367              	.LVL57:
 368 0008 2346     		mov	r3, r4
 369 000a 0246     		mov	r2, r0
 370 000c 0249     		ldr	r1, .L23
 371 000e 0348     		ldr	r0, .L23+4
 372 0010 FFF7FEFF 		bl	print_mqtt
 373              	.LVL58:
 374 0014 10BD     		pop	{r4, pc}
 375              	.LVL59:
 376              	.L24:
 377 0016 00BF     		.align	2
 378              	.L23:
 379 0018 00000000 		.word	.LC1
 380 001c 08000000 		.word	.LC2
 381              		.cfi_endproc
 382              	.LFE93:
 383              		.size	reportZumoHit, .-reportZumoHit
 384              		.section	.text.wrestlingEnd,"ax",%progbits
 385              		.align	2
 386              		.global	wrestlingEnd
 387              		.thumb
 388              		.thumb_func
 389              		.type	wrestlingEnd, %function
 390              	wrestlingEnd:
 391              	.LFB94:
 492:main.c        **** }
 493:main.c        **** 
 494:main.c        **** void wrestlingEnd(TickType_t start){
 392              		.loc 1 494 0
 393              		.cfi_startproc
 394              		@ args = 0, pretend = 0, frame = 0
 395              		@ frame_needed = 0, uses_anonymous_args = 0
 396              	.LVL60:
 397 0000 70B5     		push	{r4, r5, r6, lr}
 398              		.cfi_def_cfa_offset 16
 399              		.cfi_offset 4, -16
 400              		.cfi_offset 5, -12
 401              		.cfi_offset 6, -8
 402              		.cfi_offset 14, -4
 403 0002 0646     		mov	r6, r0
 495:main.c        ****   motor_forward(0,0);
 404              		.loc 1 495 0
 405 0004 0021     		movs	r1, #0
 406 0006 0846     		mov	r0, r1
 407              	.LVL61:
 408 0008 FFF7FEFF 		bl	motor_forward
 409              	.LVL62:
 496:main.c        ****   TickType_t stop = xTaskGetTickCount();
 410              		.loc 1 496 0
 411 000c FFF7FEFF 		bl	xTaskGetTickCount
 412              	.LVL63:
 413 0010 0546     		mov	r5, r0
 414              	.LVL64:
ARM GAS  C:\Users\samue\AppData\Local\Temp\ccm0rw4c.s 			page 17


 497:main.c        ****   print_mqtt("Zumo035/stop","%d",stop);
 415              		.loc 1 497 0
 416 0012 074C     		ldr	r4, .L27
 417 0014 0246     		mov	r2, r0
 418 0016 2146     		mov	r1, r4
 419 0018 0648     		ldr	r0, .L27+4
 420              	.LVL65:
 421 001a FFF7FEFF 		bl	print_mqtt
 422              	.LVL66:
 498:main.c        ****   motor_stop();
 423              		.loc 1 498 0
 424 001e FFF7FEFF 		bl	motor_stop
 425              	.LVL67:
 499:main.c        ****   print_mqtt("Zumo035/time","%d",stop-start);
 426              		.loc 1 499 0
 427 0022 AA1B     		subs	r2, r5, r6
 428 0024 2146     		mov	r1, r4
 429 0026 0448     		ldr	r0, .L27+8
 430 0028 FFF7FEFF 		bl	print_mqtt
 431              	.LVL68:
 432 002c 70BD     		pop	{r4, r5, r6, pc}
 433              	.LVL69:
 434              	.L28:
 435 002e 00BF     		.align	2
 436              	.L27:
 437 0030 14000000 		.word	.LC3
 438 0034 18000000 		.word	.LC4
 439 0038 28000000 		.word	.LC5
 440              		.cfi_endproc
 441              	.LFE94:
 442              		.size	wrestlingEnd, .-wrestlingEnd
 443              		.section	.text.chaseObject,"ax",%progbits
 444              		.align	2
 445              		.global	chaseObject
 446              		.thumb
 447              		.thumb_func
 448              		.type	chaseObject, %function
 449              	chaseObject:
 450              	.LFB95:
 500:main.c        **** }
 501:main.c        **** 
 502:main.c        **** void chaseObject(){
 451              		.loc 1 502 0
 452              		.cfi_startproc
 453              		@ args = 0, pretend = 0, frame = 0
 454              		@ frame_needed = 0, uses_anonymous_args = 0
 455 0000 08B5     		push	{r3, lr}
 456              		.cfi_def_cfa_offset 8
 457              		.cfi_offset 3, -8
 458              		.cfi_offset 14, -4
 503:main.c        ****   Ultra_Start();
 459              		.loc 1 503 0
 460 0002 FFF7FEFF 		bl	Ultra_Start
 461              	.LVL70:
 504:main.c        ****   motor_start();
 462              		.loc 1 504 0
 463 0006 FFF7FEFF 		bl	motor_start
ARM GAS  C:\Users\samue\AppData\Local\Temp\ccm0rw4c.s 			page 18


 464              	.LVL71:
 505:main.c        ****   IR_Start();
 465              		.loc 1 505 0
 466 000a FFF7FEFF 		bl	IR_Start
 467              	.LVL72:
 506:main.c        ****   IR_flush();
 468              		.loc 1 506 0
 469 000e FFF7FEFF 		bl	IR_flush
 470              	.LVL73:
 507:main.c        ****   IR_wait();
 471              		.loc 1 507 0
 472 0012 FFF7FEFF 		bl	IR_wait
 473              	.LVL74:
 474              	.L34:
 508:main.c        ****   TickType_t turnStart = 0;
 509:main.c        ****   while(true){
 510:main.c        ****     motor_forward(50,0);
 475              		.loc 1 510 0
 476 0016 0021     		movs	r1, #0
 477 0018 3220     		movs	r0, #50
 478 001a FFF7FEFF 		bl	motor_forward
 479              	.LVL75:
 511:main.c        ****     while(Ultra_GetDistance()<15){vTaskDelay(20);};
 480              		.loc 1 511 0
 481 001e 02E0     		b	.L30
 482              	.L31:
 483              		.loc 1 511 0 is_stmt 0 discriminator 2
 484 0020 1420     		movs	r0, #20
 485 0022 FFF7FEFF 		bl	vTaskDelay
 486              	.LVL76:
 487              	.L30:
 488              		.loc 1 511 0 discriminator 1
 489 0026 FFF7FEFF 		bl	Ultra_GetDistance
 490              	.LVL77:
 491 002a 0E28     		cmp	r0, #14
 492 002c F8DD     		ble	.L31
 512:main.c        ****     MotorDirLeft_Write(1);
 493              		.loc 1 512 0 is_stmt 1
 494 002e 0120     		movs	r0, #1
 495 0030 FFF7FEFF 		bl	MotorDirLeft_Write
 496              	.LVL78:
 513:main.c        ****     MotorDirRight_Write(0);
 497              		.loc 1 513 0
 498 0034 0020     		movs	r0, #0
 499 0036 FFF7FEFF 		bl	MotorDirRight_Write
 500              	.LVL79:
 514:main.c        ****     PWM_WriteCompare1(100);
 501              		.loc 1 514 0
 502 003a 6420     		movs	r0, #100
 503 003c FFF7FEFF 		bl	PWM_WriteCompare1
 504              	.LVL80:
 515:main.c        ****     PWM_WriteCompare2(100);
 505              		.loc 1 515 0
 506 0040 6420     		movs	r0, #100
 507 0042 FFF7FEFF 		bl	PWM_WriteCompare2
 508              	.LVL81:
 516:main.c        ****     while((Ultra_GetDistance()>15)){vTaskDelay(20);};
ARM GAS  C:\Users\samue\AppData\Local\Temp\ccm0rw4c.s 			page 19


 509              		.loc 1 516 0
 510 0046 02E0     		b	.L32
 511              	.L33:
 512              		.loc 1 516 0 is_stmt 0 discriminator 2
 513 0048 1420     		movs	r0, #20
 514 004a FFF7FEFF 		bl	vTaskDelay
 515              	.LVL82:
 516              	.L32:
 517              		.loc 1 516 0 discriminator 1
 518 004e FFF7FEFF 		bl	Ultra_GetDistance
 519              	.LVL83:
 520 0052 0F28     		cmp	r0, #15
 521 0054 F8DC     		bgt	.L33
 522 0056 DEE7     		b	.L34
 523              		.cfi_endproc
 524              	.LFE95:
 525              		.size	chaseObject, .-chaseObject
 526              		.section	.text.startComponents,"ax",%progbits
 527              		.align	2
 528              		.global	startComponents
 529              		.thumb
 530              		.thumb_func
 531              		.type	startComponents, %function
 532              	startComponents:
 533              	.LFB97:
 517:main.c        ****     //for(int i = 0; i<100; i++){
 518:main.c        ****       //turnStart = xTaskGetTickCount();
 519:main.c        ****      // motor_turn((i%2)*255,((i+1)%2)*255,0);
 520:main.c        ****      // while((Ultra_GetDistance()>35)){};
 521:main.c        ****       //if(Ultra_GetDistance()<35){
 522:main.c        ****        // break;
 523:main.c        ****      // }
 524:main.c        ****    // }
 525:main.c        ****     //printf("%d\n",thisTurn); (xTaskGetTickCount() - turnStart < (uint)i*20) && 
 526:main.c        ****   }
 527:main.c        **** }
 528:main.c        **** 
 529:main.c        **** /*============================== Line follower =================================
 530:main.c        **** Robot follows the black line using reflective sensors in the front of the robot.
 531:main.c        **** Track total length is about 10 meters. Robot has six reflective sensors. The 
 532:main.c        **** center sensors are used mainly to keep the robot on the track and side sensors 
 533:main.c        **** to detect intersections or tight curves on the track. The robot must follow the 
 534:main.c        **** start and stop rules stated below. The intersections are in a 90-degree angle on
 535:main.c        **** a straight line.
 536:main.c        **** 
 537:main.c        **** The competition track is 2 cm wide.
 538:main.c        **** 
 539:main.c        ****                                  _ ----- _
 540:main.c        ****                                /           \
 541:main.c        ****                               |          __/
 542:main.c        ****                              |        _--
 543:main.c        ****                               -_      \__
 544:main.c        ****                                 \     ___/
 545:main.c        ****                                 |    |___
 546:main.c        ****                                  |    ___|
 547:main.c        ****                                  |   /___
 548:main.c        **** Hint: Implement line            |      __/
ARM GAS  C:\Users\samue\AppData\Local\Temp\ccm0rw4c.s 			page 20


 549:main.c        **** following first. When your      |     |
 550:main.c        **** robot is able to follow        /       \
 551:main.c        **** the line then implement       |         |
 552:main.c        **** start and stop logic.         \         |
 553:main.c        ****                                 \    _   \
 554:main.c        ****                                  |  |  \  \
 555:main.c        ****                                 /   |  |   |
 556:main.c        ****                                /    |   \_ /
 557:main.c        ****                                \     |
 558:main.c        ****                                  \    \_
 559:main.c        ****                                   |    _|
 560:main.c        ****                                 /     /
 561:main.c        ****                               /      |
 562:main.c        ****                               \___   \
 563:main.c        ****                                   |   \_
 564:main.c        ****                              --__-      --__
 565:main.c        ****                             |               |
 566:main.c        ****                              \__        ____/
 567:main.c        ****          Finish:                 \     /_
 568:main.c        ****          Robot stops on the       |       -       Start:
 569:main.c        ****          second line.       \     |         \   / Robot drives to the line and
 570:main.c        ****                              \ ---+---       | /  waits on the line for a start
 571:main.c        ****                               \   |          |/   signal. The start signal is
 572:main.c        ****                                ---+---    ---+--- given with an IR remote
 573:main.c        ****                                   |          |                              
 574:main.c        **** 
 575:main.c        **** Robot must send the following data over MQTT connection:
 576:main.c        **** - Ready indicator when robot stops on the start line and starts to wait for IR 
 577:main.c        ****   start signal:
 578:main.c        ****  > Subtopic: ready
 579:main.c        ****  > Data: “line”
 580:main.c        **** - Start time (systick based time stamp = number of milliseconds since the robot 
 581:main.c        ****   code started)
 582:main.c        ****  > Subtopic: start
 583:main.c        **** - Stop time (when the robot stops on the finish line it sends stop time stamp)
 584:main.c        ****  > Subtopic: stop
 585:main.c        **** - Run time (from start to finish, number of milliseconds between start and stop)
 586:main.c        ****  > Subtopic: time
 587:main.c        **** - Bonus (optional):
 588:main.c        ****  - Timestamp if both centre sensors go off the track
 589:main.c        ****   > Subtopic: miss
 590:main.c        ****  - Timestamp when both centre sensors go back to the track after a miss
 591:main.c        ****   > Subtopic: line
 592:main.c        ****  - You must implement both timestamps to get a bonus
 593:main.c        **** 
 594:main.c        **** For example, Zumo028 sends:
 595:main.c        **** Zumo028/ready line  Zumo028/ready line
 596:main.c        **** Zumo028/start 1210  Zumo028/start 1210
 597:main.c        **** Zumo028/stop 54290  Zumo028/miss 7912
 598:main.c        **** Zumo028/time 53080  Zumo028/line 8012
 599:main.c        ****                     Zumo028/miss 32103
 600:main.c        ****                     Zumo028/line 32630
 601:main.c        ****                     Zumo028/miss 53223
 602:main.c        ****                     Zumo028/line 53933
 603:main.c        ****                     Zumo028/stop 54290
 604:main.c        ****                     Zumo028/time 53080
 605:main.c        **** --------------------------------------------------------------------------------
ARM GAS  C:\Users\samue\AppData\Local\Temp\ccm0rw4c.s 			page 21


 606:main.c        **** */
 607:main.c        **** 
 608:main.c        **** void rp_lineFollower(){
 609:main.c        ****   struct sensors_ ref, dig;
 610:main.c        ****   TickType_t start;
 611:main.c        ****   int line = 0;
 612:main.c        **** 
 613:main.c        ****   startComponents("line");  
 614:main.c        ****   moveToStartLineAndWait("line",dig);
 615:main.c        ****   start = startLineFollowing(dig);
 616:main.c        ****   while(!overLine(dig)){
 617:main.c        ****     line = followLine(ref,dig,line);
 618:main.c        ****   }
 619:main.c        ****   moveToFinishLine(start);
 620:main.c        **** }
 621:main.c        **** 
 622:main.c        **** void startComponents(char *project){
 534              		.loc 1 622 0 is_stmt 1
 535              		.cfi_startproc
 536              		@ args = 0, pretend = 0, frame = 0
 537              		@ frame_needed = 0, uses_anonymous_args = 0
 538              	.LVL84:
 539 0000 10B5     		push	{r4, lr}
 540              		.cfi_def_cfa_offset 8
 541              		.cfi_offset 4, -8
 542              		.cfi_offset 14, -4
 543 0002 82B0     		sub	sp, sp, #8
 544              		.cfi_def_cfa_offset 16
 545 0004 0446     		mov	r4, r0
 623:main.c        ****   IR_Start();
 546              		.loc 1 623 0
 547 0006 FFF7FEFF 		bl	IR_Start
 548              	.LVL85:
 624:main.c        ****   reflectance_start();
 549              		.loc 1 624 0
 550 000a FFF7FEFF 		bl	reflectance_start
 551              	.LVL86:
 625:main.c        ****   reflectance_set_threshold(9000, 9000, 11000, 11000, 9000, 9000);
 552              		.loc 1 625 0
 553 000e 42F22830 		movw	r0, #9000
 554 0012 0190     		str	r0, [sp, #4]
 555 0014 0090     		str	r0, [sp]
 556 0016 42F6F823 		movw	r3, #11000
 557 001a 1A46     		mov	r2, r3
 558 001c 0146     		mov	r1, r0
 559 001e FFF7FEFF 		bl	reflectance_set_threshold
 560              	.LVL87:
 626:main.c        ****   motor_start();
 561              		.loc 1 626 0
 562 0022 FFF7FEFF 		bl	motor_start
 563              	.LVL88:
 627:main.c        ****   if(strncmp(project,"line",4)){
 564              		.loc 1 627 0
 565 0026 0422     		movs	r2, #4
 566 0028 0549     		ldr	r1, .L39
 567 002a 2046     		mov	r0, r4
 568 002c FFF7FEFF 		bl	strncmp
ARM GAS  C:\Users\samue\AppData\Local\Temp\ccm0rw4c.s 			page 22


 569              	.LVL89:
 570 0030 18B1     		cbz	r0, .L36
 628:main.c        ****     LSM303D_Start();
 571              		.loc 1 628 0
 572 0032 FFF7FEFF 		bl	LSM303D_Start
 573              	.LVL90:
 629:main.c        ****     Ultra_Start();
 574              		.loc 1 629 0
 575 0036 FFF7FEFF 		bl	Ultra_Start
 576              	.LVL91:
 577              	.L36:
 630:main.c        ****   }
 631:main.c        **** }
 578              		.loc 1 631 0
 579 003a 02B0     		add	sp, sp, #8
 580              		.cfi_def_cfa_offset 8
 581              		@ sp needed
 582 003c 10BD     		pop	{r4, pc}
 583              	.LVL92:
 584              	.L40:
 585 003e 00BF     		.align	2
 586              	.L39:
 587 0040 38000000 		.word	.LC6
 588              		.cfi_endproc
 589              	.LFE97:
 590              		.size	startComponents, .-startComponents
 591              		.section	.text.reportMQTT,"ax",%progbits
 592              		.align	2
 593              		.global	reportMQTT
 594              		.thumb
 595              		.thumb_func
 596              		.type	reportMQTT, %function
 597              	reportMQTT:
 598              	.LFB105:
 632:main.c        **** 
 633:main.c        **** void moveToStartLineAndWait(char *project, struct sensors_ dig){
 634:main.c        ****   while(SW1_Read()){};
 635:main.c        ****   vTaskDelay(500);
 636:main.c        ****   motor_forward(50,0);
 637:main.c        ****   while(!overLine(dig)){};
 638:main.c        ****   motor_forward(0,0);
 639:main.c        ****   print_mqtt("Zumo035/ready","%s",project);
 640:main.c        ****   IR_wait();
 641:main.c        **** }
 642:main.c        **** 
 643:main.c        **** TickType_t startLineFollowing(struct sensors_ dig){
 644:main.c        ****   TickType_t start = xTaskGetTickCount();
 645:main.c        ****   print_mqtt("Zumo035/start","%d",start);
 646:main.c        ****   motor_forward(50,0);
 647:main.c        ****   while(overLine(dig)){};
 648:main.c        ****   return start;
 649:main.c        **** }
 650:main.c        **** 
 651:main.c        **** void moveToFinishLine(TickType_t start, struct sensors_ dig){
 652:main.c        ****   motor_forward(50,0);
 653:main.c        ****   while(overLine(dig)){};
 654:main.c        ****   while(!overLine(dig)){};
ARM GAS  C:\Users\samue\AppData\Local\Temp\ccm0rw4c.s 			page 23


 655:main.c        ****   TickType_t stop = xTaskGetTickCount();
 656:main.c        ****   print_mqtt("Zumo035/stop","%d",stop);
 657:main.c        ****   motor_stop();
 658:main.c        ****   print_mqtt("Zumo035/time","%d",stop-start);
 659:main.c        **** }
 660:main.c        **** 
 661:main.c        **** /*================================== Maze ======================================
 662:main.c        **** Robot finds a path through a grid by following lines and taking turns at 
 663:main.c        **** intersections to avoid obstacles.
 664:main.c        **** 
 665:main.c        ****                                                 End:
 666:main.c        ****                                               / Robot has run straight for a
 667:main.c        ****      0,13                                    /  while without seeing an
 668:main.c        ****           \ |                              |/   intersection
 669:main.c        ****            \|                              |     
 670:main.c        ****         +---+---+                      +---+---+
 671:main.c        ****         |   |   |                      |   |   |
 672:main.c        ****     +---+---+---+---+     0,5      +---+---+---+---+
 673:main.c        ****     |   |   |   |   |    /         |   |   |   |   |
 674:main.c        **** +---+---+---+---+---+---/      +---+---+---+---+---+---+
 675:main.c        **** |   |   |   |   |   |  /|      |   |   |   |   |   |   |  Obstacles:
 676:main.c        **** +---+---+---+---+---+-/-+      +---+---+---+---+---+---+/ There are three bricks
 677:main.c        **** |   |   |   |   |   |/  |      |  -------  |   |   |   /  at random locations
 678:main.c        **** +---+---+---+---+---/---+      +-|       |-+---+---+--/+
 679:main.c        **** |   |   |   |   |  /|   |      |  -------  |   |   | / |
 680:main.c        **** +---+---+---+---+-/-+---+      +---+---+---+---+---+/--+
 681:main.c        **** |   |   |   |   |/  |   |      |   |   |   |   |   /   |
 682:main.c        **** +---+---+---+---/---+---+      +---+---+---+---+--/+---+
 683:main.c        **** |   |   |   |  /|   |   |      |   |   |  -------/ |   |
 684:main.c        **** +---+---+---+-/-+---+---+      +---+---+-|       |-+---+  Start:
 685:main.c        **** |   |   |   |/  |   |   |      |   |   |  -------  |   |/ Robot drives to the
 686:main.c        **** +---+---+---+---+---+---+      +---+---+---+---+---+---/  line and waits on the
 687:main.c        **** |   |   |   |   |   |   |      |   |   |   |   |   |  /|  line for a start
 688:main.c        **** +---+---+---+---+---+---+      +---+---+---+---+---+-/-+  signal. The start
 689:main.c        **** |   |   |   |   |   |   |      |   |   |   |   |   |/  |  signal is given with
 690:main.c        **** +---+---+---+---+---+---+      +---+---+---+---+---/---+  an IR remote
 691:main.c        **** |   |   |   |   |   |   |      |   |  -------  |  /|   |
 692:main.c        **** +---+---+---+---+---+---+      +---+-|       |-+-/-+---+
 693:main.c        **** |  -3,0 |   |   |   |   |  3,0 |   |  -------  |/  |   |
 694:main.c        **** +-/-+---+---+---+---+---+ /    +---+---+---+---/---+---+
 695:main.c        **** |/  |   |   |   |   |   |/     |   |   |   |  /|   |   |
 696:main.c        **** +---+---+---+---+---+---+      +---+---+---+-/-+---+---+
 697:main.c        ****             |\                             |/
 698:main.c        ****          ---+-\-                        ---+---
 699:main.c        ****             |  0,0                         |
 700:main.c        **** 
 701:main.c        **** 
 702:main.c        ****             |                          |
 703:main.c        ****             |                          |
 704:main.c        ****         +---+---+                  +---+---+
 705:main.c        ****         |   |   |                  |   |   |           Obstacles:
 706:main.c        ****     +---+---+---+---+          +---+---+---+---+     / Never on the last full  
 707:main.c        ****     |   |   |   |   |          |   |   |   |   |    /  "row" or after that. 
 708:main.c        **** +---+---+---+---+---+---+  +---+---+---+---+---+---+
 709:main.c        **** |   |  ---  |   |   |   |  |   |   |   |  -------  |
 710:main.c        **** +---+-|   |-+---+---+---+  +---+---+---+-|       |-+
 711:main.c        **** |   | |   | |   |   |   |  |   |   |   |  -------  |
ARM GAS  C:\Users\samue\AppData\Local\Temp\ccm0rw4c.s 			page 24


 712:main.c        **** +---+-|   |-+---+---+---+  +---+---+---+---+---+---+
 713:main.c        **** |   |  ---  |   |   |   |  |   |   |   |   |   |   |
 714:main.c        **** +---+---+---+---+---+---+  +---+---+---+---+---+---+
 715:main.c        **** |   |   |   |   |   |   |  |   |   |   |   |   |   |
 716:main.c        **** +---+---+---+---+---+---+  +---+---+---+---+---+---+
 717:main.c        **** |   |   |  -------  |   |  |   |  -------  |   |   |
 718:main.c        **** +---+---+-|       |-+---+  +---+-|       |-+---+---+
 719:main.c        **** |   |   |  -------  |   |  |   |  -------  |   |   |
 720:main.c        **** +---+---+---+---+---+---+  +---+---+---+---+---+---+
 721:main.c        **** |   |   |   |   |   |   |  |   |   |   |   |   |   |
 722:main.c        **** +---+---+---+---+---+---+  +---+---+---+---+---+---+
 723:main.c        **** |   |   |   |   |   |   |  |   |  ---  |   |   |   |
 724:main.c        **** +---+---+---+---+---+---+  +---+-|   |-+---+---+---+
 725:main.c        **** |   |  -------  |   |   |  |   | |   | |   |   |   |
 726:main.c        **** +---+-|       |-+---+---+  +---+-|   |-+---+---+---+   Obstacles:
 727:main.c        **** |   |  -------  |   |   |  |   |  ---  |   |   |   | / Never on the first or
 728:main.c        **** +---+---+---+---+---+---+  +---+---+---+---+---+---+/  second "row"
 729:main.c        **** |   |   |   |   |   |   |  |   |   |   |   |   |   |
 730:main.c        **** +---+---+---+---+---+---+  +---+---+---+---+---+---+
 731:main.c        ****             |                          |
 732:main.c        ****          ---+---                    ---+---
 733:main.c        ****             |                          |   Bricks are never oriented diagonally.
 734:main.c        **** 
 735:main.c        **** Robot must send the following data over MQTT connection:
 736:main.c        **** - Ready indicator when robot stops on the start line and starts to wait for IR 
 737:main.c        ****   start signal:
 738:main.c        ****  > Subtopic: ready
 739:main.c        ****  > Data: “maze”
 740:main.c        **** - Start time (systick based time stamp = number of milliseconds since the robot 
 741:main.c        ****   code started)
 742:main.c        ****  > Subtopic: start
 743:main.c        **** - Stop time (when the robot stops on the finish line it sends stop time stamp)
 744:main.c        ****  > Subtopic: stop
 745:main.c        **** - Run time (from start to finish, number of milliseconds between start and stop)
 746:main.c        ****  > Subtopic: time
 747:main.c        **** - Bonus (optional):
 748:main.c        ****  - send coordinates of each intersection the robot visits
 749:main.c        ****   > Subtopic: position
 750:main.c        **** 
 751:main.c        **** For example, Zumo028 sends:
 752:main.c        **** Zumo028/ready maze  Zumo028/ready maze
 753:main.c        **** Zumo028/start 1210  Zumo028/start 1210
 754:main.c        **** Zumo028/stop 24290  Zumo028/position 0 0
 755:main.c        **** Zumo028/time 23080  Zumo028/position 0 1
 756:main.c        ****                     Zumo028/position 0 2
 757:main.c        ****                     Zumo028/position 0 3
 758:main.c        ****                     Zumo028/position 0 4
 759:main.c        ****                     Zumo028/position 0 5
 760:main.c        ****                     Zumo028/position -1 5
 761:main.c        ****                     Zumo028/position -2 5
 762:main.c        ****                     Zumo028/position -2 6
 763:main.c        ****                     Zumo028/position -2 7
 764:main.c        ****                     ...
 765:main.c        ****                     Zumo028/position 0 13
 766:main.c        ****                     Zumo028/stop 24290
 767:main.c        ****                     Zumo028/time 23080
 768:main.c        **** --------------------------------------------------------------------------------
ARM GAS  C:\Users\samue\AppData\Local\Temp\ccm0rw4c.s 			page 25


 769:main.c        **** */
 770:main.c        **** 
 771:main.c        **** void mazeMain(){
 772:main.c        ****     struct sensors_ ref, dig;
 773:main.c        ****     startComponents("zumo");
 774:main.c        ****     moveToStartLineAndWait("zumo", dig);
 775:main.c        ****     mazeSolver2000();
 776:main.c        ****     //stopAndReport();
 777:main.c        ****     //maze_finished();
 778:main.c        ****  
 779:main.c        **** }
 780:main.c        **** 
 781:main.c        **** 
 782:main.c        **** /*
 783:main.c        **** 
 784:main.c        **** TickType_t maze_start    = 0;
 785:main.c        **** TickType_t maze_ix_timer = 0;
 786:main.c        **** int maze_x               = 0;
 787:main.c        **** int maze_y               = 0;
 788:main.c        **** int maze_dir             = 0;
 789:main.c        **** int maze_ix_count        = 0;
 790:main.c        **** int maze_ix[1000][3];
 791:main.c        **** bool maze_bump         = false;
 792:main.c        **** 
 793:main.c        **** struct sensors_ ref;
 794:main.c        **** struct sensors_ dig;
 795:main.c        **** struct accData_ accData;
 796:main.c        **** 
 797:main.c        **** void rp_maze(){
 798:main.c        ****   startComponents();
 799:main.c        ****   moveToStartLine();
 800:main.c        ****   waitAndStart("maze",100);
 801:main.c        ****   moveToNextLine();
 802:main.c        ****   while(!maze_finished()){
 803:main.c        ****     if(!maze_bump){
 804:main.c        ****       reportMazePosition();
 805:main.c        ****       decideMazeTurn();
 806:main.c        ****     } else {
 807:main.c        ****       returnToPreviousIntersection();
 808:main.c        ****     }
 809:main.c        ****     while(!inIntersection() && !maze_finished() && !maze_bumped()){
 810:main.c        ****       followLine();
 811:main.c        ****     }
 812:main.c        ****   }
 813:main.c        ****   stopAndReport();
 814:main.c        **** }
 815:main.c        **** 
 816:main.c        **** void startComponents(){
 817:main.c        ****   IR_Start();
 818:main.c        ****   reflectance_start();
 819:main.c        ****   motor_start();
 820:main.c        ****   LSM303D_Start();
 821:main.c        **** }
 822:main.c        **** */
 823:main.c        **** void mazeSolver2000(struct sensors_ dig) {
 824:main.c        ****     
 825:main.c        ****     int direction = 10000;
ARM GAS  C:\Users\samue\AppData\Local\Temp\ccm0rw4c.s 			page 26


 826:main.c        ****     int x = 0;
 827:main.c        ****     int y = -1;
 828:main.c        ****     int width = 10000;
 829:main.c        ****     
 830:main.c        **** 
 831:main.c        ****     
 832:main.c        ****     while (true) {
 833:main.c        **** 
 834:main.c        ****         for(int i=0; i<3; i++) {
 835:main.c        ****             reflectance_digital(&dig);
 836:main.c        ****             if(Ultra_GetDistance()<15 || !(dig.l3 | dig.l2 | dig.l1 | dig.r1 | dig.r2 | dig.r3)) {
 837:main.c        ****                 motor_forward(0,0);
 838:main.c        ****                 vTaskDelay(250);
 839:main.c        ****                 turn90deg(1);
 840:main.c        ****                 direction--;
 841:main.c        ****             } else {
 842:main.c        ****                 switch(direction%4){
 843:main.c        ****             case 0: 
 844:main.c        ****                 y++;
 845:main.c        ****                 break;
 846:main.c        ****     
 847:main.c        ****             case 1:
 848:main.c        ****                 x++;
 849:main.c        ****                 break;
 850:main.c        ****             
 851:main.c        ****             case 2:
 852:main.c        ****                 y--;
 853:main.c        ****                 break;
 854:main.c        ****             
 855:main.c        ****             default:
 856:main.c        ****                 x--;
 857:main.c        ****         }
 858:main.c        ****                 moveToNextIntersection(dig);
 859:main.c        ****                 if (y==1 && width == 10000) {
 860:main.c        ****                     width=x;
 861:main.c        ****                 }
 862:main.c        **** 
 863:main.c        ****                   vTaskDelay(200);
 864:main.c        ****                 
 865:main.c        ****                 if(!((y==0 && direction%4 != 0) || x==width) || (!(blackSensors(dig)>0) && directio
 866:main.c        ****                     
 867:main.c        ****                     turn90deg(0);
 868:main.c        ****                     direction++;
 869:main.c        ****                 }
 870:main.c        ****                 
 871:main.c        ****                 
 872:main.c        ****                 
 873:main.c        ****                 
 874:main.c        ****                 motor_forward(0,300);
 875:main.c        ****             }
 876:main.c        ****         }
 877:main.c        ****         print_mqtt("Zumo035/position", "x: %d y: %d", x, y);
 878:main.c        ****        
 879:main.c        ****     }
 880:main.c        **** }
 881:main.c        **** void moveToNextIntersection(struct sensors_ dig, struct sensors_ ref) {
 882:main.c        **** 
ARM GAS  C:\Users\samue\AppData\Local\Temp\ccm0rw4c.s 			page 27


 883:main.c        ****     motor_forward(50,300);
 884:main.c        ****     while(true) {
 885:main.c        ****         followLine2(ref);
 886:main.c        ****         reflectance_digital(&dig);
 887:main.c        **** 
 888:main.c        ****         if(dig.l3&dig.l2&dig.l1&dig.r1&dig.r2&dig.r3 ||
 889:main.c        ****            dig.l3&dig.l2&dig.l1&dig.r1 ||
 890:main.c        ****            dig.l1&dig.r1&dig.r2&dig.r3){
 891:main.c        **** 
 892:main.c        ****             break;
 893:main.c        ****         }
 894:main.c        **** 
 895:main.c        ****     }
 896:main.c        ****     while(overLine(dig)){};
 897:main.c        ****     motor_forward(50, 200);
 898:main.c        **** }
 899:main.c        **** 
 900:main.c        **** int* decideMazeTurn(int *xy, int dir, struct sensors_ dig){
 901:main.c        ****   for(int i = 0;i<3;i++){
 902:main.c        ****     turn90deg(0);
 903:main.c        ****     reflectance_digital(&dig);
 904:main.c        ****     if(Ultra_GetDistance()>15 && !(dig.l3|dig.l2|dig.l1|dig.r1|dig.r2|dig.r3)){
 905:main.c        ****       break;
 906:main.c        ****     }
 907:main.c        ****   }
 908:main.c        ****     
 909:main.c        ****   int a = (((dir%4)/2)*2)-1;
 910:main.c        ****   if(dir%2){
 911:main.c        ****     xy[0] += a;
 912:main.c        ****   } else {
 913:main.c        ****     xy[1] += a; 
 914:main.c        ****   }
 915:main.c        ****   return xy;
 916:main.c        **** }
 917:main.c        **** 
 918:main.c        **** void reportMQTT(char* subtopic, char* data){
 599              		.loc 1 918 0
 600              		.cfi_startproc
 601              		@ args = 0, pretend = 0, frame = 0
 602              		@ frame_needed = 0, uses_anonymous_args = 0
 603              	.LVL93:
 604 0000 10B5     		push	{r4, lr}
 605              		.cfi_def_cfa_offset 8
 606              		.cfi_offset 4, -8
 607              		.cfi_offset 14, -4
 608 0002 0C46     		mov	r4, r1
 919:main.c        ****   char* topic = strcat("Zumo035/",subtopic);
 609              		.loc 1 919 0
 610 0004 0146     		mov	r1, r0
 611              	.LVL94:
 612 0006 0448     		ldr	r0, .L43
 613              	.LVL95:
 614 0008 FFF7FEFF 		bl	strcat
 615              	.LVL96:
 920:main.c        ****   print_mqtt(topic," %s",data);
 616              		.loc 1 920 0
 617 000c 2246     		mov	r2, r4
ARM GAS  C:\Users\samue\AppData\Local\Temp\ccm0rw4c.s 			page 28


 618 000e 0349     		ldr	r1, .L43+4
 619 0010 FFF7FEFF 		bl	print_mqtt
 620              	.LVL97:
 621 0014 10BD     		pop	{r4, pc}
 622              	.LVL98:
 623              	.L44:
 624 0016 00BF     		.align	2
 625              	.L43:
 626 0018 40000000 		.word	.LC7
 627 001c 4C000000 		.word	.LC8
 628              		.cfi_endproc
 629              	.LFE105:
 630              		.size	reportMQTT, .-reportMQTT
 631              		.global	__aeabi_d2f
 632              		.global	__aeabi_fdiv
 633              		.global	__aeabi_fadd
 634              		.global	__aeabi_f2iz
 635              		.global	__aeabi_fsub
 636              		.section	.text.followLine,"ax",%progbits
 637              		.align	2
 638              		.global	followLine
 639              		.thumb
 640              		.thumb_func
 641              		.type	followLine, %function
 642              	followLine:
 643              	.LFB108:
 921:main.c        **** }
 922:main.c        **** /*
 923:main.c        **** void reportMazePosition(){
 924:main.c        ****   char* data;
 925:main.c        ****   sprintf(data,"%d %d",maze_x,maze_y);
 926:main.c        ****   reportMQTT("position",data);
 927:main.c        **** }
 928:main.c        **** 
 929:main.c        **** void decideMazeTurn(){
 930:main.c        ****   int[4] pastTurns = {0,0,0,0};
 931:main.c        ****   for(int i = 0;i<maze_ix_count;i++){
 932:main.c        ****     if(maze_ix[i][0] == maze_x && maze_ix[i][1] == maze_y){
 933:main.c        ****       
 934:main.c        ****     }
 935:main.c        ****   }
 936:main.c        **** }
 937:main.c        **** */
 938:main.c        **** 
 939:main.c        **** void moveToStartLine(){
 940:main.c        ****   while(SW1_Read()){};  // start only after button press
 941:main.c        ****   vTaskDelay(500);
 942:main.c        ****   motor_forward(50,0);
 943:main.c        ****   while(!overLine()){}; // move to line and stop
 944:main.c        ****   motor_stop();
 945:main.c        **** }
 946:main.c        **** 
 947:main.c        **** 
 948:main.c        **** void moveToNextLine(struct sensors_ dig){
 949:main.c        ****   while(overLine(dig)){};
 950:main.c        ****   while(!overLine(dig)){};
 951:main.c        **** }
ARM GAS  C:\Users\samue\AppData\Local\Temp\ccm0rw4c.s 			page 29


 952:main.c        **** 
 953:main.c        **** int followLine(struct sensors_ ref, struct sensors_ dig, int offLine){
 644              		.loc 1 953 0
 645              		.cfi_startproc
 646              		@ args = 20, pretend = 8, frame = 16
 647              		@ frame_needed = 0, uses_anonymous_args = 0
 648              	.LVL99:
 649 0000 82B0     		sub	sp, sp, #8
 650              		.cfi_def_cfa_offset 8
 651 0002 70B5     		push	{r4, r5, r6, lr}
 652              		.cfi_def_cfa_offset 24
 653              		.cfi_offset 4, -24
 654              		.cfi_offset 5, -20
 655              		.cfi_offset 6, -16
 656              		.cfi_offset 14, -12
 657 0004 84B0     		sub	sp, sp, #16
 658              		.cfi_def_cfa_offset 40
 659 0006 01AC     		add	r4, sp, #4
 660 0008 84E80700 		stmia	r4, {r0, r1, r2}
 661 000c 0993     		str	r3, [sp, #36]
 662 000e 0C9E     		ldr	r6, [sp, #48]
 663              	.LVL100:
 954:main.c        ****   float maxSpeed = 200;
 955:main.c        ****   float val      = 0;
 956:main.c        **** 
 957:main.c        ****   reflectance_read(&ref);
 664              		.loc 1 957 0
 665 0010 2046     		mov	r0, r4
 666 0012 FFF7FEFF 		bl	reflectance_read
 667              	.LVL101:
 958:main.c        ****     
 959:main.c        ****   val = ((-29.5*ref.l3)+(-16.0*ref.l2)+(-4.75*ref.l1)+4.75*ref.r1+16.0*ref.r2+29.5*ref.r3)/6.0;
 668              		.loc 1 959 0
 669 0016 BDF80400 		ldrh	r0, [sp, #4]
 670 001a FFF7FEFF 		bl	__aeabi_i2d
 671              	.LVL102:
 672 001e 0022     		movs	r2, #0
 673 0020 524B     		ldr	r3, .L57
 674 0022 FFF7FEFF 		bl	__aeabi_dmul
 675              	.LVL103:
 676 0026 0446     		mov	r4, r0
 677 0028 0D46     		mov	r5, r1
 678 002a BDF80600 		ldrh	r0, [sp, #6]
 679 002e FFF7FEFF 		bl	__aeabi_i2d
 680              	.LVL104:
 681 0032 0022     		movs	r2, #0
 682 0034 4E4B     		ldr	r3, .L57+4
 683 0036 FFF7FEFF 		bl	__aeabi_dmul
 684              	.LVL105:
 685 003a 0246     		mov	r2, r0
 686 003c 0B46     		mov	r3, r1
 687 003e 2046     		mov	r0, r4
 688 0040 2946     		mov	r1, r5
 689 0042 FFF7FEFF 		bl	__aeabi_dadd
 690              	.LVL106:
 691 0046 0446     		mov	r4, r0
 692 0048 0D46     		mov	r5, r1
ARM GAS  C:\Users\samue\AppData\Local\Temp\ccm0rw4c.s 			page 30


 693 004a BDF80800 		ldrh	r0, [sp, #8]
 694 004e FFF7FEFF 		bl	__aeabi_i2d
 695              	.LVL107:
 696 0052 0022     		movs	r2, #0
 697 0054 474B     		ldr	r3, .L57+8
 698 0056 FFF7FEFF 		bl	__aeabi_dmul
 699              	.LVL108:
 700 005a 0246     		mov	r2, r0
 701 005c 0B46     		mov	r3, r1
 702 005e 2046     		mov	r0, r4
 703 0060 2946     		mov	r1, r5
 704 0062 FFF7FEFF 		bl	__aeabi_dadd
 705              	.LVL109:
 706 0066 0446     		mov	r4, r0
 707 0068 0D46     		mov	r5, r1
 708 006a BDF80A00 		ldrh	r0, [sp, #10]
 709 006e FFF7FEFF 		bl	__aeabi_i2d
 710              	.LVL110:
 711 0072 0022     		movs	r2, #0
 712 0074 404B     		ldr	r3, .L57+12
 713 0076 FFF7FEFF 		bl	__aeabi_dmul
 714              	.LVL111:
 715 007a 0246     		mov	r2, r0
 716 007c 0B46     		mov	r3, r1
 717 007e 2046     		mov	r0, r4
 718 0080 2946     		mov	r1, r5
 719 0082 FFF7FEFF 		bl	__aeabi_dadd
 720              	.LVL112:
 721 0086 0446     		mov	r4, r0
 722 0088 0D46     		mov	r5, r1
 723 008a BDF80C00 		ldrh	r0, [sp, #12]
 724 008e FFF7FEFF 		bl	__aeabi_i2d
 725              	.LVL113:
 726 0092 0022     		movs	r2, #0
 727 0094 394B     		ldr	r3, .L57+16
 728 0096 FFF7FEFF 		bl	__aeabi_dmul
 729              	.LVL114:
 730 009a 0246     		mov	r2, r0
 731 009c 0B46     		mov	r3, r1
 732 009e 2046     		mov	r0, r4
 733 00a0 2946     		mov	r1, r5
 734 00a2 FFF7FEFF 		bl	__aeabi_dadd
 735              	.LVL115:
 736 00a6 0446     		mov	r4, r0
 737 00a8 0D46     		mov	r5, r1
 738 00aa BDF80E00 		ldrh	r0, [sp, #14]
 739 00ae FFF7FEFF 		bl	__aeabi_i2d
 740              	.LVL116:
 741 00b2 0022     		movs	r2, #0
 742 00b4 324B     		ldr	r3, .L57+20
 743 00b6 FFF7FEFF 		bl	__aeabi_dmul
 744              	.LVL117:
 745 00ba 0246     		mov	r2, r0
 746 00bc 0B46     		mov	r3, r1
 747 00be 2046     		mov	r0, r4
 748 00c0 2946     		mov	r1, r5
 749 00c2 FFF7FEFF 		bl	__aeabi_dadd
ARM GAS  C:\Users\samue\AppData\Local\Temp\ccm0rw4c.s 			page 31


 750              	.LVL118:
 751 00c6 0022     		movs	r2, #0
 752 00c8 2E4B     		ldr	r3, .L57+24
 753 00ca FFF7FEFF 		bl	__aeabi_ddiv
 754              	.LVL119:
 755 00ce FFF7FEFF 		bl	__aeabi_d2f
 756              	.LVL120:
 960:main.c        **** 
 961:main.c        ****   int pwm1 = maxSpeed+val/50;
 757              		.loc 1 961 0
 758 00d2 2D49     		ldr	r1, .L57+28
 759 00d4 FFF7FEFF 		bl	__aeabi_fdiv
 760              	.LVL121:
 761 00d8 0446     		mov	r4, r0
 762 00da 2C49     		ldr	r1, .L57+32
 763 00dc FFF7FEFF 		bl	__aeabi_fadd
 764              	.LVL122:
 765 00e0 FFF7FEFF 		bl	__aeabi_f2iz
 766              	.LVL123:
 767 00e4 0546     		mov	r5, r0
 768              	.LVL124:
 962:main.c        ****   int pwm2 = maxSpeed-val/50;
 769              		.loc 1 962 0
 770 00e6 2146     		mov	r1, r4
 771 00e8 2848     		ldr	r0, .L57+32
 772              	.LVL125:
 773 00ea FFF7FEFF 		bl	__aeabi_fsub
 774              	.LVL126:
 775 00ee FFF7FEFF 		bl	__aeabi_f2iz
 776              	.LVL127:
 777 00f2 0446     		mov	r4, r0
 778              	.LVL128:
 963:main.c        ****     
 964:main.c        ****   if(pwm1>255){pwm1=255;}
 779              		.loc 1 964 0
 780 00f4 FF2D     		cmp	r5, #255
 781 00f6 00DD     		ble	.L46
 782 00f8 FF25     		movs	r5, #255
 783              	.LVL129:
 784              	.L46:
 965:main.c        ****   if(pwm2>255){pwm2=255;}
 785              		.loc 1 965 0
 786 00fa FF2C     		cmp	r4, #255
 787 00fc 00DD     		ble	.L47
 788 00fe FF24     		movs	r4, #255
 789              	.L47:
 790              	.LVL130:
 966:main.c        ****   if(pwm1<0){pwm1=0;}
 791              		.loc 1 966 0
 792 0100 002D     		cmp	r5, #0
 793 0102 00DA     		bge	.L48
 794 0104 0025     		movs	r5, #0
 795              	.LVL131:
 796              	.L48:
 967:main.c        ****   if(pwm2<0){pwm2=0;}
 797              		.loc 1 967 0
 798 0106 002C     		cmp	r4, #0
ARM GAS  C:\Users\samue\AppData\Local\Temp\ccm0rw4c.s 			page 32


 799 0108 00DA     		bge	.L49
 800 010a 0024     		movs	r4, #0
 801              	.LVL132:
 802              	.L49:
 968:main.c        ****     
 969:main.c        ****   PWM_WriteCompare1(pwm1);
 803              		.loc 1 969 0
 804 010c E8B2     		uxtb	r0, r5
 805 010e FFF7FEFF 		bl	PWM_WriteCompare1
 806              	.LVL133:
 970:main.c        ****   PWM_WriteCompare2(pwm2);
 807              		.loc 1 970 0
 808 0112 E0B2     		uxtb	r0, r4
 809 0114 FFF7FEFF 		bl	PWM_WriteCompare2
 810              	.LVL134:
 971:main.c        **** 
 972:main.c        ****   reflectance_digital(&dig);
 811              		.loc 1 972 0
 812 0118 09A8     		add	r0, sp, #36
 813 011a FFF7FEFF 		bl	reflectance_digital
 814              	.LVL135:
 973:main.c        ****   if((!dig.l1)&(!dig.r1)&(!offLine)){
 815              		.loc 1 973 0
 816 011e BDF82810 		ldrh	r1, [sp, #40]
 817 0122 BDF82A30 		ldrh	r3, [sp, #42]
 818 0126 B6FA86F2 		clz	r2, r6
 819 012a 5209     		lsrs	r2, r2, #5
 820 012c 0029     		cmp	r1, #0
 821 012e 08BF     		it	eq
 822 0130 002B     		cmpeq	r3, #0
 823 0132 09D1     		bne	.L50
 824 0134 42B1     		cbz	r2, .L50
 825              	.LVL136:
 974:main.c        ****     offLine = 1;
 975:main.c        ****     print_mqtt("Zumo035/miss","%d",xTaskGetTickCount());
 826              		.loc 1 975 0
 827 0136 FFF7FEFF 		bl	xTaskGetTickCount
 828              	.LVL137:
 829 013a 0246     		mov	r2, r0
 830 013c 1449     		ldr	r1, .L57+36
 831 013e 1548     		ldr	r0, .L57+40
 832 0140 FFF7FEFF 		bl	print_mqtt
 833              	.LVL138:
 974:main.c        ****     offLine = 1;
 834              		.loc 1 974 0
 835 0144 0126     		movs	r6, #1
 836 0146 0AE0     		b	.L51
 837              	.LVL139:
 838              	.L50:
 976:main.c        ****   } else if(dig.l1&dig.r1&offLine){
 839              		.loc 1 976 0
 840 0148 0B40     		ands	r3, r3, r1
 841 014a 1E42     		tst	r6, r3
 842 014c 07D0     		beq	.L51
 843              	.LVL140:
 977:main.c        ****     offLine = 0;
 978:main.c        ****     print_mqtt("Zumo035/line","%d",xTaskGetTickCount());
ARM GAS  C:\Users\samue\AppData\Local\Temp\ccm0rw4c.s 			page 33


 844              		.loc 1 978 0
 845 014e FFF7FEFF 		bl	xTaskGetTickCount
 846              	.LVL141:
 847 0152 0246     		mov	r2, r0
 848 0154 0E49     		ldr	r1, .L57+36
 849 0156 1048     		ldr	r0, .L57+44
 850 0158 FFF7FEFF 		bl	print_mqtt
 851              	.LVL142:
 977:main.c        ****     offLine = 0;
 852              		.loc 1 977 0
 853 015c 0026     		movs	r6, #0
 854              	.LVL143:
 855              	.L51:
 979:main.c        ****   }
 980:main.c        ****   return offLine;
 981:main.c        **** }
 856              		.loc 1 981 0
 857 015e 3046     		mov	r0, r6
 858 0160 04B0     		add	sp, sp, #16
 859              		.cfi_def_cfa_offset 24
 860              		@ sp needed
 861 0162 BDE87040 		pop	{r4, r5, r6, lr}
 862              		.cfi_restore 14
 863              		.cfi_restore 6
 864              		.cfi_restore 5
 865              		.cfi_restore 4
 866              		.cfi_def_cfa_offset 8
 867              	.LVL144:
 868 0166 02B0     		add	sp, sp, #8
 869              		.cfi_def_cfa_offset 0
 870 0168 7047     		bx	lr
 871              	.L58:
 872 016a 00BF     		.align	2
 873              	.L57:
 874 016c 00803DC0 		.word	-1069711360
 875 0170 000030C0 		.word	-1070596096
 876 0174 000013C0 		.word	-1072496640
 877 0178 00001340 		.word	1074987008
 878 017c 00003040 		.word	1076887552
 879 0180 00803D40 		.word	1077772288
 880 0184 00001840 		.word	1075314688
 881 0188 00004842 		.word	1112014848
 882 018c 00004843 		.word	1128792064
 883 0190 14000000 		.word	.LC3
 884 0194 50000000 		.word	.LC9
 885 0198 60000000 		.word	.LC10
 886              		.cfi_endproc
 887              	.LFE108:
 888              		.size	followLine, .-followLine
 889              		.section	.text.followLine2,"ax",%progbits
 890              		.align	2
 891              		.global	followLine2
 892              		.thumb
 893              		.thumb_func
 894              		.type	followLine2, %function
 895              	followLine2:
 896              	.LFB109:
ARM GAS  C:\Users\samue\AppData\Local\Temp\ccm0rw4c.s 			page 34


 982:main.c        **** void followLine2(struct sensors_ ref){
 897              		.loc 1 982 0
 898              		.cfi_startproc
 899              		@ args = 0, pretend = 0, frame = 16
 900              		@ frame_needed = 0, uses_anonymous_args = 0
 901 0000 30B5     		push	{r4, r5, lr}
 902              		.cfi_def_cfa_offset 12
 903              		.cfi_offset 4, -12
 904              		.cfi_offset 5, -8
 905              		.cfi_offset 14, -4
 906 0002 85B0     		sub	sp, sp, #20
 907              		.cfi_def_cfa_offset 32
 908 0004 01AB     		add	r3, sp, #4
 909 0006 83E80700 		stmia	r3, {r0, r1, r2}
 910              	.LVL145:
 983:main.c        ****   float maxSpeed = 50;
 984:main.c        ****   float val      = 0;
 985:main.c        ****  
 986:main.c        ****   reflectance_read(&ref);
 911              		.loc 1 986 0
 912 000a 1846     		mov	r0, r3
 913 000c FFF7FEFF 		bl	reflectance_read
 914              	.LVL146:
 987:main.c        ****    
 988:main.c        ****   val = ((-29.5*ref.l3)+(-16.0*ref.l2)+(-4.75*ref.l1)+4.75*ref.r1+16.0*ref.r2+29.5*ref.r3)/6.0;
 915              		.loc 1 988 0
 916 0010 BDF80400 		ldrh	r0, [sp, #4]
 917 0014 FFF7FEFF 		bl	__aeabi_i2d
 918              	.LVL147:
 919 0018 0022     		movs	r2, #0
 920 001a 3F4B     		ldr	r3, .L69
 921 001c FFF7FEFF 		bl	__aeabi_dmul
 922              	.LVL148:
 923 0020 0446     		mov	r4, r0
 924 0022 0D46     		mov	r5, r1
 925 0024 BDF80600 		ldrh	r0, [sp, #6]
 926 0028 FFF7FEFF 		bl	__aeabi_i2d
 927              	.LVL149:
 928 002c 0022     		movs	r2, #0
 929 002e 3B4B     		ldr	r3, .L69+4
 930 0030 FFF7FEFF 		bl	__aeabi_dmul
 931              	.LVL150:
 932 0034 0246     		mov	r2, r0
 933 0036 0B46     		mov	r3, r1
 934 0038 2046     		mov	r0, r4
 935 003a 2946     		mov	r1, r5
 936 003c FFF7FEFF 		bl	__aeabi_dadd
 937              	.LVL151:
 938 0040 0446     		mov	r4, r0
 939 0042 0D46     		mov	r5, r1
 940 0044 BDF80800 		ldrh	r0, [sp, #8]
 941 0048 FFF7FEFF 		bl	__aeabi_i2d
 942              	.LVL152:
 943 004c 0022     		movs	r2, #0
 944 004e 344B     		ldr	r3, .L69+8
 945 0050 FFF7FEFF 		bl	__aeabi_dmul
 946              	.LVL153:
ARM GAS  C:\Users\samue\AppData\Local\Temp\ccm0rw4c.s 			page 35


 947 0054 0246     		mov	r2, r0
 948 0056 0B46     		mov	r3, r1
 949 0058 2046     		mov	r0, r4
 950 005a 2946     		mov	r1, r5
 951 005c FFF7FEFF 		bl	__aeabi_dadd
 952              	.LVL154:
 953 0060 0446     		mov	r4, r0
 954 0062 0D46     		mov	r5, r1
 955 0064 BDF80A00 		ldrh	r0, [sp, #10]
 956 0068 FFF7FEFF 		bl	__aeabi_i2d
 957              	.LVL155:
 958 006c 0022     		movs	r2, #0
 959 006e 2D4B     		ldr	r3, .L69+12
 960 0070 FFF7FEFF 		bl	__aeabi_dmul
 961              	.LVL156:
 962 0074 0246     		mov	r2, r0
 963 0076 0B46     		mov	r3, r1
 964 0078 2046     		mov	r0, r4
 965 007a 2946     		mov	r1, r5
 966 007c FFF7FEFF 		bl	__aeabi_dadd
 967              	.LVL157:
 968 0080 0446     		mov	r4, r0
 969 0082 0D46     		mov	r5, r1
 970 0084 BDF80C00 		ldrh	r0, [sp, #12]
 971 0088 FFF7FEFF 		bl	__aeabi_i2d
 972              	.LVL158:
 973 008c 0022     		movs	r2, #0
 974 008e 264B     		ldr	r3, .L69+16
 975 0090 FFF7FEFF 		bl	__aeabi_dmul
 976              	.LVL159:
 977 0094 0246     		mov	r2, r0
 978 0096 0B46     		mov	r3, r1
 979 0098 2046     		mov	r0, r4
 980 009a 2946     		mov	r1, r5
 981 009c FFF7FEFF 		bl	__aeabi_dadd
 982              	.LVL160:
 983 00a0 0446     		mov	r4, r0
 984 00a2 0D46     		mov	r5, r1
 985 00a4 BDF80E00 		ldrh	r0, [sp, #14]
 986 00a8 FFF7FEFF 		bl	__aeabi_i2d
 987              	.LVL161:
 988 00ac 0022     		movs	r2, #0
 989 00ae 1F4B     		ldr	r3, .L69+20
 990 00b0 FFF7FEFF 		bl	__aeabi_dmul
 991              	.LVL162:
 992 00b4 0246     		mov	r2, r0
 993 00b6 0B46     		mov	r3, r1
 994 00b8 2046     		mov	r0, r4
 995 00ba 2946     		mov	r1, r5
 996 00bc FFF7FEFF 		bl	__aeabi_dadd
 997              	.LVL163:
 998 00c0 0022     		movs	r2, #0
 999 00c2 1B4B     		ldr	r3, .L69+24
 1000 00c4 FFF7FEFF 		bl	__aeabi_ddiv
 1001              	.LVL164:
 1002 00c8 FFF7FEFF 		bl	__aeabi_d2f
 1003              	.LVL165:
ARM GAS  C:\Users\samue\AppData\Local\Temp\ccm0rw4c.s 			page 36


 989:main.c        ****  
 990:main.c        ****   int pwm1 = maxSpeed+val/150;
 1004              		.loc 1 990 0
 1005 00cc 1949     		ldr	r1, .L69+28
 1006 00ce FFF7FEFF 		bl	__aeabi_fdiv
 1007              	.LVL166:
 1008 00d2 0446     		mov	r4, r0
 1009 00d4 1849     		ldr	r1, .L69+32
 1010 00d6 FFF7FEFF 		bl	__aeabi_fadd
 1011              	.LVL167:
 1012 00da FFF7FEFF 		bl	__aeabi_f2iz
 1013              	.LVL168:
 1014 00de 0546     		mov	r5, r0
 1015              	.LVL169:
 991:main.c        ****   int pwm2 = maxSpeed-val/150;
 1016              		.loc 1 991 0
 1017 00e0 2146     		mov	r1, r4
 1018 00e2 1548     		ldr	r0, .L69+32
 1019              	.LVL170:
 1020 00e4 FFF7FEFF 		bl	__aeabi_fsub
 1021              	.LVL171:
 1022 00e8 FFF7FEFF 		bl	__aeabi_f2iz
 1023              	.LVL172:
 1024 00ec 0446     		mov	r4, r0
 1025              	.LVL173:
 992:main.c        ****    
 993:main.c        ****   if(pwm1>50){pwm1=50;}
 1026              		.loc 1 993 0
 1027 00ee 322D     		cmp	r5, #50
 1028 00f0 00DD     		ble	.L60
 1029 00f2 3225     		movs	r5, #50
 1030              	.LVL174:
 1031              	.L60:
 994:main.c        ****   if(pwm2>50){pwm2=50;}
 1032              		.loc 1 994 0
 1033 00f4 322C     		cmp	r4, #50
 1034 00f6 00DD     		ble	.L61
 1035 00f8 3224     		movs	r4, #50
 1036              	.L61:
 1037              	.LVL175:
 995:main.c        ****   if(pwm1<0){pwm1=0;}
 1038              		.loc 1 995 0
 1039 00fa 002D     		cmp	r5, #0
 1040 00fc 00DA     		bge	.L62
 1041 00fe 0025     		movs	r5, #0
 1042              	.LVL176:
 1043              	.L62:
 996:main.c        ****   if(pwm2<0){pwm2=0;}
 1044              		.loc 1 996 0
 1045 0100 002C     		cmp	r4, #0
 1046 0102 00DA     		bge	.L63
 1047 0104 0024     		movs	r4, #0
 1048              	.LVL177:
 1049              	.L63:
 997:main.c        ****    
 998:main.c        ****   PWM_WriteCompare1(pwm1);
 1050              		.loc 1 998 0
ARM GAS  C:\Users\samue\AppData\Local\Temp\ccm0rw4c.s 			page 37


 1051 0106 E8B2     		uxtb	r0, r5
 1052 0108 FFF7FEFF 		bl	PWM_WriteCompare1
 1053              	.LVL178:
 999:main.c        ****   PWM_WriteCompare2(pwm2);
 1054              		.loc 1 999 0
 1055 010c E0B2     		uxtb	r0, r4
 1056 010e FFF7FEFF 		bl	PWM_WriteCompare2
 1057              	.LVL179:
1000:main.c        **** }
 1058              		.loc 1 1000 0
 1059 0112 05B0     		add	sp, sp, #20
 1060              		.cfi_def_cfa_offset 12
 1061              		@ sp needed
 1062 0114 30BD     		pop	{r4, r5, pc}
 1063              	.LVL180:
 1064              	.L70:
 1065 0116 00BF     		.align	2
 1066              	.L69:
 1067 0118 00803DC0 		.word	-1069711360
 1068 011c 000030C0 		.word	-1070596096
 1069 0120 000013C0 		.word	-1072496640
 1070 0124 00001340 		.word	1074987008
 1071 0128 00003040 		.word	1076887552
 1072 012c 00803D40 		.word	1077772288
 1073 0130 00001840 		.word	1075314688
 1074 0134 00001643 		.word	1125515264
 1075 0138 00004842 		.word	1112014848
 1076              		.cfi_endproc
 1077              	.LFE109:
 1078              		.size	followLine2, .-followLine2
 1079              		.global	__aeabi_fcmplt
 1080              		.section	.text.turnToCenter,"ax",%progbits
 1081              		.align	2
 1082              		.global	turnToCenter
 1083              		.thumb
 1084              		.thumb_func
 1085              		.type	turnToCenter, %function
 1086              	turnToCenter:
 1087              	.LFB110:
1001:main.c        **** 
1002:main.c        **** float turnToCenter(struct sensors_ ref){
 1088              		.loc 1 1002 0
 1089              		.cfi_startproc
 1090              		@ args = 0, pretend = 0, frame = 16
 1091              		@ frame_needed = 0, uses_anonymous_args = 0
 1092 0000 30B5     		push	{r4, r5, lr}
 1093              		.cfi_def_cfa_offset 12
 1094              		.cfi_offset 4, -12
 1095              		.cfi_offset 5, -8
 1096              		.cfi_offset 14, -4
 1097 0002 85B0     		sub	sp, sp, #20
 1098              		.cfi_def_cfa_offset 32
 1099 0004 01AB     		add	r3, sp, #4
 1100 0006 83E80700 		stmia	r3, {r0, r1, r2}
 1101              	.LVL181:
1003:main.c        ****   int maxSpeed   = 255;
1004:main.c        ****   float val      = 0;
ARM GAS  C:\Users\samue\AppData\Local\Temp\ccm0rw4c.s 			page 38


1005:main.c        ****   float ratio    = 25;
1006:main.c        ****   int pwm        = 0;
1007:main.c        ****   int pwm1       = 0;
1008:main.c        ****   int pwm2       = 0;
1009:main.c        **** 
1010:main.c        ****   reflectance_read(&ref);
 1102              		.loc 1 1010 0
 1103 000a 1846     		mov	r0, r3
 1104 000c FFF7FEFF 		bl	reflectance_read
 1105              	.LVL182:
1011:main.c        ****     
1012:main.c        ****   val = ((-29.5*ref.l3)+(-16.0*ref.l2)+(-4.75*ref.l1)+4.75*ref.r1+16.0*ref.r2+29.5*ref.r3)/6.0;
 1106              		.loc 1 1012 0
 1107 0010 BDF80400 		ldrh	r0, [sp, #4]
 1108 0014 FFF7FEFF 		bl	__aeabi_i2d
 1109              	.LVL183:
 1110 0018 0022     		movs	r2, #0
 1111 001a 354B     		ldr	r3, .L78
 1112 001c FFF7FEFF 		bl	__aeabi_dmul
 1113              	.LVL184:
 1114 0020 0446     		mov	r4, r0
 1115 0022 0D46     		mov	r5, r1
 1116 0024 BDF80600 		ldrh	r0, [sp, #6]
 1117 0028 FFF7FEFF 		bl	__aeabi_i2d
 1118              	.LVL185:
 1119 002c 0022     		movs	r2, #0
 1120 002e 314B     		ldr	r3, .L78+4
 1121 0030 FFF7FEFF 		bl	__aeabi_dmul
 1122              	.LVL186:
 1123 0034 0246     		mov	r2, r0
 1124 0036 0B46     		mov	r3, r1
 1125 0038 2046     		mov	r0, r4
 1126 003a 2946     		mov	r1, r5
 1127 003c FFF7FEFF 		bl	__aeabi_dadd
 1128              	.LVL187:
 1129 0040 0446     		mov	r4, r0
 1130 0042 0D46     		mov	r5, r1
 1131 0044 BDF80800 		ldrh	r0, [sp, #8]
 1132 0048 FFF7FEFF 		bl	__aeabi_i2d
 1133              	.LVL188:
 1134 004c 0022     		movs	r2, #0
 1135 004e 2A4B     		ldr	r3, .L78+8
 1136 0050 FFF7FEFF 		bl	__aeabi_dmul
 1137              	.LVL189:
 1138 0054 0246     		mov	r2, r0
 1139 0056 0B46     		mov	r3, r1
 1140 0058 2046     		mov	r0, r4
 1141 005a 2946     		mov	r1, r5
 1142 005c FFF7FEFF 		bl	__aeabi_dadd
 1143              	.LVL190:
 1144 0060 0446     		mov	r4, r0
 1145 0062 0D46     		mov	r5, r1
 1146 0064 BDF80A00 		ldrh	r0, [sp, #10]
 1147 0068 FFF7FEFF 		bl	__aeabi_i2d
 1148              	.LVL191:
 1149 006c 0022     		movs	r2, #0
 1150 006e 234B     		ldr	r3, .L78+12
ARM GAS  C:\Users\samue\AppData\Local\Temp\ccm0rw4c.s 			page 39


 1151 0070 FFF7FEFF 		bl	__aeabi_dmul
 1152              	.LVL192:
 1153 0074 0246     		mov	r2, r0
 1154 0076 0B46     		mov	r3, r1
 1155 0078 2046     		mov	r0, r4
 1156 007a 2946     		mov	r1, r5
 1157 007c FFF7FEFF 		bl	__aeabi_dadd
 1158              	.LVL193:
 1159 0080 0446     		mov	r4, r0
 1160 0082 0D46     		mov	r5, r1
 1161 0084 BDF80C00 		ldrh	r0, [sp, #12]
 1162 0088 FFF7FEFF 		bl	__aeabi_i2d
 1163              	.LVL194:
 1164 008c 0022     		movs	r2, #0
 1165 008e 1C4B     		ldr	r3, .L78+16
 1166 0090 FFF7FEFF 		bl	__aeabi_dmul
 1167              	.LVL195:
 1168 0094 0246     		mov	r2, r0
 1169 0096 0B46     		mov	r3, r1
 1170 0098 2046     		mov	r0, r4
 1171 009a 2946     		mov	r1, r5
 1172 009c FFF7FEFF 		bl	__aeabi_dadd
 1173              	.LVL196:
 1174 00a0 0446     		mov	r4, r0
 1175 00a2 0D46     		mov	r5, r1
 1176 00a4 BDF80E00 		ldrh	r0, [sp, #14]
 1177 00a8 FFF7FEFF 		bl	__aeabi_i2d
 1178              	.LVL197:
 1179 00ac 0022     		movs	r2, #0
 1180 00ae 154B     		ldr	r3, .L78+20
 1181 00b0 FFF7FEFF 		bl	__aeabi_dmul
 1182              	.LVL198:
 1183 00b4 0246     		mov	r2, r0
 1184 00b6 0B46     		mov	r3, r1
 1185 00b8 2046     		mov	r0, r4
 1186 00ba 2946     		mov	r1, r5
 1187 00bc FFF7FEFF 		bl	__aeabi_dadd
 1188              	.LVL199:
 1189 00c0 0022     		movs	r2, #0
 1190 00c2 114B     		ldr	r3, .L78+24
 1191 00c4 FFF7FEFF 		bl	__aeabi_ddiv
 1192              	.LVL200:
 1193 00c8 FFF7FEFF 		bl	__aeabi_d2f
 1194              	.LVL201:
 1195 00cc 0446     		mov	r4, r0
 1196              	.LVL202:
1013:main.c        ****   /*
1014:main.c        ****   if(val<0){
1015:main.c        ****     MotorDirLeft_Write(1);
1016:main.c        ****     MotorDirRight_Write(0);
1017:main.c        ****     pwm = -val*ratio;
1018:main.c        ****   } else {
1019:main.c        ****     MotorDirLeft_Write(0);
1020:main.c        ****     MotorDirRight_Write(1);
1021:main.c        ****     pwm = val*ratio;
1022:main.c        ****   }
1023:main.c        **** 
ARM GAS  C:\Users\samue\AppData\Local\Temp\ccm0rw4c.s 			page 40


1024:main.c        ****   if(pwm>255){pwm=255;}
1025:main.c        ****     
1026:main.c        ****   PWM_WriteCompare1(pwm);
1027:main.c        ****   PWM_WriteCompare2(pwm);
1028:main.c        **** 
1029:main.c        ****   */
1030:main.c        ****   pwm1 = maxSpeed+val/ratio;
1031:main.c        ****   pwm2 = maxSpeed-val/ratio;
1032:main.c        ****     
1033:main.c        ****   if(pwm1>255){pwm1=255;}
1034:main.c        ****   if(pwm2>255){pwm2=255;}
1035:main.c        ****   if(pwm1<0){pwm1=0;}
1036:main.c        ****   if(pwm2<0){pwm2=0;}
1037:main.c        **** 
1038:main.c        ****   
1039:main.c        **** 
1040:main.c        ****   if(val<0){
 1197              		.loc 1 1040 0
 1198 00ce 0021     		movs	r1, #0
 1199 00d0 FFF7FEFF 		bl	__aeabi_fcmplt
 1200              	.LVL203:
 1201 00d4 10B1     		cbz	r0, .L76
1041:main.c        ****     pwm1 = 255;
1042:main.c        ****     pwm2 = 0;
 1202              		.loc 1 1042 0
 1203 00d6 0025     		movs	r5, #0
1041:main.c        ****     pwm1 = 255;
 1204              		.loc 1 1041 0
 1205 00d8 FF20     		movs	r0, #255
 1206 00da 01E0     		b	.L72
 1207              	.L76:
1043:main.c        ****   } else {
1044:main.c        ****     pwm1 = 0;
1045:main.c        ****     pwm2 = 255;
 1208              		.loc 1 1045 0
 1209 00dc FF25     		movs	r5, #255
1044:main.c        ****     pwm2 = 255;
 1210              		.loc 1 1044 0
 1211 00de 0020     		movs	r0, #0
 1212              	.L72:
 1213              	.LVL204:
1046:main.c        ****   }
1047:main.c        ****     
1048:main.c        ****   PWM_WriteCompare1(pwm1);
 1214              		.loc 1 1048 0
 1215 00e0 FFF7FEFF 		bl	PWM_WriteCompare1
 1216              	.LVL205:
1049:main.c        ****   PWM_WriteCompare2(pwm2);
 1217              		.loc 1 1049 0
 1218 00e4 2846     		mov	r0, r5
 1219 00e6 FFF7FEFF 		bl	PWM_WriteCompare2
 1220              	.LVL206:
1050:main.c        ****   
1051:main.c        **** 
1052:main.c        ****   return val;
1053:main.c        **** }
 1221              		.loc 1 1053 0
ARM GAS  C:\Users\samue\AppData\Local\Temp\ccm0rw4c.s 			page 41


 1222 00ea 2046     		mov	r0, r4
 1223 00ec 05B0     		add	sp, sp, #20
 1224              		.cfi_def_cfa_offset 12
 1225              		@ sp needed
 1226 00ee 30BD     		pop	{r4, r5, pc}
 1227              	.LVL207:
 1228              	.L79:
 1229              		.align	2
 1230              	.L78:
 1231 00f0 00803DC0 		.word	-1069711360
 1232 00f4 000030C0 		.word	-1070596096
 1233 00f8 000013C0 		.word	-1072496640
 1234 00fc 00001340 		.word	1074987008
 1235 0100 00003040 		.word	1076887552
 1236 0104 00803D40 		.word	1077772288
 1237 0108 00001840 		.word	1075314688
 1238              		.cfi_endproc
 1239              	.LFE110:
 1240              		.size	turnToCenter, .-turnToCenter
 1241              		.section	.text.overLine,"ax",%progbits
 1242              		.align	2
 1243              		.global	overLine
 1244              		.thumb
 1245              		.thumb_func
 1246              		.type	overLine, %function
 1247              	overLine:
 1248              	.LFB111:
1054:main.c        **** 
1055:main.c        **** bool overLine(struct sensors_ dig){
 1249              		.loc 1 1055 0
 1250              		.cfi_startproc
 1251              		@ args = 0, pretend = 0, frame = 16
 1252              		@ frame_needed = 0, uses_anonymous_args = 0
 1253 0000 30B5     		push	{r4, r5, lr}
 1254              		.cfi_def_cfa_offset 12
 1255              		.cfi_offset 4, -12
 1256              		.cfi_offset 5, -8
 1257              		.cfi_offset 14, -4
 1258 0002 85B0     		sub	sp, sp, #20
 1259              		.cfi_def_cfa_offset 32
 1260 0004 01AB     		add	r3, sp, #4
 1261 0006 83E80700 		stmia	r3, {r0, r1, r2}
1056:main.c        ****   reflectance_digital(&dig); 
 1262              		.loc 1 1056 0
 1263 000a 1846     		mov	r0, r3
 1264 000c FFF7FEFF 		bl	reflectance_digital
 1265              	.LVL208:
1057:main.c        ****   return dig.l3&dig.l2&dig.l1&dig.r1&dig.r2&dig.r3;
 1266              		.loc 1 1057 0
 1267 0010 BDF80420 		ldrh	r2, [sp, #4]
 1268 0014 BDF80610 		ldrh	r1, [sp, #6]
 1269 0018 BDF80830 		ldrh	r3, [sp, #8]
 1270 001c BDF80A50 		ldrh	r5, [sp, #10]
 1271 0020 BDF80C40 		ldrh	r4, [sp, #12]
 1272 0024 BDF80E00 		ldrh	r0, [sp, #14]
 1273 0028 0A40     		ands	r2, r2, r1
 1274 002a 1A40     		ands	r2, r2, r3
ARM GAS  C:\Users\samue\AppData\Local\Temp\ccm0rw4c.s 			page 42


 1275 002c 05EA0203 		and	r3, r5, r2
 1276 0030 2340     		ands	r3, r3, r4
 1277 0032 1842     		tst	r0, r3
1058:main.c        **** }
 1278              		.loc 1 1058 0
 1279 0034 14BF     		ite	ne
 1280 0036 0120     		movne	r0, #1
 1281 0038 0020     		moveq	r0, #0
 1282 003a 05B0     		add	sp, sp, #20
 1283              		.cfi_def_cfa_offset 12
 1284              		@ sp needed
 1285 003c 30BD     		pop	{r4, r5, pc}
 1286              		.cfi_endproc
 1287              	.LFE111:
 1288              		.size	overLine, .-overLine
 1289 003e 00BF     		.section	.text.startWrestling,"ax",%progbits
 1290              		.align	2
 1291              		.global	startWrestling
 1292              		.thumb
 1293              		.thumb_func
 1294              		.type	startWrestling, %function
 1295              	startWrestling:
 1296              	.LFB91:
 469:main.c        ****   TickType_t start = xTaskGetTickCount();
 1297              		.loc 1 469 0
 1298              		.cfi_startproc
 1299              		@ args = 0, pretend = 0, frame = 16
 1300              		@ frame_needed = 0, uses_anonymous_args = 0
 1301 0000 10B5     		push	{r4, lr}
 1302              		.cfi_def_cfa_offset 8
 1303              		.cfi_offset 4, -8
 1304              		.cfi_offset 14, -4
 1305 0002 84B0     		sub	sp, sp, #16
 1306              		.cfi_def_cfa_offset 24
 1307 0004 04AB     		add	r3, sp, #16
 1308 0006 03E90700 		stmdb	r3, {r0, r1, r2}
 470:main.c        ****   print_mqtt("Zumo035/start","%d",start);
 1309              		.loc 1 470 0
 1310 000a FFF7FEFF 		bl	xTaskGetTickCount
 1311              	.LVL209:
 1312 000e 0446     		mov	r4, r0
 1313              	.LVL210:
 471:main.c        ****   reportMQTT("start",start);
 1314              		.loc 1 471 0
 1315 0010 0246     		mov	r2, r0
 1316 0012 0B49     		ldr	r1, .L85
 1317 0014 0B48     		ldr	r0, .L85+4
 1318              	.LVL211:
 1319 0016 FFF7FEFF 		bl	print_mqtt
 1320              	.LVL212:
 472:main.c        ****   motor_forward(50,0);
 1321              		.loc 1 472 0
 1322 001a 2146     		mov	r1, r4
 1323 001c 0A48     		ldr	r0, .L85+8
 1324 001e FFF7FEFF 		bl	reportMQTT
 1325              	.LVL213:
 473:main.c        ****   while(overLine(dig)){};
ARM GAS  C:\Users\samue\AppData\Local\Temp\ccm0rw4c.s 			page 43


 1326              		.loc 1 473 0
 1327 0022 0021     		movs	r1, #0
 1328 0024 3220     		movs	r0, #50
 1329 0026 FFF7FEFF 		bl	motor_forward
 1330              	.LVL214:
 1331              	.L83:
 474:main.c        ****   return start;
 1332              		.loc 1 474 0 discriminator 1
 1333 002a 04AB     		add	r3, sp, #16
 1334 002c 13E90700 		ldmdb	r3, {r0, r1, r2}
 1335 0030 FFF7FEFF 		bl	overLine
 1336              	.LVL215:
 1337 0034 0028     		cmp	r0, #0
 1338 0036 F8D1     		bne	.L83
 476:main.c        **** 
 1339              		.loc 1 476 0
 1340 0038 2046     		mov	r0, r4
 1341 003a 04B0     		add	sp, sp, #16
 1342              		.cfi_def_cfa_offset 8
 1343              		@ sp needed
 1344 003c 10BD     		pop	{r4, pc}
 1345              	.LVL216:
 1346              	.L86:
 1347 003e 00BF     		.align	2
 1348              	.L85:
 1349 0040 14000000 		.word	.LC3
 1350 0044 70000000 		.word	.LC11
 1351 0048 80000000 		.word	.LC12
 1352              		.cfi_endproc
 1353              	.LFE91:
 1354              		.size	startWrestling, .-startWrestling
 1355              		.section	.text.moveToStartLineAndWait,"ax",%progbits
 1356              		.align	2
 1357              		.global	moveToStartLineAndWait
 1358              		.thumb
 1359              		.thumb_func
 1360              		.type	moveToStartLineAndWait, %function
 1361              	moveToStartLineAndWait:
 1362              	.LFB98:
 633:main.c        ****   while(SW1_Read()){};
 1363              		.loc 1 633 0
 1364              		.cfi_startproc
 1365              		@ args = 0, pretend = 0, frame = 16
 1366              		@ frame_needed = 0, uses_anonymous_args = 0
 1367              	.LVL217:
 1368 0000 10B5     		push	{r4, lr}
 1369              		.cfi_def_cfa_offset 8
 1370              		.cfi_offset 4, -8
 1371              		.cfi_offset 14, -4
 1372 0002 84B0     		sub	sp, sp, #16
 1373              		.cfi_def_cfa_offset 24
 1374 0004 0446     		mov	r4, r0
 1375 0006 04A8     		add	r0, sp, #16
 1376              	.LVL218:
 1377 0008 00E90E00 		stmdb	r0, {r1, r2, r3}
 1378              	.L88:
 634:main.c        ****   vTaskDelay(500);
ARM GAS  C:\Users\samue\AppData\Local\Temp\ccm0rw4c.s 			page 44


 1379              		.loc 1 634 0 discriminator 1
 1380 000c FFF7FEFF 		bl	SW1_Read
 1381              	.LVL219:
 1382 0010 0028     		cmp	r0, #0
 1383 0012 FBD1     		bne	.L88
 635:main.c        ****   motor_forward(50,0);
 1384              		.loc 1 635 0
 1385 0014 4FF4FA70 		mov	r0, #500
 1386 0018 FFF7FEFF 		bl	vTaskDelay
 1387              	.LVL220:
 636:main.c        ****   while(!overLine(dig)){};
 1388              		.loc 1 636 0
 1389 001c 0021     		movs	r1, #0
 1390 001e 3220     		movs	r0, #50
 1391 0020 FFF7FEFF 		bl	motor_forward
 1392              	.LVL221:
 1393              	.L89:
 637:main.c        ****   motor_forward(0,0);
 1394              		.loc 1 637 0 discriminator 1
 1395 0024 04AB     		add	r3, sp, #16
 1396 0026 13E90700 		ldmdb	r3, {r0, r1, r2}
 1397 002a FFF7FEFF 		bl	overLine
 1398              	.LVL222:
 1399 002e 0028     		cmp	r0, #0
 1400 0030 F8D0     		beq	.L89
 638:main.c        ****   print_mqtt("Zumo035/ready","%s",project);
 1401              		.loc 1 638 0
 1402 0032 0021     		movs	r1, #0
 1403 0034 0846     		mov	r0, r1
 1404 0036 FFF7FEFF 		bl	motor_forward
 1405              	.LVL223:
 639:main.c        ****   IR_wait();
 1406              		.loc 1 639 0
 1407 003a 2246     		mov	r2, r4
 1408 003c 0349     		ldr	r1, .L91
 1409 003e 0448     		ldr	r0, .L91+4
 1410 0040 FFF7FEFF 		bl	print_mqtt
 1411              	.LVL224:
 640:main.c        **** }
 1412              		.loc 1 640 0
 1413 0044 FFF7FEFF 		bl	IR_wait
 1414              	.LVL225:
 641:main.c        **** 
 1415              		.loc 1 641 0
 1416 0048 04B0     		add	sp, sp, #16
 1417              		.cfi_def_cfa_offset 8
 1418              		@ sp needed
 1419 004a 10BD     		pop	{r4, pc}
 1420              	.LVL226:
 1421              	.L92:
 1422              		.align	2
 1423              	.L91:
 1424 004c 88000000 		.word	.LC13
 1425 0050 8C000000 		.word	.LC14
 1426              		.cfi_endproc
 1427              	.LFE98:
 1428              		.size	moveToStartLineAndWait, .-moveToStartLineAndWait
ARM GAS  C:\Users\samue\AppData\Local\Temp\ccm0rw4c.s 			page 45


 1429              		.section	.text.startLineFollowing,"ax",%progbits
 1430              		.align	2
 1431              		.global	startLineFollowing
 1432              		.thumb
 1433              		.thumb_func
 1434              		.type	startLineFollowing, %function
 1435              	startLineFollowing:
 1436              	.LFB99:
 643:main.c        ****   TickType_t start = xTaskGetTickCount();
 1437              		.loc 1 643 0
 1438              		.cfi_startproc
 1439              		@ args = 0, pretend = 0, frame = 16
 1440              		@ frame_needed = 0, uses_anonymous_args = 0
 1441 0000 10B5     		push	{r4, lr}
 1442              		.cfi_def_cfa_offset 8
 1443              		.cfi_offset 4, -8
 1444              		.cfi_offset 14, -4
 1445 0002 84B0     		sub	sp, sp, #16
 1446              		.cfi_def_cfa_offset 24
 1447 0004 04AB     		add	r3, sp, #16
 1448 0006 03E90700 		stmdb	r3, {r0, r1, r2}
 644:main.c        ****   print_mqtt("Zumo035/start","%d",start);
 1449              		.loc 1 644 0
 1450 000a FFF7FEFF 		bl	xTaskGetTickCount
 1451              	.LVL227:
 1452 000e 0446     		mov	r4, r0
 1453              	.LVL228:
 645:main.c        ****   motor_forward(50,0);
 1454              		.loc 1 645 0
 1455 0010 0246     		mov	r2, r0
 1456 0012 0949     		ldr	r1, .L96
 1457 0014 0948     		ldr	r0, .L96+4
 1458              	.LVL229:
 1459 0016 FFF7FEFF 		bl	print_mqtt
 1460              	.LVL230:
 646:main.c        ****   while(overLine(dig)){};
 1461              		.loc 1 646 0
 1462 001a 0021     		movs	r1, #0
 1463 001c 3220     		movs	r0, #50
 1464 001e FFF7FEFF 		bl	motor_forward
 1465              	.LVL231:
 1466              	.L94:
 647:main.c        ****   return start;
 1467              		.loc 1 647 0 discriminator 1
 1468 0022 04AB     		add	r3, sp, #16
 1469 0024 13E90700 		ldmdb	r3, {r0, r1, r2}
 1470 0028 FFF7FEFF 		bl	overLine
 1471              	.LVL232:
 1472 002c 0028     		cmp	r0, #0
 1473 002e F8D1     		bne	.L94
 649:main.c        **** 
 1474              		.loc 1 649 0
 1475 0030 2046     		mov	r0, r4
 1476 0032 04B0     		add	sp, sp, #16
 1477              		.cfi_def_cfa_offset 8
 1478              		@ sp needed
 1479 0034 10BD     		pop	{r4, pc}
ARM GAS  C:\Users\samue\AppData\Local\Temp\ccm0rw4c.s 			page 46


 1480              	.LVL233:
 1481              	.L97:
 1482 0036 00BF     		.align	2
 1483              	.L96:
 1484 0038 14000000 		.word	.LC3
 1485 003c 70000000 		.word	.LC11
 1486              		.cfi_endproc
 1487              	.LFE99:
 1488              		.size	startLineFollowing, .-startLineFollowing
 1489              		.section	.text.moveToFinishLine,"ax",%progbits
 1490              		.align	2
 1491              		.global	moveToFinishLine
 1492              		.thumb
 1493              		.thumb_func
 1494              		.type	moveToFinishLine, %function
 1495              	moveToFinishLine:
 1496              	.LFB100:
 651:main.c        ****   motor_forward(50,0);
 1497              		.loc 1 651 0
 1498              		.cfi_startproc
 1499              		@ args = 0, pretend = 0, frame = 16
 1500              		@ frame_needed = 0, uses_anonymous_args = 0
 1501              	.LVL234:
 1502 0000 70B5     		push	{r4, r5, r6, lr}
 1503              		.cfi_def_cfa_offset 16
 1504              		.cfi_offset 4, -16
 1505              		.cfi_offset 5, -12
 1506              		.cfi_offset 6, -8
 1507              		.cfi_offset 14, -4
 1508 0002 84B0     		sub	sp, sp, #16
 1509              		.cfi_def_cfa_offset 32
 1510 0004 0646     		mov	r6, r0
 1511 0006 04A8     		add	r0, sp, #16
 1512              	.LVL235:
 1513 0008 00E90E00 		stmdb	r0, {r1, r2, r3}
 652:main.c        ****   while(overLine(dig)){};
 1514              		.loc 1 652 0
 1515 000c 0021     		movs	r1, #0
 1516 000e 3220     		movs	r0, #50
 1517 0010 FFF7FEFF 		bl	motor_forward
 1518              	.LVL236:
 1519              	.L99:
 653:main.c        ****   while(!overLine(dig)){};
 1520              		.loc 1 653 0 discriminator 1
 1521 0014 04AB     		add	r3, sp, #16
 1522 0016 13E90700 		ldmdb	r3, {r0, r1, r2}
 1523 001a FFF7FEFF 		bl	overLine
 1524              	.LVL237:
 1525 001e 0028     		cmp	r0, #0
 1526 0020 F8D1     		bne	.L99
 1527              	.L100:
 654:main.c        ****   TickType_t stop = xTaskGetTickCount();
 1528              		.loc 1 654 0 discriminator 1
 1529 0022 04AB     		add	r3, sp, #16
 1530 0024 13E90700 		ldmdb	r3, {r0, r1, r2}
 1531 0028 FFF7FEFF 		bl	overLine
 1532              	.LVL238:
ARM GAS  C:\Users\samue\AppData\Local\Temp\ccm0rw4c.s 			page 47


 1533 002c 0028     		cmp	r0, #0
 1534 002e F8D0     		beq	.L100
 655:main.c        ****   print_mqtt("Zumo035/stop","%d",stop);
 1535              		.loc 1 655 0
 1536 0030 FFF7FEFF 		bl	xTaskGetTickCount
 1537              	.LVL239:
 1538 0034 0546     		mov	r5, r0
 1539              	.LVL240:
 656:main.c        ****   motor_stop();
 1540              		.loc 1 656 0
 1541 0036 074C     		ldr	r4, .L102
 1542 0038 0246     		mov	r2, r0
 1543 003a 2146     		mov	r1, r4
 1544 003c 0648     		ldr	r0, .L102+4
 1545              	.LVL241:
 1546 003e FFF7FEFF 		bl	print_mqtt
 1547              	.LVL242:
 657:main.c        ****   print_mqtt("Zumo035/time","%d",stop-start);
 1548              		.loc 1 657 0
 1549 0042 FFF7FEFF 		bl	motor_stop
 1550              	.LVL243:
 658:main.c        **** }
 1551              		.loc 1 658 0
 1552 0046 AA1B     		subs	r2, r5, r6
 1553 0048 2146     		mov	r1, r4
 1554 004a 0448     		ldr	r0, .L102+8
 1555 004c FFF7FEFF 		bl	print_mqtt
 1556              	.LVL244:
 659:main.c        **** 
 1557              		.loc 1 659 0
 1558 0050 04B0     		add	sp, sp, #16
 1559              		.cfi_def_cfa_offset 16
 1560              		@ sp needed
 1561 0052 70BD     		pop	{r4, r5, r6, pc}
 1562              	.LVL245:
 1563              	.L103:
 1564              		.align	2
 1565              	.L102:
 1566 0054 14000000 		.word	.LC3
 1567 0058 18000000 		.word	.LC4
 1568 005c 28000000 		.word	.LC5
 1569              		.cfi_endproc
 1570              	.LFE100:
 1571              		.size	moveToFinishLine, .-moveToFinishLine
 1572              		.section	.text.rp_lineFollower,"ax",%progbits
 1573              		.align	2
 1574              		.global	rp_lineFollower
 1575              		.thumb
 1576              		.thumb_func
 1577              		.type	rp_lineFollower, %function
 1578              	rp_lineFollower:
 1579              	.LFB96:
 608:main.c        ****   struct sensors_ ref, dig;
 1580              		.loc 1 608 0
 1581              		.cfi_startproc
 1582              		@ args = 0, pretend = 0, frame = 24
 1583              		@ frame_needed = 0, uses_anonymous_args = 0
ARM GAS  C:\Users\samue\AppData\Local\Temp\ccm0rw4c.s 			page 48


 1584 0000 30B5     		push	{r4, r5, lr}
 1585              		.cfi_def_cfa_offset 12
 1586              		.cfi_offset 4, -12
 1587              		.cfi_offset 5, -8
 1588              		.cfi_offset 14, -4
 1589 0002 8BB0     		sub	sp, sp, #44
 1590              		.cfi_def_cfa_offset 56
 1591              	.LVL246:
 613:main.c        ****   moveToStartLineAndWait("line",dig);
 1592              		.loc 1 613 0
 1593 0004 144D     		ldr	r5, .L108
 1594 0006 2846     		mov	r0, r5
 1595 0008 FFF7FEFF 		bl	startComponents
 1596              	.LVL247:
 614:main.c        ****   start = startLineFollowing(dig);
 1597              		.loc 1 614 0
 1598 000c 04AC     		add	r4, sp, #16
 1599 000e 94E80E00 		ldmia	r4, {r1, r2, r3}
 1600 0012 2846     		mov	r0, r5
 1601 0014 FFF7FEFF 		bl	moveToStartLineAndWait
 1602              	.LVL248:
 615:main.c        ****   while(!overLine(dig)){
 1603              		.loc 1 615 0
 1604 0018 94E80700 		ldmia	r4, {r0, r1, r2}
 1605 001c FFF7FEFF 		bl	startLineFollowing
 1606              	.LVL249:
 1607 0020 0546     		mov	r5, r0
 1608              	.LVL250:
 611:main.c        **** 
 1609              		.loc 1 611 0
 1610 0022 0024     		movs	r4, #0
 616:main.c        ****     line = followLine(ref,dig,line);
 1611              		.loc 1 616 0
 1612 0024 0CE0     		b	.L105
 1613              	.LVL251:
 1614              	.L106:
 617:main.c        ****   }
 1615              		.loc 1 617 0
 1616 0026 0294     		str	r4, [sp, #8]
 1617 0028 05AB     		add	r3, sp, #20
 1618 002a 93E80300 		ldmia	r3, {r0, r1}
 1619 002e 8DE80300 		stmia	sp, {r0, r1}
 1620 0032 049B     		ldr	r3, [sp, #16]
 1621 0034 0AAA     		add	r2, sp, #40
 1622 0036 12E90700 		ldmdb	r2, {r0, r1, r2}
 1623 003a FFF7FEFF 		bl	followLine
 1624              	.LVL252:
 1625 003e 0446     		mov	r4, r0
 1626              	.LVL253:
 1627              	.L105:
 616:main.c        ****     line = followLine(ref,dig,line);
 1628              		.loc 1 616 0
 1629 0040 04AB     		add	r3, sp, #16
 1630 0042 93E80700 		ldmia	r3, {r0, r1, r2}
 1631 0046 FFF7FEFF 		bl	overLine
 1632              	.LVL254:
 1633 004a 0028     		cmp	r0, #0
ARM GAS  C:\Users\samue\AppData\Local\Temp\ccm0rw4c.s 			page 49


 1634 004c EBD0     		beq	.L106
 619:main.c        **** }
 1635              		.loc 1 619 0
 1636 004e 2846     		mov	r0, r5
 1637 0050 FFF7FEFF 		bl	moveToFinishLine
 1638              	.LVL255:
 620:main.c        **** 
 1639              		.loc 1 620 0
 1640 0054 0BB0     		add	sp, sp, #44
 1641              		.cfi_def_cfa_offset 12
 1642              		@ sp needed
 1643 0056 30BD     		pop	{r4, r5, pc}
 1644              	.LVL256:
 1645              	.L109:
 1646              		.align	2
 1647              	.L108:
 1648 0058 38000000 		.word	.LC6
 1649              		.cfi_endproc
 1650              	.LFE96:
 1651              		.size	rp_lineFollower, .-rp_lineFollower
 1652              		.section	.text.moveToNextIntersection,"ax",%progbits
 1653              		.align	2
 1654              		.global	moveToNextIntersection
 1655              		.thumb
 1656              		.thumb_func
 1657              		.type	moveToNextIntersection, %function
 1658              	moveToNextIntersection:
 1659              	.LFB103:
 881:main.c        **** 
 1660              		.loc 1 881 0
 1661              		.cfi_startproc
 1662              		@ args = 16, pretend = 8, frame = 16
 1663              		@ frame_needed = 0, uses_anonymous_args = 0
 1664 0000 82B0     		sub	sp, sp, #8
 1665              		.cfi_def_cfa_offset 8
 1666 0002 30B5     		push	{r4, r5, lr}
 1667              		.cfi_def_cfa_offset 20
 1668              		.cfi_offset 4, -20
 1669              		.cfi_offset 5, -16
 1670              		.cfi_offset 14, -12
 1671 0004 85B0     		sub	sp, sp, #20
 1672              		.cfi_def_cfa_offset 40
 1673 0006 04AC     		add	r4, sp, #16
 1674 0008 04E90700 		stmdb	r4, {r0, r1, r2}
 1675 000c 0993     		str	r3, [sp, #36]
 883:main.c        ****     while(true) {
 1676              		.loc 1 883 0
 1677 000e 4FF49671 		mov	r1, #300
 1678 0012 3220     		movs	r0, #50
 1679 0014 FFF7FEFF 		bl	motor_forward
 1680              	.LVL257:
 1681              	.L112:
 885:main.c        ****         reflectance_digital(&dig);
 1682              		.loc 1 885 0
 1683 0018 09AB     		add	r3, sp, #36
 1684 001a 93E80700 		ldmia	r3, {r0, r1, r2}
 1685 001e FFF7FEFF 		bl	followLine2
ARM GAS  C:\Users\samue\AppData\Local\Temp\ccm0rw4c.s 			page 50


 1686              	.LVL258:
 886:main.c        **** 
 1687              		.loc 1 886 0
 1688 0022 01A8     		add	r0, sp, #4
 1689 0024 FFF7FEFF 		bl	reflectance_digital
 1690              	.LVL259:
 888:main.c        ****            dig.l3&dig.l2&dig.l1&dig.r1 ||
 1691              		.loc 1 888 0
 1692 0028 BDF80410 		ldrh	r1, [sp, #4]
 1693 002c BDF80630 		ldrh	r3, [sp, #6]
 1694 0030 BDF80840 		ldrh	r4, [sp, #8]
 1695 0034 BDF80A20 		ldrh	r2, [sp, #10]
 1696 0038 0B40     		ands	r3, r3, r1
 1697 003a 2340     		ands	r3, r3, r4
 1698 003c 1340     		ands	r3, r3, r2
 1699 003e BDF80C00 		ldrh	r0, [sp, #12]
 1700 0042 BDF80E10 		ldrh	r1, [sp, #14]
 1701 0046 03EA0005 		and	r5, r3, r0
 1702 004a 2942     		tst	r1, r5
 1703 004c 04D1     		bne	.L111
 888:main.c        ****            dig.l3&dig.l2&dig.l1&dig.r1 ||
 1704              		.loc 1 888 0 is_stmt 0 discriminator 1
 1705 004e 1BB9     		cbnz	r3, .L111
 889:main.c        ****            dig.l1&dig.r1&dig.r2&dig.r3){
 1706              		.loc 1 889 0 is_stmt 1
 1707 0050 2240     		ands	r2, r2, r4
 1708 0052 0240     		ands	r2, r2, r0
 1709 0054 1142     		tst	r1, r2
 1710 0056 DFD0     		beq	.L112
 1711              	.L111:
 896:main.c        ****     motor_forward(50, 200);
 1712              		.loc 1 896 0 discriminator 1
 1713 0058 04AB     		add	r3, sp, #16
 1714 005a 13E90700 		ldmdb	r3, {r0, r1, r2}
 1715 005e FFF7FEFF 		bl	overLine
 1716              	.LVL260:
 1717 0062 0028     		cmp	r0, #0
 1718 0064 F8D1     		bne	.L111
 897:main.c        **** }
 1719              		.loc 1 897 0
 1720 0066 C821     		movs	r1, #200
 1721 0068 3220     		movs	r0, #50
 1722 006a FFF7FEFF 		bl	motor_forward
 1723              	.LVL261:
 898:main.c        **** 
 1724              		.loc 1 898 0
 1725 006e 05B0     		add	sp, sp, #20
 1726              		.cfi_def_cfa_offset 20
 1727              		@ sp needed
 1728 0070 BDE83040 		pop	{r4, r5, lr}
 1729              		.cfi_restore 14
 1730              		.cfi_restore 5
 1731              		.cfi_restore 4
 1732              		.cfi_def_cfa_offset 8
 1733 0074 02B0     		add	sp, sp, #8
 1734              		.cfi_def_cfa_offset 0
 1735 0076 7047     		bx	lr
ARM GAS  C:\Users\samue\AppData\Local\Temp\ccm0rw4c.s 			page 51


 1736              		.cfi_endproc
 1737              	.LFE103:
 1738              		.size	moveToNextIntersection, .-moveToNextIntersection
 1739              		.section	.text.moveToStartLine,"ax",%progbits
 1740              		.align	2
 1741              		.global	moveToStartLine
 1742              		.thumb
 1743              		.thumb_func
 1744              		.type	moveToStartLine, %function
 1745              	moveToStartLine:
 1746              	.LFB106:
 939:main.c        ****   while(SW1_Read()){};  // start only after button press
 1747              		.loc 1 939 0
 1748              		.cfi_startproc
 1749              		@ args = 0, pretend = 0, frame = 0
 1750              		@ frame_needed = 0, uses_anonymous_args = 0
 1751 0000 08B5     		push	{r3, lr}
 1752              		.cfi_def_cfa_offset 8
 1753              		.cfi_offset 3, -8
 1754              		.cfi_offset 14, -4
 1755              	.L115:
 940:main.c        ****   vTaskDelay(500);
 1756              		.loc 1 940 0 discriminator 1
 1757 0002 FFF7FEFF 		bl	SW1_Read
 1758              	.LVL262:
 1759 0006 0028     		cmp	r0, #0
 1760 0008 FBD1     		bne	.L115
 941:main.c        ****   motor_forward(50,0);
 1761              		.loc 1 941 0
 1762 000a 4FF4FA70 		mov	r0, #500
 1763 000e FFF7FEFF 		bl	vTaskDelay
 1764              	.LVL263:
 942:main.c        ****   while(!overLine()){}; // move to line and stop
 1765              		.loc 1 942 0
 1766 0012 0021     		movs	r1, #0
 1767 0014 3220     		movs	r0, #50
 1768 0016 FFF7FEFF 		bl	motor_forward
 1769              	.LVL264:
 1770              	.L116:
 943:main.c        ****   motor_stop();
 1771              		.loc 1 943 0 discriminator 1
 1772 001a FFF7FEFF 		bl	overLine
 1773              	.LVL265:
 1774 001e 0028     		cmp	r0, #0
 1775 0020 FBD0     		beq	.L116
 944:main.c        **** }
 1776              		.loc 1 944 0
 1777 0022 FFF7FEFF 		bl	motor_stop
 1778              	.LVL266:
 1779 0026 08BD     		pop	{r3, pc}
 1780              		.cfi_endproc
 1781              	.LFE106:
 1782              		.size	moveToStartLine, .-moveToStartLine
 1783              		.section	.text.moveToNextLine,"ax",%progbits
 1784              		.align	2
 1785              		.global	moveToNextLine
 1786              		.thumb
ARM GAS  C:\Users\samue\AppData\Local\Temp\ccm0rw4c.s 			page 52


 1787              		.thumb_func
 1788              		.type	moveToNextLine, %function
 1789              	moveToNextLine:
 1790              	.LFB107:
 948:main.c        ****   while(overLine(dig)){};
 1791              		.loc 1 948 0
 1792              		.cfi_startproc
 1793              		@ args = 0, pretend = 0, frame = 16
 1794              		@ frame_needed = 0, uses_anonymous_args = 0
 1795 0000 00B5     		push	{lr}
 1796              		.cfi_def_cfa_offset 4
 1797              		.cfi_offset 14, -4
 1798 0002 85B0     		sub	sp, sp, #20
 1799              		.cfi_def_cfa_offset 24
 1800 0004 04AB     		add	r3, sp, #16
 1801 0006 03E90700 		stmdb	r3, {r0, r1, r2}
 1802              	.L119:
 949:main.c        ****   while(!overLine(dig)){};
 1803              		.loc 1 949 0 discriminator 1
 1804 000a 04AB     		add	r3, sp, #16
 1805 000c 13E90700 		ldmdb	r3, {r0, r1, r2}
 1806 0010 FFF7FEFF 		bl	overLine
 1807              	.LVL267:
 1808 0014 0028     		cmp	r0, #0
 1809 0016 F8D1     		bne	.L119
 1810              	.L120:
 950:main.c        **** }
 1811              		.loc 1 950 0 discriminator 1
 1812 0018 04AB     		add	r3, sp, #16
 1813 001a 13E90700 		ldmdb	r3, {r0, r1, r2}
 1814 001e FFF7FEFF 		bl	overLine
 1815              	.LVL268:
 1816 0022 0028     		cmp	r0, #0
 1817 0024 F8D0     		beq	.L120
 951:main.c        **** 
 1818              		.loc 1 951 0
 1819 0026 05B0     		add	sp, sp, #20
 1820              		.cfi_def_cfa_offset 4
 1821              		@ sp needed
 1822 0028 5DF804FB 		ldr	pc, [sp], #4
 1823              		.cfi_endproc
 1824              	.LFE107:
 1825              		.size	moveToNextLine, .-moveToNextLine
 1826              		.section	.text.allSensorsBlack,"ax",%progbits
 1827              		.align	2
 1828              		.global	allSensorsBlack
 1829              		.thumb
 1830              		.thumb_func
 1831              		.type	allSensorsBlack, %function
 1832              	allSensorsBlack:
 1833              	.LFB112:
1059:main.c        **** 
1060:main.c        **** bool allSensorsBlack(struct sensors_ dig){
 1834              		.loc 1 1060 0
 1835              		.cfi_startproc
 1836              		@ args = 0, pretend = 0, frame = 16
 1837              		@ frame_needed = 0, uses_anonymous_args = 0
ARM GAS  C:\Users\samue\AppData\Local\Temp\ccm0rw4c.s 			page 53


 1838 0000 30B5     		push	{r4, r5, lr}
 1839              		.cfi_def_cfa_offset 12
 1840              		.cfi_offset 4, -12
 1841              		.cfi_offset 5, -8
 1842              		.cfi_offset 14, -4
 1843 0002 85B0     		sub	sp, sp, #20
 1844              		.cfi_def_cfa_offset 32
 1845 0004 01AB     		add	r3, sp, #4
 1846 0006 83E80700 		stmia	r3, {r0, r1, r2}
1061:main.c        ****   reflectance_digital(&dig);
 1847              		.loc 1 1061 0
 1848 000a 1846     		mov	r0, r3
 1849 000c FFF7FEFF 		bl	reflectance_digital
 1850              	.LVL269:
1062:main.c        ****   return dig.l3&dig.l2&dig.l1&dig.r1&dig.r2&dig.r3;
 1851              		.loc 1 1062 0
 1852 0010 BDF80420 		ldrh	r2, [sp, #4]
 1853 0014 BDF80610 		ldrh	r1, [sp, #6]
 1854 0018 BDF80830 		ldrh	r3, [sp, #8]
 1855 001c BDF80A50 		ldrh	r5, [sp, #10]
 1856 0020 BDF80C40 		ldrh	r4, [sp, #12]
 1857 0024 BDF80E00 		ldrh	r0, [sp, #14]
 1858 0028 0A40     		ands	r2, r2, r1
 1859 002a 1A40     		ands	r2, r2, r3
 1860 002c 05EA0203 		and	r3, r5, r2
 1861 0030 2340     		ands	r3, r3, r4
 1862 0032 1842     		tst	r0, r3
1063:main.c        **** }
 1863              		.loc 1 1063 0
 1864 0034 14BF     		ite	ne
 1865 0036 0120     		movne	r0, #1
 1866 0038 0020     		moveq	r0, #0
 1867 003a 05B0     		add	sp, sp, #20
 1868              		.cfi_def_cfa_offset 12
 1869              		@ sp needed
 1870 003c 30BD     		pop	{r4, r5, pc}
 1871              		.cfi_endproc
 1872              	.LFE112:
 1873              		.size	allSensorsBlack, .-allSensorsBlack
 1874 003e 00BF     		.section	.text.anySensorBlack,"ax",%progbits
 1875              		.align	2
 1876              		.global	anySensorBlack
 1877              		.thumb
 1878              		.thumb_func
 1879              		.type	anySensorBlack, %function
 1880              	anySensorBlack:
 1881              	.LFB113:
1064:main.c        **** 
1065:main.c        **** bool anySensorBlack(struct sensors_ dig){
 1882              		.loc 1 1065 0
 1883              		.cfi_startproc
 1884              		@ args = 0, pretend = 0, frame = 16
 1885              		@ frame_needed = 0, uses_anonymous_args = 0
 1886 0000 30B5     		push	{r4, r5, lr}
 1887              		.cfi_def_cfa_offset 12
 1888              		.cfi_offset 4, -12
 1889              		.cfi_offset 5, -8
ARM GAS  C:\Users\samue\AppData\Local\Temp\ccm0rw4c.s 			page 54


 1890              		.cfi_offset 14, -4
 1891 0002 85B0     		sub	sp, sp, #20
 1892              		.cfi_def_cfa_offset 32
 1893 0004 01AB     		add	r3, sp, #4
 1894 0006 83E80700 		stmia	r3, {r0, r1, r2}
1066:main.c        ****   reflectance_digital(&dig);
 1895              		.loc 1 1066 0
 1896 000a 1846     		mov	r0, r3
 1897 000c FFF7FEFF 		bl	reflectance_digital
 1898              	.LVL270:
1067:main.c        ****   return dig.l3|dig.l2|dig.l1|dig.r1|dig.r2|dig.r3;
 1899              		.loc 1 1067 0
 1900 0010 BDF80420 		ldrh	r2, [sp, #4]
 1901 0014 BDF80610 		ldrh	r1, [sp, #6]
 1902 0018 BDF80830 		ldrh	r3, [sp, #8]
 1903 001c BDF80A50 		ldrh	r5, [sp, #10]
 1904 0020 BDF80C40 		ldrh	r4, [sp, #12]
 1905 0024 BDF80E00 		ldrh	r0, [sp, #14]
 1906 0028 0A43     		orrs	r2, r2, r1
 1907 002a 1A43     		orrs	r2, r2, r3
 1908 002c 45EA0203 		orr	r3, r5, r2
 1909 0030 2343     		orrs	r3, r3, r4
 1910 0032 0343     		orrs	r3, r0, r3
1068:main.c        **** }
 1911              		.loc 1 1068 0
 1912 0034 14BF     		ite	ne
 1913 0036 0120     		movne	r0, #1
 1914 0038 0020     		moveq	r0, #0
 1915 003a 05B0     		add	sp, sp, #20
 1916              		.cfi_def_cfa_offset 12
 1917              		@ sp needed
 1918 003c 30BD     		pop	{r4, r5, pc}
 1919              		.cfi_endproc
 1920              	.LFE113:
 1921              		.size	anySensorBlack, .-anySensorBlack
 1922 003e 00BF     		.section	.text.blackSensors,"ax",%progbits
 1923              		.align	2
 1924              		.global	blackSensors
 1925              		.thumb
 1926              		.thumb_func
 1927              		.type	blackSensors, %function
 1928              	blackSensors:
 1929              	.LFB114:
1069:main.c        **** 
1070:main.c        **** int blackSensors(struct sensors_ dig){
 1930              		.loc 1 1070 0
 1931              		.cfi_startproc
 1932              		@ args = 0, pretend = 0, frame = 16
 1933              		@ frame_needed = 0, uses_anonymous_args = 0
 1934 0000 00B5     		push	{lr}
 1935              		.cfi_def_cfa_offset 4
 1936              		.cfi_offset 14, -4
 1937 0002 85B0     		sub	sp, sp, #20
 1938              		.cfi_def_cfa_offset 24
 1939 0004 01AB     		add	r3, sp, #4
 1940 0006 83E80700 		stmia	r3, {r0, r1, r2}
1071:main.c        ****   reflectance_digital(&dig);
ARM GAS  C:\Users\samue\AppData\Local\Temp\ccm0rw4c.s 			page 55


 1941              		.loc 1 1071 0
 1942 000a 1846     		mov	r0, r3
 1943 000c FFF7FEFF 		bl	reflectance_digital
 1944              	.LVL271:
1072:main.c        ****   return dig.l3+dig.l2+dig.l1+dig.r1+dig.r2+dig.r3;
 1945              		.loc 1 1072 0
 1946 0010 BDF80400 		ldrh	r0, [sp, #4]
 1947 0014 BDF80630 		ldrh	r3, [sp, #6]
 1948 0018 0344     		add	r3, r3, r0
 1949 001a BDF80800 		ldrh	r0, [sp, #8]
 1950 001e 0344     		add	r3, r3, r0
 1951 0020 BDF80A00 		ldrh	r0, [sp, #10]
 1952 0024 0344     		add	r3, r3, r0
 1953 0026 BDF80C00 		ldrh	r0, [sp, #12]
 1954 002a 0344     		add	r3, r3, r0
 1955 002c BDF80E00 		ldrh	r0, [sp, #14]
1073:main.c        **** }
 1956              		.loc 1 1073 0
 1957 0030 1844     		add	r0, r0, r3
 1958 0032 05B0     		add	sp, sp, #20
 1959              		.cfi_def_cfa_offset 4
 1960              		@ sp needed
 1961 0034 5DF804FB 		ldr	pc, [sp], #4
 1962              		.cfi_endproc
 1963              	.LFE114:
 1964              		.size	blackSensors, .-blackSensors
 1965              		.global	__aeabi_i2f
 1966              		.section	.text.ADCtoBatteryRatio,"ax",%progbits
 1967              		.align	2
 1968              		.global	ADCtoBatteryRatio
 1969              		.thumb
 1970              		.thumb_func
 1971              		.type	ADCtoBatteryRatio, %function
 1972              	ADCtoBatteryRatio:
 1973              	.LFB115:
1074:main.c        **** 
1075:main.c        **** /*///////////////////////////// OTHER FUNCTIONS \\\\\\\\\\\\\\\\\\\\\\\\\\\\\\*/
1076:main.c        **** 
1077:main.c        **** float ADCtoBatteryRatio(float R1,float R2,float V_ref,int ADC_res){
 1974              		.loc 1 1077 0
 1975              		.cfi_startproc
 1976              		@ args = 0, pretend = 0, frame = 0
 1977              		@ frame_needed = 0, uses_anonymous_args = 0
 1978              	.LVL272:
 1979 0000 70B5     		push	{r4, r5, r6, lr}
 1980              		.cfi_def_cfa_offset 16
 1981              		.cfi_offset 4, -16
 1982              		.cfi_offset 5, -12
 1983              		.cfi_offset 6, -8
 1984              		.cfi_offset 14, -4
 1985 0002 0C46     		mov	r4, r1
 1986 0004 1546     		mov	r5, r2
 1987 0006 1E46     		mov	r6, r3
1078:main.c        ****   /* Function that calculates ratio between ADC value and battery voltage
1079:main.c        ****   1 GENERAL EXPLANATION
1080:main.c        ****   1.1  Zumo robot has a analog-to-digital converter (ADC) that returns 12-bit
1081:main.c        ****        values. Values can be converted to voltage with following:
ARM GAS  C:\Users\samue\AppData\Local\Temp\ccm0rw4c.s 			page 56


1082:main.c        **** 
1083:main.c        ****          V_ADC = V_ref * (ADC_val / ((2 ^ ADC_res) - 1)
1084:main.c        **** 
1085:main.c        ****        ADC in the robot is unable to measure voltage of four AA-batteries
1086:main.c        ****        directly. To work around this, two resistors were set in the circuit,
1087:main.c        ****        one before and one after ADC:
1088:main.c        **** 
1089:main.c        ****                  +----------->-----------+
1090:main.c        ****                  |                       |
1091:main.c        ****                  |                      |_| R1
1092:main.c        ****              +   |                       |
1093:main.c        ****                -----                     |
1094:main.c        ****        Battery  ---                      +-----< Analog-to-digital converter
1095:main.c        ****                -----                     |
1096:main.c        ****                 ---                      |
1097:main.c        ****              -   |                      |_| R2
1098:main.c        ****                  |                       |
1099:main.c        ****                  |                       |
1100:main.c        ****                  +-----------------------+
1101:main.c        **** 
1102:main.c        ****        Now the battery voltage can be calculated with:
1103:main.c        **** 
1104:main.c        ****          V_bat = V_ADC / (R2 / (R1 + R2))
1105:main.c        **** 
1106:main.c        ****   2 PARAMETERS EXPLAINED
1107:main.c        ****   2.1 float R1 : Resistance of the resistor before ADC
1108:main.c        ****   2.2 float R2 : Resistance of the resistor after ADC
1109:main.c        ****   2.3 float V_ref : Reference voltage
1110:main.c        ****   2.4 int ADC_res : Resolution of ADC
1111:main.c        **** 
1112:main.c        ****   3 RETURN
1113:main.c        ****   3.1 Function returns a float value that is equal to the ratio between battery
1114:main.c        ****       voltage and ADC result. This value can be used to convert ADC value to
1115:main.c        ****       battery voltage by multiplying ADC value with it: ADC_val * ratio.
1116:main.c        **** 
1117:main.c        ****   4 FUNCTION CALL EXAMPLES
1118:main.c        ****   ADCtoBatteryRatio(5.0,10.0,5.0,12); // Use this for Zumo robot
1119:main.c        ****   ADCtoBatteryRatio(5.0,10.0,5.0,8);  // example with 8-bit ADC
1120:main.c        **** 
1121:main.c        ****   Parts of this explanation may be referenced with part number in parenthesis.
1122:main.c        ****   */
1123:main.c        **** 
1124:main.c        ****   float resistance = R2 / (R1 + R2);     // overall resistance
 1988              		.loc 1 1124 0
 1989 0008 FFF7FEFF 		bl	__aeabi_fadd
 1990              	.LVL273:
 1991 000c 0146     		mov	r1, r0
 1992 000e 2046     		mov	r0, r4
 1993 0010 FFF7FEFF 		bl	__aeabi_fdiv
 1994              	.LVL274:
 1995 0014 0446     		mov	r4, r0
 1996              	.LVL275:
1125:main.c        ****   float resolution = (1 << ADC_res) - 1; // (2^ADC_res)-1 with left-shift
 1997              		.loc 1 1125 0
 1998 0016 0120     		movs	r0, #1
 1999              	.LVL276:
 2000 0018 B040     		lsls	r0, r0, r6
ARM GAS  C:\Users\samue\AppData\Local\Temp\ccm0rw4c.s 			page 57


 2001 001a 0138     		subs	r0, r0, #1
 2002 001c FFF7FEFF 		bl	__aeabi_i2f
 2003              	.LVL277:
1126:main.c        **** 
1127:main.c        ****   return V_ref / resolution / resistance;
 2004              		.loc 1 1127 0
 2005 0020 0146     		mov	r1, r0
 2006 0022 2846     		mov	r0, r5
 2007              	.LVL278:
 2008 0024 FFF7FEFF 		bl	__aeabi_fdiv
 2009              	.LVL279:
 2010 0028 2146     		mov	r1, r4
 2011 002a FFF7FEFF 		bl	__aeabi_fdiv
 2012              	.LVL280:
1128:main.c        **** }
 2013              		.loc 1 1128 0
 2014 002e 70BD     		pop	{r4, r5, r6, pc}
 2015              		.cfi_endproc
 2016              	.LFE115:
 2017              		.size	ADCtoBatteryRatio, .-ADCtoBatteryRatio
 2018              		.section	.text.ledOnFor,"ax",%progbits
 2019              		.align	2
 2020              		.global	ledOnFor
 2021              		.thumb
 2022              		.thumb_func
 2023              		.type	ledOnFor, %function
 2024              	ledOnFor:
 2025              	.LFB116:
1129:main.c        **** 
1130:main.c        **** void ledOnFor(uint duration){
 2026              		.loc 1 1130 0
 2027              		.cfi_startproc
 2028              		@ args = 0, pretend = 0, frame = 0
 2029              		@ frame_needed = 0, uses_anonymous_args = 0
 2030              	.LVL281:
 2031 0000 10B5     		push	{r4, lr}
 2032              		.cfi_def_cfa_offset 8
 2033              		.cfi_offset 4, -8
 2034              		.cfi_offset 14, -4
 2035 0002 0446     		mov	r4, r0
1131:main.c        ****   /* Function that turns BatteryLed on for given amount of time.
1132:main.c        ****   1 GENERAL EXPLANATION
1133:main.c        ****   1.1  Zumo robot has a blue led light called BatteryLed here. There
1134:main.c        ****        is a built-in function called BatteryLed_Write that allows
1135:main.c        ****        code writer to turn the led on or off based on the input.
1136:main.c        ****        Inputs and corresponding actions for BatteryLed_Write are:
1137:main.c        ****   1.1.1  1 : turn the led on
1138:main.c        ****   1.1.2  0 : turn the led off
1139:main.c        ****   1.2  Zumo robot has a built in function called vTaskDelay that
1140:main.c        ****        pauses the robot's task for given amount of time. The function
1141:main.c        ****        has one input parameter and it'll set the duration of the delay
1142:main.c        ****        in milliseconds.
1143:main.c        ****   1.3  This function uses the functions explained in 1.1 and 1.2 to do
1144:main.c        ****        the following:
1145:main.c        ****          - Turn BatteryLed on.
1146:main.c        ****          - Wait for given amount of time.
1147:main.c        ****          - Turn BatteryLed off.
ARM GAS  C:\Users\samue\AppData\Local\Temp\ccm0rw4c.s 			page 58


1148:main.c        **** 
1149:main.c        ****   2 PARAMETERS EXPLAINED
1150:main.c        ****   2.1   uint duration : Amount of time in milliseconds to have the
1151:main.c        ****                         led turned on for.
1152:main.c        ****   2.1.1 duration example : 200
1153:main.c        **** 
1154:main.c        ****   3 LINKED FUNCTIONS
1155:main.c        ****   3.1 BatteryLed_Write(int);
1156:main.c        ****   3.2 vTaskDelay(int);
1157:main.c        **** 
1158:main.c        ****   4 FUNCTION CALL EXAMPLES
1159:main.c        ****     ledOnFor(400);
1160:main.c        ****     ledOnFor(60);
1161:main.c        **** 
1162:main.c        ****   Parts of this explanation may be referenced with part number in parenthesis.
1163:main.c        ****   */
1164:main.c        **** 
1165:main.c        ****   BatteryLed_Write(1);  // turn BatteryLed on (1.1.1)
 2036              		.loc 1 1165 0
 2037 0004 0120     		movs	r0, #1
 2038              	.LVL282:
 2039 0006 FFF7FEFF 		bl	BatteryLed_Write
 2040              	.LVL283:
1166:main.c        ****   vTaskDelay(duration); // wait for given amount of time (1.2)(2.1)
 2041              		.loc 1 1166 0
 2042 000a 2046     		mov	r0, r4
 2043 000c FFF7FEFF 		bl	vTaskDelay
 2044              	.LVL284:
1167:main.c        ****   BatteryLed_Write(0);  // turn BatteryLed off (1.1.2)
 2045              		.loc 1 1167 0
 2046 0010 0020     		movs	r0, #0
 2047 0012 FFF7FEFF 		bl	BatteryLed_Write
 2048              	.LVL285:
 2049 0016 10BD     		pop	{r4, pc}
 2050              		.cfi_endproc
 2051              	.LFE116:
 2052              		.size	ledOnFor, .-ledOnFor
 2053              		.section	.text.blinkMorse,"ax",%progbits
 2054              		.align	2
 2055              		.global	blinkMorse
 2056              		.thumb
 2057              		.thumb_func
 2058              		.type	blinkMorse, %function
 2059              	blinkMorse:
 2060              	.LFB117:
1168:main.c        **** }
1169:main.c        **** 
1170:main.c        **** void blinkMorse(char message[], uint timeUnit, uint repeats){
 2061              		.loc 1 1170 0
 2062              		.cfi_startproc
 2063              		@ args = 0, pretend = 0, frame = 0
 2064              		@ frame_needed = 0, uses_anonymous_args = 0
 2065              	.LVL286:
 2066 0000 2DE9F843 		push	{r3, r4, r5, r6, r7, r8, r9, lr}
 2067              		.cfi_def_cfa_offset 32
 2068              		.cfi_offset 3, -32
 2069              		.cfi_offset 4, -28
ARM GAS  C:\Users\samue\AppData\Local\Temp\ccm0rw4c.s 			page 59


 2070              		.cfi_offset 5, -24
 2071              		.cfi_offset 6, -20
 2072              		.cfi_offset 7, -16
 2073              		.cfi_offset 8, -12
 2074              		.cfi_offset 9, -8
 2075              		.cfi_offset 14, -4
 2076 0004 8146     		mov	r9, r0
 2077 0006 0F46     		mov	r7, r1
 2078 0008 9046     		mov	r8, r2
1171:main.c        ****   /* Function that blinks BatteryLed based on given message.
1172:main.c        **** 
1173:main.c        ****   1 GENERAL EXPLANATION:
1174:main.c        ****   1.1   Function follows ITU-R recommendation "ITU-R M.1677-1(10/2009)"
1175:main.c        ****         for International Morse code:
1176:main.c        ****   1.1.1   A dash is equal to three dots.
1177:main.c        ****   1.1.2   The space between the signals forming the same letter is equal to
1178:main.c        ****           one dot.
1179:main.c        ****   1.1.3   The space between two letters is equal to three dots.
1180:main.c        ****   1.1.4   The space between two words is equal to seven dots.
1181:main.c        ****   1.1.5   And: Dot is equal to one time unit.
1182:main.c        ****   1.2  Zumo robot has a built in function called vTaskDelay that
1183:main.c        ****        pauses the robot's task for given amount of time. The function
1184:main.c        ****        has one input parameter and it'll set the duration of the delay
1185:main.c        ****        in milliseconds. It is used to simulate what is defined in the
1186:main.c        ****        specification as explained in 1.1.2, 1.1.3 and 1.1.4.
1187:main.c        **** 
1188:main.c        ****   2 PARAMETERS EXPLAINED:
1189:main.c        ****   2.1     char msg[] : Message in Morse code.
1190:main.c        ****   2.1.1     Four different characters are treated as part of Morse code:
1191:main.c        ****   2.1.1.1     '.' : dot character represents short "dot"
1192:main.c        ****   2.1.1.2     '-' : dash character represents longer "dash"
1193:main.c        ****   2.1.1.3     ' ' : space represents end of character
1194:main.c        ****   2.1.1.4     '|' : pipe represents end of word
1195:main.c        ****   2.1.2     msg example: "-- --- .-. ... .|-.-. --- -.. ."
1196:main.c        ****   2.2     uint timeUnit : Length of dot in milliseconds.
1197:main.c        ****           Shouldn't be less than 250 milliseconds for visual-only
1198:main.c        ****           representation of Morse code because slightest eye movement and
1199:main.c        ****           blinking will lead in loss of data in receiving end. Audio-visual
1200:main.c        ****           and audio-only representation can often have dot length of 60ms.
1201:main.c        ****   2.2.1     timeUnit example: 500
1202:main.c        ****   2.3     uint repeats : Number of times to repeat the message.
1203:main.c        ****           hint: If math.h is included, INFINITY could be set for infinite loop
1204:main.c        ****   2.3.1     repeats example: 2
1205:main.c        **** 
1206:main.c        ****   3 LINKED FUNCTIONS:
1207:main.c        ****   3.1 ledOnFor(uint duration)
1208:main.c        ****   3.2 vTaskDelay(int duration)
1209:main.c        **** 
1210:main.c        ****   4 FUNCTION CALL EXAMPLES
1211:main.c        ****   blinkMorse("... --- ...",300,INFINITY); // #include <math.h> required
1212:main.c        ****   blinkMorse("-- --- .-. ... .|-.-. --- -.. .",500,1);
1213:main.c        **** 
1214:main.c        ****   Parts of this explanation may be referenced with part number in parenthesis.
1215:main.c        ****   */
1216:main.c        **** 
1217:main.c        ****   uint msgLen = strlen(message); // length of message
 2079              		.loc 1 1217 0
ARM GAS  C:\Users\samue\AppData\Local\Temp\ccm0rw4c.s 			page 60


 2080 000a FFF7FEFF 		bl	strlen
 2081              	.LVL287:
 2082 000e 0646     		mov	r6, r0
 2083              	.LVL288:
 2084              	.LBB2:
1218:main.c        ****   uint location = 0;             // keep track of location within message
1219:main.c        ****   uint gap = 0;                  // number of time units between signals
1220:main.c        **** 
1221:main.c        ****   for(uint i = 0;i<repeats * msgLen;i++){ // loop each character of each repeat
 2085              		.loc 1 1221 0
 2086 0010 0024     		movs	r4, #0
 2087 0012 29E0     		b	.L133
 2088              	.LVL289:
 2089              	.L141:
1222:main.c        ****     location = i % msgLen;      // modulo is needed to get location in message
 2090              		.loc 1 1222 0
 2091 0014 B4FBF6F5 		udiv	r5, r4, r6
 2092 0018 06FB1545 		mls	r5, r6, r5, r4
 2093              	.LVL290:
1223:main.c        ****     switch(message[location]){  // use current location's character as switch
 2094              		.loc 1 1223 0
 2095 001c 19F80530 		ldrb	r3, [r9, r5]	@ zero_extendqisi2
 2096 0020 2D2B     		cmp	r3, #45
 2097 0022 0FD0     		beq	.L135
 2098 0024 02D8     		bhi	.L136
 2099 0026 202B     		cmp	r3, #32
 2100 0028 05D0     		beq	.L137
 2101 002a 11E0     		b	.L134
 2102              	.L136:
 2103 002c 2E2B     		cmp	r3, #46
 2104 002e 04D0     		beq	.L138
 2105 0030 7C2B     		cmp	r3, #124
 2106 0032 0FD0     		beq	.L142
 2107 0034 0CE0     		b	.L134
 2108              	.L137:
1224:main.c        ****       case '.' :                // '.' represents dot in Morse code (2.1.1.1):
1225:main.c        ****         ledOnFor(timeUnit);     // -> turn led on for 1 time unit (1.1.5)
1226:main.c        ****         gap = 1;                // -> set gap to 1 time units (1.1.2)
1227:main.c        ****         break;
1228:main.c        ****       case '-' :                // '-' represents dash in Morse code (2.1.1.2):
1229:main.c        ****         ledOnFor(timeUnit * 3); // -> turn led on for 3 time units (1.1.1)
1230:main.c        ****         gap = 1;                // -> set gap to 1 time units (1.1.2)
1231:main.c        ****         break;
1232:main.c        ****       case ' ' :                // ' ' represents end of letter (2.1.1.3), so:
1233:main.c        ****         gap = 3;                // -> set gap to 3 time units (1.1.3)
 2109              		.loc 1 1233 0
 2110 0036 0320     		movs	r0, #3
 2111 0038 0DE0     		b	.L139
 2112              	.L138:
1225:main.c        ****         gap = 1;                // -> set gap to 1 time units (1.1.2)
 2113              		.loc 1 1225 0
 2114 003a 3846     		mov	r0, r7
 2115 003c FFF7FEFF 		bl	ledOnFor
 2116              	.LVL291:
1226:main.c        ****         break;
 2117              		.loc 1 1226 0
 2118 0040 0120     		movs	r0, #1
ARM GAS  C:\Users\samue\AppData\Local\Temp\ccm0rw4c.s 			page 61


1227:main.c        ****       case '-' :                // '-' represents dash in Morse code (2.1.1.2):
 2119              		.loc 1 1227 0
 2120 0042 08E0     		b	.L139
 2121              	.LVL292:
 2122              	.L135:
1229:main.c        ****         gap = 1;                // -> set gap to 1 time units (1.1.2)
 2123              		.loc 1 1229 0
 2124 0044 07EB4700 		add	r0, r7, r7, lsl #1
 2125 0048 FFF7FEFF 		bl	ledOnFor
 2126              	.LVL293:
1230:main.c        ****         break;
 2127              		.loc 1 1230 0
 2128 004c 0120     		movs	r0, #1
1231:main.c        ****       case ' ' :                // ' ' represents end of letter (2.1.1.3), so:
 2129              		.loc 1 1231 0
 2130 004e 02E0     		b	.L139
 2131              	.LVL294:
 2132              	.L134:
1234:main.c        ****         break;
1235:main.c        ****       case '|' :                // '|' represents end of word (2.1.1.4), so:
1236:main.c        ****         gap = 7;                // -> set gap to 7 time units (1.1.4)
1237:main.c        ****         break;
1238:main.c        ****       default :                 // if some other character than ".- |":
1239:main.c        ****         gap = 0;                // -> set gap to 0
 2133              		.loc 1 1239 0
 2134 0050 0020     		movs	r0, #0
1240:main.c        ****         break;
 2135              		.loc 1 1240 0
 2136 0052 00E0     		b	.L139
 2137              	.LVL295:
 2138              	.L142:
1236:main.c        ****         break;
 2139              		.loc 1 1236 0
 2140 0054 0720     		movs	r0, #7
 2141              	.L139:
 2142              	.LVL296:
1241:main.c        ****     }
1242:main.c        **** 
1243:main.c        ****     if(location == msgLen - 1){ // if end of message:
 2143              		.loc 1 1243 0
 2144 0056 731E     		subs	r3, r6, #1
 2145 0058 9D42     		cmp	r5, r3
 2146 005a 00D1     		bne	.L140
1244:main.c        ****       gap = 7;                  // set gap to same as end of word (1.1.4)
 2147              		.loc 1 1244 0
 2148 005c 0720     		movs	r0, #7
 2149              	.LVL297:
 2150              	.L140:
1245:main.c        ****     }
1246:main.c        **** 
1247:main.c        ****     vTaskDelay(timeUnit * gap); // wait for gap*timeUnit before next loop (1.2)
 2151              		.loc 1 1247 0 discriminator 2
 2152 005e 07FB00F0 		mul	r0, r7, r0
 2153              	.LVL298:
 2154 0062 FFF7FEFF 		bl	vTaskDelay
 2155              	.LVL299:
1221:main.c        ****     location = i % msgLen;      // modulo is needed to get location in message
ARM GAS  C:\Users\samue\AppData\Local\Temp\ccm0rw4c.s 			page 62


 2156              		.loc 1 1221 0 discriminator 2
 2157 0066 0134     		adds	r4, r4, #1
 2158              	.LVL300:
 2159              	.L133:
1221:main.c        ****     location = i % msgLen;      // modulo is needed to get location in message
 2160              		.loc 1 1221 0 is_stmt 0 discriminator 1
 2161 0068 08FB06F3 		mul	r3, r8, r6
 2162 006c 9C42     		cmp	r4, r3
 2163 006e D1D3     		bcc	.L141
 2164              	.LBE2:
1248:main.c        ****   }
1249:main.c        **** }
 2165              		.loc 1 1249 0 is_stmt 1
 2166 0070 BDE8F883 		pop	{r3, r4, r5, r6, r7, r8, r9, pc}
 2167              		.cfi_endproc
 2168              	.LFE117:
 2169              		.size	blinkMorse, .-blinkMorse
 2170              		.section	.text.playMusic,"ax",%progbits
 2171              		.align	2
 2172              		.global	playMusic
 2173              		.thumb
 2174              		.thumb_func
 2175              		.type	playMusic, %function
 2176              	playMusic:
 2177              	.LFB118:
1250:main.c        **** 
1251:main.c        **** void playMusic(){
 2178              		.loc 1 1251 0
 2179              		.cfi_startproc
 2180              		@ args = 0, pretend = 0, frame = 96
 2181              		@ frame_needed = 0, uses_anonymous_args = 0
 2182 0000 10B5     		push	{r4, lr}
 2183              		.cfi_def_cfa_offset 8
 2184              		.cfi_offset 4, -8
 2185              		.cfi_offset 14, -4
 2186 0002 98B0     		sub	sp, sp, #96
 2187              		.cfi_def_cfa_offset 104
1252:main.c        ****   int intNotes[] = {240,214,127,127,143,143,0,
 2188              		.loc 1 1252 0
 2189 0004 5C22     		movs	r2, #92
 2190 0006 0C49     		ldr	r1, .L149
 2191 0008 01A8     		add	r0, sp, #4
 2192 000a FFF7FEFF 		bl	memcpy
 2193              	.LVL301:
 2194              	.LBB3:
1253:main.c        ****                     191,180,107,107,120,120,0,
1254:main.c        ****                     180,160,95,95,120,120,160,160,160};
1255:main.c        ****   int delay = 100;
1256:main.c        ****   int size = sizeof(intNotes) / sizeof(int);
1257:main.c        ****   for(int i = 0;i<size;i++){
 2195              		.loc 1 1257 0
 2196 000e 0024     		movs	r4, #0
 2197 0010 0DE0     		b	.L146
 2198              	.LVL302:
 2199              	.L147:
1258:main.c        ****     Beep(delay,abs(intNotes[i]-255));
 2200              		.loc 1 1258 0 discriminator 3
ARM GAS  C:\Users\samue\AppData\Local\Temp\ccm0rw4c.s 			page 63


 2201 0012 18AB     		add	r3, sp, #96
 2202 0014 03EB8403 		add	r3, r3, r4, lsl #2
 2203 0018 53F85C1C 		ldr	r1, [r3, #-92]
 2204 001c FF39     		subs	r1, r1, #255
 2205 001e 0029     		cmp	r1, #0
 2206 0020 B8BF     		it	lt
 2207 0022 4942     		rsblt	r1, r1, #0
 2208 0024 C9B2     		uxtb	r1, r1
 2209 0026 6420     		movs	r0, #100
 2210 0028 FFF7FEFF 		bl	Beep
 2211              	.LVL303:
1257:main.c        ****     Beep(delay,abs(intNotes[i]-255));
 2212              		.loc 1 1257 0 discriminator 3
 2213 002c 0134     		adds	r4, r4, #1
 2214              	.LVL304:
 2215              	.L146:
1257:main.c        ****     Beep(delay,abs(intNotes[i]-255));
 2216              		.loc 1 1257 0 is_stmt 0 discriminator 1
 2217 002e 162C     		cmp	r4, #22
 2218 0030 EFDD     		ble	.L147
 2219              	.LBE3:
1259:main.c        ****   }
1260:main.c        **** }
 2220              		.loc 1 1260 0 is_stmt 1
 2221 0032 18B0     		add	sp, sp, #96
 2222              		.cfi_def_cfa_offset 8
 2223              		@ sp needed
 2224 0034 10BD     		pop	{r4, pc}
 2225              	.LVL305:
 2226              	.L150:
 2227 0036 00BF     		.align	2
 2228              	.L149:
 2229 0038 00000000 		.word	.LANCHOR0
 2230              		.cfi_endproc
 2231              	.LFE118:
 2232              		.size	playMusic, .-playMusic
 2233              		.section	.text.irTest,"ax",%progbits
 2234              		.align	2
 2235              		.global	irTest
 2236              		.thumb
 2237              		.thumb_func
 2238              		.type	irTest, %function
 2239              	irTest:
 2240              	.LFB119:
1261:main.c        **** /*
1262:main.c        **** bool overLine(struct sensors_ dig){
1263:main.c        ****   reflectance_digital(&dig); 
1264:main.c        ****   return dig.l3&dig.l2&dig.l1&dig.r1&dig.r2&dig.r3;
1265:main.c        **** }
1266:main.c        **** */
1267:main.c        **** 
1268:main.c        **** void irTest(){
 2241              		.loc 1 1268 0
 2242              		.cfi_startproc
 2243              		@ Volatile: function does not return.
 2244              		@ args = 0, pretend = 0, frame = 0
 2245              		@ frame_needed = 0, uses_anonymous_args = 0
ARM GAS  C:\Users\samue\AppData\Local\Temp\ccm0rw4c.s 			page 64


 2246 0000 08B5     		push	{r3, lr}
 2247              		.cfi_def_cfa_offset 8
 2248              		.cfi_offset 3, -8
 2249              		.cfi_offset 14, -4
1269:main.c        ****   IR_Start();
 2250              		.loc 1 1269 0
 2251 0002 FFF7FEFF 		bl	IR_Start
 2252              	.LVL306:
1270:main.c        ****   IR_flush();
 2253              		.loc 1 1270 0
 2254 0006 FFF7FEFF 		bl	IR_flush
 2255              	.LVL307:
 2256              	.L152:
1271:main.c        ****   while(true){
1272:main.c        ****     IR_wait();
 2257              		.loc 1 1272 0 discriminator 1
 2258 000a FFF7FEFF 		bl	IR_wait
 2259              	.LVL308:
1273:main.c        ****     printf("IR signal received\n");
 2260              		.loc 1 1273 0 discriminator 1
 2261 000e 0248     		ldr	r0, .L154
 2262 0010 FFF7FEFF 		bl	puts
 2263              	.LVL309:
 2264 0014 F9E7     		b	.L152
 2265              	.L155:
 2266 0016 00BF     		.align	2
 2267              	.L154:
 2268 0018 9C000000 		.word	.LC15
 2269              		.cfi_endproc
 2270              	.LFE119:
 2271              		.size	irTest, .-irTest
 2272              		.section	.text.refTest,"ax",%progbits
 2273              		.align	2
 2274              		.global	refTest
 2275              		.thumb
 2276              		.thumb_func
 2277              		.type	refTest, %function
 2278              	refTest:
 2279              	.LFB120:
1274:main.c        ****   }
1275:main.c        **** }
1276:main.c        **** 
1277:main.c        **** void refTest(){
 2280              		.loc 1 1277 0
 2281              		.cfi_startproc
 2282              		@ args = 0, pretend = 0, frame = 16
 2283              		@ frame_needed = 0, uses_anonymous_args = 0
 2284 0000 30B5     		push	{r4, r5, lr}
 2285              		.cfi_def_cfa_offset 12
 2286              		.cfi_offset 4, -12
 2287              		.cfi_offset 5, -8
 2288              		.cfi_offset 14, -4
 2289 0002 89B0     		sub	sp, sp, #36
 2290              		.cfi_def_cfa_offset 48
1278:main.c        ****  
1279:main.c        ****   struct sensors_ dig;
1280:main.c        ****     
ARM GAS  C:\Users\samue\AppData\Local\Temp\ccm0rw4c.s 			page 65


1281:main.c        ****   reflectance_start();
 2291              		.loc 1 1281 0
 2292 0004 FFF7FEFF 		bl	reflectance_start
 2293              	.LVL310:
1282:main.c        ****   reflectance_set_threshold(9000, 9000, 11000, 11000, 9000, 9000);
 2294              		.loc 1 1282 0
 2295 0008 42F22830 		movw	r0, #9000
 2296 000c 0190     		str	r0, [sp, #4]
 2297 000e 0090     		str	r0, [sp]
 2298 0010 42F6F823 		movw	r3, #11000
 2299 0014 1A46     		mov	r2, r3
 2300 0016 0146     		mov	r1, r0
 2301 0018 FFF7FEFF 		bl	reflectance_set_threshold
 2302              	.LVL311:
1283:main.c        ****   reflectance_digital(&dig);
 2303              		.loc 1 1283 0
 2304 001c 05A8     		add	r0, sp, #20
 2305 001e FFF7FEFF 		bl	reflectance_digital
 2306              	.LVL312:
 2307              	.L157:
1284:main.c        **** 
1285:main.c        ****   while(true){
1286:main.c        ****     reflectance_digital(&dig);
 2308              		.loc 1 1286 0 discriminator 1
 2309 0022 05A8     		add	r0, sp, #20
 2310 0024 FFF7FEFF 		bl	reflectance_digital
 2311              	.LVL313:
1287:main.c        ****     printf("%d,%d,%d,%d,%d,%d\n",dig.l3,dig.l2,dig.l1,dig.r1,dig.r2,dig.r3);
 2312              		.loc 1 1287 0 discriminator 1
 2313 0028 BDF81410 		ldrh	r1, [sp, #20]
 2314 002c BDF81620 		ldrh	r2, [sp, #22]
 2315 0030 BDF81830 		ldrh	r3, [sp, #24]
 2316 0034 BDF81A00 		ldrh	r0, [sp, #26]
 2317 0038 BDF81C40 		ldrh	r4, [sp, #28]
 2318 003c BDF81E50 		ldrh	r5, [sp, #30]
 2319 0040 0295     		str	r5, [sp, #8]
 2320 0042 0194     		str	r4, [sp, #4]
 2321 0044 0090     		str	r0, [sp]
 2322 0046 0248     		ldr	r0, .L159
 2323 0048 FFF7FEFF 		bl	printf
 2324              	.LVL314:
 2325 004c E9E7     		b	.L157
 2326              	.L160:
 2327 004e 00BF     		.align	2
 2328              	.L159:
 2329 0050 B0000000 		.word	.LC16
 2330              		.cfi_endproc
 2331              	.LFE120:
 2332              		.size	refTest, .-refTest
 2333              		.global	__aeabi_ui2f
 2334              		.global	__aeabi_fcmpgt
 2335              		.section	.text.accTest,"ax",%progbits
 2336              		.align	2
 2337              		.global	accTest
 2338              		.thumb
 2339              		.thumb_func
 2340              		.type	accTest, %function
ARM GAS  C:\Users\samue\AppData\Local\Temp\ccm0rw4c.s 			page 66


 2341              	accTest:
 2342              	.LFB121:
1288:main.c        ****   }
1289:main.c        **** }
1290:main.c        **** 
1291:main.c        **** void accTest(){
 2343              		.loc 1 1291 0
 2344              		.cfi_startproc
 2345              		@ args = 0, pretend = 0, frame = 8
 2346              		@ frame_needed = 0, uses_anonymous_args = 0
 2347 0000 F0B5     		push	{r4, r5, r6, r7, lr}
 2348              		.cfi_def_cfa_offset 20
 2349              		.cfi_offset 4, -20
 2350              		.cfi_offset 5, -16
 2351              		.cfi_offset 6, -12
 2352              		.cfi_offset 7, -8
 2353              		.cfi_offset 14, -4
 2354 0002 83B0     		sub	sp, sp, #12
 2355              		.cfi_def_cfa_offset 32
 2356              	.LVL315:
1292:main.c        ****   struct accData_ data;
1293:main.c        ****   float xAcc = 0;
1294:main.c        **** 
1295:main.c        ****   int loopNum = 0;
 2357              		.loc 1 1295 0
 2358 0004 0027     		movs	r7, #0
1293:main.c        **** 
 2359              		.loc 1 1293 0
 2360 0006 0024     		movs	r4, #0
 2361              	.LVL316:
 2362              	.L172:
1296:main.c        **** 
1297:main.c        ****   while(true){
1298:main.c        ****     LSM303D_Start();
 2363              		.loc 1 1298 0
 2364 0008 FFF7FEFF 		bl	LSM303D_Start
 2365              	.LVL317:
1299:main.c        ****     LSM303D_Read_Acc(&data);
 2366              		.loc 1 1299 0
 2367 000c 6846     		mov	r0, sp
 2368 000e FFF7FEFF 		bl	LSM303D_Read_Acc
 2369              	.LVL318:
1300:main.c        ****     
1301:main.c        ****     xAcc += data.accX;
 2370              		.loc 1 1301 0
 2371 0012 BDF90000 		ldrsh	r0, [sp]
 2372 0016 FFF7FEFF 		bl	__aeabi_i2f
 2373              	.LVL319:
 2374 001a 0146     		mov	r1, r0
 2375 001c 2046     		mov	r0, r4
 2376 001e FFF7FEFF 		bl	__aeabi_fadd
 2377              	.LVL320:
 2378 0022 0446     		mov	r4, r0
 2379              	.LVL321:
1302:main.c        ****     
1303:main.c        ****     if(loopNum%10 == 0){
 2380              		.loc 1 1303 0
ARM GAS  C:\Users\samue\AppData\Local\Temp\ccm0rw4c.s 			page 67


 2381 0024 214B     		ldr	r3, .L177
 2382 0026 83FB0732 		smull	r3, r2, r3, r7
 2383 002a FB17     		asrs	r3, r7, #31
 2384 002c C3EBA203 		rsb	r3, r3, r2, asr #2
 2385 0030 03EB8303 		add	r3, r3, r3, lsl #2
 2386 0034 5A00     		lsls	r2, r3, #1
 2387 0036 9742     		cmp	r7, r2
 2388 0038 35D1     		bne	.L162
1304:main.c        ****       
1305:main.c        ****       xAcc /= 10;
 2389              		.loc 1 1305 0
 2390 003a 1D49     		ldr	r1, .L177+4
 2391 003c FFF7FEFF 		bl	__aeabi_fdiv
 2392              	.LVL322:
 2393 0040 0646     		mov	r6, r0
 2394              	.LVL323:
 2395              	.LBB4:
1306:main.c        ****       for(uint i=40;i>0;i--){
 2396              		.loc 1 1306 0
 2397 0042 2824     		movs	r4, #40
 2398 0044 15E0     		b	.L163
 2399              	.LVL324:
 2400              	.L167:
1307:main.c        ****         if(-xAcc / 400 < i){
 2401              		.loc 1 1307 0
 2402 0046 06F10040 		add	r0, r6, #-2147483648
 2403 004a 1A49     		ldr	r1, .L177+8
 2404 004c FFF7FEFF 		bl	__aeabi_fdiv
 2405              	.LVL325:
 2406 0050 0546     		mov	r5, r0
 2407 0052 2046     		mov	r0, r4
 2408 0054 FFF7FEFF 		bl	__aeabi_ui2f
 2409              	.LVL326:
 2410 0058 0146     		mov	r1, r0
 2411 005a 2846     		mov	r0, r5
 2412 005c FFF7FEFF 		bl	__aeabi_fcmplt
 2413              	.LVL327:
 2414 0060 18B1     		cbz	r0, .L175
1308:main.c        ****           printf(" ");
 2415              		.loc 1 1308 0
 2416 0062 2020     		movs	r0, #32
 2417 0064 FFF7FEFF 		bl	putchar
 2418              	.LVL328:
 2419 0068 02E0     		b	.L166
 2420              	.L175:
1309:main.c        ****         } else {
1310:main.c        ****           printf("<");
 2421              		.loc 1 1310 0
 2422 006a 3C20     		movs	r0, #60
 2423 006c FFF7FEFF 		bl	putchar
 2424              	.LVL329:
 2425              	.L166:
1306:main.c        ****         if(-xAcc / 400 < i){
 2426              		.loc 1 1306 0 discriminator 2
 2427 0070 013C     		subs	r4, r4, #1
 2428              	.LVL330:
 2429              	.L163:
ARM GAS  C:\Users\samue\AppData\Local\Temp\ccm0rw4c.s 			page 68


1306:main.c        ****         if(-xAcc / 400 < i){
 2430              		.loc 1 1306 0 is_stmt 0 discriminator 1
 2431 0072 002C     		cmp	r4, #0
 2432 0074 E7D1     		bne	.L167
 2433 0076 10E0     		b	.L168
 2434              	.LVL331:
 2435              	.L171:
 2436              	.LBE4:
 2437              	.LBB5:
1311:main.c        ****         }
1312:main.c        ****       }
1313:main.c        ****     
1314:main.c        ****       for(uint i=0;i<40;i++){
1315:main.c        ****         if(xAcc / 400 > i){
 2438              		.loc 1 1315 0 is_stmt 1
 2439 0078 0E49     		ldr	r1, .L177+8
 2440 007a 3046     		mov	r0, r6
 2441 007c FFF7FEFF 		bl	__aeabi_fdiv
 2442              	.LVL332:
 2443 0080 0546     		mov	r5, r0
 2444 0082 2046     		mov	r0, r4
 2445 0084 FFF7FEFF 		bl	__aeabi_ui2f
 2446              	.LVL333:
 2447 0088 0146     		mov	r1, r0
 2448 008a 2846     		mov	r0, r5
 2449 008c FFF7FEFF 		bl	__aeabi_fcmpgt
 2450              	.LVL334:
 2451 0090 28B1     		cbz	r0, .L169
1316:main.c        ****           printf(">");
 2452              		.loc 1 1316 0 discriminator 2
 2453 0092 3E20     		movs	r0, #62
 2454 0094 FFF7FEFF 		bl	putchar
 2455              	.LVL335:
1314:main.c        ****         if(xAcc / 400 > i){
 2456              		.loc 1 1314 0 discriminator 2
 2457 0098 0134     		adds	r4, r4, #1
 2458              	.LVL336:
 2459              	.L168:
1314:main.c        ****         if(xAcc / 400 > i){
 2460              		.loc 1 1314 0 is_stmt 0 discriminator 1
 2461 009a 272C     		cmp	r4, #39
 2462 009c ECD9     		bls	.L171
 2463              	.L169:
 2464              	.LVL337:
 2465              	.LBE5:
1317:main.c        ****         } else {
1318:main.c        ****           break;
1319:main.c        ****         }
1320:main.c        ****       }
1321:main.c        ****       xAcc = 0;
1322:main.c        ****       printf("\n");
 2466              		.loc 1 1322 0 is_stmt 1
 2467 009e 0A20     		movs	r0, #10
 2468 00a0 FFF7FEFF 		bl	putchar
 2469              	.LVL338:
1321:main.c        ****       printf("\n");
 2470              		.loc 1 1321 0
ARM GAS  C:\Users\samue\AppData\Local\Temp\ccm0rw4c.s 			page 69


 2471 00a4 0024     		movs	r4, #0
 2472              	.LVL339:
 2473              	.L162:
1323:main.c        ****     }
1324:main.c        ****     loopNum++;
 2474              		.loc 1 1324 0
 2475 00a6 0137     		adds	r7, r7, #1
 2476              	.LVL340:
1325:main.c        ****   }
 2477              		.loc 1 1325 0
 2478 00a8 AEE7     		b	.L172
 2479              	.L178:
 2480 00aa 00BF     		.align	2
 2481              	.L177:
 2482 00ac 67666666 		.word	1717986919
 2483 00b0 00002041 		.word	1092616192
 2484 00b4 0000C843 		.word	1137180672
 2485              		.cfi_endproc
 2486              	.LFE121:
 2487              		.size	accTest, .-accTest
 2488              		.section	.text.mqttTest,"ax",%progbits
 2489              		.align	2
 2490              		.global	mqttTest
 2491              		.thumb
 2492              		.thumb_func
 2493              		.type	mqttTest, %function
 2494              	mqttTest:
 2495              	.LFB122:
1326:main.c        **** }
1327:main.c        **** 
1328:main.c        **** void mqttTest(){
 2496              		.loc 1 1328 0
 2497              		.cfi_startproc
 2498              		@ Volatile: function does not return.
 2499              		@ args = 0, pretend = 0, frame = 0
 2500              		@ frame_needed = 0, uses_anonymous_args = 0
 2501 0000 08B5     		push	{r3, lr}
 2502              		.cfi_def_cfa_offset 8
 2503              		.cfi_offset 3, -8
 2504              		.cfi_offset 14, -4
1329:main.c        ****   srand(time(0));  // initialize rand()
 2505              		.loc 1 1329 0
 2506 0002 0020     		movs	r0, #0
 2507 0004 FFF7FEFF 		bl	time
 2508              	.LVL341:
 2509 0008 FFF7FEFF 		bl	srand
 2510              	.LVL342:
 2511              	.L180:
1330:main.c        ****   while(true){
1331:main.c        ****     while(SW1_Read()){};
 2512              		.loc 1 1331 0 discriminator 1
 2513 000c FFF7FEFF 		bl	SW1_Read
 2514              	.LVL343:
 2515 0010 0028     		cmp	r0, #0
 2516 0012 FBD1     		bne	.L180
1332:main.c        ****     printf("Hello, world!,%d\n",rand()%2);// print to screen (PuTTy)
 2517              		.loc 1 1332 0
ARM GAS  C:\Users\samue\AppData\Local\Temp\ccm0rw4c.s 			page 70


 2518 0014 FFF7FEFF 		bl	rand
 2519              	.LVL344:
 2520 0018 0B49     		ldr	r1, .L185
 2521 001a 0140     		ands	r1, r0, r1
 2522 001c 03D5     		bpl	.L181
 2523 001e 0139     		subs	r1, r1, #1
 2524 0020 61F00101 		orn	r1, r1, #1
 2525 0024 0131     		adds	r1, r1, #1
 2526              	.L181:
 2527 0026 0948     		ldr	r0, .L185+4
 2528 0028 FFF7FEFF 		bl	printf
 2529              	.LVL345:
1333:main.c        ****     print_mqtt("Zumo035/output", "asd");// Send message to topic
 2530              		.loc 1 1333 0
 2531 002c 0849     		ldr	r1, .L185+8
 2532 002e 0948     		ldr	r0, .L185+12
 2533 0030 FFF7FEFF 		bl	print_mqtt
 2534              	.LVL346:
1334:main.c        ****     vTaskDelay(500);
 2535              		.loc 1 1334 0
 2536 0034 4FF4FA70 		mov	r0, #500
 2537 0038 FFF7FEFF 		bl	vTaskDelay
 2538              	.LVL347:
 2539              	.L182:
1335:main.c        ****     while(!SW1_Read()){};
 2540              		.loc 1 1335 0 discriminator 1
 2541 003c FFF7FEFF 		bl	SW1_Read
 2542              	.LVL348:
 2543 0040 0028     		cmp	r0, #0
 2544 0042 FBD0     		beq	.L182
 2545 0044 E2E7     		b	.L180
 2546              	.L186:
 2547 0046 00BF     		.align	2
 2548              	.L185:
 2549 0048 01000080 		.word	-2147483647
 2550 004c C4000000 		.word	.LC17
 2551 0050 D8000000 		.word	.LC18
 2552 0054 DC000000 		.word	.LC19
 2553              		.cfi_endproc
 2554              	.LFE122:
 2555              		.size	mqttTest, .-mqttTest
 2556              		.section	.text.turn90deg,"ax",%progbits
 2557              		.align	2
 2558              		.global	turn90deg
 2559              		.thumb
 2560              		.thumb_func
 2561              		.type	turn90deg, %function
 2562              	turn90deg:
 2563              	.LFB123:
1336:main.c        ****   }
1337:main.c        **** }
1338:main.c        **** 
1339:main.c        **** void turn90deg(int dir){ // 1 = turn right, 0 = turn left
 2564              		.loc 1 1339 0
 2565              		.cfi_startproc
 2566              		@ args = 0, pretend = 0, frame = 0
 2567              		@ frame_needed = 0, uses_anonymous_args = 0
ARM GAS  C:\Users\samue\AppData\Local\Temp\ccm0rw4c.s 			page 71


 2568              	.LVL349:
 2569 0000 10B5     		push	{r4, lr}
 2570              		.cfi_def_cfa_offset 8
 2571              		.cfi_offset 4, -8
 2572              		.cfi_offset 14, -4
 2573 0002 0446     		mov	r4, r0
 2574              	.LVL350:
1340:main.c        ****   int speed = 150;
1341:main.c        **** 
1342:main.c        ****   MotorDirLeft_Write(dir);
 2575              		.loc 1 1342 0
 2576 0004 C0B2     		uxtb	r0, r0
 2577              	.LVL351:
 2578 0006 FFF7FEFF 		bl	MotorDirLeft_Write
 2579              	.LVL352:
1343:main.c        ****   MotorDirRight_Write(!dir);
 2580              		.loc 1 1343 0
 2581 000a B4FA84F0 		clz	r0, r4
 2582 000e 4009     		lsrs	r0, r0, #5
 2583 0010 FFF7FEFF 		bl	MotorDirRight_Write
 2584              	.LVL353:
1344:main.c        **** 
1345:main.c        ****   PWM_WriteCompare1(speed);
 2585              		.loc 1 1345 0
 2586 0014 9620     		movs	r0, #150
 2587 0016 FFF7FEFF 		bl	PWM_WriteCompare1
 2588              	.LVL354:
1346:main.c        ****   PWM_WriteCompare2(speed);
 2589              		.loc 1 1346 0
 2590 001a 9620     		movs	r0, #150
 2591 001c FFF7FEFF 		bl	PWM_WriteCompare2
 2592              	.LVL355:
1347:main.c        **** 
1348:main.c        ****   vTaskDelay(300);
 2593              		.loc 1 1348 0
 2594 0020 4FF49670 		mov	r0, #300
 2595 0024 FFF7FEFF 		bl	vTaskDelay
 2596              	.LVL356:
 2597 0028 10BD     		pop	{r4, pc}
 2598              		.cfi_endproc
 2599              	.LFE123:
 2600              		.size	turn90deg, .-turn90deg
 2601 002a 00BF     		.section	.text.goToCenter,"ax",%progbits
 2602              		.align	2
 2603              		.global	goToCenter
 2604              		.thumb
 2605              		.thumb_func
 2606              		.type	goToCenter, %function
 2607              	goToCenter:
 2608              	.LFB87:
 388:main.c        ****     while(turnToCenter(ref)>100&&blackSensors(dig)>0&&blackSensors(dig)<6){};
 2609              		.loc 1 388 0
 2610              		.cfi_startproc
 2611              		@ args = 16, pretend = 8, frame = 16
 2612              		@ frame_needed = 0, uses_anonymous_args = 0
 2613 0000 82B0     		sub	sp, sp, #8
 2614              		.cfi_def_cfa_offset 8
ARM GAS  C:\Users\samue\AppData\Local\Temp\ccm0rw4c.s 			page 72


 2615 0002 00B5     		push	{lr}
 2616              		.cfi_def_cfa_offset 12
 2617              		.cfi_offset 14, -12
 2618 0004 85B0     		sub	sp, sp, #20
 2619              		.cfi_def_cfa_offset 32
 2620 0006 0DF1100E 		add	lr, sp, #16
 2621 000a 0EE90700 		stmdb	lr, {r0, r1, r2}
 2622 000e 0793     		str	r3, [sp, #28]
 2623              	.L192:
 389:main.c        ****     motor_backward(150,500);
 2624              		.loc 1 389 0 discriminator 3
 2625 0010 07AB     		add	r3, sp, #28
 2626 0012 93E80700 		ldmia	r3, {r0, r1, r2}
 2627 0016 FFF7FEFF 		bl	turnToCenter
 2628              	.LVL357:
 2629 001a 1349     		ldr	r1, .L195
 2630 001c FFF7FEFF 		bl	__aeabi_fcmpgt
 2631              	.LVL358:
 2632 0020 68B1     		cbz	r0, .L190
 389:main.c        ****     motor_backward(150,500);
 2633              		.loc 1 389 0 is_stmt 0 discriminator 1
 2634 0022 04AB     		add	r3, sp, #16
 2635 0024 13E90700 		ldmdb	r3, {r0, r1, r2}
 2636 0028 FFF7FEFF 		bl	blackSensors
 2637              	.LVL359:
 2638 002c 0028     		cmp	r0, #0
 2639 002e 06DD     		ble	.L190
 389:main.c        ****     motor_backward(150,500);
 2640              		.loc 1 389 0 discriminator 2
 2641 0030 04AB     		add	r3, sp, #16
 2642 0032 13E90700 		ldmdb	r3, {r0, r1, r2}
 2643 0036 FFF7FEFF 		bl	blackSensors
 2644              	.LVL360:
 2645 003a 0528     		cmp	r0, #5
 2646 003c E8DD     		ble	.L192
 2647              	.L190:
 390:main.c        ****     turn90deg(0);
 2648              		.loc 1 390 0 is_stmt 1
 2649 003e 4FF4FA71 		mov	r1, #500
 2650 0042 9620     		movs	r0, #150
 2651 0044 FFF7FEFF 		bl	motor_backward
 2652              	.LVL361:
 391:main.c        ****     turn90deg(0);
 2653              		.loc 1 391 0
 2654 0048 0020     		movs	r0, #0
 2655 004a FFF7FEFF 		bl	turn90deg
 2656              	.LVL362:
 392:main.c        ****     motor_forward(150,0);
 2657              		.loc 1 392 0
 2658 004e 0020     		movs	r0, #0
 2659 0050 FFF7FEFF 		bl	turn90deg
 2660              	.LVL363:
 393:main.c        **** }
 2661              		.loc 1 393 0
 2662 0054 0021     		movs	r1, #0
 2663 0056 9620     		movs	r0, #150
 2664 0058 FFF7FEFF 		bl	motor_forward
ARM GAS  C:\Users\samue\AppData\Local\Temp\ccm0rw4c.s 			page 73


 2665              	.LVL364:
 394:main.c        **** 
 2666              		.loc 1 394 0
 2667 005c 05B0     		add	sp, sp, #20
 2668              		.cfi_def_cfa_offset 12
 2669              		@ sp needed
 2670 005e 5DF804EB 		ldr	lr, [sp], #4
 2671              		.cfi_restore 14
 2672              		.cfi_def_cfa_offset 8
 2673 0062 02B0     		add	sp, sp, #8
 2674              		.cfi_def_cfa_offset 0
 2675 0064 7047     		bx	lr
 2676              	.L196:
 2677 0066 00BF     		.align	2
 2678              	.L195:
 2679 0068 0000C842 		.word	1120403456
 2680              		.cfi_endproc
 2681              	.LFE87:
 2682              		.size	goToCenter, .-goToCenter
 2683              		.section	.text.goToCenter2,"ax",%progbits
 2684              		.align	2
 2685              		.global	goToCenter2
 2686              		.thumb
 2687              		.thumb_func
 2688              		.type	goToCenter2, %function
 2689              	goToCenter2:
 2690              	.LFB89:
 412:main.c        ****   struct sensors_ ref, dig;
 2691              		.loc 1 412 0
 2692              		.cfi_startproc
 2693              		@ args = 0, pretend = 0, frame = 24
 2694              		@ frame_needed = 0, uses_anonymous_args = 0
 2695 0000 30B5     		push	{r4, r5, lr}
 2696              		.cfi_def_cfa_offset 12
 2697              		.cfi_offset 4, -12
 2698              		.cfi_offset 5, -8
 2699              		.cfi_offset 14, -4
 2700 0002 87B0     		sub	sp, sp, #28
 2701              		.cfi_def_cfa_offset 40
 414:main.c        ****   IR_wait();
 2702              		.loc 1 414 0
 2703 0004 2348     		ldr	r0, .L206
 2704 0006 FFF7FEFF 		bl	startComponents
 2705              	.LVL365:
 415:main.c        ****   while(true){
 2706              		.loc 1 415 0
 2707 000a FFF7FEFF 		bl	IR_wait
 2708              	.LVL366:
 2709              	.L203:
 417:main.c        ****     reflectance_digital(&dig);
 2710              		.loc 1 417 0
 2711 000e 0021     		movs	r1, #0
 2712 0010 9620     		movs	r0, #150
 2713 0012 FFF7FEFF 		bl	motor_forward
 2714              	.LVL367:
 418:main.c        ****     while(!(dig.l3|dig.l2|dig.l1|dig.r1|dig.r2|dig.r3)){
 2715              		.loc 1 418 0
ARM GAS  C:\Users\samue\AppData\Local\Temp\ccm0rw4c.s 			page 74


 2716 0016 6846     		mov	r0, sp
 2717 0018 FFF7FEFF 		bl	reflectance_digital
 2718              	.LVL368:
 419:main.c        ****       reflectance_digital(&dig);
 2719              		.loc 1 419 0
 2720 001c 02E0     		b	.L198
 2721              	.L199:
 420:main.c        ****     };
 2722              		.loc 1 420 0
 2723 001e 6846     		mov	r0, sp
 2724 0020 FFF7FEFF 		bl	reflectance_digital
 2725              	.LVL369:
 2726              	.L198:
 419:main.c        ****       reflectance_digital(&dig);
 2727              		.loc 1 419 0
 2728 0024 BDF80020 		ldrh	r2, [sp]
 2729 0028 BDF80210 		ldrh	r1, [sp, #2]
 2730 002c BDF80430 		ldrh	r3, [sp, #4]
 2731 0030 BDF80650 		ldrh	r5, [sp, #6]
 2732 0034 BDF80840 		ldrh	r4, [sp, #8]
 2733 0038 BDF80A00 		ldrh	r0, [sp, #10]
 2734 003c 0A43     		orrs	r2, r2, r1
 2735 003e 1A43     		orrs	r2, r2, r3
 2736 0040 45EA0203 		orr	r3, r5, r2
 2737 0044 2343     		orrs	r3, r3, r4
 2738 0046 0343     		orrs	r3, r0, r3
 2739 0048 E9D0     		beq	.L199
 2740              	.L202:
 422:main.c        ****     motor_backward(150,500);
 2741              		.loc 1 422 0 discriminator 3
 2742 004a 06AB     		add	r3, sp, #24
 2743 004c 13E90700 		ldmdb	r3, {r0, r1, r2}
 2744 0050 FFF7FEFF 		bl	turnToCenter
 2745              	.LVL370:
 2746 0054 1049     		ldr	r1, .L206+4
 2747 0056 FFF7FEFF 		bl	__aeabi_fcmpgt
 2748              	.LVL371:
 2749 005a 58B1     		cbz	r0, .L200
 422:main.c        ****     motor_backward(150,500);
 2750              		.loc 1 422 0 is_stmt 0 discriminator 1
 2751 005c 9DE80700 		ldmia	sp, {r0, r1, r2}
 2752 0060 FFF7FEFF 		bl	blackSensors
 2753              	.LVL372:
 2754 0064 0028     		cmp	r0, #0
 2755 0066 05DD     		ble	.L200
 422:main.c        ****     motor_backward(150,500);
 2756              		.loc 1 422 0 discriminator 2
 2757 0068 9DE80700 		ldmia	sp, {r0, r1, r2}
 2758 006c FFF7FEFF 		bl	blackSensors
 2759              	.LVL373:
 2760 0070 0528     		cmp	r0, #5
 2761 0072 EADD     		ble	.L202
 2762              	.L200:
 423:main.c        ****     turn90deg(0);
 2763              		.loc 1 423 0 is_stmt 1
 2764 0074 4FF4FA71 		mov	r1, #500
 2765 0078 9620     		movs	r0, #150
ARM GAS  C:\Users\samue\AppData\Local\Temp\ccm0rw4c.s 			page 75


 2766 007a FFF7FEFF 		bl	motor_backward
 2767              	.LVL374:
 424:main.c        ****     turn90deg(0);
 2768              		.loc 1 424 0
 2769 007e 0020     		movs	r0, #0
 2770 0080 FFF7FEFF 		bl	turn90deg
 2771              	.LVL375:
 425:main.c        ****     motor_forward(150,0);
 2772              		.loc 1 425 0
 2773 0084 0020     		movs	r0, #0
 2774 0086 FFF7FEFF 		bl	turn90deg
 2775              	.LVL376:
 426:main.c        ****   }
 2776              		.loc 1 426 0
 2777 008a 0021     		movs	r1, #0
 2778 008c 9620     		movs	r0, #150
 2779 008e FFF7FEFF 		bl	motor_forward
 2780              	.LVL377:
 427:main.c        **** }
 2781              		.loc 1 427 0
 2782 0092 BCE7     		b	.L203
 2783              	.L207:
 2784              		.align	2
 2785              	.L206:
 2786 0094 EC000000 		.word	.LC20
 2787 0098 0000C842 		.word	1120403456
 2788              		.cfi_endproc
 2789              	.LFE89:
 2790              		.size	goToCenter2, .-goToCenter2
 2791              		.section	.text.mazeSolver2000,"ax",%progbits
 2792              		.align	2
 2793              		.global	mazeSolver2000
 2794              		.thumb
 2795              		.thumb_func
 2796              		.type	mazeSolver2000, %function
 2797              	mazeSolver2000:
 2798              	.LFB102:
 823:main.c        ****     
 2799              		.loc 1 823 0
 2800              		.cfi_startproc
 2801              		@ args = 0, pretend = 0, frame = 16
 2802              		@ frame_needed = 0, uses_anonymous_args = 0
 2803 0000 2DE9F041 		push	{r4, r5, r6, r7, r8, lr}
 2804              		.cfi_def_cfa_offset 24
 2805              		.cfi_offset 4, -24
 2806              		.cfi_offset 5, -20
 2807              		.cfi_offset 6, -16
 2808              		.cfi_offset 7, -12
 2809              		.cfi_offset 8, -8
 2810              		.cfi_offset 14, -4
 2811 0004 84B0     		sub	sp, sp, #16
 2812              		.cfi_def_cfa_offset 40
 2813 0006 04AB     		add	r3, sp, #16
 2814 0008 03E90700 		stmdb	r3, {r0, r1, r2}
 2815              	.LVL378:
 828:main.c        ****     
 2816              		.loc 1 828 0
ARM GAS  C:\Users\samue\AppData\Local\Temp\ccm0rw4c.s 			page 76


 2817 000c 42F21078 		movw	r8, #10000
 827:main.c        ****     int width = 10000;
 2818              		.loc 1 827 0
 2819 0010 4FF0FF36 		mov	r6, #-1
 826:main.c        ****     int y = -1;
 2820              		.loc 1 826 0
 2821 0014 0027     		movs	r7, #0
 825:main.c        ****     int x = 0;
 2822              		.loc 1 825 0
 2823 0016 4546     		mov	r5, r8
 2824              	.LVL379:
 2825              	.L225:
 2826              	.LBB6:
 834:main.c        ****             reflectance_digital(&dig);
 2827              		.loc 1 834 0
 2828 0018 0024     		movs	r4, #0
 2829 001a 62E0     		b	.L209
 2830              	.LVL380:
 2831              	.L224:
 835:main.c        ****             if(Ultra_GetDistance()<15 || !(dig.l3 | dig.l2 | dig.l1 | dig.r1 | dig.r2 | dig.r3)) {
 2832              		.loc 1 835 0
 2833 001c 01A8     		add	r0, sp, #4
 2834 001e FFF7FEFF 		bl	reflectance_digital
 2835              	.LVL381:
 836:main.c        ****                 motor_forward(0,0);
 2836              		.loc 1 836 0
 2837 0022 FFF7FEFF 		bl	Ultra_GetDistance
 2838              	.LVL382:
 2839 0026 0E28     		cmp	r0, #14
 2840 0028 13DD     		ble	.L210
 836:main.c        ****                 motor_forward(0,0);
 2841              		.loc 1 836 0 is_stmt 0 discriminator 1
 2842 002a BDF80420 		ldrh	r2, [sp, #4]
 2843 002e BDF80610 		ldrh	r1, [sp, #6]
 2844 0032 BDF80830 		ldrh	r3, [sp, #8]
 2845 0036 BDF80AC0 		ldrh	ip, [sp, #10]
 2846 003a BDF80CE0 		ldrh	lr, [sp, #12]
 2847 003e BDF80E00 		ldrh	r0, [sp, #14]
 2848 0042 0A43     		orrs	r2, r2, r1
 2849 0044 1A43     		orrs	r2, r2, r3
 2850 0046 4CEA0203 		orr	r3, ip, r2
 2851 004a 4EEA0303 		orr	r3, lr, r3
 2852 004e 0343     		orrs	r3, r0, r3
 2853 0050 0BD1     		bne	.L211
 2854              	.L210:
 837:main.c        ****                 vTaskDelay(250);
 2855              		.loc 1 837 0 is_stmt 1
 2856 0052 0021     		movs	r1, #0
 2857 0054 0846     		mov	r0, r1
 2858 0056 FFF7FEFF 		bl	motor_forward
 2859              	.LVL383:
 838:main.c        ****                 turn90deg(1);
 2860              		.loc 1 838 0
 2861 005a FA20     		movs	r0, #250
 2862 005c FFF7FEFF 		bl	vTaskDelay
 2863              	.LVL384:
 839:main.c        ****                 direction--;
ARM GAS  C:\Users\samue\AppData\Local\Temp\ccm0rw4c.s 			page 77


 2864              		.loc 1 839 0
 2865 0060 0120     		movs	r0, #1
 2866 0062 FFF7FEFF 		bl	turn90deg
 2867              	.LVL385:
 840:main.c        ****             } else {
 2868              		.loc 1 840 0
 2869 0066 013D     		subs	r5, r5, #1
 2870              	.LVL386:
 2871 0068 3AE0     		b	.L212
 2872              	.L211:
 842:main.c        ****             case 0: 
 2873              		.loc 1 842 0
 2874 006a 224B     		ldr	r3, .L229
 2875 006c 2B40     		ands	r3, r5, r3
 2876 006e 03D5     		bpl	.L213
 2877 0070 013B     		subs	r3, r3, #1
 2878 0072 63F00303 		orn	r3, r3, #3
 2879 0076 0133     		adds	r3, r3, #1
 2880              	.L213:
 2881 0078 012B     		cmp	r3, #1
 2882 007a 04D0     		beq	.L215
 2883 007c 022B     		cmp	r3, #2
 2884 007e 04D0     		beq	.L216
 2885 0080 2BB9     		cbnz	r3, .L227
 844:main.c        ****                 break;
 2886              		.loc 1 844 0
 2887 0082 0136     		adds	r6, r6, #1
 2888              	.LVL387:
 845:main.c        ****     
 2889              		.loc 1 845 0
 2890 0084 04E0     		b	.L218
 2891              	.L215:
 848:main.c        ****                 break;
 2892              		.loc 1 848 0
 2893 0086 0137     		adds	r7, r7, #1
 2894              	.LVL388:
 849:main.c        ****             
 2895              		.loc 1 849 0
 2896 0088 02E0     		b	.L218
 2897              	.L216:
 852:main.c        ****                 break;
 2898              		.loc 1 852 0
 2899 008a 013E     		subs	r6, r6, #1
 2900              	.LVL389:
 853:main.c        ****             
 2901              		.loc 1 853 0
 2902 008c 00E0     		b	.L218
 2903              	.L227:
 856:main.c        ****         }
 2904              		.loc 1 856 0
 2905 008e 013F     		subs	r7, r7, #1
 2906              	.LVL390:
 2907              	.L218:
 858:main.c        ****                 if (y==1 && width == 10000) {
 2908              		.loc 1 858 0
 2909 0090 04AB     		add	r3, sp, #16
 2910 0092 13E90700 		ldmdb	r3, {r0, r1, r2}
ARM GAS  C:\Users\samue\AppData\Local\Temp\ccm0rw4c.s 			page 78


 2911 0096 FFF7FEFF 		bl	moveToNextIntersection
 2912              	.LVL391:
 859:main.c        ****                     width=x;
 2913              		.loc 1 859 0
 2914 009a 012E     		cmp	r6, #1
 2915 009c 04D1     		bne	.L219
 859:main.c        ****                     width=x;
 2916              		.loc 1 859 0 is_stmt 0 discriminator 1
 2917 009e 42F21073 		movw	r3, #10000
 2918 00a2 9845     		cmp	r8, r3
 2919 00a4 00D1     		bne	.L219
 860:main.c        ****                 }
 2920              		.loc 1 860 0 is_stmt 1
 2921 00a6 B846     		mov	r8, r7
 2922              	.LVL392:
 2923              	.L219:
 863:main.c        ****                 
 2924              		.loc 1 863 0
 2925 00a8 C820     		movs	r0, #200
 2926 00aa FFF7FEFF 		bl	vTaskDelay
 2927              	.LVL393:
 865:main.c        ****                     
 2928              		.loc 1 865 0
 2929 00ae 16B9     		cbnz	r6, .L220
 865:main.c        ****                     
 2930              		.loc 1 865 0 is_stmt 0 discriminator 2
 2931 00b0 15F0030F 		tst	r5, #3
 2932 00b4 01D1     		bne	.L221
 2933              	.L220:
 865:main.c        ****                     
 2934              		.loc 1 865 0 discriminator 3
 2935 00b6 4745     		cmp	r7, r8
 2936 00b8 09D1     		bne	.L222
 2937              	.L221:
 865:main.c        ****                     
 2938              		.loc 1 865 0 discriminator 5
 2939 00ba 04AB     		add	r3, sp, #16
 2940 00bc 13E90700 		ldmdb	r3, {r0, r1, r2}
 2941 00c0 FFF7FEFF 		bl	blackSensors
 2942              	.LVL394:
 2943 00c4 0028     		cmp	r0, #0
 2944 00c6 06DC     		bgt	.L223
 865:main.c        ****                     
 2945              		.loc 1 865 0 discriminator 6
 2946 00c8 15F0030F 		tst	r5, #3
 2947 00cc 03D1     		bne	.L223
 2948              	.L222:
 867:main.c        ****                     direction++;
 2949              		.loc 1 867 0 is_stmt 1
 2950 00ce 0020     		movs	r0, #0
 2951 00d0 FFF7FEFF 		bl	turn90deg
 2952              	.LVL395:
 868:main.c        ****                 }
 2953              		.loc 1 868 0
 2954 00d4 0135     		adds	r5, r5, #1
 2955              	.LVL396:
 2956              	.L223:
ARM GAS  C:\Users\samue\AppData\Local\Temp\ccm0rw4c.s 			page 79


 874:main.c        ****             }
 2957              		.loc 1 874 0
 2958 00d6 4FF49671 		mov	r1, #300
 2959 00da 0020     		movs	r0, #0
 2960 00dc FFF7FEFF 		bl	motor_forward
 2961              	.LVL397:
 2962              	.L212:
 834:main.c        ****             reflectance_digital(&dig);
 2963              		.loc 1 834 0 discriminator 2
 2964 00e0 0134     		adds	r4, r4, #1
 2965              	.LVL398:
 2966              	.L209:
 834:main.c        ****             reflectance_digital(&dig);
 2967              		.loc 1 834 0 is_stmt 0 discriminator 1
 2968 00e2 022C     		cmp	r4, #2
 2969 00e4 9ADD     		ble	.L224
 2970              	.LBE6:
 877:main.c        ****        
 2971              		.loc 1 877 0 is_stmt 1
 2972 00e6 3346     		mov	r3, r6
 2973 00e8 3A46     		mov	r2, r7
 2974 00ea 0349     		ldr	r1, .L229+4
 2975 00ec 0348     		ldr	r0, .L229+8
 2976 00ee FFF7FEFF 		bl	print_mqtt
 2977              	.LVL399:
 879:main.c        **** }
 2978              		.loc 1 879 0
 2979 00f2 91E7     		b	.L225
 2980              	.L230:
 2981              		.align	2
 2982              	.L229:
 2983 00f4 03000080 		.word	-2147483645
 2984 00f8 F4000000 		.word	.LC21
 2985 00fc 00010000 		.word	.LC22
 2986              		.cfi_endproc
 2987              	.LFE102:
 2988              		.size	mazeSolver2000, .-mazeSolver2000
 2989              		.section	.text.mazeMain,"ax",%progbits
 2990              		.align	2
 2991              		.global	mazeMain
 2992              		.thumb
 2993              		.thumb_func
 2994              		.type	mazeMain, %function
 2995              	mazeMain:
 2996              	.LFB101:
 771:main.c        ****     struct sensors_ ref, dig;
 2997              		.loc 1 771 0
 2998              		.cfi_startproc
 2999              		@ args = 0, pretend = 0, frame = 16
 3000              		@ frame_needed = 0, uses_anonymous_args = 0
 3001 0000 10B5     		push	{r4, lr}
 3002              		.cfi_def_cfa_offset 8
 3003              		.cfi_offset 4, -8
 3004              		.cfi_offset 14, -4
 3005 0002 84B0     		sub	sp, sp, #16
 3006              		.cfi_def_cfa_offset 24
 773:main.c        ****     moveToStartLineAndWait("zumo", dig);
ARM GAS  C:\Users\samue\AppData\Local\Temp\ccm0rw4c.s 			page 80


 3007              		.loc 1 773 0
 3008 0004 054C     		ldr	r4, .L233
 3009 0006 2046     		mov	r0, r4
 3010 0008 FFF7FEFF 		bl	startComponents
 3011              	.LVL400:
 774:main.c        ****     mazeSolver2000();
 3012              		.loc 1 774 0
 3013 000c 04AB     		add	r3, sp, #16
 3014 000e 13E90E00 		ldmdb	r3, {r1, r2, r3}
 3015 0012 2046     		mov	r0, r4
 3016 0014 FFF7FEFF 		bl	moveToStartLineAndWait
 3017              	.LVL401:
 775:main.c        ****     //stopAndReport();
 3018              		.loc 1 775 0
 3019 0018 FFF7FEFF 		bl	mazeSolver2000
 3020              	.LVL402:
 3021              	.L234:
 3022              		.align	2
 3023              	.L233:
 3024 001c EC000000 		.word	.LC20
 3025              		.cfi_endproc
 3026              	.LFE101:
 3027              		.size	mazeMain, .-mazeMain
 3028              		.section	.text.decideMazeTurn,"ax",%progbits
 3029              		.align	2
 3030              		.global	decideMazeTurn
 3031              		.thumb
 3032              		.thumb_func
 3033              		.type	decideMazeTurn, %function
 3034              	decideMazeTurn:
 3035              	.LFB104:
 900:main.c        ****   for(int i = 0;i<3;i++){
 3036              		.loc 1 900 0
 3037              		.cfi_startproc
 3038              		@ args = 12, pretend = 8, frame = 0
 3039              		@ frame_needed = 0, uses_anonymous_args = 0
 3040              	.LVL403:
 3041 0000 82B0     		sub	sp, sp, #8
 3042              		.cfi_def_cfa_offset 8
 3043 0002 F8B5     		push	{r3, r4, r5, r6, r7, lr}
 3044              		.cfi_def_cfa_offset 32
 3045              		.cfi_offset 3, -32
 3046              		.cfi_offset 4, -28
 3047              		.cfi_offset 5, -24
 3048              		.cfi_offset 6, -20
 3049              		.cfi_offset 7, -16
 3050              		.cfi_offset 14, -12
 3051 0004 0446     		mov	r4, r0
 3052 0006 0D46     		mov	r5, r1
 3053 0008 06A9     		add	r1, sp, #24
 3054              	.LVL404:
 3055 000a 81E80C00 		stmia	r1, {r2, r3}
 3056              	.LVL405:
 3057              	.LBB7:
 901:main.c        ****     turn90deg(0);
 3058              		.loc 1 901 0
 3059 000e 0026     		movs	r6, #0
ARM GAS  C:\Users\samue\AppData\Local\Temp\ccm0rw4c.s 			page 81


 3060 0010 1DE0     		b	.L236
 3061              	.LVL406:
 3062              	.L239:
 902:main.c        ****     reflectance_digital(&dig);
 3063              		.loc 1 902 0
 3064 0012 0020     		movs	r0, #0
 3065 0014 FFF7FEFF 		bl	turn90deg
 3066              	.LVL407:
 903:main.c        ****     if(Ultra_GetDistance()>15 && !(dig.l3|dig.l2|dig.l1|dig.r1|dig.r2|dig.r3)){
 3067              		.loc 1 903 0
 3068 0018 06A8     		add	r0, sp, #24
 3069 001a FFF7FEFF 		bl	reflectance_digital
 3070              	.LVL408:
 904:main.c        ****       break;
 3071              		.loc 1 904 0
 3072 001e FFF7FEFF 		bl	Ultra_GetDistance
 3073              	.LVL409:
 3074 0022 0F28     		cmp	r0, #15
 3075 0024 12DD     		ble	.L237
 904:main.c        ****       break;
 3076              		.loc 1 904 0 is_stmt 0 discriminator 1
 3077 0026 BDF81820 		ldrh	r2, [sp, #24]
 3078 002a BDF81A10 		ldrh	r1, [sp, #26]
 3079 002e BDF81C30 		ldrh	r3, [sp, #28]
 3080 0032 BDF81EE0 		ldrh	lr, [sp, #30]
 3081 0036 BDF82070 		ldrh	r7, [sp, #32]
 3082 003a BDF82200 		ldrh	r0, [sp, #34]
 3083 003e 0A43     		orrs	r2, r2, r1
 3084 0040 1A43     		orrs	r2, r2, r3
 3085 0042 4EEA0203 		orr	r3, lr, r2
 3086 0046 3B43     		orrs	r3, r3, r7
 3087 0048 0343     		orrs	r3, r0, r3
 3088 004a 02D0     		beq	.L238
 3089              	.L237:
 901:main.c        ****     turn90deg(0);
 3090              		.loc 1 901 0 is_stmt 1 discriminator 2
 3091 004c 0136     		adds	r6, r6, #1
 3092              	.LVL410:
 3093              	.L236:
 901:main.c        ****     turn90deg(0);
 3094              		.loc 1 901 0 is_stmt 0 discriminator 1
 3095 004e 022E     		cmp	r6, #2
 3096 0050 DFDD     		ble	.L239
 3097              	.L238:
 3098              	.LBE7:
 909:main.c        ****   if(dir%2){
 3099              		.loc 1 909 0 is_stmt 1
 3100 0052 0D4B     		ldr	r3, .L244
 3101 0054 2B40     		ands	r3, r5, r3
 3102 0056 03D5     		bpl	.L240
 3103 0058 013B     		subs	r3, r3, #1
 3104 005a 63F00303 		orn	r3, r3, #3
 3105 005e 0133     		adds	r3, r3, #1
 3106              	.L240:
 3107 0060 03EBD373 		add	r3, r3, r3, lsr #31
 3108 0064 23F00103 		bic	r3, r3, #1
 3109 0068 013B     		subs	r3, r3, #1
ARM GAS  C:\Users\samue\AppData\Local\Temp\ccm0rw4c.s 			page 82


 3110              	.LVL411:
 910:main.c        ****     xy[0] += a;
 3111              		.loc 1 910 0
 3112 006a 15F0010F 		tst	r5, #1
 3113 006e 03D0     		beq	.L241
 911:main.c        ****   } else {
 3114              		.loc 1 911 0
 3115 0070 2268     		ldr	r2, [r4]
 3116 0072 1344     		add	r3, r3, r2
 3117              	.LVL412:
 3118 0074 2360     		str	r3, [r4]
 3119 0076 02E0     		b	.L242
 3120              	.LVL413:
 3121              	.L241:
 913:main.c        ****   }
 3122              		.loc 1 913 0
 3123 0078 6268     		ldr	r2, [r4, #4]
 3124 007a 1344     		add	r3, r3, r2
 3125              	.LVL414:
 3126 007c 6360     		str	r3, [r4, #4]
 3127              	.L242:
 916:main.c        **** 
 3128              		.loc 1 916 0
 3129 007e 2046     		mov	r0, r4
 3130 0080 BDE8F840 		pop	{r3, r4, r5, r6, r7, lr}
 3131              		.cfi_restore 14
 3132              		.cfi_restore 7
 3133              		.cfi_restore 6
 3134              		.cfi_restore 5
 3135              		.cfi_restore 4
 3136              		.cfi_restore 3
 3137              		.cfi_def_cfa_offset 8
 3138              	.LVL415:
 3139 0084 02B0     		add	sp, sp, #8
 3140              		.cfi_def_cfa_offset 0
 3141 0086 7047     		bx	lr
 3142              	.L245:
 3143              		.align	2
 3144              	.L244:
 3145 0088 03000080 		.word	-2147483645
 3146              		.cfi_endproc
 3147              	.LFE104:
 3148              		.size	decideMazeTurn, .-decideMazeTurn
 3149              		.section	.text.tankTurn,"ax",%progbits
 3150              		.align	2
 3151              		.global	tankTurn
 3152              		.thumb
 3153              		.thumb_func
 3154              		.type	tankTurn, %function
 3155              	tankTurn:
 3156              	.LFB124:
1349:main.c        **** }
1350:main.c        **** 
1351:main.c        **** void tankTurn(int speed, int dir){ // 1 = turn right, 0 = turn left
 3157              		.loc 1 1351 0
 3158              		.cfi_startproc
 3159              		@ args = 0, pretend = 0, frame = 0
ARM GAS  C:\Users\samue\AppData\Local\Temp\ccm0rw4c.s 			page 83


 3160              		@ frame_needed = 0, uses_anonymous_args = 0
 3161              	.LVL416:
 3162 0000 38B5     		push	{r3, r4, r5, lr}
 3163              		.cfi_def_cfa_offset 16
 3164              		.cfi_offset 3, -16
 3165              		.cfi_offset 4, -12
 3166              		.cfi_offset 5, -8
 3167              		.cfi_offset 14, -4
 3168 0002 0446     		mov	r4, r0
 3169 0004 0D46     		mov	r5, r1
1352:main.c        ****   MotorDirLeft_Write(dir);
 3170              		.loc 1 1352 0
 3171 0006 C8B2     		uxtb	r0, r1
 3172              	.LVL417:
 3173 0008 FFF7FEFF 		bl	MotorDirLeft_Write
 3174              	.LVL418:
1353:main.c        ****   MotorDirRight_Write(!dir);
 3175              		.loc 1 1353 0
 3176 000c B5FA85F0 		clz	r0, r5
 3177 0010 4009     		lsrs	r0, r0, #5
 3178 0012 FFF7FEFF 		bl	MotorDirRight_Write
 3179              	.LVL419:
1354:main.c        **** 
1355:main.c        ****   PWM_WriteCompare1(speed);
 3180              		.loc 1 1355 0
 3181 0016 E4B2     		uxtb	r4, r4
 3182              	.LVL420:
 3183 0018 2046     		mov	r0, r4
 3184 001a FFF7FEFF 		bl	PWM_WriteCompare1
 3185              	.LVL421:
1356:main.c        ****   PWM_WriteCompare2(speed);
 3186              		.loc 1 1356 0
 3187 001e 2046     		mov	r0, r4
 3188 0020 FFF7FEFF 		bl	PWM_WriteCompare2
 3189              	.LVL422:
1357:main.c        **** 
1358:main.c        ****   vTaskDelay(320);
 3190              		.loc 1 1358 0
 3191 0024 4FF4A070 		mov	r0, #320
 3192 0028 FFF7FEFF 		bl	vTaskDelay
 3193              	.LVL423:
 3194 002c 38BD     		pop	{r3, r4, r5, pc}
 3195              		.cfi_endproc
 3196              	.LFE124:
 3197              		.size	tankTurn, .-tankTurn
 3198              		.global	__aeabi_dcmplt
 3199 002e 00BF     		.section	.text.rp_sumoWrestling,"ax",%progbits
 3200              		.align	2
 3201              		.global	rp_sumoWrestling
 3202              		.thumb
 3203              		.thumb_func
 3204              		.type	rp_sumoWrestling, %function
 3205              	rp_sumoWrestling:
 3206              	.LFB86:
 309:main.c        ****   struct sensors_ ref, dig = {0,0,0,0,0,0};
 3207              		.loc 1 309 0
 3208              		.cfi_startproc
ARM GAS  C:\Users\samue\AppData\Local\Temp\ccm0rw4c.s 			page 84


 3209              		@ args = 0, pretend = 0, frame = 40
 3210              		@ frame_needed = 0, uses_anonymous_args = 0
 3211 0000 2DE9F04F 		push	{r4, r5, r6, r7, r8, r9, r10, fp, lr}
 3212              		.cfi_def_cfa_offset 36
 3213              		.cfi_offset 4, -36
 3214              		.cfi_offset 5, -32
 3215              		.cfi_offset 6, -28
 3216              		.cfi_offset 7, -24
 3217              		.cfi_offset 8, -20
 3218              		.cfi_offset 9, -16
 3219              		.cfi_offset 10, -12
 3220              		.cfi_offset 11, -8
 3221              		.cfi_offset 14, -4
 3222 0004 8BB0     		sub	sp, sp, #44
 3223              		.cfi_def_cfa_offset 80
 310:main.c        ****   struct accData_ acc      = {0,0,0};
 3224              		.loc 1 310 0
 3225 0006 04AC     		add	r4, sp, #16
 3226 0008 0026     		movs	r6, #0
 3227 000a 0496     		str	r6, [sp, #16]
 3228 000c 0596     		str	r6, [sp, #20]
 3229 000e 0696     		str	r6, [sp, #24]
 311:main.c        ****   TickType_t start         = 0;
 3230              		.loc 1 311 0
 3231 0010 ADF80860 		strh	r6, [sp, #8]	@ movhi
 3232 0014 ADF80A60 		strh	r6, [sp, #10]	@ movhi
 3233 0018 ADF80C60 		strh	r6, [sp, #12]	@ movhi
 3234              	.LVL424:
 324:main.c        ****   moveToStartLineAndWait("zumo",dig);
 3235              		.loc 1 324 0
 3236 001c 644D     		ldr	r5, .L271+8
 3237 001e 2846     		mov	r0, r5
 3238 0020 FFF7FEFF 		bl	startComponents
 3239              	.LVL425:
 325:main.c        ****   start = startWrestling(dig);
 3240              		.loc 1 325 0
 3241 0024 94E80E00 		ldmia	r4, {r1, r2, r3}
 3242 0028 2846     		mov	r0, r5
 3243 002a FFF7FEFF 		bl	moveToStartLineAndWait
 3244              	.LVL426:
 326:main.c        ****   while(SW1_Read()){
 3245              		.loc 1 326 0
 3246 002e 94E80700 		ldmia	r4, {r0, r1, r2}
 3247 0032 FFF7FEFF 		bl	startWrestling
 3248              	.LVL427:
 3249 0036 0190     		str	r0, [sp, #4]
 3250              	.LVL428:
 319:main.c        ****   int hit                  = 361;
 3251              		.loc 1 319 0
 3252 0038 3446     		mov	r4, r6
 318:main.c        ****   bool enemyDetected       = false;
 3253              		.loc 1 318 0
 3254 003a B346     		mov	fp, r6
 317:main.c        ****   bool atCenter            = false;
 3255              		.loc 1 317 0
 3256 003c B146     		mov	r9, r6
 316:main.c        ****   bool headedForCenter     = false;
ARM GAS  C:\Users\samue\AppData\Local\Temp\ccm0rw4c.s 			page 85


 3257              		.loc 1 316 0
 3258 003e 3546     		mov	r5, r6
 315:main.c        ****   bool runningToEdge       = false;
 3259              		.loc 1 315 0
 3260 0040 4FF0FF38 		mov	r8, #-1
 314:main.c        ****   TickType_t atCenterTime  = INFINITY;
 3261              		.loc 1 314 0
 3262 0044 4746     		mov	r7, r8
 327:main.c        ****     hit = detectZumoHit(acc);
 3263              		.loc 1 327 0
 3264 0046 A1E0     		b	.L249
 3265              	.LVL429:
 3266              	.L266:
 328:main.c        ****     
 3267              		.loc 1 328 0
 3268 0048 02AB     		add	r3, sp, #8
 3269 004a 93E80300 		ldmia	r3, {r0, r1}
 3270 004e FFF7FEFF 		bl	detectZumoHit
 3271              	.LVL430:
 3272 0052 8246     		mov	r10, r0
 3273              	.LVL431:
 330:main.c        ****       if(headedForCenter){
 3274              		.loc 1 330 0
 3275 0054 FFF7FEFF 		bl	__aeabi_i2d
 3276              	.LVL432:
 3277 0058 53A3     		adr	r3, .L271
 3278 005a D3E90023 		ldrd	r2, [r3]
 3279 005e FFF7FEFF 		bl	__aeabi_dcmplt
 3280              	.LVL433:
 3281 0062 D0B1     		cbz	r0, .L250
 330:main.c        ****       if(headedForCenter){
 3282              		.loc 1 330 0 is_stmt 0 discriminator 1
 3283 0064 FFF7FEFF 		bl	xTaskGetTickCount
 3284              	.LVL434:
 3285 0068 801B     		subs	r0, r0, r6
 3286 006a C828     		cmp	r0, #200
 3287 006c 15D9     		bls	.L250
 330:main.c        ****       if(headedForCenter){
 3288              		.loc 1 330 0 discriminator 2
 3289 006e A4B9     		cbnz	r4, .L250
 331:main.c        ****         headedForCenter = false;
 3290              		.loc 1 331 0 is_stmt 1
 3291 0070 B9F1000F 		cmp	r9, #0
 3292 0074 06D0     		beq	.L252
 3293              	.LVL435:
 334:main.c        ****       }
 3294              		.loc 1 334 0
 3295 0076 0021     		movs	r1, #0
 3296 0078 C820     		movs	r0, #200
 3297 007a FFF7FEFF 		bl	motor_forward
 3298              	.LVL436:
 332:main.c        ****         runningToEdge = true;
 3299              		.loc 1 332 0
 3300 007e 4FF00009 		mov	r9, #0
 333:main.c        ****         motor_forward(defSpeed,0);
 3301              		.loc 1 333 0
 3302 0082 0125     		movs	r5, #1
ARM GAS  C:\Users\samue\AppData\Local\Temp\ccm0rw4c.s 			page 86


 3303              	.LVL437:
 3304              	.L252:
 336:main.c        ****         dodgeEndTime = respondToHit(hit);
 3305              		.loc 1 336 0
 3306 0084 1DB9     		cbnz	r5, .L253
 337:main.c        ****       }
 3307              		.loc 1 337 0
 3308 0086 5046     		mov	r0, r10
 3309 0088 FFF7FEFF 		bl	respondToHit
 3310              	.LVL438:
 3311 008c 0746     		mov	r7, r0
 3312              	.LVL439:
 3313              	.L253:
 339:main.c        ****       lastHitTime = xTaskGetTickCount();
 3314              		.loc 1 339 0
 3315 008e 5046     		mov	r0, r10
 3316 0090 FFF7FEFF 		bl	reportZumoHit
 3317              	.LVL440:
 340:main.c        ****       hit = 361.0;
 3318              		.loc 1 340 0
 3319 0094 FFF7FEFF 		bl	xTaskGetTickCount
 3320              	.LVL441:
 3321 0098 0646     		mov	r6, r0
 3322              	.LVL442:
 3323              	.L250:
 344:main.c        ****       atCenter = false;
 3324              		.loc 1 344 0
 3325 009a FFF7FEFF 		bl	xTaskGetTickCount
 3326              	.LVL443:
 3327 009e 8742     		cmp	r7, r0
 3328 00a0 16D2     		bcs	.L254
 3329              	.LVL444:
 346:main.c        ****         enemyDetected = true;
 3330              		.loc 1 346 0
 3331 00a2 FFF7FEFF 		bl	Ultra_GetDistance
 3332              	.LVL445:
 3333 00a6 0928     		cmp	r0, #9
 3334 00a8 09DC     		bgt	.L255
 3335              	.LVL446:
 348:main.c        ****       } else {
 3336              		.loc 1 348 0
 3337 00aa 0021     		movs	r1, #0
 3338 00ac FF20     		movs	r0, #255
 3339 00ae FFF7FEFF 		bl	motor_forward
 3340              	.LVL447:
 347:main.c        ****         motor_forward(atkSpeed,0);
 3341              		.loc 1 347 0
 3342 00b2 0124     		movs	r4, #1
 345:main.c        ****       if(Ultra_GetDistance() < 10){
 3343              		.loc 1 345 0
 3344 00b4 4FF0000B 		mov	fp, #0
 353:main.c        ****     }
 3345              		.loc 1 353 0
 3346 00b8 4FF0FF37 		mov	r7, #-1
 3347              	.LVL448:
 3348 00bc 08E0     		b	.L254
 3349              	.LVL449:
ARM GAS  C:\Users\samue\AppData\Local\Temp\ccm0rw4c.s 			page 87


 3350              	.L255:
 351:main.c        ****       }
 3351              		.loc 1 351 0
 3352 00be 0021     		movs	r1, #0
 3353 00c0 C820     		movs	r0, #200
 3354 00c2 FFF7FEFF 		bl	motor_forward
 3355              	.LVL450:
 345:main.c        ****       if(Ultra_GetDistance() < 10){
 3356              		.loc 1 345 0
 3357 00c6 4FF0000B 		mov	fp, #0
 350:main.c        ****         motor_forward(defSpeed,0);
 3358              		.loc 1 350 0
 3359 00ca 0125     		movs	r5, #1
 353:main.c        ****     }
 3360              		.loc 1 353 0
 3361 00cc 4FF0FF37 		mov	r7, #-1
 3362              	.LVL451:
 3363              	.L254:
 356:main.c        ****       while(Ultra_GetDistance() < 15 && blackSensors(dig) < 2){
 3364              		.loc 1 356 0
 3365 00d0 1CB9     		cbnz	r4, .L256
 3366 00d2 13E0     		b	.L257
 3367              	.L259:
 358:main.c        ****       }
 3368              		.loc 1 358 0
 3369 00d4 1420     		movs	r0, #20
 3370 00d6 FFF7FEFF 		bl	vTaskDelay
 3371              	.LVL452:
 3372              	.L256:
 357:main.c        ****         vTaskDelay(20);
 3373              		.loc 1 357 0
 3374 00da FFF7FEFF 		bl	Ultra_GetDistance
 3375              	.LVL453:
 3376 00de 0E28     		cmp	r0, #14
 3377 00e0 06DC     		bgt	.L258
 357:main.c        ****         vTaskDelay(20);
 3378              		.loc 1 357 0 is_stmt 0 discriminator 1
 3379 00e2 04AB     		add	r3, sp, #16
 3380 00e4 93E80700 		ldmia	r3, {r0, r1, r2}
 3381 00e8 FFF7FEFF 		bl	blackSensors
 3382              	.LVL454:
 3383 00ec 0128     		cmp	r0, #1
 3384 00ee F1DD     		ble	.L259
 3385              	.L258:
 3386              	.LVL455:
 362:main.c        ****     }
 3387              		.loc 1 362 0 is_stmt 1
 3388 00f0 0021     		movs	r1, #0
 3389 00f2 C820     		movs	r0, #200
 3390 00f4 FFF7FEFF 		bl	motor_forward
 3391              	.LVL456:
 360:main.c        ****       runningToEdge = true;
 3392              		.loc 1 360 0
 3393 00f8 0024     		movs	r4, #0
 361:main.c        ****       motor_forward(defSpeed,0);
 3394              		.loc 1 361 0
 3395 00fa 0125     		movs	r5, #1
ARM GAS  C:\Users\samue\AppData\Local\Temp\ccm0rw4c.s 			page 88


 3396              	.LVL457:
 3397              	.L257:
 365:main.c        ****       while(turnToCenter(ref)>100&&blackSensors(dig)>0&&blackSensors(dig)<6){};
 3398              		.loc 1 365 0
 3399 00fc 04AB     		add	r3, sp, #16
 3400 00fe 93E80700 		ldmia	r3, {r0, r1, r2}
 3401 0102 FFF7FEFF 		bl	blackSensors
 3402              	.LVL458:
 3403 0106 0128     		cmp	r0, #1
 3404 0108 22DD     		ble	.L260
 3405              	.L263:
 366:main.c        ****       runningToEdge = false;
 3406              		.loc 1 366 0 discriminator 3
 3407 010a 0AAB     		add	r3, sp, #40
 3408 010c 13E90700 		ldmdb	r3, {r0, r1, r2}
 3409 0110 FFF7FEFF 		bl	turnToCenter
 3410              	.LVL459:
 3411 0114 2749     		ldr	r1, .L271+12
 3412 0116 FFF7FEFF 		bl	__aeabi_fcmpgt
 3413              	.LVL460:
 3414 011a 68B1     		cbz	r0, .L261
 366:main.c        ****       runningToEdge = false;
 3415              		.loc 1 366 0 is_stmt 0 discriminator 1
 3416 011c 04AB     		add	r3, sp, #16
 3417 011e 93E80700 		ldmia	r3, {r0, r1, r2}
 3418 0122 FFF7FEFF 		bl	blackSensors
 3419              	.LVL461:
 3420 0126 0028     		cmp	r0, #0
 3421 0128 06DD     		ble	.L261
 366:main.c        ****       runningToEdge = false;
 3422              		.loc 1 366 0 discriminator 2
 3423 012a 04AB     		add	r3, sp, #16
 3424 012c 93E80700 		ldmia	r3, {r0, r1, r2}
 3425 0130 FFF7FEFF 		bl	blackSensors
 3426              	.LVL462:
 3427 0134 0528     		cmp	r0, #5
 3428 0136 E8DD     		ble	.L263
 3429              	.L261:
 3430              	.LVL463:
 369:main.c        ****       motor_backward(defSpeed,0);
 3431              		.loc 1 369 0 is_stmt 1
 3432 0138 FFF7FEFF 		bl	xTaskGetTickCount
 3433              	.LVL464:
 3434 013c 00F2DC58 		addw	r8, r0, #1500
 3435              	.LVL465:
 370:main.c        ****     } else if(atCenterTime < xTaskGetTickCount()){
 3436              		.loc 1 370 0
 3437 0140 0021     		movs	r1, #0
 3438 0142 C820     		movs	r0, #200
 3439 0144 FFF7FEFF 		bl	motor_backward
 3440              	.LVL466:
 368:main.c        ****       atCenterTime = xTaskGetTickCount() + 1500; // adjust
 3441              		.loc 1 368 0
 3442 0148 4FF00109 		mov	r9, #1
 367:main.c        ****       headedForCenter = true;
 3443              		.loc 1 367 0
 3444 014c 0025     		movs	r5, #0
ARM GAS  C:\Users\samue\AppData\Local\Temp\ccm0rw4c.s 			page 89


 3445 014e 1DE0     		b	.L249
 3446              	.LVL467:
 3447              	.L260:
 371:main.c        ****       runningToEdge = false;
 3448              		.loc 1 371 0
 3449 0150 FFF7FEFF 		bl	xTaskGetTickCount
 3450              	.LVL468:
 3451 0154 8045     		cmp	r8, r0
 3452 0156 0BD2     		bcs	.L265
 3453              	.LVL469:
 376:main.c        ****     } else if(atCenter && Ultra_GetDistance() < 10){
 3454              		.loc 1 376 0
 3455 0158 0121     		movs	r1, #1
 3456 015a 9620     		movs	r0, #150
 3457 015c FFF7FEFF 		bl	tankTurn
 3458              	.LVL470:
 374:main.c        ****       atCenterTime = INFINITY;
 3459              		.loc 1 374 0
 3460 0160 4FF0010B 		mov	fp, #1
 373:main.c        ****       atCenter = true;
 3461              		.loc 1 373 0
 3462 0164 4FF00009 		mov	r9, #0
 372:main.c        ****       headedForCenter = false;
 3463              		.loc 1 372 0
 3464 0168 4D46     		mov	r5, r9
 375:main.c        ****       tankTurn(150,1);
 3465              		.loc 1 375 0
 3466 016a 4FF0FF38 		mov	r8, #-1
 3467 016e 0DE0     		b	.L249
 3468              	.LVL471:
 3469              	.L265:
 377:main.c        ****       enemyDetected = true;
 3470              		.loc 1 377 0
 3471 0170 BBF1000F 		cmp	fp, #0
 3472 0174 0AD0     		beq	.L249
 377:main.c        ****       enemyDetected = true;
 3473              		.loc 1 377 0 is_stmt 0 discriminator 1
 3474 0176 FFF7FEFF 		bl	Ultra_GetDistance
 3475              	.LVL472:
 3476 017a 0928     		cmp	r0, #9
 3477 017c 06DC     		bgt	.L249
 3478              	.LVL473:
 380:main.c        ****     }
 3479              		.loc 1 380 0 is_stmt 1
 3480 017e 0021     		movs	r1, #0
 3481 0180 FF20     		movs	r0, #255
 3482 0182 FFF7FEFF 		bl	motor_forward
 3483              	.LVL474:
 378:main.c        ****       atCenter = false;
 3484              		.loc 1 378 0
 3485 0186 0124     		movs	r4, #1
 379:main.c        ****       motor_forward(atkSpeed,0);
 3486              		.loc 1 379 0
 3487 0188 4FF0000B 		mov	fp, #0
 3488              	.LVL475:
 3489              	.L249:
 327:main.c        ****     hit = detectZumoHit(acc);
ARM GAS  C:\Users\samue\AppData\Local\Temp\ccm0rw4c.s 			page 90


 3490              		.loc 1 327 0
 3491 018c FFF7FEFF 		bl	SW1_Read
 3492              	.LVL476:
 3493 0190 0028     		cmp	r0, #0
 3494 0192 7FF459AF 		bne	.L266
 383:main.c        **** }
 3495              		.loc 1 383 0
 3496 0196 0198     		ldr	r0, [sp, #4]
 3497 0198 FFF7FEFF 		bl	wrestlingEnd
 3498              	.LVL477:
 384:main.c        **** 
 3499              		.loc 1 384 0
 3500 019c 0BB0     		add	sp, sp, #44
 3501              		.cfi_def_cfa_offset 36
 3502              		@ sp needed
 3503 019e BDE8F08F 		pop	{r4, r5, r6, r7, r8, r9, r10, fp, pc}
 3504              	.LVL478:
 3505              	.L272:
 3506 01a2 00BFAFF3 		.align	3
 3506      0080
 3507              	.L271:
 3508 01a8 00000000 		.word	0
 3509 01ac 00907640 		.word	1081511936
 3510 01b0 EC000000 		.word	.LC20
 3511 01b4 0000C842 		.word	1120403456
 3512              		.cfi_endproc
 3513              	.LFE86:
 3514              		.size	rp_sumoWrestling, .-rp_sumoWrestling
 3515              		.section	.text.zmain,"ax",%progbits
 3516              		.align	2
 3517              		.global	zmain
 3518              		.thumb
 3519              		.thumb_func
 3520              		.type	zmain, %function
 3521              	zmain:
 3522              	.LFB85:
 148:main.c        ****   /*
 3523              		.loc 1 148 0
 3524              		.cfi_startproc
 3525              		@ Volatile: function does not return.
 3526              		@ args = 0, pretend = 0, frame = 0
 3527              		@ frame_needed = 0, uses_anonymous_args = 0
 3528 0000 08B5     		push	{r3, lr}
 3529              		.cfi_def_cfa_offset 8
 3530              		.cfi_offset 3, -8
 3531              		.cfi_offset 14, -4
 167:main.c        **** 
 3532              		.loc 1 167 0
 3533 0002 FFF7FEFF 		bl	rp_sumoWrestling
 3534              	.LVL479:
 3535              	.L274:
 195:main.c        ****     [[[[[[[[[THANK YOU FOR YOUR CO-OPERATION]]]]]]]]]*/
 3536              		.loc 1 195 0 discriminator 1
 3537 0006 C820     		movs	r0, #200
 3538 0008 FFF7FEFF 		bl	vTaskDelay
 3539              	.LVL480:
 3540 000c FBE7     		b	.L274
ARM GAS  C:\Users\samue\AppData\Local\Temp\ccm0rw4c.s 			page 91


 3541              		.cfi_endproc
 3542              	.LFE85:
 3543              		.size	zmain, .-zmain
 3544 000e 00BF     		.section	.text.goToCenterTest,"ax",%progbits
 3545              		.align	2
 3546              		.global	goToCenterTest
 3547              		.thumb
 3548              		.thumb_func
 3549              		.type	goToCenterTest, %function
 3550              	goToCenterTest:
 3551              	.LFB88:
 396:main.c        ****   struct sensors_ ref, dig;
 3552              		.loc 1 396 0
 3553              		.cfi_startproc
 3554              		@ args = 0, pretend = 0, frame = 24
 3555              		@ frame_needed = 0, uses_anonymous_args = 0
 3556 0000 00B5     		push	{lr}
 3557              		.cfi_def_cfa_offset 4
 3558              		.cfi_offset 14, -4
 3559 0002 87B0     		sub	sp, sp, #28
 3560              		.cfi_def_cfa_offset 32
 398:main.c        ****   IR_wait();
 3561              		.loc 1 398 0
 3562 0004 1A48     		ldr	r0, .L284
 3563 0006 FFF7FEFF 		bl	startComponents
 3564              	.LVL481:
 399:main.c        ****   motor_forward(150,0);
 3565              		.loc 1 399 0
 3566 000a FFF7FEFF 		bl	IR_wait
 3567              	.LVL482:
 400:main.c        ****   while(true){
 3568              		.loc 1 400 0
 3569 000e 0021     		movs	r1, #0
 3570 0010 9620     		movs	r0, #150
 3571 0012 FFF7FEFF 		bl	motor_forward
 3572              	.LVL483:
 3573              	.L277:
 402:main.c        ****       while(turnToCenter(ref)>50&&blackSensors(dig)>0&&blackSensors(dig)<6){};
 3574              		.loc 1 402 0
 3575 0016 9DE80700 		ldmia	sp, {r0, r1, r2}
 3576 001a FFF7FEFF 		bl	blackSensors
 3577              	.LVL484:
 3578 001e 0128     		cmp	r0, #1
 3579 0020 F9DD     		ble	.L277
 3580              	.L280:
 403:main.c        ****       motor_backward(150,1000);
 3581              		.loc 1 403 0 discriminator 3
 3582 0022 06AB     		add	r3, sp, #24
 3583 0024 13E90700 		ldmdb	r3, {r0, r1, r2}
 3584 0028 FFF7FEFF 		bl	turnToCenter
 3585              	.LVL485:
 3586 002c 1149     		ldr	r1, .L284+4
 3587 002e FFF7FEFF 		bl	__aeabi_fcmpgt
 3588              	.LVL486:
 3589 0032 58B1     		cbz	r0, .L278
 403:main.c        ****       motor_backward(150,1000);
 3590              		.loc 1 403 0 is_stmt 0 discriminator 1
ARM GAS  C:\Users\samue\AppData\Local\Temp\ccm0rw4c.s 			page 92


 3591 0034 9DE80700 		ldmia	sp, {r0, r1, r2}
 3592 0038 FFF7FEFF 		bl	blackSensors
 3593              	.LVL487:
 3594 003c 0028     		cmp	r0, #0
 3595 003e 05DD     		ble	.L278
 403:main.c        ****       motor_backward(150,1000);
 3596              		.loc 1 403 0 discriminator 2
 3597 0040 9DE80700 		ldmia	sp, {r0, r1, r2}
 3598 0044 FFF7FEFF 		bl	blackSensors
 3599              	.LVL488:
 3600 0048 0528     		cmp	r0, #5
 3601 004a EADD     		ble	.L280
 3602              	.L278:
 404:main.c        ****       tankTurn(200,0);
 3603              		.loc 1 404 0 is_stmt 1
 3604 004c 4FF47A71 		mov	r1, #1000
 3605 0050 9620     		movs	r0, #150
 3606 0052 FFF7FEFF 		bl	motor_backward
 3607              	.LVL489:
 405:main.c        ****       vTaskDelay(200);
 3608              		.loc 1 405 0
 3609 0056 0021     		movs	r1, #0
 3610 0058 C820     		movs	r0, #200
 3611 005a FFF7FEFF 		bl	tankTurn
 3612              	.LVL490:
 406:main.c        ****       motor_forward(150,0);
 3613              		.loc 1 406 0
 3614 005e C820     		movs	r0, #200
 3615 0060 FFF7FEFF 		bl	vTaskDelay
 3616              	.LVL491:
 407:main.c        ****     }
 3617              		.loc 1 407 0
 3618 0064 0021     		movs	r1, #0
 3619 0066 9620     		movs	r0, #150
 3620 0068 FFF7FEFF 		bl	motor_forward
 3621              	.LVL492:
 3622 006c D3E7     		b	.L277
 3623              	.L285:
 3624 006e 00BF     		.align	2
 3625              	.L284:
 3626 0070 EC000000 		.word	.LC20
 3627 0074 00004842 		.word	1112014848
 3628              		.cfi_endproc
 3629              	.LFE88:
 3630              		.size	goToCenterTest, .-goToCenterTest
 3631              		.section	.text.filterSavitzkyGolay7,"ax",%progbits
 3632              		.align	2
 3633              		.global	filterSavitzkyGolay7
 3634              		.thumb
 3635              		.thumb_func
 3636              		.type	filterSavitzkyGolay7, %function
 3637              	filterSavitzkyGolay7:
 3638              	.LFB125:
1359:main.c        **** }
1360:main.c        **** 
1361:main.c        **** int filterSavitzkyGolay7(int a[]){
 3639              		.loc 1 1361 0
ARM GAS  C:\Users\samue\AppData\Local\Temp\ccm0rw4c.s 			page 93


 3640              		.cfi_startproc
 3641              		@ args = 0, pretend = 0, frame = 0
 3642              		@ frame_needed = 0, uses_anonymous_args = 0
 3643              		@ link register save eliminated.
 3644              	.LVL493:
1362:main.c        ****   return -2*a[6] + 3*a[5] + 6*a[4] + 7*a[3] + 6*a[2] + 3*a[1] - 2*a[0];
 3645              		.loc 1 1362 0
 3646 0000 8169     		ldr	r1, [r0, #24]
 3647 0002 CB07     		lsls	r3, r1, #31
 3648 0004 591A     		subs	r1, r3, r1
 3649 0006 4A00     		lsls	r2, r1, #1
 3650 0008 4369     		ldr	r3, [r0, #20]
 3651 000a 03EB4303 		add	r3, r3, r3, lsl #1
 3652 000e 1344     		add	r3, r3, r2
 3653 0010 0169     		ldr	r1, [r0, #16]
 3654 0012 01EB4101 		add	r1, r1, r1, lsl #1
 3655 0016 4A00     		lsls	r2, r1, #1
 3656 0018 1344     		add	r3, r3, r2
 3657 001a C268     		ldr	r2, [r0, #12]
 3658 001c C2EBC202 		rsb	r2, r2, r2, lsl #3
 3659 0020 1A44     		add	r2, r2, r3
 3660 0022 8168     		ldr	r1, [r0, #8]
 3661 0024 01EB4101 		add	r1, r1, r1, lsl #1
 3662 0028 4B00     		lsls	r3, r1, #1
 3663 002a 1A44     		add	r2, r2, r3
 3664 002c 4368     		ldr	r3, [r0, #4]
 3665 002e 03EB4303 		add	r3, r3, r3, lsl #1
 3666 0032 1344     		add	r3, r3, r2
 3667 0034 0068     		ldr	r0, [r0]
 3668              	.LVL494:
1363:main.c        **** }
 3669              		.loc 1 1363 0
 3670 0036 A3EB4000 		sub	r0, r3, r0, lsl #1
 3671 003a 7047     		bx	lr
 3672              		.cfi_endproc
 3673              	.LFE125:
 3674              		.size	filterSavitzkyGolay7, .-filterSavitzkyGolay7
 3675              		.section	.text.irMsgTest,"ax",%progbits
 3676              		.align	2
 3677              		.global	irMsgTest
 3678              		.thumb
 3679              		.thumb_func
 3680              		.type	irMsgTest, %function
 3681              	irMsgTest:
 3682              	.LFB126:
1364:main.c        **** 
1365:main.c        **** void irMsgTest(){
 3683              		.loc 1 1365 0
 3684              		.cfi_startproc
 3685              		@ args = 0, pretend = 0, frame = 8
 3686              		@ frame_needed = 0, uses_anonymous_args = 0
 3687 0000 00B5     		push	{lr}
 3688              		.cfi_def_cfa_offset 4
 3689              		.cfi_offset 14, -4
 3690 0002 83B0     		sub	sp, sp, #12
 3691              		.cfi_def_cfa_offset 16
1366:main.c        ****   IR_Start();
ARM GAS  C:\Users\samue\AppData\Local\Temp\ccm0rw4c.s 			page 94


 3692              		.loc 1 1366 0
 3693 0004 FFF7FEFF 		bl	IR_Start
 3694              	.LVL495:
1367:main.c        ****   uint32_t IR_val; 
1368:main.c        ****   printf("\n\nIR test\n");
 3695              		.loc 1 1368 0
 3696 0008 0E48     		ldr	r0, .L293
 3697 000a FFF7FEFF 		bl	puts
 3698              	.LVL496:
1369:main.c        ****   IR_flush(); // clear IR receive buffer
 3699              		.loc 1 1369 0
 3700 000e FFF7FEFF 		bl	IR_flush
 3701              	.LVL497:
1370:main.c        ****   printf("Buffer cleared\n");
 3702              		.loc 1 1370 0
 3703 0012 0D48     		ldr	r0, .L293+4
 3704 0014 FFF7FEFF 		bl	puts
 3705              	.LVL498:
 3706              	.L288:
1371:main.c        ****     
1372:main.c        ****   // print received IR pulses and their lengths
1373:main.c        ****   for(;;)
1374:main.c        ****   {
1375:main.c        ****     IR_flush();
 3707              		.loc 1 1375 0
 3708 0018 FFF7FEFF 		bl	IR_flush
 3709              	.LVL499:
1376:main.c        ****     if(IR_get(&IR_val, portMAX_DELAY)) {
 3710              		.loc 1 1376 0
 3711 001c 4FF0FF31 		mov	r1, #-1
 3712 0020 01A8     		add	r0, sp, #4
 3713 0022 FFF7FEFF 		bl	IR_get
 3714              	.LVL500:
 3715 0026 0028     		cmp	r0, #0
 3716 0028 F6D0     		beq	.L288
 3717              	.LBB8:
1377:main.c        ****       int l = IR_val & IR_SIGNAL_MASK; // get pulse length
 3718              		.loc 1 1377 0
 3719 002a 019B     		ldr	r3, [sp, #4]
 3720 002c 23F00042 		bic	r2, r3, #-2147483648
 3721              	.LVL501:
1378:main.c        ****       int b = 0;
1379:main.c        ****       if((IR_val & IR_SIGNAL_HIGH) != 0) b = 1; // get pulse state (0/1)
 3722              		.loc 1 1379 0
 3723 0030 002B     		cmp	r3, #0
 3724 0032 01DB     		blt	.L291
1378:main.c        ****       int b = 0;
 3725              		.loc 1 1378 0
 3726 0034 0021     		movs	r1, #0
 3727 0036 00E0     		b	.L289
 3728              	.L291:
 3729              		.loc 1 1379 0
 3730 0038 0121     		movs	r1, #1
 3731              	.L289:
 3732              	.LVL502:
1380:main.c        **** 
1381:main.c        ****            
ARM GAS  C:\Users\samue\AppData\Local\Temp\ccm0rw4c.s 			page 95


1382:main.c        ****            printf("%d %d %d\r\n",b, l, IR_val);
 3733              		.loc 1 1382 0
 3734 003a 0448     		ldr	r0, .L293+8
 3735 003c FFF7FEFF 		bl	printf
 3736              	.LVL503:
 3737 0040 EAE7     		b	.L288
 3738              	.L294:
 3739 0042 00BF     		.align	2
 3740              	.L293:
 3741 0044 14010000 		.word	.LC23
 3742 0048 20010000 		.word	.LC24
 3743 004c 30010000 		.word	.LC25
 3744              	.LBE8:
 3745              		.cfi_endproc
 3746              	.LFE126:
 3747              		.size	irMsgTest, .-irMsgTest
 3748              		.section	.text.shiftArray,"ax",%progbits
 3749              		.align	2
 3750              		.global	shiftArray
 3751              		.thumb
 3752              		.thumb_func
 3753              		.type	shiftArray, %function
 3754              	shiftArray:
 3755              	.LFB127:
1383:main.c        ****         
1384:main.c        ****       }
1385:main.c        ****    }    
1386:main.c        **** }
1387:main.c        **** 
1388:main.c        **** int* shiftArray(int* a){
 3756              		.loc 1 1388 0
 3757              		.cfi_startproc
 3758              		@ args = 0, pretend = 0, frame = 0
 3759              		@ frame_needed = 0, uses_anonymous_args = 0
 3760              		@ link register save eliminated.
 3761              	.LVL504:
1389:main.c        ****   int size = sizeof(a) / sizeof(int);
1390:main.c        ****   return a;
1391:main.c        **** }
 3762              		.loc 1 1391 0
 3763 0000 7047     		bx	lr
 3764              		.cfi_endproc
 3765              	.LFE127:
 3766              		.size	shiftArray, .-shiftArray
 3767 0002 00BF     		.section	.rodata
 3768              		.align	2
 3769              		.set	.LANCHOR0,. + 0
 3770              	.LC0:
 3771 0000 F0000000 		.word	240
 3772 0004 D6000000 		.word	214
 3773 0008 7F000000 		.word	127
 3774 000c 7F000000 		.word	127
 3775 0010 8F000000 		.word	143
 3776 0014 8F000000 		.word	143
 3777 0018 00000000 		.word	0
 3778 001c BF000000 		.word	191
 3779 0020 B4000000 		.word	180
ARM GAS  C:\Users\samue\AppData\Local\Temp\ccm0rw4c.s 			page 96


 3780 0024 6B000000 		.word	107
 3781 0028 6B000000 		.word	107
 3782 002c 78000000 		.word	120
 3783 0030 78000000 		.word	120
 3784 0034 00000000 		.word	0
 3785 0038 B4000000 		.word	180
 3786 003c A0000000 		.word	160
 3787 0040 5F000000 		.word	95
 3788 0044 5F000000 		.word	95
 3789 0048 78000000 		.word	120
 3790 004c 78000000 		.word	120
 3791 0050 A0000000 		.word	160
 3792 0054 A0000000 		.word	160
 3793 0058 A0000000 		.word	160
 3794              		.section	.rodata.str1.4,"aMS",%progbits,1
 3795              		.align	2
 3796              	.LC1:
 3797 0000 25642025 		.ascii	"%d %d\000"
 3797      6400
 3798 0006 0000     		.space	2
 3799              	.LC2:
 3800 0008 5A756D6F 		.ascii	"Zumo035/hit\000"
 3800      3033352F 
 3800      68697400 
 3801              	.LC3:
 3802 0014 256400   		.ascii	"%d\000"
 3803 0017 00       		.space	1
 3804              	.LC4:
 3805 0018 5A756D6F 		.ascii	"Zumo035/stop\000"
 3805      3033352F 
 3805      73746F70 
 3805      00
 3806 0025 000000   		.space	3
 3807              	.LC5:
 3808 0028 5A756D6F 		.ascii	"Zumo035/time\000"
 3808      3033352F 
 3808      74696D65 
 3808      00
 3809 0035 000000   		.space	3
 3810              	.LC6:
 3811 0038 6C696E65 		.ascii	"line\000"
 3811      00
 3812 003d 000000   		.space	3
 3813              	.LC7:
 3814 0040 5A756D6F 		.ascii	"Zumo035/\000"
 3814      3033352F 
 3814      00
 3815 0049 000000   		.space	3
 3816              	.LC8:
 3817 004c 20257300 		.ascii	" %s\000"
 3818              	.LC9:
 3819 0050 5A756D6F 		.ascii	"Zumo035/miss\000"
 3819      3033352F 
 3819      6D697373 
 3819      00
 3820 005d 000000   		.space	3
 3821              	.LC10:
ARM GAS  C:\Users\samue\AppData\Local\Temp\ccm0rw4c.s 			page 97


 3822 0060 5A756D6F 		.ascii	"Zumo035/line\000"
 3822      3033352F 
 3822      6C696E65 
 3822      00
 3823 006d 000000   		.space	3
 3824              	.LC11:
 3825 0070 5A756D6F 		.ascii	"Zumo035/start\000"
 3825      3033352F 
 3825      73746172 
 3825      7400
 3826 007e 0000     		.space	2
 3827              	.LC12:
 3828 0080 73746172 		.ascii	"start\000"
 3828      7400
 3829 0086 0000     		.space	2
 3830              	.LC13:
 3831 0088 257300   		.ascii	"%s\000"
 3832 008b 00       		.space	1
 3833              	.LC14:
 3834 008c 5A756D6F 		.ascii	"Zumo035/ready\000"
 3834      3033352F 
 3834      72656164 
 3834      7900
 3835 009a 0000     		.space	2
 3836              	.LC15:
 3837 009c 49522073 		.ascii	"IR signal received\000"
 3837      69676E61 
 3837      6C207265 
 3837      63656976 
 3837      656400
 3838 00af 00       		.space	1
 3839              	.LC16:
 3840 00b0 25642C25 		.ascii	"%d,%d,%d,%d,%d,%d\012\000"
 3840      642C2564 
 3840      2C25642C 
 3840      25642C25 
 3840      640A00
 3841 00c3 00       		.space	1
 3842              	.LC17:
 3843 00c4 48656C6C 		.ascii	"Hello, world!,%d\012\000"
 3843      6F2C2077 
 3843      6F726C64 
 3843      212C2564 
 3843      0A00
 3844 00d6 0000     		.space	2
 3845              	.LC18:
 3846 00d8 61736400 		.ascii	"asd\000"
 3847              	.LC19:
 3848 00dc 5A756D6F 		.ascii	"Zumo035/output\000"
 3848      3033352F 
 3848      6F757470 
 3848      757400
 3849 00eb 00       		.space	1
 3850              	.LC20:
 3851 00ec 7A756D6F 		.ascii	"zumo\000"
 3851      00
 3852 00f1 000000   		.space	3
ARM GAS  C:\Users\samue\AppData\Local\Temp\ccm0rw4c.s 			page 98


 3853              	.LC21:
 3854 00f4 783A2025 		.ascii	"x: %d y: %d\000"
 3854      6420793A 
 3854      20256400 
 3855              	.LC22:
 3856 0100 5A756D6F 		.ascii	"Zumo035/position\000"
 3856      3033352F 
 3856      706F7369 
 3856      74696F6E 
 3856      00
 3857 0111 000000   		.space	3
 3858              	.LC23:
 3859 0114 0A0A4952 		.ascii	"\012\012IR test\000"
 3859      20746573 
 3859      7400
 3860 011e 0000     		.space	2
 3861              	.LC24:
 3862 0120 42756666 		.ascii	"Buffer cleared\000"
 3862      65722063 
 3862      6C656172 
 3862      656400
 3863 012f 00       		.space	1
 3864              	.LC25:
 3865 0130 25642025 		.ascii	"%d %d %d\015\012\000"
 3865      64202564 
 3865      0D0A00
 3866              		.text
 3867              	.Letext0:
 3868              		.file 2 "c:\\program files (x86)\\cypress\\psoc creator\\4.2\\psoc creator\\import\\gnu\\arm\\5.4.
 3869              		.file 3 "c:\\program files (x86)\\cypress\\psoc creator\\4.2\\psoc creator\\import\\gnu\\arm\\5.4.
 3870              		.file 4 "c:\\program files (x86)\\cypress\\psoc creator\\4.2\\psoc creator\\import\\gnu\\arm\\5.4.
 3871              		.file 5 "..\\FreeRTOS\\Source\\portable\\GCC\\ARM_CM3/portmacro.h"
 3872              		.file 6 ".\\ZumoLibrary/Reflectance.h"
 3873              		.file 7 ".\\ZumoLibrary/LSM303D.h"
 3874              		.file 8 "..\\FreeRTOS\\Source\\include/task.h"
 3875              		.file 9 ".\\ZumoLibrary/Motor.h"
 3876              		.file 10 "c:\\program files (x86)\\cypress\\psoc creator\\4.2\\psoc creator\\import\\gnu\\arm\\5.4
 3877              		.file 11 ".\\ZumoLibrary/mqtt_sender.h"
 3878              		.file 12 ".\\ZumoLibrary/Ultra.h"
 3879              		.file 13 ".\\ZumoLibrary/IR.h"
 3880              		.file 14 "Generated_Source\\PSoC5/MotorDirLeft.h"
 3881              		.file 15 "Generated_Source\\PSoC5/MotorDirRight.h"
 3882              		.file 16 "Generated_Source\\PSoC5/PWM.h"
 3883              		.file 17 "c:\\program files (x86)\\cypress\\psoc creator\\4.2\\psoc creator\\import\\gnu\\arm\\5.4
 3884              		.file 18 "Generated_Source\\PSoC5/SW1.h"
 3885              		.file 19 "Generated_Source\\PSoC5/BatteryLed.h"
 3886              		.file 20 ".\\ZumoLibrary/Beep.h"
 3887              		.file 21 "c:\\program files (x86)\\cypress\\psoc creator\\4.2\\psoc creator\\import\\gnu\\arm\\5.4
 3888              		.file 22 "<built-in>"
 3889              		.file 23 "c:\\program files (x86)\\cypress\\psoc creator\\4.2\\psoc creator\\import\\gnu\\arm\\5.4
 3890              		.file 24 "c:\\program files (x86)\\cypress\\psoc creator\\4.2\\psoc creator\\import\\gnu\\arm\\5.4
 3891              		.file 25 "Generated_Source\\PSoC5/core_cm3.h"