ARM GAS  C:\Users\samue\AppData\Local\Temp\ccm0rw4c.s 			page 1


   1              		.syntax unified
   2              		.cpu cortex-m3
   3              		.fpu softvfp
   4              		.eabi_attribute 20, 1
   5              		.eabi_attribute 21, 1
   6              		.eabi_attribute 23, 3
   7              		.eabi_attribute 24, 1
   8              		.eabi_attribute 25, 1
   9              		.eabi_attribute 26, 1
  10              		.eabi_attribute 30, 1
  11              		.eabi_attribute 34, 1
  12              		.eabi_attribute 18, 4
  13              		.thumb
  14              		.syntax unified
  15              		.file	"main.c"
  16              		.text
  17              	.Ltext0:
  18              		.cfi_sections	.debug_frame
  19              		.section	.text.respondToHit,"ax",%progbits
  20              		.align	2
  21              		.global	respondToHit
  22              		.thumb
  23              		.thumb_func
  24              		.type	respondToHit, %function
  25              	respondToHit:
  26              	.LFB90:
  27              		.file 1 "main.c"
   1:main.c        **** /**
   2:main.c        **** * @mainpage ZumoBot Project
   3:main.c        **** * @brief    You can make your own ZumoBot with various sensors.
   4:main.c        **** * @details  <br><br>
   5:main.c        ****     <p>
   6:main.c        ****     <B>General</B><br>
   7:main.c        ****     You will use Pololu Zumo Shields for your robot project with 
   8:main.c        ****     CY8CKIT-059(PSoC 5LP) from Cypress semiconductor. This library has basic 
   9:main.c        ****     methods of various sensors and communications so that you can make what you 
  10:main.c        ****     want with them. <br> 
  11:main.c        ****     <br><br>
  12:main.c        ****     </p>
  13:main.c        ****     
  14:main.c        ****     <p>
  15:main.c        ****     <B>Sensors</B><br>
  16:main.c        ****     &nbsp;Included: <br>
  17:main.c        ****         &nbsp;&nbsp;&nbsp;&nbsp;LSM303D: Accelerometer & Magnetometer<br>
  18:main.c        ****         &nbsp;&nbsp;&nbsp;&nbsp;L3GD20H: Gyroscope<br>
  19:main.c        ****         &nbsp;&nbsp;&nbsp;&nbsp;Reflectance sensor<br>
  20:main.c        ****         &nbsp;&nbsp;&nbsp;&nbsp;Motors
  21:main.c        ****     &nbsp;Wii nunchuck<br>
  22:main.c        ****     &nbsp;TSOP-2236: IR Receiver<br>
  23:main.c        ****     &nbsp;HC-SR04: Ultrasonic sensor<br>
  24:main.c        ****     &nbsp;APDS-9301: Ambient light sensor<br>
  25:main.c        ****     &nbsp;IR LED <br><br><br>
  26:main.c        ****     </p>
  27:main.c        ****     
  28:main.c        ****     <p>
  29:main.c        ****     <B>Communication</B><br>
  30:main.c        ****     I2C, UART, Serial<br>
ARM GAS  C:\Users\samue\AppData\Local\Temp\ccm0rw4c.s 			page 2


  31:main.c        ****     </p>
  32:main.c        **** */
  33:main.c        **** 
  34:main.c        **** #include <project.h>
  35:main.c        **** #include <stdio.h>
  36:main.c        **** #include "FreeRTOS.h"
  37:main.c        **** #include "task.h"
  38:main.c        **** #include "Motor.h"
  39:main.c        **** #include "Ultra.h"
  40:main.c        **** #include "Nunchuk.h"
  41:main.c        **** #include "Reflectance.h"
  42:main.c        **** #include "Gyro.h"
  43:main.c        **** #include "Accel_magnet.h"
  44:main.c        **** #include "LSM303D.h"
  45:main.c        **** #include "IR.h"
  46:main.c        **** #include "Beep.h"
  47:main.c        **** #include "mqtt_sender.h"
  48:main.c        **** #include <time.h>
  49:main.c        **** #include <sys/time.h>
  50:main.c        **** #include "serial1.h"
  51:main.c        **** #include <unistd.h>
  52:main.c        **** #include <stdlib.h>
  53:main.c        **** #include <math.h>
  54:main.c        **** 
  55:main.c        **** #define PI 3.14159265358979323846;
  56:main.c        **** 
  57:main.c        **** /**
  58:main.c        ****  * @file    main.c
  59:main.c        ****  * @brief   
  60:main.c        ****  * @details  ** Enable global interrupt since Zumo library uses interrupts. 
  61:main.c        ****  **<br>&nbsp;&nbsp;&nbsp;CyGlobalIntEnable;<br>
  62:main.c        **** */
  63:main.c        **** 
  64:main.c        **** /*  Smart IoT-devices        TX00DJ98-3009
  65:main.c        ****  __  __ ___ _____ ____  _____ ___  _____ _    _  ___
  66:main.c        **** |  \/  | _ |_   _|  _ \/  _  \ _ \/  _  \ |  | |/ _ \
  67:main.c        **** | \__/ | _|  | | | |/ /| |_| |  _/| |_| | |__| |  _  |
  68:main.c        **** |_|  |_|___| |_| |_|\_\\_____/_|  \_____/____|_|_| |_|
  69:main.c        ****  _____ _  __ _  __ _  ___  ___  __    ____
  70:main.c        **** |_   _| \/ /| |/ /_ |/ _ \/ __\/_ |__|    \
  71:main.c        ****   | |  |  | |   | | |\__  \__ \ | |__| |\ |
  72:main.c        ****   |_| /_/\_\|_|\_\|_|/___/____/ |_|  |____/
  73:main.c        ****  _____ ___  ___  __  __       __  __      __
  74:main.c        **** |_   _| _ |/ _ \|  \/  |     / / / /   _/   /
  75:main.c        ****   | | | _||  _  | \__/ |  __/ /_/ /_ /__   /
  76:main.c        ****   |_| |___|_| |_|_|  |_| /_  __  __/   /  /
  77:main.c        ****                         __/ /_/ /_    /  /
  78:main.c        ****     Samuel Aitamaa     /_  __  __/   /  /
  79:main.c        ****      Jere Lampola       / / / /     /  /
  80:main.c        ****     Tuomas Rajala      /_/ /_/     /__/
  81:main.c        **** 
  82:main.c        **** MORE OR LESS PROUDLY PRESENTS THEIR CODE */
  83:main.c        **** 
  84:main.c        **** /* SOME SYNTAX REMINDERS
  85:main.c        **** 
  86:main.c        **** Tab is equal to 2 spaces.
  87:main.c        **** 
ARM GAS  C:\Users\samue\AppData\Local\Temp\ccm0rw4c.s 			page 3


  88:main.c        **** Multi-line comments should be limited to 80 characters in width, end-of-line
  89:main.c        **** comments may exceed to 100 characters, but preferentially stay within 80 char
  90:main.c        **** limit.
  91:main.c        **** 
  92:main.c        **** Curly brackets open after function/loop/etc. declaration on the same line, and
  93:main.c        **** end at Col same as the first character on the line it was started at.
  94:main.c        **** 
  95:main.c        **** Function and variable names are written in camelCase.
  96:main.c        **** 
  97:main.c        **** Arithmetics are written "loosely", with empty space on each side, example:
  98:main.c        **** "d = a + b * c" instead of "d=a+b*c". "d = a + b*c" is also ok for clarity.
  99:main.c        **** */
 100:main.c        **** 
 101:main.c        **** void rp_sumoWrestling();
 102:main.c        **** void rp_lineFollower();
 103:main.c        **** void rp_maze();
 104:main.c        **** 
 105:main.c        **** void blinkMorse();
 106:main.c        **** void ledOnFor();
 107:main.c        **** float ADCtoBatteryRatio(float R1,float R2,float V_ref,int ADC_res);
 108:main.c        **** void turn90deg();
 109:main.c        **** void tankTurn();
 110:main.c        **** void playMusic();
 111:main.c        **** bool overLine();
 112:main.c        **** 
 113:main.c        **** bool allSensorsBlack();
 114:main.c        **** bool anySensorBlack();
 115:main.c        **** int blackSensors();
 116:main.c        **** 
 117:main.c        **** bool inIntersection();
 118:main.c        **** int followLine();
 119:main.c        **** void moveToNextLine();
 120:main.c        **** void moveToStartLine();
 121:main.c        **** 
 122:main.c        **** TickType_t startWrestling();
 123:main.c        **** int detectZumoHit();
 124:main.c        **** void reportZumoHit();
 125:main.c        **** void wrestlingEnd();
 126:main.c        **** void chaseObject();
 127:main.c        **** float turnToCenter();
 128:main.c        **** void goToCenter();
 129:main.c        **** void goToCenterTest();
 130:main.c        **** TickType_t respondToHit();
 131:main.c        **** 
 132:main.c        **** void startComponents();
 133:main.c        **** void moveToStartLineAndWait();
 134:main.c        **** TickType_t startLineFollowing();
 135:main.c        **** void moveToFinishLine();
 136:main.c        **** void reportMQTT();
 137:main.c        **** 
 138:main.c        **** void accTest();
 139:main.c        **** void refTest();
 140:main.c        **** void irTest();
 141:main.c        **** void mqttTest();
 142:main.c        **** void irMsgTest();
 143:main.c        **** void mazeSolver2000();
 144:main.c        **** void moveToNextIntersection();
ARM GAS  C:\Users\samue\AppData\Local\Temp\ccm0rw4c.s 			page 4


 145:main.c        **** void mazeMain();
 146:main.c        **** void followLine2();
 147:main.c        **** 
 148:main.c        **** void zmain(void){
 149:main.c        ****   /*
 150:main.c        ****   ======== Robot projects ========
 151:main.c        ****   rp_sumoWrestling();
 152:main.c        ****   rp_lineFollower();
 153:main.c        ****   rp_maze();
 154:main.c        ****     
 155:main.c        ****   =========== Testing: ===========
 156:main.c        ****   accTest();
 157:main.c        ****   refTest();
 158:main.c        ****   irTest();
 159:main.c        ****   mqttTest();
 160:main.c        ****   irMsgTest();
 161:main.c        ****   */
 162:main.c        ****     
 163:main.c        ****   // COPY A FUNCTION YOU WANT TO BE EXECUTED (FROM THE LIST ABOVE) UNDER HERE:
 164:main.c        ****   //rp_lineFollower();
 165:main.c        ****   // rp_sumoWrestling();
 166:main.c        ****   // chaseObject();
 167:main.c        ****   rp_sumoWrestling();
 168:main.c        **** 
 169:main.c        ****  /*
 170:main.c        ****   // == BUTTON PRESS TESTING ==
 171:main.c        ****   TickType_t start = xTaskGetTickCount();
 172:main.c        ****   struct accData_ data;
 173:main.c        ****   LSM303D_Start();
 174:main.c        **** 
 175:main.c        ****   while(true){
 176:main.c        ****     while(SW1_Read()){};
 177:main.c        ****     print_mqtt("Zumo035/start","",1);
 178:main.c        ****     vTaskDelay(500);
 179:main.c        ****     motor_start();
 180:main.c        ****     motor_forward(50,0);
 181:main.c        ****     while(true){//xTaskGetTickCount() - start < 10000
 182:main.c        ****       LSM303D_Read_Acc(&data);
 183:main.c        ****       if(data.accX < -2000){
 184:main.c        ****         break;
 185:main.c        ****       }
 186:main.c        ****       //print_mqtt("Zumo035/bump","%d %d",data.accX,data.accY);
 187:main.c        **** 
 188:main.c        ****     }
 189:main.c        ****     motor_forward(0,0);
 190:main.c        ****     motor_stop();
 191:main.c        ****   }
 192:main.c        **** */
 193:main.c        **** 
 194:main.c        ****   /*[[[[[FOR YOUR OWN SAFETY, DO NOT REMOVE THIS]]]]]
 195:main.c        ****     [[[[[[[[[*/while(true)vTaskDelay(200);/*]]]]]]]]]
 196:main.c        ****     [[[[[[[[[THANK YOU FOR YOUR CO-OPERATION]]]]]]]]]*/
 197:main.c        **** }
 198:main.c        **** 
 199:main.c        **** /*////////////////////////////// Robot projects \\\\\\\\\\\\\\\\\\\\\\\\\\\\\\*\
 200:main.c        **** --------------------------------- MQTT topics ----------------------------------
 201:main.c        **** Each robot has a unique serial number. The serial number is on a sticker on the 
ARM GAS  C:\Users\samue\AppData\Local\Temp\ccm0rw4c.s 			page 5


 202:main.c        **** battery box cover. The serial number is “Zumo” and three digits, for example 
 203:main.c        **** Zumo018. The robot serial number must be used as the top-level topic on all data
 204:main.c        **** that the robot publishes to the broker. Do not use spaces in the top-level 
 205:main.c        **** topic. Subtopics to use depend on the project in question. See project 
 206:main.c        **** descriptions for details on what to send.
 207:main.c        **** 
 208:main.c        **** All data must be sent as text without linefeeds. If you send multiple values 
 209:main.c        **** separate them with spaces. MQTT is a packet protocol so there is no need to send
 210:main.c        **** linefeeds with the data. Sending linefeeds in the competition is considered an 
 211:main.c        **** error that lowers your project grade.
 212:main.c        **** 
 213:main.c        **** ================================ Sumo wrestling ================================
 214:main.c        **** Robot must drive along the line to the edge of the sumo ring and wait for start 
 215:main.c        **** signal. The start signal is given with an IR remote. Three robots wrestle at a 
 216:main.c        **** time and one starting place is left empty at random. The robot tries to push 
 217:main.c        **** other robots out of the ring. The last robot in the ring is the winner. Robot is
 218:main.c        **** considered to be out of the ring if the back wheels cross the line. Instructors 
 219:main.c        **** will judge who is out and who is not.
 220:main.c        **** 
 221:main.c        **** \                                     /
 222:main.c        ****   \          __---------__          /
 223:main.c        ****     \    _ --             -- _    /
 224:main.c        ****       \ /                     \ /
 225:main.c        ****       /                         \
 226:main.c        ****     /                             \
 227:main.c        ****    |                               |
 228:main.c        ****   |                                 |
 229:main.c        ****  |                                   |
 230:main.c        ****  |                                   |      Start:
 231:main.c        ****  |                                   |    / Robot drives to the edge of
 232:main.c        ****  |                                   |   /  the ring and waits for a start
 233:main.c        ****   |                                 |   /   signal. The start signal is
 234:main.c        ****    |                               |   /    given with an IR remote
 235:main.c        ****     \                             /   /
 236:main.c        ****       \                         /    /
 237:main.c        ****       / \_                   _/ \   /
 238:main.c        ****     /      --__         __--      \/
 239:main.c        ****   /            ---------            \
 240:main.c        **** /                                     \
 241:main.c        **** 
 242:main.c        **** Robot must send the following data over MQTT connection:
 243:main.c        **** - Ready indicator when robot stops on the start line and starts to wait for IR 
 244:main.c        ****   start signal:
 245:main.c        ****  > Subtopic: ready
 246:main.c        ****  > Data: “zumo”
 247:main.c        **** - Start time (systick based time stamp = number of milliseconds since the robot 
 248:main.c        ****   code started)
 249:main.c        ****  > Subtopic: start
 250:main.c        **** - Stop time (when the user button is pressed robot stops and sends stop time 
 251:main.c        ****   stamp)
 252:main.c        ****  > Subtopic: stop
 253:main.c        **** - Run time (from start to finish, number of milliseconds between start and stop)
 254:main.c        ****  > Subtopic: time
 255:main.c        **** - Timestamp of each hit it gets (or gives)
 256:main.c        ****  > Subtopic: hit
 257:main.c        ****  > Bonus (optional): send also the direction of the hit (calculate hit angle)
 258:main.c        **** 
ARM GAS  C:\Users\samue\AppData\Local\Temp\ccm0rw4c.s 			page 6


 259:main.c        ****                                                _   _                 0       
 260:main.c        **** For example, Zumo028 sends:                _ -|_|-|_|- _             |      45
 261:main.c        **** Zumo028/ready zumo  Zumo028/ready zumo    | |'-|-|-|-'| |         _ -+- _  /
 262:main.c        **** Zumo028/start 2301  Zumo028/start 2301    | |' | _ | '| |       /    |   /\
 263:main.c        **** Zumo028/hit 3570    Zumo028/hit 3570 75   | |' ||_|| '| |      |     | /   |
 264:main.c        **** Zumo028/hit 4553    Zumo028/hit 4553 185  | |' | o | '| | 270-|------+------|-90
 265:main.c        **** Zumo028/hit 4988    Zumo028/hit 4988 25   |_|'-|. .|-'|_|      |   / |     |
 266:main.c        **** Zumo028/stop 5210   Zumo028/stop 5210 \     |__|---|__|         \/_  |  _ /
 267:main.c        **** Zumo028/time 2909   Zumo028/time 2909  \       |_-_|           /    -+- 
 268:main.c        ****      /              (with hit angles)   \       |_|         225      |
 269:main.c        ****     /                                    \                          180
 270:main.c        ****    /                                      \
 271:main.c        **** This is topic/subtopic. It will be   This is data. The space between topic and 
 272:main.c        **** displayed automatically in the log   data is added automatically in the log. Use 
 273:main.c        ****                                      spaces only to separate data values if you 
 274:main.c        ****                                      send multiple values.
 275:main.c        **** --------------------------------------------------------------------------------
 276:main.c        **** TEAM'S NOTES ABOUT THE PROJECT:
 277:main.c        **** - When calculating the hit direction in XY-plane, we can completely ignore Z-
 278:main.c        ****   values of accelerometer (it's only [slightly] relevant when calculating hit
 279:main.c        ****   force). For direction calculation we use arc tangent and convert radians to
 280:main.c        ****   degrees we multiply by 180 / PI. We also need to have an if-statement, because
 281:main.c        ****   if Y-value is negative, 180 degrees needs to be added to the hit angle. 
 282:main.c        ****   <math.h> needs to be included for atan() and PI defined for, well, pi... of
 283:main.c        ****   course we could use precalculated 180/3.14159265358979323846, but for clarity
 284:main.c        ****   we use defined PI here.
 285:main.c        **** 
 286:main.c        ****   1| float hitAngle = atan(y / x) * 180 / PI;
 287:main.c        ****   2| if(y < 0){
 288:main.c        ****   3|   hitAngle += 180;
 289:main.c        ****   4| }
 290:main.c        **** 
 291:main.c        **** Applications for sensors:
 292:main.c        **** ULTRASONIC:
 293:main.c        **** - Detect opponents.
 294:main.c        **** - Spinning and using ultrasonic sensor could be used as a "radar" and act based
 295:main.c        ****   on it. Here are some thoughts:
 296:main.c        ****   1) lock on an opponent when one is detected
 297:main.c        ****   2) dodge at the last moment when an opponent advances
 298:main.c        ****   3) track number of opponents left
 299:main.c        **** 
 300:main.c        **** ACCELEROMETER:
 301:main.c        **** - Detect hits and calculate hit directions.
 302:main.c        **** 
 303:main.c        **** GROUND SENSORS:
 304:main.c        **** - Detect edge of the ring.
 305:main.c        **** 
 306:main.c        **** --------------------------------------------------------------------------------
 307:main.c        **** */
 308:main.c        **** 
 309:main.c        **** void rp_sumoWrestling(){
 310:main.c        ****   struct sensors_ ref, dig = {0,0,0,0,0,0};
 311:main.c        ****   struct accData_ acc      = {0,0,0};
 312:main.c        ****   TickType_t start         = 0;
 313:main.c        ****   TickType_t lastHitTime   = 0;
 314:main.c        ****   TickType_t dodgeEndTime  = INFINITY;
 315:main.c        ****   TickType_t atCenterTime  = INFINITY;
ARM GAS  C:\Users\samue\AppData\Local\Temp\ccm0rw4c.s 			page 7


 316:main.c        ****   bool runningToEdge       = false;
 317:main.c        ****   bool headedForCenter     = false;
 318:main.c        ****   bool atCenter            = false;
 319:main.c        ****   bool enemyDetected       = false;
 320:main.c        ****   int hit                  = 361;
 321:main.c        ****   int defSpeed             = 200;
 322:main.c        ****   int atkSpeed             = 255;
 323:main.c        **** 
 324:main.c        ****   startComponents("zumo");  
 325:main.c        ****   moveToStartLineAndWait("zumo",dig);
 326:main.c        ****   start = startWrestling(dig);
 327:main.c        ****   while(SW1_Read()){
 328:main.c        ****     hit = detectZumoHit(acc);
 329:main.c        ****     
 330:main.c        ****     if(hit<361.0 && xTaskGetTickCount() - lastHitTime > 200 && !enemyDetected){
 331:main.c        ****       if(headedForCenter){
 332:main.c        ****         headedForCenter = false;
 333:main.c        ****         runningToEdge = true;
 334:main.c        ****         motor_forward(defSpeed,0);
 335:main.c        ****       }
 336:main.c        ****       if(!runningToEdge){
 337:main.c        ****         dodgeEndTime = respondToHit(hit);
 338:main.c        ****       }
 339:main.c        ****       reportZumoHit(hit);
 340:main.c        ****       lastHitTime = xTaskGetTickCount();
 341:main.c        ****       hit = 361.0;
 342:main.c        ****     }
 343:main.c        ****     
 344:main.c        ****     if(dodgeEndTime < xTaskGetTickCount()){
 345:main.c        ****       atCenter = false;
 346:main.c        ****       if(Ultra_GetDistance() < 10){
 347:main.c        ****         enemyDetected = true;
 348:main.c        ****         motor_forward(atkSpeed,0);
 349:main.c        ****       } else {
 350:main.c        ****         runningToEdge = true;
 351:main.c        ****         motor_forward(defSpeed,0);
 352:main.c        ****       }
 353:main.c        ****       dodgeEndTime = INFINITY;
 354:main.c        ****     }
 355:main.c        ****     
 356:main.c        ****     if(enemyDetected){
 357:main.c        ****       while(Ultra_GetDistance() < 15 && blackSensors(dig) < 2){
 358:main.c        ****         vTaskDelay(20);
 359:main.c        ****       }
 360:main.c        ****       enemyDetected = false;
 361:main.c        ****       runningToEdge = true;
 362:main.c        ****       motor_forward(defSpeed,0);
 363:main.c        ****     }
 364:main.c        ****     
 365:main.c        ****     if(blackSensors(dig) > 1){
 366:main.c        ****       while(turnToCenter(ref)>100&&blackSensors(dig)>0&&blackSensors(dig)<6){};
 367:main.c        ****       runningToEdge = false;
 368:main.c        ****       headedForCenter = true;
 369:main.c        ****       atCenterTime = xTaskGetTickCount() + 1500; // adjust
 370:main.c        ****       motor_backward(defSpeed,0);
 371:main.c        ****     } else if(atCenterTime < xTaskGetTickCount()){
 372:main.c        ****       runningToEdge = false;
ARM GAS  C:\Users\samue\AppData\Local\Temp\ccm0rw4c.s 			page 8


 373:main.c        ****       headedForCenter = false;
 374:main.c        ****       atCenter = true;
 375:main.c        ****       atCenterTime = INFINITY;
 376:main.c        ****       tankTurn(150,1);
 377:main.c        ****     } else if(atCenter && Ultra_GetDistance() < 10){
 378:main.c        ****       enemyDetected = true;
 379:main.c        ****       atCenter = false;
 380:main.c        ****       motor_forward(atkSpeed,0);
 381:main.c        ****     }
 382:main.c        ****   }
 383:main.c        ****   wrestlingEnd(start);
 384:main.c        **** }
 385:main.c        **** 
 386:main.c        **** 
 387:main.c        **** 
 388:main.c        **** void goToCenter(struct sensors_ dig, struct sensors_ ref){
 389:main.c        ****     while(turnToCenter(ref)>100&&blackSensors(dig)>0&&blackSensors(dig)<6){};
 390:main.c        ****     motor_backward(150,500);
 391:main.c        ****     turn90deg(0);
 392:main.c        ****     turn90deg(0);
 393:main.c        ****     motor_forward(150,0);
 394:main.c        **** }
 395:main.c        **** 
 396:main.c        **** void goToCenterTest(){
 397:main.c        ****   struct sensors_ ref, dig;
 398:main.c        ****   startComponents("zumo");
 399:main.c        ****   IR_wait();
 400:main.c        ****   motor_forward(150,0);
 401:main.c        ****   while(true){
 402:main.c        ****     if(blackSensors(dig) > 1){
 403:main.c        ****       while(turnToCenter(ref)>50&&blackSensors(dig)>0&&blackSensors(dig)<6){};
 404:main.c        ****       motor_backward(150,1000);
 405:main.c        ****       tankTurn(200,0);
 406:main.c        ****       vTaskDelay(200);
 407:main.c        ****       motor_forward(150,0);
 408:main.c        ****     }
 409:main.c        ****   }
 410:main.c        **** }
 411:main.c        **** 
 412:main.c        **** void goToCenter2(){ // struct sensors_ dig, struct sensors_ ref
 413:main.c        ****   struct sensors_ ref, dig;
 414:main.c        ****   startComponents("zumo");
 415:main.c        ****   IR_wait();
 416:main.c        ****   while(true){
 417:main.c        ****     motor_forward(150,0);
 418:main.c        ****     reflectance_digital(&dig);
 419:main.c        ****     while(!(dig.l3|dig.l2|dig.l1|dig.r1|dig.r2|dig.r3)){
 420:main.c        ****       reflectance_digital(&dig);
 421:main.c        ****     };
 422:main.c        ****     while(turnToCenter(ref)>100&&blackSensors(dig)>0&&blackSensors(dig)<6){};
 423:main.c        ****     motor_backward(150,500);
 424:main.c        ****     turn90deg(0);
 425:main.c        ****     turn90deg(0);
 426:main.c        ****     motor_forward(150,0);
 427:main.c        ****   }
 428:main.c        **** }
 429:main.c        **** 
ARM GAS  C:\Users\samue\AppData\Local\Temp\ccm0rw4c.s 			page 9


 430:main.c        **** TickType_t respondToHit(int hit){
  28              		.loc 1 430 0
  29              		.cfi_startproc
  30              		@ args = 0, pretend = 0, frame = 0
  31              		@ frame_needed = 0, uses_anonymous_args = 0
  32              	.LVL0:
  33 0000 38B5     		push	{r3, r4, r5, lr}
  34              		.cfi_def_cfa_offset 16
  35              		.cfi_offset 3, -16
  36              		.cfi_offset 4, -12
  37              		.cfi_offset 5, -8
  38              		.cfi_offset 14, -4
  39 0002 0446     		mov	r4, r0
 431:main.c        ****   TickType_t dodgeStart = xTaskGetTickCount();
  40              		.loc 1 431 0
  41 0004 FFF7FEFF 		bl	xTaskGetTickCount
  42              	.LVL1:
  43 0008 0546     		mov	r5, r0
  44              	.LVL2:
 432:main.c        ****   int delay = 0;
 433:main.c        ****   if(hit<45){
  45              		.loc 1 433 0
  46 000a 2C2C     		cmp	r4, #44
  47 000c 0BDC     		bgt	.L2
 434:main.c        ****     motor_backward(0,0);
  48              		.loc 1 434 0
  49 000e 0021     		movs	r1, #0
  50 0010 0846     		mov	r0, r1
  51              	.LVL3:
  52 0012 FFF7FEFF 		bl	motor_backward
  53              	.LVL4:
 435:main.c        ****     motor_turn(255,50,0);
  54              		.loc 1 435 0
  55 0016 0022     		movs	r2, #0
  56 0018 3221     		movs	r1, #50
  57 001a FF20     		movs	r0, #255
  58 001c FFF7FEFF 		bl	motor_turn
  59              	.LVL5:
 436:main.c        ****     delay = 500;
  60              		.loc 1 436 0
  61 0020 4FF4FA70 		mov	r0, #500
  62 0024 65E0     		b	.L3
  63              	.LVL6:
  64              	.L2:
 437:main.c        ****   } else if (hit<90){
  65              		.loc 1 437 0
  66 0026 592C     		cmp	r4, #89
  67 0028 0BDC     		bgt	.L4
 438:main.c        ****     motor_backward(0,0);
  68              		.loc 1 438 0
  69 002a 0021     		movs	r1, #0
  70 002c 0846     		mov	r0, r1
  71              	.LVL7:
  72 002e FFF7FEFF 		bl	motor_backward
  73              	.LVL8:
 439:main.c        ****     motor_turn(255,50,0);
  74              		.loc 1 439 0
ARM GAS  C:\Users\samue\AppData\Local\Temp\ccm0rw4c.s 			page 10


  75 0032 0022     		movs	r2, #0
  76 0034 3221     		movs	r1, #50
  77 0036 FF20     		movs	r0, #255
  78 0038 FFF7FEFF 		bl	motor_turn
  79              	.LVL9:
 440:main.c        ****     delay = 350;
  80              		.loc 1 440 0
  81 003c 4FF4AF70 		mov	r0, #350
  82 0040 57E0     		b	.L3
  83              	.LVL10:
  84              	.L4:
 441:main.c        ****   } else if (hit<135){
  85              		.loc 1 441 0
  86 0042 862C     		cmp	r4, #134
  87 0044 0BDC     		bgt	.L5
 442:main.c        ****     motor_forward(0,0);
  88              		.loc 1 442 0
  89 0046 0021     		movs	r1, #0
  90 0048 0846     		mov	r0, r1
  91              	.LVL11:
  92 004a FFF7FEFF 		bl	motor_forward
  93              	.LVL12:
 443:main.c        ****     motor_turn(255,50,0);
  94              		.loc 1 443 0
  95 004e 0022     		movs	r2, #0
  96 0050 3221     		movs	r1, #50
  97 0052 FF20     		movs	r0, #255
  98 0054 FFF7FEFF 		bl	motor_turn
  99              	.LVL13:
 444:main.c        ****     delay = 400;
 100              		.loc 1 444 0
 101 0058 4FF4C870 		mov	r0, #400
 102 005c 49E0     		b	.L3
 103              	.LVL14:
 104              	.L5:
 445:main.c        ****   } else if (hit<180){
 105              		.loc 1 445 0
 106 005e B32C     		cmp	r4, #179
 107 0060 0BDC     		bgt	.L6
 446:main.c        ****     motor_forward(0,0);
 108              		.loc 1 446 0
 109 0062 0021     		movs	r1, #0
 110 0064 0846     		mov	r0, r1
 111              	.LVL15:
 112 0066 FFF7FEFF 		bl	motor_forward
 113              	.LVL16:
 447:main.c        ****     motor_turn(255,50,0);
 114              		.loc 1 447 0
 115 006a 0022     		movs	r2, #0
 116 006c 3221     		movs	r1, #50
 117 006e FF20     		movs	r0, #255
 118 0070 FFF7FEFF 		bl	motor_turn
 119              	.LVL17:
 448:main.c        ****     delay = 500;
 120              		.loc 1 448 0
 121 0074 4FF4FA70 		mov	r0, #500
 122 0078 3BE0     		b	.L3
ARM GAS  C:\Users\samue\AppData\Local\Temp\ccm0rw4c.s 			page 11


 123              	.LVL18:
 124              	.L6:
 449:main.c        ****   } else if (hit<225){
 125              		.loc 1 449 0
 126 007a E02C     		cmp	r4, #224
 127 007c 0BDC     		bgt	.L7
 450:main.c        ****     motor_forward(0,0);
 128              		.loc 1 450 0
 129 007e 0021     		movs	r1, #0
 130 0080 0846     		mov	r0, r1
 131              	.LVL19:
 132 0082 FFF7FEFF 		bl	motor_forward
 133              	.LVL20:
 451:main.c        ****     motor_turn(50,255,0);
 134              		.loc 1 451 0
 135 0086 0022     		movs	r2, #0
 136 0088 FF21     		movs	r1, #255
 137 008a 3220     		movs	r0, #50
 138 008c FFF7FEFF 		bl	motor_turn
 139              	.LVL21:
 452:main.c        ****     delay = 500;
 140              		.loc 1 452 0
 141 0090 4FF4FA70 		mov	r0, #500
 142 0094 2DE0     		b	.L3
 143              	.LVL22:
 144              	.L7:
 453:main.c        ****   } else if (hit<270){
 145              		.loc 1 453 0
 146 0096 B4F5877F 		cmp	r4, #270
 147 009a 0BDA     		bge	.L8
 454:main.c        ****     motor_forward(0,0);
 148              		.loc 1 454 0
 149 009c 0021     		movs	r1, #0
 150 009e 0846     		mov	r0, r1
 151              	.LVL23:
 152 00a0 FFF7FEFF 		bl	motor_forward
 153              	.LVL24:
 455:main.c        ****     motor_turn(50,255,0);
 154              		.loc 1 455 0
 155 00a4 0022     		movs	r2, #0
 156 00a6 FF21     		movs	r1, #255
 157 00a8 3220     		movs	r0, #50
 158 00aa FFF7FEFF 		bl	motor_turn
 159              	.LVL25:
 456:main.c        ****     delay = 400;
 160              		.loc 1 456 0
 161 00ae 4FF4C870 		mov	r0, #400
 162 00b2 1EE0     		b	.L3
 163              	.LVL26:
 164              	.L8:
 457:main.c        ****   } else if (hit<315){
 165              		.loc 1 457 0
 166 00b4 B4F59D7F 		cmp	r4, #314
 167 00b8 0BDC     		bgt	.L9
 458:main.c        ****     motor_backward(0,0);
 168              		.loc 1 458 0
 169 00ba 0021     		movs	r1, #0
ARM GAS  C:\Users\samue\AppData\Local\Temp\ccm0rw4c.s 			page 12


 170 00bc 0846     		mov	r0, r1
 171              	.LVL27:
 172 00be FFF7FEFF 		bl	motor_backward
 173              	.LVL28:
 459:main.c        ****     motor_turn(50,255,0);
 174              		.loc 1 459 0
 175 00c2 0022     		movs	r2, #0
 176 00c4 FF21     		movs	r1, #255
 177 00c6 3220     		movs	r0, #50
 178 00c8 FFF7FEFF 		bl	motor_turn
 179              	.LVL29:
 460:main.c        ****     delay = 350;
 180              		.loc 1 460 0
 181 00cc 4FF4AF70 		mov	r0, #350
 182 00d0 0FE0     		b	.L3
 183              	.LVL30:
 184              	.L9:
 461:main.c        ****   } else if (hit<360){
 185              		.loc 1 461 0
 186 00d2 B4F5B47F 		cmp	r4, #360
 187 00d6 0BDA     		bge	.L10
 462:main.c        ****     motor_backward(0,0);
 188              		.loc 1 462 0
 189 00d8 0021     		movs	r1, #0
 190 00da 0846     		mov	r0, r1
 191              	.LVL31:
 192 00dc FFF7FEFF 		bl	motor_backward
 193              	.LVL32:
 463:main.c        ****     motor_turn(50,255,0);
 194              		.loc 1 463 0
 195 00e0 0022     		movs	r2, #0
 196 00e2 FF21     		movs	r1, #255
 197 00e4 3220     		movs	r0, #50
 198 00e6 FFF7FEFF 		bl	motor_turn
 199              	.LVL33:
 464:main.c        ****     delay = 500;
 200              		.loc 1 464 0
 201 00ea 4FF4FA70 		mov	r0, #500
 202 00ee 00E0     		b	.L3
 203              	.LVL34:
 204              	.L10:
 432:main.c        ****   if(hit<45){
 205              		.loc 1 432 0
 206 00f0 0020     		movs	r0, #0
 207              	.LVL35:
 208              	.L3:
 465:main.c        ****   }
 466:main.c        ****   return dodgeStart + delay;
 467:main.c        **** }
 209              		.loc 1 467 0
 210 00f2 2844     		add	r0, r0, r5
 211              	.LVL36:
 212 00f4 38BD     		pop	{r3, r4, r5, pc}
 213              		.cfi_endproc
 214              	.LFE90:
 215              		.size	respondToHit, .-respondToHit
 216              		.global	__aeabi_i2d
ARM GAS  C:\Users\samue\AppData\Local\Temp\ccm0rw4c.s 			page 13


 217              		.global	__aeabi_dadd
 218              		.global	__aeabi_dcmpgt
 219              		.global	__aeabi_ddiv
 220              		.global	__aeabi_dmul
 221              		.global	__aeabi_d2iz
 222 00f6 00BF     		.section	.text.detectZumoHit,"ax",%progbits
 223              		.align	2
 224              		.global	detectZumoHit
 225              		.thumb
 226              		.thumb_func
 227              		.type	detectZumoHit, %function
 228              	detectZumoHit:
 229              	.LFB92:
 468:main.c        **** 
 469:main.c        **** TickType_t startWrestling(struct sensors_ dig){
 470:main.c        ****   TickType_t start = xTaskGetTickCount();
 471:main.c        ****   print_mqtt("Zumo035/start","%d",start);
 472:main.c        ****   reportMQTT("start",start);
 473:main.c        ****   motor_forward(50,0);
 474:main.c        ****   while(overLine(dig)){};
 475:main.c        ****   return start;
 476:main.c        **** }
 477:main.c        **** 
 478:main.c        **** int detectZumoHit(struct accData_ acc){
 230              		.loc 1 478 0
 231              		.cfi_startproc
 232              		@ args = 0, pretend = 0, frame = 8
 233              		@ frame_needed = 0, uses_anonymous_args = 0
 234 0000 F0B5     		push	{r4, r5, r6, r7, lr}
 235              		.cfi_def_cfa_offset 20
 236              		.cfi_offset 4, -20
 237              		.cfi_offset 5, -16
 238              		.cfi_offset 6, -12
 239              		.cfi_offset 7, -8
 240              		.cfi_offset 14, -4
 241 0002 83B0     		sub	sp, sp, #12
 242              		.cfi_def_cfa_offset 32
 243 0004 8DE80300 		stmia	sp, {r0, r1}
 244              	.LVL37:
 479:main.c        ****   double hit = 361.0;
 480:main.c        ****   LSM303D_Read_Acc(&acc);
 245              		.loc 1 480 0
 246 0008 6846     		mov	r0, sp
 247 000a FFF7FEFF 		bl	LSM303D_Read_Acc
 248              	.LVL38:
 481:main.c        ****   if(sqrt(pow(acc.accX,2.0)+pow(acc.accY,2.0)) > 6000.0){
 249              		.loc 1 481 0
 250 000e 0026     		movs	r6, #0
 251 0010 4FF08047 		mov	r7, #1073741824
 252 0014 BDF90000 		ldrsh	r0, [sp]
 253 0018 FFF7FEFF 		bl	__aeabi_i2d
 254              	.LVL39:
 255 001c 3246     		mov	r2, r6
 256 001e 3B46     		mov	r3, r7
 257 0020 FFF7FEFF 		bl	pow
 258              	.LVL40:
 259 0024 0446     		mov	r4, r0
ARM GAS  C:\Users\samue\AppData\Local\Temp\ccm0rw4c.s 			page 14


 260 0026 0D46     		mov	r5, r1
 261 0028 BDF90200 		ldrsh	r0, [sp, #2]
 262 002c FFF7FEFF 		bl	__aeabi_i2d
 263              	.LVL41:
 264 0030 3246     		mov	r2, r6
 265 0032 3B46     		mov	r3, r7
 266 0034 FFF7FEFF 		bl	pow
 267              	.LVL42:
 268 0038 0646     		mov	r6, r0
 269 003a 0F46     		mov	r7, r1
 270 003c 3246     		mov	r2, r6
 271 003e 3B46     		mov	r3, r7
 272 0040 2046     		mov	r0, r4
 273 0042 2946     		mov	r1, r5
 274 0044 FFF7FEFF 		bl	__aeabi_dadd
 275              	.LVL43:
 276 0048 FFF7FEFF 		bl	sqrt
 277              	.LVL44:
 278 004c 18A3     		adr	r3, .L19
 279 004e D3E90023 		ldrd	r2, [r3]
 280 0052 FFF7FEFF 		bl	__aeabi_dcmpgt
 281              	.LVL45:
 282 0056 10B3     		cbz	r0, .L17
 482:main.c        ****     hit = atan((double)acc.accX/(double)acc.accY)*57.29577951308232+90.0;
 283              		.loc 1 482 0
 284 0058 BDF90000 		ldrsh	r0, [sp]
 285 005c FFF7FEFF 		bl	__aeabi_i2d
 286              	.LVL46:
 287 0060 0646     		mov	r6, r0
 288 0062 0F46     		mov	r7, r1
 289 0064 BDF90240 		ldrsh	r4, [sp, #2]
 290 0068 2046     		mov	r0, r4
 291 006a FFF7FEFF 		bl	__aeabi_i2d
 292              	.LVL47:
 293 006e 0246     		mov	r2, r0
 294 0070 0B46     		mov	r3, r1
 295 0072 3046     		mov	r0, r6
 296 0074 3946     		mov	r1, r7
 297 0076 FFF7FEFF 		bl	__aeabi_ddiv
 298              	.LVL48:
 299 007a FFF7FEFF 		bl	atan
 300              	.LVL49:
 301 007e 0EA3     		adr	r3, .L19+8
 302 0080 D3E90023 		ldrd	r2, [r3]
 303 0084 FFF7FEFF 		bl	__aeabi_dmul
 304              	.LVL50:
 305 0088 0022     		movs	r2, #0
 306 008a 0F4B     		ldr	r3, .L19+24
 307 008c FFF7FEFF 		bl	__aeabi_dadd
 308              	.LVL51:
 483:main.c        ****     if(acc.accY < 0){
 309              		.loc 1 483 0
 310 0090 002C     		cmp	r4, #0
 311 0092 07DA     		bge	.L13
 484:main.c        ****       hit += 180.0;
 312              		.loc 1 484 0
 313 0094 0022     		movs	r2, #0
ARM GAS  C:\Users\samue\AppData\Local\Temp\ccm0rw4c.s 			page 15


 314 0096 0D4B     		ldr	r3, .L19+28
 315 0098 FFF7FEFF 		bl	__aeabi_dadd
 316              	.LVL52:
 317 009c 02E0     		b	.L13
 318              	.LVL53:
 319              	.L17:
 479:main.c        ****   LSM303D_Read_Acc(&acc);
 320              		.loc 1 479 0
 321 009e 08A1     		adr	r1, .L19+16
 322 00a0 D1E90001 		ldrd	r0, [r1]
 323              	.LVL54:
 324              	.L13:
 485:main.c        ****     }
 486:main.c        ****   }
 487:main.c        ****   return (int)hit;
 325              		.loc 1 487 0
 326 00a4 FFF7FEFF 		bl	__aeabi_d2iz
 327              	.LVL55:
 488:main.c        **** }
 328              		.loc 1 488 0
 329 00a8 03B0     		add	sp, sp, #12
 330              		.cfi_def_cfa_offset 20
 331              		@ sp needed
 332 00aa F0BD     		pop	{r4, r5, r6, r7, pc}
 333              	.L20:
 334 00ac AFF30080 		.align	3
 335              	.L19:
 336 00b0 00000000 		.word	0
 337 00b4 0070B740 		.word	1085763584
 338 00b8 F8C1631A 		.word	442745336
 339 00bc DCA54C40 		.word	1078765020
 340 00c0 00000000 		.word	0
 341 00c4 00907640 		.word	1081511936
 342 00c8 00805640 		.word	1079410688
 343 00cc 00806640 		.word	1080459264
 344              		.cfi_endproc
 345              	.LFE92:
 346              		.size	detectZumoHit, .-detectZumoHit
 347              		.section	.text.reportZumoHit,"ax",%progbits
 348              		.align	2
 349              		.global	reportZumoHit
 350              		.thumb
 351              		.thumb_func
 352              		.type	reportZumoHit, %function
 353              	reportZumoHit:
 354              	.LFB93:
 489:main.c        **** 
 490:main.c        **** void reportZumoHit(int hitDir){
 355              		.loc 1 490 0
 356              		.cfi_startproc
 357              		@ args = 0, pretend = 0, frame = 0
 358              		@ frame_needed = 0, uses_anonymous_args = 0
 359              	.LVL56:
 360 0000 10B5     		push	{r4, lr}
 361              		.cfi_def_cfa_offset 8
 362              		.cfi_offset 4, -8
 363              		.cfi_offset 14, -4
ARM GAS  C:\Users\samue\AppData\Local\Temp\ccm0rw4c.s 			page 16


 364 0002 0446     		mov	r4, r0
 491:main.c        ****   print_mqtt("Zumo035/hit","%d %d",xTaskGetTickCount(), hitDir);
 365              		.loc 1 491 0
 366 0004 FFF7FEFF 		bl	xTaskGetTickCount
 367              	.LVL57:
 368 0008 2346     		mov	r3, r4
 369 000a 0246     		mov	r2, r0
 370 000c 0249     		ldr	r1, .L23
 371 000e 0348     		ldr	r0, .L23+4
 372 0010 FFF7FEFF 		bl	print_mqtt
 373              	.LVL58:
 374 0014 10BD     		pop	{r4, pc}
 375              	.LVL59:
 376              	.L24:
 377 0016 00BF     		.align	2
 378              	.L23:
 379 0018 00000000 		.word	.LC1
 380 001c 08000000 		.word	.LC2
 381              		.cfi_endproc
 382              	.LFE93:
 383              		.size	reportZumoHit, .-reportZumoHit
 384              		.section	.text.wrestlingEnd,"ax",%progbits
 385              		.align	2
 386              		.global	wrestlingEnd
 387              		.thumb
 388              		.thumb_func
 389              		.type	wrestlingEnd, %function
 390              	wrestlingEnd:
 391              	.LFB94:
 492:main.c        **** }
 493:main.c        **** 
 494:main.c        **** void wrestlingEnd(TickType_t start){
 392              		.loc 1 494 0
 393              		.cfi_startproc
 394              		@ args = 0, pretend = 0, frame = 0
 395              		@ frame_needed = 0, uses_anonymous_args = 0
 396              	.LVL60:
 397 0000 70B5     		push	{r4, r5, r6, lr}
 398              		.cfi_def_cfa_offset 16
 399              		.cfi_offset 4, -16
 400              		.cfi_offset 5, -12
 401              		.cfi_offset 6, -8
 402              		.cfi_offset 14, -4
 403 0002 0646     		mov	r6, r0
 495:main.c        ****   motor_forward(0,0);
 404              		.loc 1 495 0
 405 0004 0021     		movs	r1, #0
 406 0006 0846     		mov	r0, r1
 407              	.LVL61:
 408 0008 FFF7FEFF 		bl	motor_forward
 409              	.LVL62:
 496:main.c        ****   TickType_t stop = xTaskGetTickCount();
 410              		.loc 1 496 0
 411 000c FFF7FEFF 		bl	xTaskGetTickCount
 412              	.LVL63:
 413 0010 0546     		mov	r5, r0
 414              	.LVL64:
ARM GAS  C:\Users\samue\AppData\Local\Temp\ccm0rw4c.s 			page 17


 497:main.c        ****   print_mqtt("Zumo035/stop","%d",stop);
 415              		.loc 1 497 0
 416 0012 074C     		ldr	r4, .L27
 417 0014 0246     		mov	r2, r0
 418 0016 2146     		mov	r1, r4
 419 0018 0648     		ldr	r0, .L27+4
 420              	.LVL65:
 421 001a FFF7FEFF 		bl	print_mqtt
 422              	.LVL66:
 498:main.c        ****   motor_stop();
 423              		.loc 1 498 0
 424 001e FFF7FEFF 		bl	motor_stop
 425              	.LVL67:
 499:main.c        ****   print_mqtt("Zumo035/time","%d",stop-start);
 426              		.loc 1 499 0
 427 0022 AA1B     		subs	r2, r5, r6
 428 0024 2146     		mov	r1, r4
 429 0026 0448     		ldr	r0, .L27+8
 430 0028 FFF7FEFF 		bl	print_mqtt
 431              	.LVL68:
 432 002c 70BD     		pop	{r4, r5, r6, pc}
 433              	.LVL69:
 434              	.L28:
 435 002e 00BF     		.align	2
 436              	.L27:
 437 0030 14000000 		.word	.LC3
 438 0034 18000000 		.word	.LC4
 439 0038 28000000 		.word	.LC5
 440              		.cfi_endproc
 441              	.LFE94:
 442              		.size	wrestlingEnd, .-wrestlingEnd
 443              		.section	.text.chaseObject,"ax",%progbits
 444              		.align	2
 445              		.global	chaseObject
 446              		.thumb
 447              		.thumb_func
 448              		.type	chaseObject, %function
 449              	chaseObject:
 450              	.LFB95:
 500:main.c        **** }
 501:main.c        **** 
 502:main.c        **** void chaseObject(){
 451              		.loc 1 502 0
 452              		.cfi_startproc
 453              		@ args = 0, pretend = 0, frame = 0
 454              		@ frame_needed = 0, uses_anonymous_args = 0
 455 0000 08B5     		push	{r3, lr}
 456              		.cfi_def_cfa_offset 8
 457              		.cfi_offset 3, -8
 458              		.cfi_offset 14, -4
 503:main.c        ****   Ultra_Start();
 459              		.loc 1 503 0
 460 0002 FFF7FEFF 		bl	Ultra_Start
 461              	.LVL70:
 504:main.c        ****   motor_start();
 462              		.loc 1 504 0
 463 0006 FFF7FEFF 		bl	motor_start
ARM GAS  C:\Users\samue\AppData\Local\Temp\ccm0rw4c.s 			page 18


 464              	.LVL71:
 505:main.c        ****   IR_Start();
 465              		.loc 1 505 0
 466 000a FFF7FEFF 		bl	IR_Start
 467              	.LVL72:
 506:main.c        ****   IR_flush();
 468              		.loc 1 506 0
 469 000e FFF7FEFF 		bl	IR_flush
 470              	.LVL73:
 507:main.c        ****   IR_wait();
 471              		.loc 1 507 0
 472 0012 FFF7FEFF 		bl	IR_wait
 473              	.LVL74:
 474              	.L34:
 508:main.c        ****   TickType_t turnStart = 0;
 509:main.c        ****   while(true){
 510:main.c        ****     motor_forward(50,0);
 475              		.loc 1 510 0
 476 0016 0021     		movs	r1, #0
 477 0018 3220     		movs	r0, #50
 478 001a FFF7FEFF 		bl	motor_forward
 479              	.LVL75:
 511:main.c        ****     while(Ultra_GetDistance()<15){vTaskDelay(20);};
 480              		.loc 1 511 0
 481 001e 02E0     		b	.L30
 482              	.L31:
 483              		.loc 1 511 0 is_stmt 0 discriminator 2
 484 0020 1420     		movs	r0, #20
 485 0022 FFF7FEFF 		bl	vTaskDelay
 486              	.LVL76:
 487              	.L30:
 488              		.loc 1 511 0 discriminator 1
 489 0026 FFF7FEFF 		bl	Ultra_GetDistance
 490              	.LVL77:
 491 002a 0E28     		cmp	r0, #14
 492 002c F8DD     		ble	.L31
 512:main.c        ****     MotorDirLeft_Write(1);
 493              		.loc 1 512 0 is_stmt 1
 494 002e 0120     		movs	r0, #1
 495 0030 FFF7FEFF 		bl	MotorDirLeft_Write
 496              	.LVL78:
 513:main.c        ****     MotorDirRight_Write(0);
 497              		.loc 1 513 0
 498 0034 0020     		movs	r0, #0
 499 0036 FFF7FEFF 		bl	MotorDirRight_Write
 500              	.LVL79:
 514:main.c        ****     PWM_WriteCompare1(100);
 501              		.loc 1 514 0
 502 003a 6420     		movs	r0, #100
 503 003c FFF7FEFF 		bl	PWM_WriteCompare1
 504              	.LVL80:
 515:main.c        ****     PWM_WriteCompare2(100);
 505              		.loc 1 515 0
 506 0040 6420     		movs	r0, #100
 507 0042 FFF7FEFF 		bl	PWM_WriteCompare2
 508              	.LVL81:
 516:main.c        ****     while((Ultra_GetDistance()>15)){vTaskDelay(20);};
ARM GAS  C:\Users\samue\AppData\Local\Temp\ccm0rw4c.s 			page 19


 509              		.loc 1 516 0
 510 0046 02E0     		b	.L32
 511              	.L33:
 512              		.loc 1 516 0 is_stmt 0 discriminator 2
 513 0048 1420     		movs	r0, #20
 514 004a FFF7FEFF 		bl	vTaskDelay
 515              	.LVL82:
 516              	.L32:
 517              		.loc 1 516 0 discriminator 1
 518 004e FFF7FEFF 		bl	Ultra_GetDistance
 519              	.LVL83:
 520 0052 0F28     		cmp	r0, #15
 521 0054 F8DC     		bgt	.L33
 522 0056 DEE7     		b	.L34
 523              		.cfi_endproc
 524              	.LFE95:
 525              		.size	chaseObject, .-chaseObject
 526              		.section	.text.startComponents,"ax",%progbits
 527              		.align	2
 528              		.global	startComponents
 529              		.thumb
 530              		.thumb_func
 531              		.type	startComponents, %function
 532              	startComponents:
 533              	.LFB97:
 517:main.c        ****     //for(int i = 0; i<100; i++){
 518:main.c        ****       //turnStart = xTaskGetTickCount();
 519:main.c        ****      // motor_turn((i%2)*255,((i+1)%2)*255,0);
 520:main.c        ****      // while((Ultra_GetDistance()>35)){};
 521:main.c        ****       //if(Ultra_GetDistance()<35){
 522:main.c        ****        // break;
 523:main.c        ****      // }
 524:main.c        ****    // }
 525:main.c        ****     //printf("%d\n",thisTurn); (xTaskGetTickCount() - turnStart < (uint)i*20) && 
 526:main.c        ****   }
 527:main.c        **** }
 528:main.c        **** 
 529:main.c        **** /*============================== Line follower =================================
 530:main.c        **** Robot follows the black line using reflective sensors in the front of the robot.
 531:main.c        **** Track total length is about 10 meters. Robot has six reflective sensors. The 
 532:main.c        **** center sensors are used mainly to keep the robot on the track and side sensors 
 533:main.c        **** to detect intersections or tight curves on the track. The robot must follow the 
 534:main.c        **** start and stop rules stated below. The intersections are in a 90-degree angle on
 535:main.c        **** a straight line.
 536:main.c        **** 
 537:main.c        **** The competition track is 2 cm wide.
 538:main.c        **** 
 539:main.c        ****                                  _ ----- _
 540:main.c        ****                                /           \
 541:main.c        ****                               |          __/
 542:main.c        ****                              |        _--
 543:main.c        ****                               -_      \__
 544:main.c        ****                                 \     ___/
 545:main.c        ****                                 |    |___
 546:main.c        ****                                  |    ___|
 547:main.c        ****                                  |   /___
 548:main.c        **** Hint: Implement line            |      __/
ARM GAS  C:\Users\samue\AppData\Local\Temp\ccm0rw4c.s 			page 20


 549:main.c        **** following first. When your      |     |
 550:main.c        **** robot is able to follow        /       \
 551:main.c        **** the line then implement       |         |
 552:main.c        **** start and stop logic.         \         |
 553:main.c        ****                                 \    _   \
 554:main.c        ****                                  |  |  \  \
 555:main.c        ****                                 /   |  |   |
 556:main.c        ****                                /    |   \_ /
 557:main.c        ****                                \     |
 558:main.c        ****                                  \    \_
 559:main.c        ****                                   |    _|
 560:main.c        ****                                 /     /
 561:main.c        ****                               /      |
 562:main.c        ****                               \___   \
 563:main.c        ****                                   |   \_
 564:main.c        ****                              --__-      --__
 565:main.c        ****                             |               |
 566:main.c        ****                              \__        ____/
 567:main.c        ****          Finish:                 \     /_
 568:main.c        ****          Robot stops on the       |       -       Start:
 569:main.c        ****          second line.       \     |         \   / Robot drives to the line and
 570:main.c        ****                              \ ---+---       | /  waits on the line for a start
 571:main.c        ****                               \   |          |/   signal. The start signal is
 572:main.c        ****                                ---+---    ---+--- given with an IR remote
 573:main.c        ****                                   |          |                              
 574:main.c        **** 
 575:main.c        **** Robot must send the following data over MQTT connection:
 576:main.c        **** - Ready indicator when robot stops on the start line and starts to wait for IR 
 577:main.c        ****   start signal:
 578:main.c        ****  > Subtopic: ready
 579:main.c        ****  > Data: “line”
 580:main.c        **** - Start time (systick based time stamp = number of milliseconds since the robot 
 581:main.c        ****   code started)
 582:main.c        ****  > Subtopic: start
 583:main.c        **** - Stop time (when the robot stops on the finish line it sends stop time stamp)
 584:main.c        ****  > Subtopic: stop
 585:main.c        **** - Run time (from start to finish, number of milliseconds between start and stop)
 586:main.c        ****  > Subtopic: time
 587:main.c        **** - Bonus (optional):
 588:main.c        ****  - Timestamp if both centre sensors go off the track
 589:main.c        ****   > Subtopic: miss
 590:main.c        ****  - Timestamp when both centre sensors go back to the track after a miss
 591:main.c        ****   > Subtopic: line
 592:main.c        ****  - You must implement both timestamps to get a bonus
 593:main.c        **** 
 594:main.c        **** For example, Zumo028 sends:
 595:main.c        **** Zumo028/ready line  Zumo028/ready line
 596:main.c        **** Zumo028/start 1210  Zumo028/start 1210
 597:main.c        **** Zumo028/stop 54290  Zumo028/miss 7912
 598:main.c        **** Zumo028/time 53080  Zumo028/line 8012
 599:main.c        ****                     Zumo028/miss 32103
 600:main.c        ****                     Zumo028/line 32630
 601:main.c        ****                     Zumo028/miss 53223
 602:main.c        ****                     Zumo028/line 53933
 603:main.c        ****                     Zumo028/stop 54290
 604:main.c        ****                     Zumo028/time 53080
 605:main.c        **** --------------------------------------------------------------------------------
ARM GAS  C:\Users\samue\AppData\Local\Temp\ccm0rw4c.s 			page 21


 606:main.c        **** */
 607:main.c        **** 
 608:main.c        **** void rp_lineFollower(){
 609:main.c        ****   struct sensors_ ref, dig;
 610:main.c        ****   TickType_t start;
 611:main.c        ****   int line = 0;
 612:main.c        **** 
 613:main.c        ****   startComponents("line");  
 614:main.c        ****   moveToStartLineAndWait("line",dig);
 615:main.c        ****   start = startLineFollowing(dig);
 616:main.c        ****   while(!overLine(dig)){
 617:main.c        ****     line = followLine(ref,dig,line);
 618:main.c        ****   }
 619:main.c        ****   moveToFinishLine(start);
 620:main.c        **** }
 621:main.c        **** 
 622:main.c        **** void startComponents(char *project){
 534              		.loc 1 622 0 is_stmt 1
 535              		.cfi_startproc
 536              		@ args = 0, pretend = 0, frame = 0
 537              		@ frame_needed = 0, uses_anonymous_args = 0
 538              	.LVL84:
 539 0000 10B5     		push	{r4, lr}
 540              		.cfi_def_cfa_offset 8
 541              		.cfi_offset 4, -8
 542              		.cfi_offset 14, -4
 543 0002 82B0     		sub	sp, sp, #8
 544              		.cfi_def_cfa_offset 16
 545 0004 0446     		mov	r4, r0
 623:main.c        ****   IR_Start();
 546              		.loc 1 623 0
 547 0006 FFF7FEFF 		bl	IR_Start
 548              	.LVL85:
 624:main.c        ****   reflectance_start();
 549              		.loc 1 624 0
 550 000a FFF7FEFF 		bl	reflectance_start
 551              	.LVL86:
 625:main.c        ****   reflectance_set_threshold(9000, 9000, 11000, 11000, 9000, 9000);
 552              		.loc 1 625 0
 553 000e 42F22830 		movw	r0, #9000
 554 0012 0190     		str	r0, [sp, #4]
 555 0014 0090     		str	r0, [sp]
 556 0016 42F6F823 		movw	r3, #11000
 557 001a 1A46     		mov	r2, r3
 558 001c 0146     		mov	r1, r0
 559 001e FFF7FEFF 		bl	reflectance_set_threshold
 560              	.LVL87:
 626:main.c        ****   motor_start();
 561              		.loc 1 626 0
 562 0022 FFF7FEFF 		bl	motor_start
 563              	.LVL88:
 627:main.c        ****   if(strncmp(project,"line",4)){
 564              		.loc 1 627 0
 565 0026 0422     		movs	r2, #4
 566 0028 0549     		ldr	r1, .L39
 567 002a 2046     		mov	r0, r4
 568 002c FFF7FEFF 		bl	strncmp
ARM GAS  C:\Users\samue\AppData\Local\Temp\ccm0rw4c.s 			page 22


 569              	.LVL89:
 570 0030 18B1     		cbz	r0, .L36
 628:main.c        ****     LSM303D_Start();
 571              		.loc 1 628 0
 572 0032 FFF7FEFF 		bl	LSM303D_Start
 573              	.LVL90:
 629:main.c        ****     Ultra_Start();
 574              		.loc 1 629 0
 575 0036 FFF7FEFF 		bl	Ultra_Start
 576              	.LVL91:
 577              	.L36:
 630:main.c        ****   }
 631:main.c        **** }
 578              		.loc 1 631 0
 579 003a 02B0     		add	sp, sp, #8
 580              		.cfi_def_cfa_offset 8
 581              		@ sp needed
 582 003c 10BD     		pop	{r4, pc}
 583              	.LVL92:
 584              	.L40:
 585 003e 00BF     		.align	2
 586              	.L39:
 587 0040 38000000 		.word	.LC6
 588              		.cfi_endproc
 589              	.LFE97:
 590              		.size	startComponents, .-startComponents
 591              		.section	.text.reportMQTT,"ax",%progbits
 592              		.align	2
 593              		.global	reportMQTT
 594              		.thumb
 595              		.thumb_func
 596              		.type	reportMQTT, %function
 597              	reportMQTT:
 598              	.LFB105:
 632:main.c        **** 
 633:main.c        **** void moveToStartLineAndWait(char *project, struct sensors_ dig){
 634:main.c        ****   while(SW1_Read()){};
 635:main.c        ****   vTaskDelay(500);
 636:main.c        ****   motor_forward(50,0);
 637:main.c        ****   while(!overLine(dig)){};
 638:main.c        ****   motor_forward(0,0);
 639:main.c        ****   print_mqtt("Zumo035/ready","%s",project);
 640:main.c        ****   IR_wait();
 641:main.c        **** }
 642:main.c        **** 
 643:main.c        **** TickType_t startLineFollowing(struct sensors_ dig){
 644:main.c        ****   TickType_t start = xTaskGetTickCount();
 645:main.c        ****   print_mqtt("Zumo035/start","%d",start);
 646:main.c        ****   motor_forward(50,0);
 647:main.c        ****   while(overLine(dig)){};
 648:main.c        ****   return start;
 649:main.c        **** }
 650:main.c        **** 
 651:main.c        **** void moveToFinishLine(TickType_t start, struct sensors_ dig){
 652:main.c        ****   motor_forward(50,0);
 653:main.c        ****   while(overLine(dig)){};
 654:main.c        ****   while(!overLine(dig)){};
ARM GAS  C:\Users\samue\AppData\Local\Temp\ccm0rw4c.s 			page 23


 655:main.c        ****   TickType_t stop = xTaskGetTickCount();
 656:main.c        ****   print_mqtt("Zumo035/stop","%d",stop);
 657:main.c        ****   motor_stop();
 658:main.c        ****   print_mqtt("Zumo035/time","%d",stop-start);
 659:main.c        **** }
 660:main.c        **** 
 661:main.c        **** /*================================== Maze ======================================
 662:main.c        **** Robot finds a path through a grid by following lines and taking turns at 
 663:main.c        **** intersections to avoid obstacles.
 664:main.c        **** 
 665:main.c        ****                                                 End:
 666:main.c        ****                                               / Robot has run straight for a
 667:main.c        ****      0,13                                    /  while without seeing an
 668:main.c        ****           \ |                              |/   intersection
 669:main.c        ****            \|                              |     
 670:main.c        ****         +---+---+                      +---+---+
 671:main.c        ****         |   |   |                      |   |   |
 672:main.c        ****     +---+---+---+---+     0,5      +---+---+---+---+
 673:main.c        ****     |   |   |   |   |    /         |   |   |   |   |
 674:main.c        **** +---+---+---+---+---+---/      +---+---+---+---+---+---+
 675:main.c        **** |   |   |   |   |   |  /|      |   |   |   |   |   |   |  Obstacles:
 676:main.c        **** +---+---+---+---+---+-/-+      +---+---+---+---+---+---+/ There are three bricks
 677:main.c        **** |   |   |   |   |   |/  |      |  -------  |   |   |   /  at random locations
 678:main.c        **** +---+---+---+---+---/---+      +-|       |-+---+---+--/+
 679:main.c        **** |   |   |   |   |  /|   |      |  -------  |   |   | / |
 680:main.c        **** +---+---+---+---+-/-+---+      +---+---+---+---+---+/--+
 681:main.c        **** |   |   |   |   |/  |   |      |   |   |   |   |   /   |
 682:main.c        **** +---+---+---+---/---+---+      +---+---+---+---+--/+---+
 683:main.c        **** |   |   |   |  /|   |   |      |   |   |  -------/ |   |
 684:main.c        **** +---+---+---+-/-+---+---+      +---+---+-|       |-+---+  Start:
 685:main.c        **** |   |   |   |/  |   |   |      |   |   |  -------  |   |/ Robot drives to the
 686:main.c        **** +---+---+---+---+---+---+      +---+---+---+---+---+---/  line and waits on the
 687:main.c        **** |   |   |   |   |   |   |      |   |   |   |   |   |  /|  line for a start
 688:main.c        **** +---+---+---+---+---+---+      +---+---+---+---+---+-/-+  signal. The start
 689:main.c        **** |   |   |   |   |   |   |      |   |   |   |   |   |/  |  signal is given with
 690:main.c        **** +---+---+---+---+---+---+      +---+---+---+---+---/---+  an IR remote
 691:main.c        **** |   |   |   |   |   |   |      |   |  -------  |  /|   |
 692:main.c        **** +---+---+---+---+---+---+      +---+-|       |-+-/-+---+
 693:main.c        **** |  -3,0 |   |   |   |   |  3,0 |   |  -------  |/  |   |
 694:main.c        **** +-/-+---+---+---+---+---+ /    +---+---+---+---/---+---+
 695:main.c        **** |/  |   |   |   |   |   |/     |   |   |   |  /|   |   |
 696:main.c        **** +---+---+---+---+---+---+      +---+---+---+-/-+---+---+
 697:main.c        ****             |\                             |/
 698:main.c        ****          ---+-\-                        ---+---
 699:main.c        ****             |  0,0                         |
 700:main.c        **** 
 701:main.c        **** 
 702:main.c        ****             |                          |
 703:main.c        ****             |                          |
 704:main.c        ****         +---+---+                  +---+---+
 705:main.c        ****         |   |   |                  |   |   |           Obstacles:
 706:main.c        ****     +---+---+---+---+          +---+---+---+---+     / Never on the last full  
 707:main.c        ****     |   |   |   |   |          |   |   |   |   |    /  "row" or after that. 
 708:main.c        **** +---+---+---+---+---+---+  +---+---+---+---+---+---+
 709:main.c        **** |   |  ---  |   |   |   |  |   |   |   |  -------  |
 710:main.c        **** +---+-|   |-+---+---+---+  +---+---+---+-|       |-+
 711:main.c        **** |   | |   | |   |   |   |  |   |   |   |  -------  |
ARM GAS  C:\Users\samue\AppData\Local\Temp\ccm0rw4c.s 			page 24


 712:main.c        **** +---+-|   |-+---+---+---+  +---+---+---+---+---+---+
 713:main.c        **** |   |  ---  |   |   |   |  |   |   |   |   |   |   |
 714:main.c        **** +---+---+---+---+---+---+  +---+---+---+---+---+---+
 715:main.c        **** |   |   |   |   |   |   |  |   |   |   |   |   |   |
 716:main.c        **** +---+---+---+---+---+---+  +---+---+---+---+---+---+
 717:main.c        **** |   |   |  -------  |   |  |   |  -------  |   |   |
 718:main.c        **** +---+---+-|       |-+---+  +---+-|       |-+---+---+
 719:main.c        **** |   |   |  -------  |   |  |   |  -------  |   |   |
 720:main.c        **** +---+---+---+---+---+---+  +---+---+---+---+---+---+
 721:main.c        **** |   |   |   |   |   |   |  |   |   |   |   |   |   |
 722:main.c        **** +---+---+---+---+---+---+  +---+---+---+---+---+---+
 723:main.c        **** |   |   |   |   |   |   |  |   |  ---  |   |   |   |
 724:main.c        **** +---+---+---+---+---+---+  +---+-|   |-+---+---+---+
 725:main.c        **** |   |  -------  |   |   |  |   | |   | |   |   |   |
 726:main.c        **** +---+-|       |-+---+---+  +---+-|   |-+---+---+---+   Obstacles:
 727:main.c        **** |   |  -------  |   |   |  |   |  ---  |   |   |   | / Never on the first or
 728:main.c        **** +---+---+---+---+---+---+  +---+---+---+---+---+---+/  second "row"
 729:main.c        **** |   |   |   |   |   |   |  |   |   |   |   |   |   |
 730:main.c        **** +---+---+---+---+---+---+  +---+---+---+---+---+---+
 731:main.c        ****             |                          |
 732:main.c        ****          ---+---                    ---+---
 733:main.c        ****             |                          |   Bricks are never oriented diagonally.
 734:main.c        **** 
 735:main.c        **** Robot must send the following data over MQTT connection:
 736:main.c        **** - Ready indicator when robot stops on the start line and starts to wait for IR 
 737:main.c        ****   start signal:
 738:main.c        ****  > Subtopic: ready
 739:main.c        ****  > Data: “maze”
 740:main.c        **** - Start time (systick based time stamp = number of milliseconds since the robot 
 741:main.c        ****   code started)
 742:main.c        ****  > Subtopic: start
 743:main.c        **** - Stop time (when the robot stops on the finish line it sends stop time stamp)
 744:main.c        ****  > Subtopic: stop
 745:main.c        **** - Run time (from start to finish, number of milliseconds between start and stop)
 746:main.c        ****  > Subtopic: time
 747:main.c        **** - Bonus (optional):
 748:main.c        ****  - send coordinates of each intersection the robot visits
 749:main.c        ****   > Subtopic: position
 750:main.c        **** 
 751:main.c        **** For example, Zumo028 sends:
 752:main.c        **** Zumo028/ready maze  Zumo028/ready maze
 753:main.c        **** Zumo028/start 1210  Zumo028/start 1210
 754:main.c        **** Zumo028/stop 24290  Zumo028/position 0 0
 755:main.c        **** Zumo028/time 23080  Zumo028/position 0 1
 756:main.c        ****                     Zumo028/position 0 2
 757:main.c        ****                     Zumo028/position 0 3
 758:main.c        ****                     Zumo028/position 0 4
 759:main.c        ****                     Zumo028/position 0 5
 760:main.c        ****                     Zumo028/position -1 5
 761:main.c        ****                     Zumo028/position -2 5
 762:main.c        ****                     Zumo028/position -2 6
 763:main.c        ****                     Zumo028/position -2 7
 764:main.c        ****                     ...
 765:main.c        ****                     Zumo028/position 0 13
 766:main.c        ****                     Zumo028/stop 24290
 767:main.c        ****                     Zumo028/time 23080
 768:main.c        **** --------------------------------------------------------------------------------
ARM GAS  C:\Users\samue\AppData\Local\Temp\ccm0rw4c.s 			page 25


 769:main.c        **** */
 770:main.c        **** 
 771:main.c        **** void mazeMain(){
 772:main.c        ****     struct sensors_ ref, dig;
 773:main.c        ****     startComponents("zumo");
 774:main.c        ****     moveToStartLineAndWait("zumo", dig);
 775:main.c        ****     mazeSolver2000();
 776:main.c        ****     //stopAndReport();
 777:main.c        ****     //maze_finished();
 778:main.c        ****  
 779:main.c        **** }
 780:main.c        **** 
 781:main.c        **** 
 782:main.c        **** /*
 783:main.c        **** 
 784:main.c        **** TickType_t maze_start    = 0;
 785:main.c        **** TickType_t maze_ix_timer = 0;
 786:main.c        **** int maze_x               = 0;
 787:main.c        **** int maze_y               = 0;
 788:main.c        **** int maze_dir             = 0;
 789:main.c        **** int maze_ix_count        = 0;
 790:main.c        **** int maze_ix[1000][3];
 791:main.c        **** bool maze_bump         = false;
 792:main.c        **** 
 793:main.c        **** struct sensors_ ref;
 794:main.c        **** struct sensors_ dig;
 795:main.c        **** struct accData_ accData;
 796:main.c        **** 
 797:main.c        **** void rp_maze(){
 798:main.c        ****   startComponents();
 799:main.c        ****   moveToStartLine();
 800:main.c        ****   waitAndStart("maze",100);
 801:main.c        ****   moveToNextLine();
 802:main.c        ****   while(!maze_finished()){
 803:main.c        ****     if(!maze_bump){
 804:main.c        ****       reportMazePosition();
 805:main.c        ****       decideMazeTurn();
 806:main.c        ****     } else {
 807:main.c        ****       returnToPreviousIntersection();
 808:main.c        ****     }
 809:main.c        ****     while(!inIntersection() && !maze_finished() && !maze_bumped()){
 810:main.c        ****       followLine();
 811:main.c        ****     }
 812:main.c        ****   }
 813:main.c        ****   stopAndReport();
 814:main.c        **** }
 815:main.c        **** 
 816:main.c        **** void startComponents(){
 817:main.c        ****   IR_Start();
 818:main.c        ****   reflectance_start();
 819:main.c        ****   motor_start();
 820:main.c        ****   LSM303D_Start();
 821:main.c        **** }
 822:main.c        **** */
 823:main.c        **** void mazeSolver2000(struct sensors_ dig) {
 824:main.c        ****     
 825:main.c        ****     int direction = 10000;
ARM GAS  C:\Users\samue\AppData\Local\Temp\ccm0rw4c.s 			page 26


 826:main.c        ****     int x = 0;
 827:main.c        ****     int y = -1;
 828:main.c        ****     int width = 10000;
 829:main.c        ****     
 830:main.c        **** 
 831:main.c        ****     
 832:main.c        ****     while (true) {
 833:main.c        **** 
 834:main.c        ****         for(int i=0; i<3; i++) {
 835:main.c        ****             reflectance_digital(&dig);
 836:main.c        ****             if(Ultra_GetDistance()<15 || !(dig.l3 | dig.l2 | dig.l1 | dig.r1 | dig.r2 | dig.r3)) {
 837:main.c        ****                 motor_forward(0,0);
 838:main.c        ****                 vTaskDelay(250);
 839:main.c        ****                 turn90deg(1);
 840:main.c        ****                 direction--;
 841:main.c        ****             } else {
 842:main.c        ****                 switch(direction%4){
 843:main.c        ****             case 0: 
 844:main.c        ****                 y++;
 845:main.c        ****                 break;
 846:main.c        ****     
 847:main.c        ****             case 1:
 848:main.c        ****                 x++;
 849:main.c        ****                 break;
 850:main.c        ****             
 851:main.c        ****             case 2:
 852:main.c        ****                 y--;
 853:main.c        ****                 break;
 854:main.c        ****             
 855:main.c        ****             default:
 856:main.c        ****                 x--;
 857:main.c        ****         }
 858:main.c        ****                 moveToNextIntersection(dig);
 859:main.c        ****                 if (y==1 && width == 10000) {
 860:main.c        ****                     width=x;
 861:main.c        ****                 }
 862:main.c        **** 
 863:main.c        ****                   vTaskDelay(200);
 864:main.c        ****                 
 865:main.c        ****                 if(!((y==0 && direction%4 != 0) || x==width) || (!(blackSensors(dig)>0) && directio
 866:main.c        ****                     
 867:main.c        ****                     turn90deg(0);
 868:main.c        ****                     direction++;
 869:main.c        ****                 }
 870:main.c        ****                 
 871:main.c        ****                 
 872:main.c        ****                 
 873:main.c        ****                 
 874:main.c        ****                 motor_forward(0,300);
 875:main.c        ****             }
 876:main.c        ****         }
 877:main.c        ****         print_mqtt("Zumo035/position", "x: %d y: %d", x, y);
 878:main.c        ****        
 879:main.c        ****     }
 880:main.c        **** }
 881:main.c        **** void moveToNextIntersection(struct sensors_ dig, struct sensors_ ref) {
 882:main.c        **** 
ARM GAS  C:\Users\samue\AppData\Local\Temp\ccm0rw4c.s 			page 27


 883:main.c        ****     motor_forward(50,300);
 884:main.c        ****     while(true) {
 885:main.c        ****         followLine2(ref);
 886:main.c        ****         reflectance_digital(&dig);
 887:main.c        **** 
 888:main.c        ****         if(dig.l3&dig.l2&dig.l1&dig.r1&dig.r2&dig.r3 ||
 889:main.c        ****            dig.l3&dig.l2&dig.l1&dig.r1 ||
 890:main.c        ****            dig.l1&dig.r1&dig.r2&dig.r3){
 891:main.c        **** 
 892:main.c        ****             break;
 893:main.c        ****         }
 894:main.c        **** 
 895:main.c        ****     }
 896:main.c        ****     while(overLine(dig)){};
 897:main.c        ****     motor_forward(50, 200);
 898:main.c        **** }
 899:main.c        **** 
 900:main.c        **** int* decideMazeTurn(int *xy, int dir, struct sensors_ dig){
 901:main.c        ****   for(int i = 0;i<3;i++){
 902:main.c        ****     turn90deg(0);
 903:main.c        ****     reflectance_digital(&dig);
 904:main.c        ****     if(Ultra_GetDistance()>15 && !(dig.l3|dig.l2|dig.l1|dig.r1|dig.r2|dig.r3)){
 905:main.c        ****       break;
 906:main.c        ****     }
 907:main.c        ****   }
 908:main.c        ****     
 909:main.c        ****   int a = (((dir%4)/2)*2)-1;
 910:main.c        ****   if(dir%2){
 911:main.c        ****     xy[0] += a;
 912:main.c        ****   } else {
 913:main.c        ****     xy[1] += a; 
 914:main.c        ****   }
 915:main.c        ****   return xy;
 916:main.c        **** }
 917:main.c        **** 
 918:main.c        **** void reportMQTT(char* subtopic, char* data){
 599              		.loc 1 918 0
 600              		.cfi_startproc
 601              		@ args = 0, pretend = 0, frame = 0
 602              		@ frame_needed = 0, uses_anonymous_args = 0
 603              	.LVL93:
 604 0000 10B5     		push	{r4, lr}
 605              		.cfi_def_cfa_offset 8
 606              		.cfi_offset 4, -8
 607              		.cfi_offset 14, -4
 608 0002 0C46     		mov	r4, r1
 919:main.c        ****   char* topic = strcat("Zumo035/",subtopic);
 609              		.loc 1 919 0
 610 0004 0146     		mov	r1, r0
 611              	.LVL94:
 612 0006 0448     		ldr	r0, .L43
 613              	.LVL95:
 614 0008 FFF7FEFF 		bl	strcat
 615              	.LVL96:
 920:main.c        ****   print_mqtt(topic," %s",data);
 616              		.loc 1 920 0
 617 000c 2246     		mov	r2, r4
ARM GAS  C:\Users\samue\AppData\Local\Temp\ccm0rw4c.s 			page 28


 618 000e 0349     		ldr	r1, .L43+4
 619 0010 FFF7FEFF 		bl	print_mqtt
 620              	.LVL97:
 621 0014 10BD     		pop	{r4, pc}
 622              	.LVL98:
 623              	.L44:
 624 0016 00BF     		.align	2
 625              	.L43:
 626 0018 40000000 		.word	.LC7
 627 001c 4C000000 		.word	.LC8
 628              		.cfi_endproc
 629              	.LFE105:
 630              		.size	reportMQTT, .-reportMQTT
 631              		.global	__aeabi_d2f
 632              		.global	__aeabi_fdiv
 633              		.global	__aeabi_fadd
 634              		.global	__aeabi_f2iz
 635              		.global	__aeabi_fsub
 636              		.section	.text.followLine,"ax",%progbits
 637              		.align	2
 638              		.global	followLine
 639              		.thumb
 640              		.thumb_func
 641              		.type	followLine, %function
 642              	followLine:
 643              	.LFB108:
 921:main.c        **** }
 922:main.c        **** /*
 923:main.c        **** void reportMazePosition(){
 924:main.c        ****   char* data;
 925:main.c        ****   sprintf(data,"%d %d",maze_x,maze_y);
 926:main.c        ****   reportMQTT("position",data);
 927:main.c        **** }
 928:main.c        **** 
 929:main.c        **** void decideMazeTurn(){
 930:main.c        ****   int[4] pastTurns = {0,0,0,0};
 931:main.c        ****   for(int i = 0;i<maze_ix_count;i++){
 932:main.c        ****     if(maze_ix[i][0] == maze_x && maze_ix[i][1] == maze_y){
 933:main.c        ****       
 934:main.c        ****     }
 935:main.c        ****   }
 936:main.c        **** }
 937:main.c        **** */
 938:main.c        **** 
 939:main.c        **** void moveToStartLine(){
 940:main.c        ****   while(SW1_Read()){};  // start only after button press
 941:main.c        ****   vTaskDelay(500);
 942:main.c        ****   motor_forward(50,0);
 943:main.c        ****   while(!overLine()){}; // move to line and stop
 944:main.c        ****   motor_stop();
 945:main.c        **** }
 946:main.c        **** 
 947:main.c        **** 
 948:main.c        **** void moveToNextLine(struct sensors_ dig){
 949:main.c        ****   while(overLine(dig)){};
 950:main.c        ****   while(!overLine(dig)){};
 951:main.c        **** }
ARM GAS  C:\Users\samue\AppData\Local\Temp\ccm0rw4c.s 			page 29


 952:main.c        **** 
 953:main.c        **** int followLine(struct sensors_ ref, struct sensors_ dig, int offLine){
 644              		.loc 1 953 0
 645              		.cfi_startproc
 646              		@ args = 20, pretend = 8, frame = 16
 647              		@ frame_needed = 0, uses_anonymous_args = 0
 648              	.LVL99:
 649 0000 82B0     		sub	sp, sp, #8
 650              		.cfi_def_cfa_offset 8
 651 0002 70B5     		push	{r4, r5, r6, lr}
 652              		.cfi_def_cfa_offset 24
 653              		.cfi_offset 4, -24
 654              		.cfi_offset 5, -20
 655              		.cfi_offset 6, -16
 656              		.cfi_offset 14, -12
 657 0004 84B0     		sub	sp, sp, #16
 658              		.cfi_def_cfa_offset 40
 659 0006 01AC     		add	r4, sp, #4
 660 0008 84E80700 		stmia	r4, {r0, r1, r2}
 661 000c 0993     		str	r3, [sp, #36]
 662 000e 0C9E     		ldr	r6, [sp, #48]
 663              	.LVL100:
 954:main.c        ****   float maxSpeed = 200;
 955:main.c        ****   float val      = 0;
 956:main.c        **** 
 957:main.c        ****   reflectance_read(&ref);
 664              		.loc 1 957 0
 665 0010 2046     		mov	r0, r4
 666 0012 FFF7FEFF 		bl	reflectance_read
 667              	.LVL101:
 958:main.c        ****     
 959:main.c        ****   val = ((-29.5*ref.l3)+(-16.0*ref.l2)+(-4.75*ref.l1)+4.75*ref.r1+16.0*ref.r2+29.5*ref.r3)/6.0;
 668              		.loc 1 959 0
 669 0016 BDF80400 		ldrh	r0, [sp, #4]
 670 001a FFF7FEFF 		bl	__aeabi_i2d
 671              	.LVL102:
 672 001e 0022     		movs	r2, #0
 673 0020 524B     		ldr	r3, .L57
 674 0022 FFF7FEFF 		bl	__aeabi_dmul
 675              	.LVL103:
 676 0026 0446     		mov	r4, r0
 677 0028 0D46     		mov	r5, r1
 678 002a BDF80600 		ldrh	r0, [sp, #6]
 679 002e FFF7FEFF 		bl	__aeabi_i2d
 680              	.LVL104:
 681 0032 0022     		movs	r2, #0
 682 0034 4E4B     		ldr	r3, .L57+4
 683 0036 FFF7FEFF 		bl	__aeabi_dmul
 684              	.LVL105:
 685 003a 0246     		mov	r2, r0
 686 003c 0B46     		mov	r3, r1
 687 003e 2046     		mov	r0, r4
 688 0040 2946     		mov	r1, r5
 689 0042 FFF7FEFF 		bl	__aeabi_dadd
 690              	.LVL106:
 691 0046 0446     		mov	r4, r0
 692 0048 0D46     		mov	r5, r1
ARM GAS  C:\Users\samue\AppData\Local\Temp\ccm0rw4c.s 			page 30


 693 004a BDF80800 		ldrh	r0, [sp, #8]
 694 004e FFF7FEFF 		bl	__aeabi_i2d
 695              	.LVL107:
 696 0052 0022     		movs	r2, #0
 697 0054 474B     		ldr	r3, .L57+8
 698 0056 FFF7FEFF 		bl	__aeabi_dmul
 699              	.LVL108:
 700 005a 0246     		mov	r2, r0
 701 005c 0B46     		mov	r3, r1
 702 005e 2046     		mov	r0, r4
 703 0060 2946     		mov	r1, r5
 704 0062 FFF7FEFF 		bl	__aeabi_dadd
 705              	.LVL109:
 706 0066 0446     		mov	r4, r0
 707 0068 0D46     		mov	r5, r1
 708 006a BDF80A00 		ldrh	r0, [sp, #10]
 709 006e FFF7FEFF 		bl	__aeabi_i2d
 710              	.LVL110:
 711 0072 0022     		movs	r2, #0
 712 0074 404B     		ldr	r3, .L57+12
 713 0076 FFF7FEFF 		bl	__aeabi_dmul
 714              	.LVL111:
 715 007a 0246     		mov	r2, r0
 716 007c 0B46     		mov	r3, r1
 717 007e 2046     		mov	r0, r4
 718 0080 2946     		mov	r1, r5
 719 0082 FFF7FEFF 		bl	__aeabi_dadd
 720              	.LVL112:
 721 0086 0446     		mov	r4, r0
 722 0088 0D46     		mov	r5, r1
 723 008a BDF80C00 		ldrh	r0, [sp, #12]
 724 008e FFF7FEFF 		bl	__aeabi_i2d
 725              	.LVL113:
 726 0092 0022     		movs	r2, #0
 727 0094 394B     		ldr	r3, .L57+16
 728 0096 FFF7FEFF 		bl	__aeabi_dmul
 729              	.LVL114:
 730 009a 0246     		mov	r2, r0
 731 009c 0B46     		mov	r3, r1
 732 009e 2046     		mov	r0, r4
 733 00a0 2946     		mov	r1, r5
 734 00a2 FFF7FEFF 		bl	__aeabi_dadd
 735              	.LVL115:
 736 00a6 0446     		mov	r4, r0
 737 00a8 0D46     		mov	r5, r1
 738 00aa BDF80E00 		ldrh	r0, [sp, #14]
 739 00ae FFF7FEFF 		bl	__aeabi_i2d
 740              	.LVL116:
 741 00b2 0022     		movs	r2, #0
 742 00b4 324B     		ldr	r3, .L57+20
 743 00b6 FFF7FEFF 		bl	__aeabi_dmul
 744              	.LVL117:
 745 00ba 0246     		mov	r2, r0
 746 00bc 0B46     		mov	r3, r1
 747 00be 2046     		mov	r0, r4
 748 00c0 2946     		mov	r1, r5
 749 00c2 FFF7FEFF 		bl	__aeabi_dadd
ARM GAS  C:\Users\samue\AppData\Local\Temp\ccm0rw4c.s 			page 31


 750              	.LVL118:
 751 00c6 0022     		movs	r2, #0
 752 00c8 2E4B     		ldr	r3, .L57+24
 753 00ca FFF7FEFF 		bl	__aeabi_ddiv
 754              	.LVL119:
 755 00ce FFF7FEFF 		bl	__aeabi_d2f
 756              	.LVL120:
 960:main.c        **** 
 961:main.c        ****   int pwm1 = maxSpeed+val/50;
 757              		.loc 1 961 0
 758 00d2 2D49     		ldr	r1, .L57+28
 759 00d4 FFF7FEFF 		bl	__aeabi_fdiv
 760              	.LVL121:
 761 00d8 0446     		mov	r4, r0
 762 00da 2C49     		ldr	r1, .L57+32
 763 00dc FFF7FEFF 		bl	__aeabi_fadd
 764              	.LVL122:
 765 00e0 FFF7FEFF 		bl	__aeabi_f2iz
 766              	.LVL123:
 767 00e4 0546     		mov	r5, r0
 768              	.LVL124:
 962:main.c        ****   int pwm2 = maxSpeed-val/50;
 769              		.loc 1 962 0
 770 00e6 2146     		mov	r1, r4
 771 00e8 2848     		ldr	r0, .L57+32
 772              	.LVL125:
 773 00ea FFF7FEFF 		bl	__aeabi_fsub
 774              	.LVL126:
 775 00ee FFF7FEFF 		bl	__aeabi_f2iz
 776              	.LVL127:
 777 00f2 0446     		mov	r4, r0
 778              	.LVL128:
 963:main.c        ****     
 964:main.c        ****   if(pwm1>255){pwm1=255;}
 779              		.loc 1 964 0
 780 00f4 FF2D     		cmp	r5, #255
 781 00f6 00DD     		ble	.L46
 782 00f8 FF25     		movs	r5, #255
 783              	.LVL129:
 784              	.L46:
 965:main.c        ****   if(pwm2>255){pwm2=255;}
 785              		.loc 1 965 0
 786 00fa FF2C     		cmp	r4, #255
 787 00fc 00DD     		ble	.L47
 788 00fe FF24     		movs	r4, #255
 789              	.L47:
 790              	.LVL130:
 966:main.c        ****   if(pwm1<0){pwm1=0;}
 791              		.loc 1 966 0
 792 0100 002D     		cmp	r5, #0
 793 0102 00DA     		bge	.L48
 794 0104 0025     		movs	r5, #0
 795              	.LVL131:
 796              	.L48:
 967:main.c        ****   if(pwm2<0){pwm2=0;}
 797              		.loc 1 967 0
 798 0106 002C     		cmp	r4, #0
ARM GAS  C:\Users\samue\AppData\Local\Temp\ccm0rw4c.s 			page 32


 799 0108 00DA     		bge	.L49
 800 010a 0024     		movs	r4, #0
 801              	.LVL132:
 802              	.L49:
 968:main.c        ****     
 969:main.c        ****   PWM_WriteCompare1(pwm1);
 803              		.loc 1 969 0
 804 010c E8B2     		uxtb	r0, r5
 805 010e FFF7FEFF 		bl	PWM_WriteCompare1
 806              	.LVL133:
 970:main.c        ****   PWM_WriteCompare2(pwm2);
 807              		.loc 1 970 0
 808 0112 E0B2     		uxtb	r0, r4
 809 0114 FFF7FEFF 		bl	PWM_WriteCompare2
 810              	.LVL134:
 971:main.c        **** 
 972:main.c        ****   reflectance_digital(&dig);
 811              		.loc 1 972 0
 812 0118 09A8     		add	r0, sp, #36
 813 011a FFF7FEFF 		bl	reflectance_digital
 814              	.LVL135:
 973:main.c        ****   if((!dig.l1)&(!dig.r1)&(!offLine)){
 815              		.loc 1 973 0
 816 011e BDF82810 		ldrh	r1, [sp, #40]
 817 0122 BDF82A30 		ldrh	r3, [sp, #42]
 818 0126 B6FA86F2 		clz	r2, r6
 819 012a 5209     		lsrs	r2, r2, #5
 820 012c 0029     		cmp	r1, #0
 821 012e 08BF     		it	eq
 822 0130 002B     		cmpeq	r3, #0
 823 0132 09D1     		bne	.L50
 824 0134 42B1     		cbz	r2, .L50
 825              	.LVL136:
 974:main.c        ****     offLine = 1;
 975:main.c        ****     print_mqtt("Zumo035/miss","%d",xTaskGetTickCount());
 826              		.loc 1 975 0
 827 0136 FFF7FEFF 		bl	xTaskGetTickCount
 828              	.LVL137:
 829 013a 0246     		mov	r2, r0
 830 013c 1449     		ldr	r1, .L57+36
 831 013e 1548     		ldr	r0, .L57+40
 832 0140 FFF7FEFF 		bl	print_mqtt
 833              	.LVL138:
 974:main.c        ****     offLine = 1;
 834              		.loc 1 974 0
 835 0144 0126     		movs	r6, #1
 836 0146 0AE0     		b	.L51
 837              	.LVL139:
 838              	.L50:
 976:main.c        ****   } else if(dig.l1&dig.r1&offLine){
 839              		.loc 1 976 0
 840 0148 0B40     		ands	r3, r3, r1
 841 014a 1E42     		tst	r6, r3
 842 014c 07D0     		beq	.L51
 843              	.LVL140:
 977:main.c        ****     offLine = 0;
 978:main.c        ****     print_mqtt("Zumo035/line","%d",xTaskGetTickCount());
ARM GAS  C:\Users\samue\AppData\Local\Temp\ccm0rw4c.s 			page 33


 844              		.loc 1 978 0
 845 014e FFF7FEFF 		bl	xTaskGetTickCount
 846              	.LVL141:
 847 0152 0246     		mov	r2, r0
 848 0154 0E49     		ldr	r1, .L57+36
 849 0156 1048     		ldr	r0, .L57+44
 850 0158 FFF7FEFF 		bl	print_mqtt
 851              	.LVL142:
 977:main.c        ****     offLine = 0;
 852              		.loc 1 977 0
 853 015c 0026     		movs	r6, #0
 854              	.LVL143:
 855              	.L51:
 979:main.c        ****   }
 980:main.c        ****   return offLine;
 981:main.c        **** }
 856              		.loc 1 981 0
 857 015e 3046     		mov	r0, r6
 858 0160 04B0     		add	sp, sp, #16
 859              		.cfi_def_cfa_offset 24
 860              		@ sp needed
 861 0162 BDE87040 		pop	{r4, r5, r6, lr}
 862              		.cfi_restore 14
 863              		.cfi_restore 6
 864              		.cfi_restore 5
 865              		.cfi_restore 4
 866              		.cfi_def_cfa_offset 8
 867              	.LVL144:
 868 0166 02B0     		add	sp, sp, #8
 869              		.cfi_def_cfa_offset 0
 870 0168 7047     		bx	lr
 871              	.L58:
 872 016a 00BF     		.align	2
 873              	.L57:
 874 016c 00803DC0 		.word	-1069711360
 875 0170 000030C0 		.word	-1070596096
 876 0174 000013C0 		.word	-1072496640
 877 0178 00001340 		.word	1074987008
 878 017c 00003040 		.word	1076887552
 879 0180 00803D40 		.word	1077772288
 880 0184 00001840 		.word	1075314688
 881 0188 00004842 		.word	1112014848
 882 018c 00004843 		.word	1128792064
 883 0190 14000000 		.word	.LC3
 884 0194 50000000 		.word	.LC9
 885 0198 60000000 		.word	.LC10
 886              		.cfi_endproc
 887              	.LFE108:
 888              		.size	followLine, .-followLine
 889              		.section	.text.followLine2,"ax",%progbits
 890              		.align	2
 891              		.global	followLine2
 892              		.thumb
 893              		.thumb_func
 894              		.type	followLine2, %function
 895              	followLine2:
 896              	.LFB109:
ARM GAS  C:\Users\samue\AppData\Local\Temp\ccm0rw4c.s 			page 34


 982:main.c        **** void followLine2(struct sensors_ ref){
 897              		.loc 1 982 0
 898              		.cfi_startproc
 899              		@ args = 0, pretend = 0, frame = 16
 900              		@ frame_needed = 0, uses_anonymous_args = 0
 901 0000 30B5     		push	{r4, r5, lr}
 902              		.cfi_def_cfa_offset 12
 903              		.cfi_offset 4, -12
 904              		.cfi_offset 5, -8
 905              		.cfi_offset 14, -4
 906 0002 85B0     		sub	sp, sp, #20
 907              		.cfi_def_cfa_offset 32
 908 0004 01AB     		add	r3, sp, #4
 909 0006 83E80700 		stmia	r3, {r0, r1, r2}
 910              	.LVL145:
 983:main.c        ****   float maxSpeed = 50;
 984:main.c        ****   float val      = 0;
 985:main.c        ****  
 986:main.c        ****   reflectance_read(&ref);
 911              		.loc 1 986 0
 912 000a 1846     		mov	r0, r3
 913 000c FFF7FEFF 		bl	reflectance_read
 914              	.LVL146:
 987:main.c        ****    
 988:main.c        ****   val = ((-29.5*ref.l3)+(-16.0*ref.l2)+(-4.75*ref.l1)+4.75*ref.r1+16.0*ref.r2+29.5*ref.r3)/6.0;
 915              		.loc 1 988 0
 916 0010 BDF80400 		ldrh	r0, [sp, #4]
 917 0014 FFF7FEFF 		bl	__aeabi_i2d
 918              	.LVL147:
 919 0018 0022     		movs	r2, #0
 920 001a 3F4B     		ldr	r3, .L69
 921 001c FFF7FEFF 		bl	__aeabi_dmul
 922              	.LVL148:
 923 0020 0446     		mov	r4, r0
 924 0022 0D46     		mov	r5, r1
 925 0024 BDF80600 		ldrh	r0, [sp, #6]
 926 0028 FFF7FEFF 		bl	__aeabi_i2d
 927              	.LVL149:
 928 002c 0022     		movs	r2, #0
 929 002e 3B4B     		ldr	r3, .L69+4
 930 0030 FFF7FEFF 		bl	__aeabi_dmul
 931              	.LVL150:
 932 0034 0246     		mov	r2, r0
 933 0036 0B46     		mov	r3, r1
 934 0038 2046     		mov	r0, r4
 935 003a 2946     		mov	r1, r5
 936 003c FFF7FEFF 		bl	__aeabi_dadd
 937              	.LVL151:
 938 0040 0446     		mov	r4, r0
 939 0042 0D46     		mov	r5, r1
 940 0044 BDF80800 		ldrh	r0, [sp, #8]
 941 0048 FFF7FEFF 		bl	__aeabi_i2d
 942              	.LVL152:
 943 004c 0022     		movs	r2, #0
 944 004e 344B     		ldr	r3, .L69+8
 945 0050 FFF7FEFF 		bl	__aeabi_dmul
 946              	.LVL153:
ARM GAS  C:\Users\samue\AppData\Local\Temp\ccm0rw4c.s 			page 35


 947 0054 0246     		mov	r2, r0
 948 0056 0B46     		mov	r3, r1
 949 0058 2046     		mov	r0, r4
 950 005a 2946     		mov	r1, r5
 951 005c FFF7FEFF 		bl	__aeabi_dadd
 952              	.LVL154:
 953 0060 0446     		mov	r4, r0
 954 0062 0D46     		mov	r5, r1
 955 0064 BDF80A00 		ldrh	r0, [sp, #10]
 956 0068 FFF7FEFF 		bl	__aeabi_i2d
 957              	.LVL155:
 958 006c 0022     		movs	r2, #0
 959 006e 2D4B     		ldr	r3, .L69+12
 960 0070 FFF7FEFF 		bl	__aeabi_dmul
 961              	.LVL156:
 962 0074 0246     		mov	r2, r0
 963 0076 0B46     		mov	r3, r1
 964 0078 2046     		mov	r0, r4
 965 007a 2946     		mov	r1, r5
 966 007c FFF7FEFF 		bl	__aeabi_dadd
 967              	.LVL157:
 968 0080 0446     		mov	r4, r0
 969 0082 0D46     		mov	r5, r1
 970 0084 BDF80C00 		ldrh	r0, [sp, #12]
 971 0088 FFF7FEFF 		bl	__aeabi_i2d
 972              	.LVL158:
 973 008c 0022     		movs	r2, #0
 974 008e 264B     		ldr	r3, .L69+16
 975 0090 FFF7FEFF 		bl	__aeabi_dmul
 976              	.LVL159:
 977 0094 0246     		mov	r2, r0
 978 0096 0B46     		mov	r3, r1
 979 0098 2046     		mov	r0, r4
 980 009a 2946     		mov	r1, r5
 981 009c FFF7FEFF 		bl	__aeabi_dadd
 982              	.LVL160:
 983 00a0 0446     		mov	r4, r0
 984 00a2 0D46     		mov	r5, r1
 985 00a4 BDF80E00 		ldrh	r0, [sp, #14]
 986 00a8 FFF7FEFF 		bl	__aeabi_i2d
 987              	.LVL161:
 988 00ac 0022     		movs	r2, #0
 989 00ae 1F4B     		ldr	r3, .L69+20
 990 00b0 FFF7FEFF 		bl	__aeabi_dmul
 991              	.LVL162:
 992 00b4 0246     		mov	r2, r0
 993 00b6 0B46     		mov	r3, r1
 994 00b8 2046     		mov	r0, r4
 995 00ba 2946     		mov	r1, r5
 996 00bc FFF7FEFF 		bl	__aeabi_dadd
 997              	.LVL163:
 998 00c0 0022     		movs	r2, #0
 999 00c2 1B4B     		ldr	r3, .L69+24
 1000 00c4 FFF7FEFF 		bl	__aeabi_ddiv
 1001              	.LVL164:
 1002 00c8 FFF7FEFF 		bl	__aeabi_d2f
 1003              	.LVL165:
ARM GAS  C:\Users\samue\AppData\Local\Temp\ccm0rw4c.s 			page 36


 989:main.c        ****  
 990:main.c        ****   int pwm1 = maxSpeed+val/150;
 1004              		.loc 1 990 0
 1005 00cc 1949     		ldr	r1, .L69+28
 1006 00ce FFF7FEFF 		bl	__aeabi_fdiv
 1007              	.LVL166:
 1008 00d2 0446     		mov	r4, r0
 1009 00d4 1849     		ldr	r1, .L69+32
 1010 00d6 FFF7FEFF 		bl	__aeabi_fadd
 1011              	.LVL167:
 1012 00da FFF7FEFF 		bl	__aeabi_f2iz
 1013              	.LVL168:
 1014 00de 0546     		mov	r5, r0
 1015              	.LVL169:
 991:main.c        ****   int pwm2 = maxSpeed-val/150;
 1016              		.loc 1 991 0
 1017 00e0 2146     		mov	r1, r4
 1018 00e2 1548     		ldr	r0, .L69+32
 1019              	.LVL170:
 1020 00e4 FFF7FEFF 		bl	__aeabi_fsub
 1021              	.LVL171:
 1022 00e8 FFF7FEFF 		bl	__aeabi_f2iz
 1023              	.LVL172:
 1024 00ec 0446     		mov	r4, r0
 1025              	.LVL173:
 992:main.c        ****    
 993:main.c        ****   if(pwm1>50){pwm1=50;}
 1026              		.loc 1 993 0
 1027 00ee 322D     		cmp	r5, #50
 1028 00f0 00DD     		ble	.L60
 1029 00f2 3225     		movs	r5, #50
 1030              	.LVL174:
 1031              	.L60:
 994:main.c        ****   if(pwm2>50){pwm2=50;}
 1032              		.loc 1 994 0
 1033 00f4 322C     		cmp	r4, #50
 1034 00f6 00DD     		ble	.L61
 1035 00f8 3224     		movs	r4, #50
 1036              	.L61:
 1037              	.LVL175:
 995:main.c        ****   if(pwm1<0){pwm1=0;}
 1038              		.loc 1 995 0
 1039 00fa 002D     		cmp	r5, #0
 1040 00fc 00DA     		bge	.L62
 1041 00fe 0025     		movs	r5, #0
 1042              	.LVL176:
 1043              	.L62:
 996:main.c        ****   if(pwm2<0){pwm2=0;}
 1044              		.loc 1 996 0
 1045 0100 002C     		cmp	r4, #0
 1046 0102 00DA     		bge	.L63
 1047 0104 0024     		movs	r4, #0
 1048              	.LVL177:
 1049              	.L63:
 997:main.c        ****    
 998:main.c        ****   PWM_WriteCompare1(pwm1);
 1050              		.loc 1 998 0
ARM GAS  C:\Users\samue\AppData\Local\Temp\ccm0rw4c.s 			page 37


 1051 0106 E8B2     		uxtb	r0, r5
 1052 0108 FFF7FEFF 		bl	PWM_WriteCompare1
 1053              	.LVL178:
 999:main.c        ****   PWM_WriteCompare2(pwm2);
 1054              		.loc 1 999 0
 1055 010c E0B2     		uxtb	r0, r4
 1056 010e FFF7FEFF 		bl	PWM_WriteCompare2
 1057              	.LVL179:
1000:main.c        **** }
 1058              		.loc 1 1000 0
 1059 0112 05B0     		add	sp, sp, #20
 1060              		.cfi_def_cfa_offset 12
 1061              		@ sp needed
 1062 0114 30BD     		pop	{r4, r5, pc}
 1063              	.LVL180:
 1064              	.L70:
 1065 0116 00BF     		.align	2
 1066              	.L69:
 1067 0118 00803DC0 		.word	-1069711360
 1068 011c 000030C0 		.word	-1070596096
 1069 0120 000013C0 		.word	-1072496640
 1070 0124 00001340 		.word	1074987008
 1071 0128 00003040 		.word	1076887552
 1072 012c 00803D40 		.word	1077772288
 1073 0130 00001840 		.word	1075314688
 1074 0134 00001643 		.word	1125515264
 1075 0138 00004842 		.word	1112014848
 1076              		.cfi_endproc
 1077              	.LFE109:
 1078              		.size	followLine2, .-followLine2
 1079              		.global	__aeabi_fcmplt
 1080              		.section	.text.turnToCenter,"ax",%progbits
 1081              		.align	2
 1082              		.global	turnToCenter
 1083              		.thumb
 1084              		.thumb_func
 1085              		.type	turnToCenter, %function
 1086              	turnToCenter:
 1087              	.LFB110:
1001:main.c        **** 
1002:main.c        **** float turnToCenter(struct sensors_ ref){
 1088              		.loc 1 1002 0
 1089              		.cfi_startproc
 1090              		@ args = 0, pretend = 0, frame = 16
 1091              		@ frame_needed = 0, uses_anonymous_args = 0
 1092 0000 30B5     		push	{r4, r5, lr}
 1093              		.cfi_def_cfa_offset 12
 1094              		.cfi_offset 4, -12
 1095              		.cfi_offset 5, -8
 1096              		.cfi_offset 14, -4
 1097 0002 85B0     		sub	sp, sp, #20
 1098              		.cfi_def_cfa_offset 32
 1099 0004 01AB     		add	r3, sp, #4
 1100 0006 83E80700 		stmia	r3, {r0, r1, r2}
 1101              	.LVL181:
1003:main.c        ****   int maxSpeed   = 255;
1004:main.c        ****   float val      = 0;
ARM GAS  C:\Users\samue\AppData\Local\Temp\ccm0rw4c.s 			page 38


1005:main.c        ****   float ratio    = 25;
1006:main.c        ****   int pwm        = 0;
1007:main.c        ****   int pwm1       = 0;
1008:main.c        ****   int pwm2       = 0;
1009:main.c        **** 
1010:main.c        ****   reflectance_read(&ref);
 1102              		.loc 1 1010 0
 1103 000a 1846     		mov	r0, r3
 1104 000c FFF7FEFF 		bl	reflectance_read
 1105              	.LVL182:
1011:main.c        ****     
1012:main.c        ****   val = ((-29.5*ref.l3)+(-16.0*ref.l2)+(-4.75*ref.l1)+4.75*ref.r1+16.0*ref.r2+29.5*ref.r3)/6.0;
 1106              		.loc 1 1012 0
 1107 0010 BDF80400 		ldrh	r0, [sp, #4]
 1108 0014 FFF7FEFF 		bl	__aeabi_i2d
 1109              	.LVL183:
 1110 0018 0022     		movs	r2, #0
 1111 001a 354B     		ldr	r3, .L78
 1112 001c FFF7FEFF 		bl	__aeabi_dmul
 1113              	.LVL184:
 1114 0020 0446     		mov	r4, r0
 1115 0022 0D46     		mov	r5, r1
 1116 0024 BDF80600 		ldrh	r0, [sp, #6]
 1117 0028 FFF7FEFF 		bl	__aeabi_i2d
 1118              	.LVL185:
 1119 002c 0022     		movs	r2, #0
 1120 002e 314B     		ldr	r3, .L78+4
 1121 0030 FFF7FEFF 		bl	__aeabi_dmul
 1122              	.LVL186:
 1123 0034 0246     		mov	r2, r0
 1124 0036 0B46     		mov	r3, r1
 1125 0038 2046     		mov	r0, r4
 1126 003a 2946     		mov	r1, r5
 1127 003c FFF7FEFF 		bl	__aeabi_dadd
 1128              	.LVL187:
 1129 0040 0446     		mov	r4, r0
 1130 0042 0D46     		mov	r5, r1
 1131 0044 BDF80800 		ldrh	r0, [sp, #8]
 1132 0048 FFF7FEFF 		bl	__aeabi_i2d
 1133              	.LVL188:
 1134 004c 0022     		movs	r2, #0
 1135 004e 2A4B     		ldr	r3, .L78+8
 1136 0050 FFF7FEFF 		bl	__aeabi_dmul
 1137              	.LVL189:
 1138 0054 0246     		mov	r2, r0
 1139 0056 0B46     		mov	r3, r1
 1140 0058 2046     		mov	r0, r4
 1141 005a 2946     		mov	r1, r5
 1142 005c FFF7FEFF 		bl	__aeabi_dadd
 1143              	.LVL190:
 1144 0060 0446     		mov	r4, r0
 1145 0062 0D46     		mov	r5, r1
 1146 0064 BDF80A00 		ldrh	r0, [sp, #10]
 1147 0068 FFF7FEFF 		bl	__aeabi_i2d
 1148              	.LVL191:
 1149 006c 0022     		movs	r2, #0
 1150 006e 234B     		ldr	r3, .L78+12
ARM GAS  C:\Users\samue\AppData\Local\Temp\ccm0rw4c.s 			page 39


 1151 0070 FFF7FEFF 		bl	__aeabi_dmul
 1152              	.LVL192:
 1153 0074 0246     		mov	r2, r0
 1154 0076 0B46     		mov	r3, r1
 1155 0078 2046     		mov	r0, r4
 1156 007a 2946     		mov	r1, r5
 1157 007c FFF7FEFF 		bl	__aeabi_dadd
 1158              	.LVL193:
 1159 0080 0446     		mov	r4, r0
 1160 0082 0D46     		mov	r5, r1
 1161 0084 BDF80C00 		ldrh	r0, [sp, #12]
 1162 0088 FFF7FEFF 		bl	__aeabi_i2d
 1163              	.LVL194:
 1164 008c 0022     		movs	r2, #0
 1165 008e 1C4B     		ldr	r3, .L78+16
 1166 0090 FFF7FEFF 		bl	__aeabi_dmul
 1167              	.LVL195:
 1168 0094 0246     		mov	r2, r0
 1169 0096 0B46     		mov	r3, r1
 1170 0098 2046     		mov	r0, r4
 1171 009a 2946     		mov	r1, r5
 1172 009c FFF7FEFF 		bl	__aeabi_dadd
 1173              	.LVL196:
 1174 00a0 0446     		mov	r4, r0
 1175 00a2 0D46     		mov	r5, r1
 1176 00a4 BDF80E00 		ldrh	r0, [sp, #14]
 1177 00a8 FFF7FEFF 		bl	__aeabi_i2d
 1178              	.LVL197:
 1179 00ac 0022     		movs	r2, #0
 1180 00ae 154B     		ldr	r3, .L78+20
 1181 00b0 FFF7FEFF 		bl	__aeabi_dmul
 1182              	.LVL198:
 1183 00b4 0246     		mov	r2, r0
 1184 00b6 0B46     		mov	r3, r1
 1185 00b8 2046     		mov	r0, r4
 1186 00ba 2946     		mov	r1, r5
 1187 00bc FFF7FEFF 		bl	__aeabi_dadd
 1188              	.LVL199:
 1189 00c0 0022     		movs	r2, #0
 1190 00c2 114B     		ldr	r3, .L78+24
 1191 00c4 FFF7FEFF 		bl	__aeabi_ddiv
 1192              	.LVL200:
 1193 00c8 FFF7FEFF 		bl	__aeabi_d2f
 1194              	.LVL201:
 1195 00cc 0446     		mov	r4, r0
 1196              	.LVL202:
1013:main.c        ****   /*
1014:main.c        ****   if(val<0){
1015:main.c        ****     MotorDirLeft_Write(1);
1016:main.c        ****     MotorDirRight_Write(0);
1017:main.c        ****     pwm = -val*ratio;
1018:main.c        ****   } else {
1019:main.c        ****     MotorDirLeft_Write(0);
1020:main.c        ****     MotorDirRight_Write(1);
1021:main.c        ****     pwm = val*ratio;
1022:main.c        ****   }
1023:main.c        **** 
ARM GAS  C:\Users\samue\AppData\Local\Temp\ccm0rw4c.s 			page 40


1024:main.c        ****   if(pwm>255){pwm=255;}
1025:main.c        ****     
1026:main.c        ****   PWM_WriteCompare1(pwm);
1027:main.c        ****   PWM_WriteCompare2(pwm);
1028:main.c        **** 
1029:main.c        ****   */
1030:main.c        ****   pwm1 = maxSpeed+val/ratio;
1031:main.c        ****   pwm2 = maxSpeed-val/ratio;
1032:main.c        ****     
1033:main.c        ****   if(pwm1>255){pwm1=255;}
1034:main.c        ****   if(pwm2>255){pwm2=255;}
1035:main.c        ****   if(pwm1<0){pwm1=0;}
1036:main.c        ****   if(pwm2<0){pwm2=0;}
1037:main.c        **** 
1038:main.c        ****   
1039:main.c        **** 
1040:main.c        ****   if(val<0){
 1197              		.loc 1 1040 0
 1198 00ce 0021     		movs	r1, #0
 1199 00d0 FFF7FEFF 		bl	__aeabi_fcmplt
 1200              	.LVL203:
 1201 00d4 10B1     		cbz	r0, .L76
1041:main.c        ****     pwm1 = 255;
1042:main.c        ****     pwm2 = 0;
 1202              		.loc 1 1042 0
 1203 00d6 0025     		movs	r5, #0
1041:main.c        ****     pwm1 = 255;
 1204              		.loc 1 1041 0
 1205 00d8 FF20     		movs	r0, #255
 1206 00da 01E0     		b	.L72
 1207              	.L76:
1043:main.c        ****   } else {
1044:main.c        ****     pwm1 = 0;
1045:main.c        ****     pwm2 = 255;
 1208              		.loc 1 1045 0
 1209 00dc FF25     		movs	r5, #255
1044:main.c        ****     pwm2 = 255;
 1210              		.loc 1 1044 0
 1211 00de 0020     		movs	r0, #0
 1212              	.L72:
 1213              	.LVL204:
1046:main.c        ****   }
1047:main.c        ****     
1048:main.c        ****   PWM_WriteCompare1(pwm1);
 1214              		.loc 1 1048 0
 1215 00e0 FFF7FEFF 		bl	PWM_WriteCompare1
 1216              	.LVL205:
1049:main.c        ****   PWM_WriteCompare2(pwm2);
 1217              		.loc 1 1049 0
 1218 00e4 2846     		mov	r0, r5
 1219 00e6 FFF7FEFF 		bl	PWM_WriteCompare2
 1220              	.LVL206:
1050:main.c        ****   
1051:main.c        **** 
1052:main.c        ****   return val;
1053:main.c        **** }
 1221              		.loc 1 1053 0
ARM GAS  C:\Users\samue\AppData\Local\Temp\ccm0rw4c.s 			page 41


 1222 00ea 2046     		mov	r0, r4
 1223 00ec 05B0     		add	sp, sp, #20
 1224              		.cfi_def_cfa_offset 12
 1225              		@ sp needed
 1226 00ee 30BD     		pop	{r4, r5, pc}
 1227              	.LVL207:
 1228              	.L79:
 1229              		.align	2
 1230              	.L78:
 1231 00f0 00803DC0 		.word	-1069711360
 1232 00f4 000030C0 		.word	-1070596096
 1233 00f8 000013C0 		.word	-1072496640
 1234 00fc 00001340 		.word	1074987008
 1235 0100 00003040 		.word	1076887552
 1236 0104 00803D40 		.word	1077772288
 1237 0108 00001840 		.word	1075314688
 1238              		.cfi_endproc
 1239              	.LFE110:
 1240              		.size	turnToCenter, .-turnToCenter
 1241              		.section	.text.overLine,"ax",%progbits
 1242              		.align	2
 1243              		.global	overLine
 1244              		.thumb
 1245              		.thumb_func
 1246              		.type	overLine, %function
 1247              	overLine:
 1248              	.LFB111:
1054:main.c        **** 
1055:main.c        **** bool overLine(struct sensors_ dig){
 1249              		.loc 1 1055 0
 1250              		.cfi_startproc
 1251              		@ args = 0, pretend = 0, frame = 16
 1252              		@ frame_needed = 0, uses_anonymous_args = 0
 1253 0000 30B5     		push	{r4, r5, lr}
 1254              		.cfi_def_cfa_offset 12
 1255              		.cfi_offset 4, -12
 1256              		.cfi_offset 5, -8
 1257              		.cfi_offset 14, -4
 1258 0002 85B0     		sub	sp, sp, #20
 1259              		.cfi_def_cfa_offset 32
 1260 0004 01AB     		add	r3, sp, #4
 1261 0006 83E80700 		stmia	r3, {r0, r1, r2}
1056:main.c        ****   reflectance_digital(&dig); 
 1262              		.loc 1 1056 0
 1263 000a 1846     		mov	r0, r3
 1264 000c FFF7FEFF 		bl	reflectance_digital
 1265              	.LVL208:
1057:main.c        ****   return dig.l3&dig.l2&dig.l1&dig.r1&dig.r2&dig.r3;
 1266              		.loc 1 1057 0
 1267 0010 BDF80420 		ldrh	r2, [sp, #4]
 1268 0014 BDF80610 		ldrh	r1, [sp, #6]
 1269 0018 BDF80830 		ldrh	r3, [sp, #8]
 1270 001c BDF80A50 		ldrh	r5, [sp, #10]
 1271 0020 BDF80C40 		ldrh	r4, [sp, #12]
 1272 0024 BDF80E00 		ldrh	r0, [sp, #14]
 1273 0028 0A40     		ands	r2, r2, r1
 1274 002a 1A40     		ands	r2, r2, r3
ARM GAS  C:\Users\samue\AppData\Local\Temp\ccm0rw4c.s 			page 42


 1275 002c 05EA0203 		and	r3, r5, r2
 1276 0030 2340     		ands	r3, r3, r4
 1277 0032 1842     		tst	r0, r3
1058:main.c        **** }
 1278              		.loc 1 1058 0
 1279 0034 14BF     		ite	ne
 1280 0036 0120     		movne	r0, #1
 1281 0038 0020     		moveq	r0, #0
 1282 003a 05B0     		add	sp, sp, #20
 1283              		.cfi_def_cfa_offset 12
 1284              		@ sp needed
 1285 003c 30BD     		pop	{r4, r5, pc}
 1286              		.cfi_endproc
 1287              	.LFE111:
 1288              		.size	overLine, .-overLine
 1289 003e 00BF     		.section	.text.startWrestling,"ax",%progbits
 1290              		.align	2
 1291              		.global	startWrestling
 1292              		.thumb
 1293              		.thumb_func
 1294              		.type	startWrestling, %function
 1295              	startWrestling:
 1296              	.LFB91:
 469:main.c        ****   TickType_t start = xTaskGetTickCount();
 1297              		.loc 1 469 0
 1298              		.cfi_startproc
 1299              		@ args = 0, pretend = 0, frame = 16
 1300              		@ frame_needed = 0, uses_anonymous_args = 0
 1301 0000 10B5     		push	{r4, lr}
 1302              		.cfi_def_cfa_offset 8
 1303              		.cfi_offset 4, -8
 1304              		.cfi_offset 14, -4
 1305 0002 84B0     		sub	sp, sp, #16
 1306              		.cfi_def_cfa_offset 24
 1307 0004 04AB     		add	r3, sp, #16
 1308 0006 03E90700 		stmdb	r3, {r0, r1, r2}
 470:main.c        ****   print_mqtt("Zumo035/start","%d",start);
 1309              		.loc 1 470 0
 1310 000a FFF7FEFF 		bl	xTaskGetTickCount
 1311              	.LVL209:
 1312 000e 0446     		mov	r4, r0
 1313              	.LVL210:
 471:main.c        ****   reportMQTT("start",start);
 1314              		.loc 1 471 0
 1315 0010 0246     		mov	r2, r0
 1316 0012 0B49     		ldr	r1, .L85
 1317 0014 0B48     		ldr	r0, .L85+4
 1318              	.LVL211:
 1319 0016 FFF7FEFF 		bl	print_mqtt
 1320              	.LVL212:
 472:main.c        ****   motor_forward(50,0);
 1321              		.loc 1 472 0
 1322 001a 2146     		mov	r1, r4
 1323 001c 0A48     		ldr	r0, .L85+8
 1324 001e FFF7FEFF 		bl	reportMQTT
 1325              	.LVL213:
 473:main.c        ****   while(overLine(dig)){};
ARM GAS  C:\Users\samue\AppData\Local\Temp\ccm0rw4c.s 			page 43


 1326              		.loc 1 473 0
 1327 0022 0021     		movs	r1, #0
 1328 0024 3220     		movs	r0, #50
 1329 0026 FFF7FEFF 		bl	motor_forward
 1330              	.LVL214:
 1331              	.L83:
 474:main.c        ****   return start;
 1332              		.loc 1 474 0 discriminator 1
 1333 002a 04AB     		add	r3, sp, #16
 1334 002c 13E90700 		ldmdb	r3, {r0, r1, r2}
 1335 0030 FFF7FEFF 		bl	overLine
 1336              	.LVL215:
 1337 0034 0028     		cmp	r0, #0
 1338 0036 F8D1     		bne	.L83
 476:main.c        **** 
 1339              		.loc 1 476 0
 1340 0038 2046     		mov	r0, r4
 1341 003a 04B0     		add	sp, sp, #16
 1342              		.cfi_def_cfa_offset 8
 1343              		@ sp needed
 1344 003c 10BD     		pop	{r4, pc}
 1345              	.LVL216:
 1346              	.L86:
 1347 003e 00BF     		.align	2
 1348              	.L85:
 1349 0040 14000000 		.word	.LC3
 1350 0044 70000000 		.word	.LC11
 1351 0048 80000000 		.word	.LC12
 1352              		.cfi_endproc
 1353              	.LFE91:
 1354              		.size	startWrestling, .-startWrestling
 1355              		.section	.text.moveToStartLineAndWait,"ax",%progbits
 1356              		.align	2
 1357              		.global	moveToStartLineAndWait
 1358              		.thumb
 1359              		.thumb_func
 1360              		.type	moveToStartLineAndWait, %function
 1361              	moveToStartLineAndWait:
 1362              	.LFB98:
 633:main.c        ****   while(SW1_Read()){};
 1363              		.loc 1 633 0
 1364              		.cfi_startproc
 1365              		@ args = 0, pretend = 0, frame = 16
 1366              		@ frame_needed = 0, uses_anonymous_args = 0
 1367              	.LVL217:
 1368 0000 10B5     		push	{r4, lr}
 1369              		.cfi_def_cfa_offset 8
 1370              		.cfi_offset 4, -8
 1371              		.cfi_offset 14, -4
 1372 0002 84B0     		sub	sp, sp, #16
 1373              		.cfi_def_cfa_offset 24
 1374 0004 0446     		mov	r4, r0
 1375 0006 04A8     		add	r0, sp, #16
 1376              	.LVL218:
 1377 0008 00E90E00 		stmdb	r0, {r1, r2, r3}
 1378              	.L88:
 634:main.c        ****   vTaskDelay(500);
ARM GAS  C:\Users\samue\AppData\Local\Temp\ccm0rw4c.s 			page 44


 1379              		.loc 1 634 0 discriminator 1
 1380 000c FFF7FEFF 		bl	SW1_Read
 1381              	.LVL219:
 1382 0010 0028     		cmp	r0, #0
 1383 0012 FBD1     		bne	.L88
 635:main.c        ****   motor_forward(50,0);
 1384              		.loc 1 635 0
 1385 0014 4FF4FA70 		mov	r0, #500
 1386 0018 FFF7FEFF 		bl	vTaskDelay
 1387              	.LVL220:
 636:main.c        ****   while(!overLine(dig)){};
 1388              		.loc 1 636 0
 1389 001c 0021     		movs	r1, #0
 1390 001e 3220     		movs	r0, #50
 1391 0020 FFF7FEFF 		bl	motor_forward
 1392              	.LVL221:
 1393              	.L89:
 637:main.c        ****   motor_forward(0,0);
 1394              		.loc 1 637 0 discriminator 1
 1395 0024 04AB     		add	r3, sp, #16
 1396 0026 13E90700 		ldmdb	r3, {r0, r1, r2}
 1397 002a FFF7FEFF 		bl	overLine
 1398              	.LVL222:
 1399 002e 0028     		cmp	r0, #0
 1400 0030 F8D0     		beq	.L89
 638:main.c        ****   print_mqtt("Zumo035/ready","%s",project);
 1401              		.loc 1 638 0
 1402 0032 0021     		movs	r1, #0
 1403 0034 0846     		mov	r0, r1
 1404 0036 FFF7FEFF 		bl	motor_forward
 1405              	.LVL223:
 639:main.c        ****   IR_wait();
 1406              		.loc 1 639 0
 1407 003a 2246     		mov	r2, r4
 1408 003c 0349     		ldr	r1, .L91
 1409 003e 0448     		ldr	r0, .L91+4
 1410 0040 FFF7FEFF 		bl	print_mqtt
 1411              	.LVL224:
 640:main.c        **** }
 1412              		.loc 1 640 0
 1413 0044 FFF7FEFF 		bl	IR_wait
 1414              	.LVL225:
 641:main.c        **** 
 1415              		.loc 1 641 0
 1416 0048 04B0     		add	sp, sp, #16
 1417              		.cfi_def_cfa_offset 8
 1418              		@ sp needed
 1419 004a 10BD     		pop	{r4, pc}
 1420              	.LVL226:
 1421              	.L92:
 1422              		.align	2
 1423              	.L91:
 1424 004c 88000000 		.word	.LC13
 1425 0050 8C000000 		.word	.LC14
 1426              		.cfi_endproc
 1427              	.LFE98:
 1428              		.size	moveToStartLineAndWait, .-moveToStartLineAndWait
ARM GAS  C:\Users\samue\AppData\Local\Temp\ccm0rw4c.s 			page 45


 1429              		.section	.text.startLineFollowing,"ax",%progbits
 1430              		.align	2
 1431              		.global	startLineFollowing
 1432              		.thumb
 1433              		.thumb_func
 1434              		.type	startLineFollowing, %function
 1435              	startLineFollowing:
 1436              	.LFB99:
 643:main.c        ****   TickType_t start = xTaskGetTickCount();
 1437              		.loc 1 643 0
 1438              		.cfi_startproc
 1439              		@ args = 0, pretend = 0, frame = 16
 1440              		@ frame_needed = 0, uses_anonymous_args = 0
 1441 0000 10B5     		push	{r4, lr}
 1442              		.cfi_def_cfa_offset 8
 1443              		.cfi_offset 4, -8
 1444              		.cfi_offset 14, -4
 1445 0002 84B0     		sub	sp, sp, #16
 1446              		.cfi_def_cfa_offset 24
 1447 0004 04AB     		add	r3, sp, #16
 1448 0006 03E90700 		stmdb	r3, {r0, r1, r2}
 644:main.c        ****   print_mqtt("Zumo035/start","%d",start);
 1449              		.loc 1 644 0
 1450 000a FFF7FEFF 		bl	xTaskGetTickCount
 1451              	.LVL227:
 1452 000e 0446     		mov	r4, r0
 1453              	.LVL228:
 645:main.c        ****   motor_forward(50,0);
 1454              		.loc 1 645 0
 1455 0010 0246     		mov	r2, r0
 1456 0012 0949     		ldr	r1, .L96
 1457 0014 0948     		ldr	r0, .L96+4
 1458              	.LVL229:
 1459 0016 FFF7FEFF 		bl	print_mqtt
 1460              	.LVL230:
 646:main.c        ****   while(overLine(dig)){};
 1461              		.loc 1 646 0
 1462 001a 0021     		movs	r1, #0
 1463 001c 3220     		movs	r0, #50
 1464 001e FFF7FEFF 		bl	motor_forward
 1465              	.LVL231:
 1466              	.L94:
 647:main.c        ****   return start;
 1467              		.loc 1 647 0 discriminator 1
 1468 0022 04AB     		add	r3, sp, #16
 1469 0024 13E90700 		ldmdb	r3, {r0, r1, r2}
 1470 0028 FFF7FEFF 		bl	overLine
 1471              	.LVL232:
 1472 002c 0028     		cmp	r0, #0
 1473 002e F8D1     		bne	.L94
 649:main.c        **** 
 1474              		.loc 1 649 0
 1475 0030 2046     		mov	r0, r4
 1476 0032 04B0     		add	sp, sp, #16
 1477              		.cfi_def_cfa_offset 8
 1478              		@ sp needed
 1479 0034 10BD     		pop	{r4, pc}
ARM GAS  C:\Users\samue\AppData\Local\Temp\ccm0rw4c.s 			page 46


 1480              	.LVL233:
 1481              	.L97:
 1482 0036 00BF     		.align	2
 1483              	.L96:
 1484 0038 14000000 		.word	.LC3
 1485 003c 70000000 		.word	.LC11
 1486              		.cfi_endproc
 1487              	.LFE99:
 1488              		.size	startLineFollowing, .-startLineFollowing
 1489              		.section	.text.moveToFinishLine,"ax",%progbits
 1490              		.align	2
 1491              		.global	moveToFinishLine
 1492              		.thumb
 1493              		.thumb_func
 1494              		.type	moveToFinishLine, %function
 1495              	moveToFinishLine:
 1496              	.LFB100:
 651:main.c        ****   motor_forward(50,0);
 1497              		.loc 1 651 0
 1498              		.cfi_startproc
 1499              		@ args = 0, pretend = 0, frame = 16
 1500              		@ frame_needed = 0, uses_anonymous_args = 0
 1501              	.LVL234:
 1502 0000 70B5     		push	{r4, r5, r6, lr}
 1503              		.cfi_def_cfa_offset 16
 1504              		.cfi_offset 4, -16
 1505              		.cfi_offset 5, -12
 1506              		.cfi_offset 6, -8
 1507              		.cfi_offset 14, -4
 1508 0002 84B0     		sub	sp, sp, #16
 1509              		.cfi_def_cfa_offset 32
 1510 0004 0646     		mov	r6, r0
 1511 0006 04A8     		add	r0, sp, #16
 1512              	.LVL235:
 1513 0008 00E90E00 		stmdb	r0, {r1, r2, r3}
 652:main.c        ****   while(overLine(dig)){};
 1514              		.loc 1 652 0
 1515 000c 0021     		movs	r1, #0
 1516 000e 3220     		movs	r0, #50
 1517 0010 FFF7FEFF 		bl	motor_forward
 1518              	.LVL236:
 1519              	.L99:
 653:main.c        ****   while(!overLine(dig)){};
 1520              		.loc 1 653 0 discriminator 1
 1521 0014 04AB     		add	r3, sp, #16
 1522 0016 13E90700 		ldmdb	r3, {r0, r1, r2}
 1523 001a FFF7FEFF 		bl	overLine
 1524              	.LVL237:
 1525 001e 0028     		cmp	r0, #0
 1526 0020 F8D1     		bne	.L99
 1527              	.L100:
 654:main.c        ****   TickType_t stop = xTaskGetTickCount();
 1528              		.loc 1 654 0 discriminator 1
 1529 0022 04AB     		add	r3, sp, #16
 1530 0024 13E90700 		ldmdb	r3, {r0, r1, r2}
 1531 0028 FFF7FEFF 		bl	overLine
 1532              	.LVL238:
ARM GAS  C:\Users\samue\AppData\Local\Temp\ccm0rw4c.s 			page 47


 1533 002c 0028     		cmp	r0, #0
 1534 002e F8D0     		beq	.L100
 655:main.c        ****   print_mqtt("Zumo035/stop","%d",stop);
 1535              		.loc 1 655 0
 1536 0030 FFF7FEFF 		bl	xTaskGetTickCount
 1537              	.LVL239:
 1538 0034 0546     		mov	r5, r0
 1539              	.LVL240:
 656:main.c        ****   motor_stop();
 1540              		.loc 1 656 0
 1541 0036 074C     		ldr	r4, .L102
 1542 0038 0246     		mov	r2, r0
 1543 003a 2146     		mov	r1, r4
 1544 003c 0648     		ldr	r0, .L102+4
 1545              	.LVL241:
 1546 003e FFF7FEFF 		bl	print_mqtt
 1547              	.LVL242:
 657:main.c        ****   print_mqtt("Zumo035/time","%d",stop-start);
 1548              		.loc 1 657 0
 1549 0042 FFF7FEFF 		bl	motor_stop
 1550              	.LVL243:
 658:main.c        **** }
 1551              		.loc 1 658 0
 1552 0046 AA1B     		subs	r2, r5, r6
 1553 0048 2146     		mov	r1, r4
 1554 004a 0448     		ldr	r0, .L102+8
 1555 004c FFF7FEFF 		bl	print_mqtt
 1556              	.LVL244:
 659:main.c        **** 
 1557              		.loc 1 659 0
 1558 0050 04B0     		add	sp, sp, #16
 1559              		.cfi_def_cfa_offset 16
 1560              		@ sp needed
 1561 0052 70BD     		pop	{r4, r5, r6, pc}
 1562              	.LVL245:
 1563              	.L103:
 1564              		.align	2
 1565              	.L102:
 1566 0054 14000000 		.word	.LC3
 1567 0058 18000000 		.word	.LC4
 1568 005c 28000000 		.word	.LC5
 1569              		.cfi_endproc
 1570              	.LFE100:
 1571              		.size	moveToFinishLine, .-moveToFinishLine
 1572              		.section	.text.rp_lineFollower,"ax",%progbits
 1573              		.align	2
 1574              		.global	rp_lineFollower
 1575              		.thumb
 1576              		.thumb_func
 1577              		.type	rp_lineFollower, %function
 1578              	rp_lineFollower:
 1579              	.LFB96:
 608:main.c        ****   struct sensors_ ref, dig;
 1580              		.loc 1 608 0
 1581              		.cfi_startproc
 1582              		@ args = 0, pretend = 0, frame = 24
 1583              		@ frame_needed = 0, uses_anonymous_args = 0
ARM GAS  C:\Users\samue\AppData\Local\Temp\ccm0rw4c.s 			page 48


 1584 0000 30B5     		push	{r4, r5, lr}
 1585              		.cfi_def_cfa_offset 12
 1586              		.cfi_offset 4, -12
 1587              		.cfi_offset 5, -8
 1588              		.cfi_offset 14, -4
 1589 0002 8BB0     		sub	sp, sp, #44
 1590              		.cfi_def_cfa_offset 56
 1591              	.LVL246:
 613:main.c        ****   moveToStartLineAndWait("line",dig);
 1592              		.loc 1 613 0
 1593 0004 144D     		ldr	r5, .L108
 1594 0006 2846     		mov	r0, r5
 1595 0008 FFF7FEFF 		bl	startComponents
 1596              	.LVL247:
 614:main.c        ****   start = startLineFollowing(dig);
 1597              		.loc 1 614 0
 1598 000c 04AC     		add	r4, sp, #16
 1599 000e 94E80E00 		ldmia	r4, {r1, r2, r3}
 1600 0012 2846     		mov	r0, r5
 1601 0014 FFF7FEFF 		bl	moveToStartLineAndWait
 1602              	.LVL248:
 615:main.c        ****   while(!overLine(dig)){
 1603              		.loc 1 615 0
 1604 0018 94E80700 		ldmia	r4, {r0, r1, r2}
 1605 001c FFF7FEFF 		bl	startLineFollowing
 1606              	.LVL249:
 1607 0020 0546     		mov	r5, r0
 1608              	.LVL250:
 611:main.c        **** 
 1609              		.loc 1 611 0
 1610 0022 0024     		movs	r4, #0
 616:main.c        ****     line = followLine(ref,dig,line);
 1611              		.loc 1 616 0
 1612 0024 0CE0     		b	.L105
 1613              	.LVL251:
 1614              	.L106:
 617:main.c        ****   }
 1615              		.loc 1 617 0
 1616 0026 0294     		str	r4, [sp, #8]
 1617 0028 05AB     		add	r3, sp, #20
 1618 002a 93E80300 		ldmia	r3, {r0, r1}
 1619 002e 8DE80300 		stmia	sp, {r0, r1}
 1620 0032 049B     		ldr	r3, [sp, #16]
 1621 0034 0AAA     		add	r2, sp, #40
 1622 0036 12E90700 		ldmdb	r2, {r0, r1, r2}
 1623 003a FFF7FEFF 		bl	followLine
 1624              	.LVL252:
 1625 003e 0446     		mov	r4, r0
 1626              	.LVL253:
 1627              	.L105:
 616:main.c        ****     line = followLine(ref,dig,line);
 1628              		.loc 1 616 0
 1629 0040 04AB     		add	r3, sp, #16
 1630 0042 93E80700 		ldmia	r3, {r0, r1, r2}
 1631 0046 FFF7FEFF 		bl	overLine
 1632              	.LVL254:
 1633 004a 0028     		cmp	r0, #0
ARM GAS  C:\Users\samue\AppData\Local\Temp\ccm0rw4c.s 			page 49


 1634 004c EBD0     		beq	.L106
 619:main.c        **** }
 1635              		.loc 1 619 0
 1636 004e 2846     		mov	r0, r5
 1637 0050 FFF7FEFF 		bl	moveToFinishLine
 1638              	.LVL255:
 620:main.c        **** 
 1639              		.loc 1 620 0
 1640 0054 0BB0     		add	sp, sp, #44
 1641              		.cfi_def_cfa_offset 12
 1642              		@ sp needed
 1643 0056 30BD     		pop	{r4, r5, pc}
 1644              	.LVL256:
 1645              	.L109:
 1646              		.align	2
 1647              	.L108:
 1648 0058 38000000 		.word	.LC6
 1649              		.cfi_endproc
 1650              	.LFE96:
 1651              		.size	rp_lineFollower, .-rp_lineFollower
 1652              		.section	.text.moveToNextIntersection,"ax",%progbits
 1653              		.align	2
 1654              		.global	moveToNextIntersection
 1655              		.thumb
 1656              		.thumb_func
 1657              		.type	moveToNextIntersection, %function
 1658              	moveToNextIntersection:
 1659              	.LFB103:
 881:main.c        **** 
 1660              		.loc 1 881 0
 1661              		.cfi_startproc
 1662              		@ args = 16, pretend = 8, frame = 16
 1663              		@ frame_needed = 0, uses_anonymous_args = 0
 1664 0000 82B0     		sub	sp, sp, #8
 1665              		.cfi_def_cfa_offset 8
 1666 0002 30B5     		push	{r4, r5, lr}
 1667              		.cfi_def_cfa_offset 20
 1668              		.cfi_offset 4, -20
 1669              		.cfi_offset 5, -16
 1670              		.cfi_offset 14, -12
 1671 0004 85B0     		sub	sp, sp, #20
 1672              		.cfi_def_cfa_offset 40
 1673 0006 04AC     		add	r4, sp, #16
 1674 0008 04E90700 		stmdb	r4, {r0, r1, r2}
 1675 000c 0993     		str	r3, [sp, #36]
 883:main.c        ****     while(true) {
 1676              		.loc 1 883 0
 1677 000e 4FF49671 		mov	r1, #300
 1678 0012 3220     		movs	r0, #50
 1679 0014 FFF7FEFF 		bl	motor_forward
 1680              	.LVL257:
 1681              	.L112:
 885:main.c        ****         reflectance_digital(&dig);
 1682              		.loc 1 885 0
 1683 0018 09AB     		add	r3, sp, #36
 1684 001a 93E80700 		ldmia	r3, {r0, r1, r2}
 1685 001e FFF7FEFF 		bl	followLine2
ARM GAS  C:\Users\samue\AppData\Local\Temp\ccm0rw4c.s 			page 50


 1686              	.LVL258:
 886:main.c        **** 
 1687              		.loc 1 886 0
 1688 0022 01A8     		add	r0, sp, #4
 1689 0024 FFF7FEFF 		bl	reflectance_digital
 1690              	.LVL259:
 888:main.c        ****            dig.l3&dig.l2&dig.l1&dig.r1 ||
 1691              		.loc 1 888 0
 1692 0028 BDF80410 		ldrh	r1, [sp, #4]
 1693 002c BDF80630 		ldrh	r3, [sp, #6]
 1694 0030 BDF80840 		ldrh	r4, [sp, #8]
 1695 0034 BDF80A20 		ldrh	r2, [sp, #10]
 1696 0038 0B40     		ands	r3, r3, r1
 1697 003a 2340     		ands	r3, r3, r4
 1698 003c 1340     		ands	r3, r3, r2
 1699 003e BDF80C00 		ldrh	r0, [sp, #12]
 1700 0042 BDF80E10 		ldrh	r1, [sp, #14]
 1701 0046 03EA0005 		and	r5, r3, r0
 1702 004a 2942     		tst	r1, r5
 1703 004c 04D1     		bne	.L111
 888:main.c        ****            dig.l3&dig.l2&dig.l1&dig.r1 ||
 1704              		.loc 1 888 0 is_stmt 0 discriminator 1
 1705 004e 1BB9     		cbnz	r3, .L111
 889:main.c        ****            dig.l1&dig.r1&dig.r2&dig.r3){
 1706              		.loc 1 889 0 is_stmt 1
 1707 0050 2240     		ands	r2, r2, r4
 1708 0052 0240     		ands	r2, r2, r0
 1709 0054 1142     		tst	r1, r2
 1710 0056 DFD0     		beq	.L112
 1711              	.L111:
 896:main.c        ****     motor_forward(50, 200);
 1712              		.loc 1 896 0 discriminator 1
 1713 0058 04AB     		add	r3, sp, #16
 1714 005a 13E90700 		ldmdb	r3, {r0, r1, r2}
 1715 005e FFF7FEFF 		bl	overLine
 1716              	.LVL260:
 1717 0062 0028     		cmp	r0, #0
 1718 0064 F8D1     		bne	.L111
 897:main.c        **** }
 1719              		.loc 1 897 0
 1720 0066 C821     		movs	r1, #200
 1721 0068 3220     		movs	r0, #50
 1722 006a FFF7FEFF 		bl	motor_forward
 1723              	.LVL261:
 898:main.c        **** 
 1724              		.loc 1 898 0
 1725 006e 05B0     		add	sp, sp, #20
 1726              		.cfi_def_cfa_offset 20
 1727              		@ sp needed
 1728 0070 BDE83040 		pop	{r4, r5, lr}
 1729              		.cfi_restore 14
 1730              		.cfi_restore 5
 1731              		.cfi_restore 4
 1732              		.cfi_def_cfa_offset 8
 1733 0074 02B0     		add	sp, sp, #8
 1734              		.cfi_def_cfa_offset 0
 1735 0076 7047     		bx	lr
ARM GAS  C:\Users\samue\AppData\Local\Temp\ccm0rw4c.s 			page 51


 1736              		.cfi_endproc
 1737              	.LFE103:
 1738              		.size	moveToNextIntersection, .-moveToNextIntersection
 1739              		.section	.text.moveToStartLine,"ax",%progbits
 1740              		.align	2
 1741              		.global	moveToStartLine
 1742              		.thumb
 1743              		.thumb_func
 1744              		.type	moveToStartLine, %function
 1745              	moveToStartLine:
 1746              	.LFB106:
 939:main.c        ****   while(SW1_Read()){};  // start only after button press
 1747              		.loc 1 939 0
 1748              		.cfi_startproc
 1749              		@ args = 0, pretend = 0, frame = 0
 1750              		@ frame_needed = 0, uses_anonymous_args = 0
 1751 0000 08B5     		push	{r3, lr}
 1752              		.cfi_def_cfa_offset 8
 1753              		.cfi_offset 3, -8
 1754              		.cfi_offset 14, -4
 1755              	.L115:
 940:main.c        ****   vTaskDelay(500);
 1756              		.loc 1 940 0 discriminator 1
 1757 0002 FFF7FEFF 		bl	SW1_Read
 1758              	.LVL262:
 1759 0006 0028     		cmp	r0, #0
 1760 0008 FBD1     		bne	.L115
 941:main.c        ****   motor_forward(50,0);
 1761              		.loc 1 941 0
 1762 000a 4FF4FA70 		mov	r0, #500
 1763 000e FFF7FEFF 		bl	vTaskDelay
 1764              	.LVL263:
 942:main.c        ****   while(!overLine()){}; // move to line and stop
 1765              		.loc 1 942 0
 1766 0012 0021     		movs	r1, #0
 1767 0014 3220     		movs	r0, #50
 1768 0016 FFF7FEFF 		bl	motor_forward
 1769              	.LVL264:
 1770              	.L116:
 943:main.c        ****   motor_stop();
 1771              		.loc 1 943 0 discriminator 1
 1772 001a FFF7FEFF 		bl	overLine
 1773              	.LVL265:
 1774 001e 0028     		cmp	r0, #0
 1775 0020 FBD0     		beq	.L116
 944:main.c        **** }
 1776              		.loc 1 944 0
 1777 0022 FFF7FEFF 		bl	motor_stop
 1778              	.LVL266:
 1779 0026 08BD     		pop	{r3, pc}
 1780              		.cfi_endproc
 1781              	.LFE106:
 1782              		.size	moveToStartLine, .-moveToStartLine
 1783              		.section	.text.moveToNextLine,"ax",%progbits
 1784              		.align	2
 1785              		.global	moveToNextLine
 1786              		.thumb
ARM GAS  C:\Users\samue\AppData\Local\Temp\ccm0rw4c.s 			page 52


 1787              		.thumb_func
 1788              		.type	moveToNextLine, %function
 1789              	moveToNextLine:
 1790              	.LFB107:
 948:main.c        ****   while(overLine(dig)){};
 1791              		.loc 1 948 0
 1792              		.cfi_startproc
 1793              		@ args = 0, pretend = 0, frame = 16
 1794              		@ frame_needed = 0, uses_anonymous_args = 0
 1795 0000 00B5     		push	{lr}
 1796              		.cfi_def_cfa_offset 4
 1797              		.cfi_offset 14, -4
 1798 0002 85B0     		sub	sp, sp, #20
 1799              		.cfi_def_cfa_offset 24
 1800 0004 04AB     		add	r3, sp, #16
 1801 0006 03E90700 		stmdb	r3, {r0, r1, r2}
 1802              	.L119:
 949:main.c        ****   while(!overLine(dig)){};
 1803              		.loc 1 949 0 discriminator 1
 1804 000a 04AB     		add	r3, sp, #16
 1805 000c 13E90700 		ldmdb	r3, {r0, r1, r2}
 1806 0010 FFF7FEFF 		bl	overLine
 1807              	.LVL267:
 1808 0014 0028     		cmp	r0, #0
 1809 0016 F8D1     		bne	.L119
 1810              	.L120:
 950:main.c        **** }
 1811              		.loc 1 950 0 discriminator 1
 1812 0018 04AB     		add	r3, sp, #16
 1813 001a 13E90700 		ldmdb	r3, {r0, r1, r2}
 1814 001e FFF7FEFF 		bl	overLine
 1815              	.LVL268:
 1816 0022 0028     		cmp	r0, #0
 1817 0024 F8D0     		beq	.L120
 951:main.c        **** 
 1818              		.loc 1 951 0
 1819 0026 05B0     		add	sp, sp, #20
 1820              		.cfi_def_cfa_offset 4
 1821              		@ sp needed
 1822 0028 5DF804FB 		ldr	pc, [sp], #4
 1823              		.cfi_endproc
 1824              	.LFE107:
 1825              		.size	moveToNextLine, .-moveToNextLine
 1826              		.section	.text.allSensorsBlack,"ax",%progbits
 1827              		.align	2
 1828              		.global	allSensorsBlack
 1829              		.thumb
 1830              		.thumb_func
 1831              		.type	allSensorsBlack, %function
 1832              	allSensorsBlack:
 1833              	.LFB112:
1059:main.c        **** 
1060:main.c        **** bool allSensorsBlack(struct sensors_ dig){
 1834              		.loc 1 1060 0
 1835              		.cfi_startproc
 1836              		@ args = 0, pretend = 0, frame = 16
 1837              		@ frame_needed = 0, uses_anonymous_args = 0
ARM GAS  C:\Users\samue\AppData\Local\Temp\ccm0rw4c.s 			page 53


 1838 0000 30B5     		push	{r4, r5, lr}
 1839              		.cfi_def_cfa_offset 12
 1840              		.cfi_offset 4, -12
 1841              		.cfi_offset 5, -8
 1842              		.cfi_offset 14, -4
 1843 0002 85B0     		sub	sp, sp, #20
 1844              		.cfi_def_cfa_offset 32
 1845 0004 01AB     		add	r3, sp, #4
 1846 0006 83E80700 		stmia	r3, {r0, r1, r2}
1061:main.c        ****   reflectance_digital(&dig);
 1847              		.loc 1 1061 0
 1848 000a 1846     		mov	r0, r3
 1849 000c FFF7FEFF 		bl	reflectance_digital
 1850              	.LVL269:
1062:main.c        ****   return dig.l3&dig.l2&dig.l1&dig.r1&dig.r2&dig.r3;
 1851              		.loc 1 1062 0
 1852 0010 BDF80420 		ldrh	r2, [sp, #4]
 1853 0014 BDF80610 		ldrh	r1, [sp, #6]
 1854 0018 BDF80830 		ldrh	r3, [sp, #8]
 1855 001c BDF80A50 		ldrh	r5, [sp, #10]
 1856 0020 BDF80C40 		ldrh	r4, [sp, #12]
 1857 0024 BDF80E00 		ldrh	r0, [sp, #14]
 1858 0028 0A40     		ands	r2, r2, r1
 1859 002a 1A40     		ands	r2, r2, r3
 1860 002c 05EA0203 		and	r3, r5, r2
 1861 0030 2340     		ands	r3, r3, r4
 1862 0032 1842     		tst	r0, r3
1063:main.c        **** }
 1863              		.loc 1 1063 0
 1864 0034 14BF     		ite	ne
 1865 0036 0120     		movne	r0, #1
 1866 0038 0020     		moveq	r0, #0
 1867 003a 05B0     		add	sp, sp, #20
 1868              		.cfi_def_cfa_offset 12
 1869              		@ sp needed
 1870 003c 30BD     		pop	{r4, r5, pc}
 1871              		.cfi_endproc
 1872              	.LFE112:
 1873              		.size	allSensorsBlack, .-allSensorsBlack
 1874 003e 00BF     		.section	.text.anySensorBlack,"ax",%progbits
 1875              		.align	2
 1876              		.global	anySensorBlack
 1877              		.thumb
 1878              		.thumb_func
 1879              		.type	anySensorBlack, %function
 1880              	anySensorBlack:
 1881              	.LFB113:
1064:main.c        **** 
1065:main.c        **** bool anySensorBlack(struct sensors_ dig){
 1882              		.loc 1 1065 0
 1883              		.cfi_startproc
 1884              		@ args = 0, pretend = 0, frame = 16
 1885              		@ frame_needed = 0, uses_anonymous_args = 0
 1886 0000 30B5     		push	{r4, r5, lr}
 1887              		.cfi_def_cfa_offset 12
 1888              		.cfi_offset 4, -12
 1889              		.cfi_offset 5, -8
ARM GAS  C:\Users\samue\AppData\Local\Temp\ccm0rw4c.s 			page 54


 1890              		.cfi_offset 14, -4
 1891 0002 85B0     		sub	sp, sp, #20
 1892              		.cfi_def_cfa_offset 32
 1893 0004 01AB     		add	r3, sp, #4
 1894 0006 83E80700 		stmia	r3, {r0, r1, r2}
1066:main.c        ****   reflectance_digital(&dig);
 1895              		.loc 1 1066 0
 1896 000a 1846     		mov	r0, r3
 1897 000c FFF7FEFF 		bl	reflectance_digital
 1898              	.LVL270:
1067:main.c        ****   return dig.l3|dig.l2|dig.l1|dig.r1|dig.r2|dig.r3;
 1899              		.loc 1 1067 0
 1900 0010 BDF80420 		ldrh	r2, [sp, #4]
 1901 0014 BDF80610 		ldrh	r1, [sp, #6]
 1902 0018 BDF80830 		ldrh	r3, [sp, #8]
 1903 001c BDF80A50 		ldrh	r5, [sp, #10]
 1904 0020 BDF80C40 		ldrh	r4, [sp, #12]
 1905 0024 BDF80E00 		ldrh	r0, [sp, #14]
 1906 0028 0A43     		orrs	r2, r2, r1
 1907 002a 1A43     		orrs	r2, r2, r3
 1908 002c 45EA0203 		orr	r3, r5, r2
 1909 0030 2343     		orrs	r3, r3, r4
 1910 0032 0343     		orrs	r3, r0, r3
1068:main.c        **** }
 1911              		.loc 1 1068 0
 1912 0034 14BF     		ite	ne
 1913 0036 0120     		movne	r0, #1
 1914 0038 0020     		moveq	r0, #0
 1915 003a 05B0     		add	sp, sp, #20
 1916              		.cfi_def_cfa_offset 12
 1917              		@ sp needed
 1918 003c 30BD     		pop	{r4, r5, pc}
 1919              		.cfi_endproc
 1920              	.LFE113:
 1921              		.size	anySensorBlack, .-anySensorBlack
 1922 003e 00BF     		.section	.text.blackSensors,"ax",%progbits
 1923              		.align	2
 1924              		.global	blackSensors
 1925              		.thumb
 1926              		.thumb_func
 1927              		.type	blackSensors, %function
 1928              	blackSensors:
 1929              	.LFB114:
1069:main.c        **** 
1070:main.c        **** int blackSensors(struct sensors_ dig){
 1930              		.loc 1 1070 0
 1931              		.cfi_startproc
 1932              		@ args = 0, pretend = 0, frame = 16
 1933              		@ frame_needed = 0, uses_anonymous_args = 0
 1934 0000 00B5     		push	{lr}
 1935              		.cfi_def_cfa_offset 4
 1936              		.cfi_offset 14, -4
 1937 0002 85B0     		sub	sp, sp, #20
 1938              		.cfi_def_cfa_offset 24
 1939 0004 01AB     		add	r3, sp, #4
 1940 0006 83E80700 		stmia	r3, {r0, r1, r2}
1071:main.c        ****   reflectance_digital(&dig);
ARM GAS  C:\Users\samue\AppData\Local\Temp\ccm0rw4c.s 			page 55


 1941              		.loc 1 1071 0
 1942 000a 1846     		mov	r0, r3
 1943 000c FFF7FEFF 		bl	reflectance_digital
 1944              	.LVL271:
1072:main.c        ****   return dig.l3+dig.l2+dig.l1+dig.r1+dig.r2+dig.r3;
 1945              		.loc 1 1072 0
 1946 0010 BDF80400 		ldrh	r0, [sp, #4]
 1947 0014 BDF80630 		ldrh	r3, [sp, #6]
 1948 0018 0344     		add	r3, r3, r0
 1949 001a BDF80800 		ldrh	r0, [sp, #8]
 1950 001e 0344     		add	r3, r3, r0
 1951 0020 BDF80A00 		ldrh	r0, [sp, #10]
 1952 0024 0344     		add	r3, r3, r0
 1953 0026 BDF80C00 		ldrh	r0, [sp, #12]
 1954 002a 0344     		add	r3, r3, r0
 1955 002c BDF80E00 		ldrh	r0, [sp, #14]
1073:main.c        **** }
 1956              		.loc 1 1073 0
 1957 0030 1844     		add	r0, r0, r3
 1958 0032 05B0     		add	sp, sp, #20
 1959              		.cfi_def_cfa_offset 4
 1960              		@ sp needed
 1961 0034 5DF804FB 		ldr	pc, [sp], #4
 1962              		.cfi_endproc
 1963              	.LFE114:
 1964              		.size	blackSensors, .-blackSensors
 1965              		.global	__aeabi_i2f
 1966              		.section	.text.ADCtoBatteryRatio,"ax",%progbits
 1967              		.align	2
 1968              		.global	ADCtoBatteryRatio
 1969              		.thumb
 1970              		.thumb_func
 1971              		.type	ADCtoBatteryRatio, %function
 1972              	ADCtoBatteryRatio:
 1973              	.LFB115:
1074:main.c        **** 
1075:main.c        **** /*///////////////////////////// OTHER FUNCTIONS \\\\\\\\\\\\\\\\\\\\\\\\\\\\\\*/
1076:main.c        **** 
1077:main.c        **** float ADCtoBatteryRatio(float R1,float R2,float V_ref,int ADC_res){
 1974              		.loc 1 1077 0
 1975              		.cfi_startproc
 1976              		@ args = 0, pretend = 0, frame = 0
 1977              		@ frame_needed = 0, uses_anonymous_args = 0
 1978              	.LVL272:
 1979 0000 70B5     		push	{r4, r5, r6, lr}
 1980              		.cfi_def_cfa_offset 16
 1981              		.cfi_offset 4, -16
 1982              		.cfi_offset 5, -12
 1983              		.cfi_offset 6, -8
 1984              		.cfi_offset 14, -4
 1985 0002 0C46     		mov	r4, r1
 1986 0004 1546     		mov	r5, r2
 1987 0006 1E46     		mov	r6, r3
1078:main.c        ****   /* Function that calculates ratio between ADC value and battery voltage
1079:main.c        ****   1 GENERAL EXPLANATION
1080:main.c        ****   1.1  Zumo robot has a analog-to-digital converter (ADC) that returns 12-bit
1081:main.c        ****        values. Values can be converted to voltage with following:
ARM GAS  C:\Users\samue\AppData\Local\Temp\ccm0rw4c.s 			page 56


1082:main.c        **** 
1083:main.c        ****          V_ADC = V_ref * (ADC_val / ((2 ^ ADC_res) - 1)
1084:main.c        **** 
1085:main.c        ****        ADC in the robot is unable to measure voltage of four AA-batteries
1086:main.c        ****        directly. To work around this, two resistors were set in the circuit,
1087:main.c        ****        one before and one after ADC:
1088:main.c        **** 
1089:main.c        ****                  +----------->-----------+
1090:main.c        ****                  |                       |
1091:main.c        ****                  |                      |_| R1
1092:main.c        ****              +   |                       |
1093:main.c        ****                -----                     |
1094:main.c        ****        Battery  ---                      +-----< Analog-to-digital converter
1095:main.c        ****                -----                     |
1096:main.c        ****                 ---                      |
1097:main.c        ****              -   |                      |_| R2
1098:main.c        ****                  |                       |
1099:main.c        ****                  |                       |
1100:main.c        ****                  +-----------------------+
1101:main.c        **** 
1102:main.c        ****        Now the battery voltage can be calculated with:
1103:main.c        **** 
1104:main.c        ****          V_bat = V_ADC / (R2 / (R1 + R2))
1105:main.c        **** 
1106:main.c        ****   2 PARAMETERS EXPLAINED
1107:main.c        ****   2.1 float R1 : Resistance of the resistor before ADC
1108:main.c        ****   2.2 float R2 : Resistance of the resistor after ADC
1109:main.c        ****   2.3 float V_ref : Reference voltage
1110:main.c        ****   2.4 int ADC_res : Resolution of ADC
1111:main.c        **** 
1112:main.c        ****   3 RETURN
1113:main.c        ****   3.1 Function returns a float value that is equal to the ratio between battery
1114:main.c        ****       voltage and ADC result. This value can be used to convert ADC value to
1115:main.c        ****       battery voltage by multiplying ADC value with it: ADC_val * ratio.
1116:main.c        **** 
1117:main.c        ****   4 FUNCTION CALL EXAMPLES
1118:main.c        ****   ADCtoBatteryRatio(5.0,10.0,5.0,12); // Use this for Zumo robot
1119:main.c        ****   ADCtoBatteryRatio(5.0,10.0,5.0,8);  // example with 8-bit ADC
1120:main.c        **** 
1121:main.c        ****   Parts of this explanation may be referenced with part number in parenthesis.
1122:main.c        ****   */
1123:main.c        **** 
1124:main.c        ****   float resistance = R2 / (R1 + R2);     // overall resistance
 1988              		.loc 1 1124 0
 1989 0008 FFF7FEFF 		bl	__aeabi_fadd
 1990              	.LVL273:
 1991 000c 0146     		mov	r1, r0
 1992 000e 2046     		mov	r0, r4
 1993 0010 FFF7FEFF 		bl	__aeabi_fdiv
 1994              	.LVL274:
 1995 0014 0446     		mov	r4, r0
 1996              	.LVL275:
1125:main.c        ****   float resolution = (1 << ADC_res) - 1; // (2^ADC_res)-1 with left-shift
 1997              		.loc 1 1125 0
 1998 0016 0120     		movs	r0, #1
 1999              	.LVL276:
 2000 0018 B040     		lsls	r0, r0, r6
ARM GAS  C:\Users\samue\AppData\Local\Temp\ccm0rw4c.s 			page 57


 2001 001a 0138     		subs	r0, r0, #1
 2002 001c FFF7FEFF 		bl	__aeabi_i2f
 2003              	.LVL277:
1126:main.c        **** 
1127:main.c        ****   return V_ref / resolution / resistance;
 2004              		.loc 1 1127 0
 2005 0020 0146     		mov	r1, r0
 2006 0022 2846     		mov	r0, r5
 2007              	.LVL278:
 2008 0024 FFF7FEFF 		bl	__aeabi_fdiv
 2009              	.LVL279:
 2010 0028 2146     		mov	r1, r4
 2011 002a FFF7FEFF 		bl	__aeabi_fdiv
 2012              	.LVL280:
1128:main.c        **** }
 2013              		.loc 1 1128 0
 2014 002e 70BD     		pop	{r4, r5, r6, pc}
 2015              		.cfi_endproc
 2016              	.LFE115:
 2017              		.size	ADCtoBatteryRatio, .-ADCtoBatteryRatio
 2018              		.section	.text.ledOnFor,"ax",%progbits
 2019              		.align	2
 2020              		.global	ledOnFor
 2021              		.thumb
 2022              		.thumb_func
 2023              		.type	ledOnFor, %function
 2024              	ledOnFor:
 2025              	.LFB116:
1129:main.c        **** 
1130:main.c        **** void ledOnFor(uint duration){
 2026              		.loc 1 1130 0
 2027              		.cfi_startproc
 2028              		@ args = 0, pretend = 0, frame = 0
 2029              		@ frame_needed = 0, uses_anonymous_args = 0
 2030              	.LVL281:
 2031 0000 10B5     		push	{r4, lr}
 2032              		.cfi_def_cfa_offset 8
 2033              		.cfi_offset 4, -8
 2034              		.cfi_offset 14, -4
 2035 0002 0446     		mov	r4, r0
1131:main.c        ****   /* Function that turns BatteryLed on for given amount of time.
1132:main.c        ****   1 GENERAL EXPLANATION
1133:main.c        ****   1.1  Zumo robot has a blue led light called BatteryLed here. There
1134:main.c        ****        is a built-in function called BatteryLed_Write that allows
1135:main.c        ****        code writer to turn the led on or off based on the input.
1136:main.c        ****        Inputs and corresponding actions for BatteryLed_Write are:
1137:main.c        ****   1.1.1  1 : turn the led on
1138:main.c        ****   1.1.2  0 : turn the led off
1139:main.c        ****   1.2  Zumo robot has a built in function called vTaskDelay that
1140:main.c        ****        pauses the robot's task for given amount of time. The function
1141:main.c        ****        has one input parameter and it'll set the duration of the delay
1142:main.c        ****        in milliseconds.
1143:main.c        ****   1.3  This function uses the functions explained in 1.1 and 1.2 to do
1144:main.c        ****        the following:
1145:main.c        ****          - Turn BatteryLed on.
1146:main.c        ****          - Wait for given amount of time.
1147:main.c        ****          - Turn BatteryLed off.
ARM GAS  C:\Users\samue\AppData\Local\Temp\ccm0rw4c.s 			page 58


1148:main.c        **** 
1149:main.c        ****   2 PARAMETERS EXPLAINED
1150:main.c        ****   2.1   uint duration : Amount of time in milliseconds to have the
1151:main.c        ****                         led turned on for.
1152:main.c        ****   2.1.1 duration example : 200
1153:main.c        **** 
1154:main.c        ****   3 LINKED FUNCTIONS
1155:main.c        ****   3.1 BatteryLed_Write(int);
1156:main.c        ****   3.2 vTaskDelay(int);
1157:main.c        **** 
1158:main.c        ****   4 FUNCTION CALL EXAMPLES
1159:main.c        ****     ledOnFor(400);
1160:main.c        ****     ledOnFor(60);
1161:main.c        **** 
1162:main.c        ****   Parts of this explanation may be referenced with part number in parenthesis.
1163:main.c        ****   */
1164:main.c        **** 
1165:main.c        ****   BatteryLed_Write(1);  // turn BatteryLed on (1.1.1)
 2036              		.loc 1 1165 0
 2037 0004 0120     		movs	r0, #1
 2038              	.LVL282:
 2039 0006 FFF7FEFF 		bl	BatteryLed_Write
 2040              	.LVL283:
1166:main.c        ****   vTaskDelay(duration); // wait for given amount of time (1.2)(2.1)
 2041              		.loc 1 1166 0
 2042 000a 2046     		mov	r0, r4
 2043 000c FFF7FEFF 		bl	vTaskDelay
 2044              	.LVL284:
1167:main.c        ****   BatteryLed_Write(0);  // turn BatteryLed off (1.1.2)
 2045              		.loc 1 1167 0
 2046 0010 0020     		movs	r0, #0
 2047 0012 FFF7FEFF 		bl	BatteryLed_Write
 2048              	.LVL285:
 2049 0016 10BD     		pop	{r4, pc}
 2050              		.cfi_endproc
 2051              	.LFE116:
 2052              		.size	ledOnFor, .-ledOnFor
 2053              		.section	.text.blinkMorse,"ax",%progbits
 2054              		.align	2
 2055              		.global	blinkMorse
 2056              		.thumb
 2057              		.thumb_func
 2058              		.type	blinkMorse, %function
 2059              	blinkMorse:
 2060              	.LFB117:
1168:main.c        **** }
1169:main.c        **** 
1170:main.c        **** void blinkMorse(char message[], uint timeUnit, uint repeats){
 2061              		.loc 1 1170 0
 2062              		.cfi_startproc
 2063              		@ args = 0, pretend = 0, frame = 0
 2064              		@ frame_needed = 0, uses_anonymous_args = 0
 2065              	.LVL286:
 2066 0000 2DE9F843 		push	{r3, r4, r5, r6, r7, r8, r9, lr}
 2067              		.cfi_def_cfa_offset 32
 2068              		.cfi_offset 3, -32
 2069              		.cfi_offset 4, -28
ARM GAS  C:\Users\samue\AppData\Local\Temp\ccm0rw4c.s 			page 59


 2070              		.cfi_offset 5, -24
 2071              		.cfi_offset 6, -20
 2072              		.cfi_offset 7, -16
 2073              		.cfi_offset 8, -12
 2074              		.cfi_offset 9, -8
 2075              		.cfi_offset 14, -4
 2076 0004 8146     		mov	r9, r0
 2077 0006 0F46     		mov	r7, r1
 2078 0008 9046     		mov	r8, r2
1171:main.c        ****   /* Function that blinks BatteryLed based on given message.
1172:main.c        **** 
1173:main.c        ****   1 GENERAL EXPLANATION:
1174:main.c        ****   1.1   Function follows ITU-R recommendation "ITU-R M.1677-1(10/2009)"
1175:main.c        ****         for International Morse code:
1176:main.c        ****   1.1.1   A dash is equal to three dots.
1177:main.c        ****   1.1.2   The space between the signals forming the same letter is equal to
1178:main.c        ****           one dot.
1179:main.c        ****   1.1.3   The space between two letters is equal to three dots.
1180:main.c        ****   1.1.4   The space between two words is equal to seven dots.
1181:main.c        ****   1.1.5   And: Dot is equal to one time unit.
1182:main.c        ****   1.2  Zumo robot has a built in function called vTaskDelay that
1183:main.c        ****        pauses the robot's task for given amount of time. The function
1184:main.c        ****        has one input parameter and it'll set the duration of the delay
1185:main.c        ****        in milliseconds. It is used to simulate what is defined in the
1186:main.c        ****        specification as explained in 1.1.2, 1.1.3 and 1.1.4.
1187:main.c        **** 
1188:main.c        ****   2 PARAMETERS EXPLAINED:
1189:main.c        ****   2.1     char msg[] : Message in Morse code.
1190:main.c        ****   2.1.1     Four different characters are treated as part of Morse code:
1191:main.c        ****   2.1.1.1     '.' : dot character represents short "dot"
1192:main.c        ****   2.1.1.2     '-' : dash character represents longer "dash"
1193:main.c        ****   2.1.1.3     ' ' : space represents end of character
1194:main.c        ****   2.1.1.4     '|' : pipe represents end of word
1195:main.c        ****   2.1.2     msg example: "-- --- .-. ... .|-.-. --- -.. ."
1196:main.c        ****   2.2     uint timeUnit : Length of dot in milliseconds.
1197:main.c        ****           Shouldn't be less than 250 milliseconds for visual-only
1198:main.c        ****           representation of Morse code because slightest eye movement and
1199:main.c        ****           blinking will lead in loss of data in receiving end. Audio-visual
1200:main.c        ****           and audio-only representation can often have dot length of 60ms.
1201:main.c        ****   2.2.1     timeUnit example: 500
1202:main.c        ****   2.3     uint repeats : Number of times to repeat the message.
1203:main.c        ****           hint: If math.h is included, INFINITY could be set for infinite loop
1204:main.c        ****   2.3.1     repeats example: 2
1205:main.c        **** 
1206:main.c        ****   3 LINKED FUNCTIONS:
1207:main.c        ****   3.1 ledOnFor(uint duration)
1208:main.c        ****   3.2 vTaskDelay(int duration)
1209:main.c        **** 
1210:main.c        ****   4 FUNCTION CALL EXAMPLES
1211:main.c        ****   blinkMorse("... --- ...",300,INFINITY); // #include <math.h> required
1212:main.c        ****   blinkMorse("-- --- .-. ... .|-.-. --- -.. .",500,1);
1213:main.c        **** 
1214:main.c        ****   Parts of this explanation may be referenced with part number in parenthesis.
1215:main.c        ****   */
1216:main.c        **** 
1217:main.c        ****   uint msgLen = strlen(message); // length of message
 2079              		.loc 1 1217 0
ARM GAS  C:\Users\samue\AppData\Local\Temp\ccm0rw4c.s 			page 60


 2080 000a FFF7FEFF 		bl	strlen
 2081              	.LVL287:
 2082 000e 0646     		mov	r6, r0
 2083              	.LVL288:
 2084              	.LBB2:
1218:main.c        ****   uint location = 0;             // keep track of location within message
1219:main.c        ****   uint gap = 0;                  // number of time units between signals
1220:main.c        **** 
1221:main.c        ****   for(uint i = 0;i<repeats * msgLen;i++){ // loop each character of each repeat
 2085              		.loc 1 1221 0
 2086 0010 0024     		movs	r4, #0
 2087 0012 29E0     		b	.L133
 2088              	.LVL289:
 2089              	.L141:
1222:main.c        ****     location = i % msgLen;      // modulo is needed to get location in message
 2090              		.loc 1 1222 0
 2091 0014 B4FBF6F5 		udiv	r5, r4, r6
 2092 0018 06FB1545 		mls	r5, r6, r5, r4
 2093              	.LVL290:
1223:main.c        ****     switch(message[location]){  // use current location's character as switch
 2094              		.loc 1 1223 0
 2095 001c 19F80530 		ldrb	r3, [r9, r5]	@ zero_extendqisi2
 2096 0020 2D2B     		cmp	r3, #45
 2097 0022 0FD0     		beq	.L135
 2098 0024 02D8     		bhi	.L136
 2099 0026 202B     		cmp	r3, #32
 2100 0028 05D0     		beq	.L137
 2101 002a 11E0     		b	.L134
 2102              	.L136:
 2103 002c 2E2B     		cmp	r3, #46
 2104 002e 04D0     		beq	.L138
 2105 0030 7C2B     		cmp	r3, #124
 2106 0032 0FD0     		beq	.L142
 2107 0034 0CE0     		b	.L134
 2108              	.L137:
1224:main.c        ****       case '.' :                // '.' represents dot in Morse code (2.1.1.1):
1225:main.c        ****         ledOnFor(timeUnit);     // -> turn led on for 1 time unit (1.1.5)
1226:main.c        ****         gap = 1;                // -> set gap to 1 time units (1.1.2)
1227:main.c        ****         break;
1228:main.c        ****       case '-' :                // '-' represents dash in Morse code (2.1.1.2):
1229:main.c        ****         ledOnFor(timeUnit * 3); // -> turn led on for 3 time units (1.1.1)
1230:main.c        ****         gap = 1;                // -> set gap to 1 time units (1.1.2)
1231:main.c        ****         break;
1232:main.c        ****       case ' ' :                // ' ' represents end of letter (2.1.1.3), so:
1233:main.c        ****         gap = 3;                // -> set gap to 3 time units (1.1.3)
 2109              		.loc 1 1233 0
 2110 0036 0320     		movs	r0, #3
 2111 0038 0DE0     		b	.L139
 2112              	.L138:
1225:main.c        ****         gap = 1;                // -> set gap to 1 time units (1.1.2)
 2113              		.loc 1 1225 0
 2114 003a 3846     		mov	r0, r7
 2115 003c FFF7FEFF 		bl	ledOnFor
 2116              	.LVL291:
1226:main.c        ****         break;
 2117              		.loc 1 1226 0
 2118 0040 0120     		movs	r0, #1
ARM GAS  C:\Users\samue\AppData\Local\Temp\ccm0rw4c.s 			page 61


1227:main.c        ****       case '-' :                // '-' represents dash in Morse code (2.1.1.2):
 2119              		.loc 1 1227 0
 2120 0042 08E0     		b	.L139
 2121              	.LVL292:
 2122              	.L135:
1229:main.c        ****         gap = 1;                // -> set gap to 1 time units (1.1.2)
 2123              		.loc 1 1229 0
 2124 0044 07EB4700 		add	r0, r7, r7, lsl #1
 2125 0048 FFF7FEFF 		bl	ledOnFor
 2126              	.LVL293:
1230:main.c        ****         break;
 2127              		.loc 1 1230 0
 2128 004c 0120     		movs	r0, #1
1231:main.c        ****       case ' ' :                // ' ' represents end of letter (2.1.1.3), so:
 2129              		.loc 1 1231 0
 2130 004e 02E0     		b	.L139
 2131              	.LVL294:
 2132              	.L134:
1234:main.c        ****         break;
1235:main.c        ****       case '|' :                // '|' represents end of word (2.1.1.4), so:
1236:main.c        ****         gap = 7;                // -> set gap to 7 time units (1.1.4)
1237:main.c        ****         break;
1238:main.c        ****       default :                 // if some other character than ".- |":
1239:main.c        ****         gap = 0;                // -> set gap to 0
 2133              		.loc 1 1239 0
 2134 0050 0020     		movs	r0, #0
1240:main.c        ****         break;
 2135              		.loc 1 1240 0
 2136 0052 00E0     		b	.L139
 2137              	.LVL295:
 2138              	.L142:
1236:main.c        ****         break;
 2139              		.loc 1 1236 0
 2140 0054 0720     		movs	r0, #7
 2141              	.L139:
 2142              	.LVL296:
1241:main.c        ****     }
1242:main.c        **** 
1243:main.c        ****     if(location == msgLen - 1){ // if end of message:
 2143              		.loc 1 1243 0
 2144 0056 731E     		subs	r3, r6, #1
 2145 0058 9D42     		cmp	r5, r3
 2146 005a 00D1     		bne	.L140
1244:main.c        ****       gap = 7;                  // set gap to same as end of word (1.1.4)
 2147              		.loc 1 1244 0
 2148 005c 0720     		movs	r0, #7
 2149              	.LVL297:
 2150              	.L140:
1245:main.c        ****     }
1246:main.c        **** 
1247:main.c        ****     vTaskDelay(timeUnit * gap); // wait for gap*timeUnit before next loop (1.2)
 2151              		.loc 1 1247 0 discriminator 2
 2152 005e 07FB00F0 		mul	r0, r7, r0
 2153              	.LVL298:
 2154 0062 FFF7FEFF 		bl	vTaskDelay
 2155              	.LVL299:
1221:main.c        ****     location = i % msgLen;      // modulo is needed to get location in message
ARM GAS  C:\Users\samue\AppData\Local\Temp\ccm0rw4c.s 			page 62


 2156              		.loc 1 1221 0 discriminator 2
 2157 0066 0134     		adds	r4, r4, #1
 2158              	.LVL300:
 2159              	.L133:
1221:main.c        ****     location = i % msgLen;      // modulo is needed to get location in message
 2160              		.loc 1 1221 0 is_stmt 0 discriminator 1
 2161 0068 08FB06F3 		mul	r3, r8, r6
 2162 006c 9C42     		cmp	r4, r3
 2163 006e D1D3     		bcc	.L141
 2164              	.LBE2:
1248:main.c        ****   }
1249:main.c        **** }
 2165              		.loc 1 1249 0 is_stmt 1
 2166 0070 BDE8F883 		pop	{r3, r4, r5, r6, r7, r8, r9, pc}
 2167              		.cfi_endproc
 2168              	.LFE117:
 2169              		.size	blinkMorse, .-blinkMorse
 2170              		.section	.text.playMusic,"ax",%progbits
 2171              		.align	2
 2172              		.global	playMusic
 2173              		.thumb
 2174              		.thumb_func
 2175              		.type	playMusic, %function
 2176              	playMusic:
 2177              	.LFB118:
1250:main.c        **** 
1251:main.c        **** void playMusic(){
 2178              		.loc 1 1251 0
 2179              		.cfi_startproc
 2180              		@ args = 0, pretend = 0, frame = 96
 2181              		@ frame_needed = 0, uses_anonymous_args = 0
 2182 0000 10B5     		push	{r4, lr}
 2183              		.cfi_def_cfa_offset 8
 2184              		.cfi_offset 4, -8
 2185              		.cfi_offset 14, -4
 2186 0002 98B0     		sub	sp, sp, #96
 2187              		.cfi_def_cfa_offset 104
1252:main.c        ****   int intNotes[] = {240,214,127,127,143,143,0,
 2188              		.loc 1 1252 0
 2189 0004 5C22     		movs	r2, #92
 2190 0006 0C49     		ldr	r1, .L149
 2191 0008 01A8     		add	r0, sp, #4
 2192 000a FFF7FEFF 		bl	memcpy
 2193              	.LVL301:
 2194              	.LBB3:
1253:main.c        ****                     191,180,107,107,120,120,0,
1254:main.c        ****                     180,160,95,95,120,120,160,160,160};
1255:main.c        ****   int delay = 100;
1256:main.c        ****   int size = sizeof(intNotes) / sizeof(int);
1257:main.c        ****   for(int i = 0;i<size;i++){
 2195              		.loc 1 1257 0
 2196 000e 0024     		movs	r4, #0
 2197 0010 0DE0     		b	.L146
 2198              	.LVL302:
 2199              	.L147:
1258:main.c        ****     Beep(delay,abs(intNotes[i]-255));
 2200              		.loc 1 1258 0 discriminator 3
ARM GAS  C:\Users\samue\AppData\Local\Temp\ccm0rw4c.s 			page 63


 2201 0012 18AB     		add	r3, sp, #96
 2202 0014 03EB8403 		add	r3, r3, r4, lsl #2
 2203 0018 53F85C1C 		ldr	r1, [r3, #-92]
 2204 001c FF39     		subs	r1, r1, #255
 2205 001e 0029     		cmp	r1, #0
 2206 0020 B8BF     		it	lt
 2207 0022 4942     		rsblt	r1, r1, #0
 2208 0024 C9B2     		uxtb	r1, r1
 2209 0026 6420     		movs	r0, #100
 2210 0028 FFF7FEFF 		bl	Beep
 2211              	.LVL303:
1257:main.c        ****     Beep(delay,abs(intNotes[i]-255));
 2212              		.loc 1 1257 0 discriminator 3
 2213 002c 0134     		adds	r4, r4, #1
 2214              	.LVL304:
 2215              	.L146:
1257:main.c        ****     Beep(delay,abs(intNotes[i]-255));
 2216              		.loc 1 1257 0 is_stmt 0 discriminator 1
 2217 002e 162C     		cmp	r4, #22
 2218 0030 EFDD     		ble	.L147
 2219              	.LBE3:
1259:main.c        ****   }
1260:main.c        **** }
 2220              		.loc 1 1260 0 is_stmt 1
 2221 0032 18B0     		add	sp, sp, #96
 2222              		.cfi_def_cfa_offset 8
 2223              		@ sp needed
 2224 0034 10BD     		pop	{r4, pc}
 2225              	.LVL305:
 2226              	.L150:
 2227 0036 00BF     		.align	2
 2228              	.L149:
 2229 0038 00000000 		.word	.LANCHOR0
 2230              		.cfi_endproc
 2231              	.LFE118:
 2232              		.size	playMusic, .-playMusic
 2233              		.section	.text.irTest,"ax",%progbits
 2234              		.align	2
 2235              		.global	irTest
 2236              		.thumb
 2237              		.thumb_func
 2238              		.type	irTest, %function
 2239              	irTest:
 2240              	.LFB119:
1261:main.c        **** /*
1262:main.c        **** bool overLine(struct sensors_ dig){
1263:main.c        ****   reflectance_digital(&dig); 
1264:main.c        ****   return dig.l3&dig.l2&dig.l1&dig.r1&dig.r2&dig.r3;
1265:main.c        **** }
1266:main.c        **** */
1267:main.c        **** 
1268:main.c        **** void irTest(){
 2241              		.loc 1 1268 0
 2242              		.cfi_startproc
 2243              		@ Volatile: function does not return.
 2244              		@ args = 0, pretend = 0, frame = 0
 2245              		@ frame_needed = 0, uses_anonymous_args = 0
ARM GAS  C:\Users\samue\AppData\Local\Temp\ccm0rw4c.s 			page 64


 2246 0000 08B5     		push	{r3, lr}
 2247              		.cfi_def_cfa_offset 8
 2248              		.cfi_offset 3, -8
 2249              		.cfi_offset 14, -4
1269:main.c        ****   IR_Start();
 2250              		.loc 1 1269 0
 2251 0002 FFF7FEFF 		bl	IR_Start
 2252              	.LVL306:
1270:main.c        ****   IR_flush();
 2253              		.loc 1 1270 0
 2254 0006 FFF7FEFF 		bl	IR_flush
 2255              	.LVL307:
 2256              	.L152:
1271:main.c        ****   while(true){
1272:main.c        ****     IR_wait();
 2257              		.loc 1 1272 0 discriminator 1
 2258 000a FFF7FEFF 		bl	IR_wait
 2259              	.LVL308:
1273:main.c        ****     printf("IR signal received\n");
 2260              		.loc 1 1273 0 discriminator 1
 2261 000e 0248     		ldr	r0, .L154
 2262 0010 FFF7FEFF 		bl	puts
 2263              	.LVL309:
 2264 0014 F9E7     		b	.L152
 2265              	.L155:
 2266 0016 00BF     		.align	2
 2267              	.L154:
 2268 0018 9C000000 		.word	.LC15
 2269              		.cfi_endproc
 2270              	.LFE119:
 2271              		.size	irTest, .-irTest
 2272              		.section	.text.refTest,"ax",%progbits
 2273              		.align	2
 2274              		.global	refTest
 2275              		.thumb
 2276              		.thumb_func
 2277              		.type	refTest, %function
 2278              	refTest:
 2279              	.LFB120:
1274:main.c        ****   }
1275:main.c        **** }
1276:main.c        **** 
1277:main.c        **** void refTest(){
 2280              		.loc 1 1277 0
 2281              		.cfi_startproc
 2282              		@ args = 0, pretend = 0, frame = 16
 2283              		@ frame_needed = 0, uses_anonymous_args = 0
 2284 0000 30B5     		push	{r4, r5, lr}
 2285              		.cfi_def_cfa_offset 12
 2286              		.cfi_offset 4, -12
 2287              		.cfi_offset 5, -8
 2288              		.cfi_offset 14, -4
 2289 0002 89B0     		sub	sp, sp, #36
 2290              		.cfi_def_cfa_offset 48
1278:main.c        ****  
1279:main.c        ****   struct sensors_ dig;
1280:main.c        ****     
ARM GAS  C:\Users\samue\AppData\Local\Temp\ccm0rw4c.s 			page 65


1281:main.c        ****   reflectance_start();
 2291              		.loc 1 1281 0
 2292 0004 FFF7FEFF 		bl	reflectance_start
 2293              	.LVL310:
1282:main.c        ****   reflectance_set_threshold(9000, 9000, 11000, 11000, 9000, 9000);
 2294              		.loc 1 1282 0
 2295 0008 42F22830 		movw	r0, #9000
 2296 000c 0190     		str	r0, [sp, #4]
 2297 000e 0090     		str	r0, [sp]
 2298 0010 42F6F823 		movw	r3, #11000
 2299 0014 1A46     		mov	r2, r3
 2300 0016 0146     		mov	r1, r0
 2301 0018 FFF7FEFF 		bl	reflectance_set_threshold
 2302              	.LVL311:
1283:main.c        ****   reflectance_digital(&dig);
 2303              		.loc 1 1283 0
 2304 001c 05A8     		add	r0, sp, #20
 2305 001e FFF7FEFF 		bl	reflectance_digital
 2306              	.LVL312:
 2307              	.L157:
1284:main.c        **** 
1285:main.c        ****   while(true){
1286:main.c        ****     reflectance_digital(&dig);
 2308              		.loc 1 1286 0 discriminator 1
 2309 0022 05A8     		add	r0, sp, #20
 2310 0024 FFF7FEFF 		bl	reflectance_digital
 2311              	.LVL313:
1287:main.c        ****     printf("%d,%d,%d,%d,%d,%d\n",dig.l3,dig.l2,dig.l1,dig.r1,dig.r2,dig.r3);
 2312              		.loc 1 1287 0 discriminator 1
 2313 0028 BDF81410 		ldrh	r1, [sp, #20]
 2314 002c BDF81620 		ldrh	r2, [sp, #22]
 2315 0030 BDF81830 		ldrh	r3, [sp, #24]
 2316 0034 BDF81A00 		ldrh	r0, [sp, #26]
 2317 0038 BDF81C40 		ldrh	r4, [sp, #28]
 2318 003c BDF81E50 		ldrh	r5, [sp, #30]
 2319 0040 0295     		str	r5, [sp, #8]
 2320 0042 0194     		str	r4, [sp, #4]
 2321 0044 0090     		str	r0, [sp]
 2322 0046 0248     		ldr	r0, .L159
 2323 0048 FFF7FEFF 		bl	printf
 2324              	.LVL314:
 2325 004c E9E7     		b	.L157
 2326              	.L160:
 2327 004e 00BF     		.align	2
 2328              	.L159:
 2329 0050 B0000000 		.word	.LC16
 2330              		.cfi_endproc
 2331              	.LFE120:
 2332              		.size	refTest, .-refTest
 2333              		.global	__aeabi_ui2f
 2334              		.global	__aeabi_fcmpgt
 2335              		.section	.text.accTest,"ax",%progbits
 2336              		.align	2
 2337              		.global	accTest
 2338              		.thumb
 2339              		.thumb_func
 2340              		.type	accTest, %function
ARM GAS  C:\Users\samue\AppData\Local\Temp\ccm0rw4c.s 			page 66


 2341              	accTest:
 2342              	.LFB121:
1288:main.c        ****   }
1289:main.c        **** }
1290:main.c        **** 
1291:main.c        **** void accTest(){
 2343              		.loc 1 1291 0
 2344              		.cfi_startproc
 2345              		@ args = 0, pretend = 0, frame = 8
 2346              		@ frame_needed = 0, uses_anonymous_args = 0
 2347 0000 F0B5     		push	{r4, r5, r6, r7, lr}
 2348              		.cfi_def_cfa_offset 20
 2349              		.cfi_offset 4, -20
 2350              		.cfi_offset 5, -16
 2351              		.cfi_offset 6, -12
 2352              		.cfi_offset 7, -8
 2353              		.cfi_offset 14, -4
 2354 0002 83B0     		sub	sp, sp, #12
 2355              		.cfi_def_cfa_offset 32
 2356              	.LVL315:
1292:main.c        ****   struct accData_ data;
1293:main.c        ****   float xAcc = 0;
1294:main.c        **** 
1295:main.c        ****   int loopNum = 0;
 2357              		.loc 1 1295 0
 2358 0004 0027     		movs	r7, #0
1293:main.c        **** 
 2359              		.loc 1 1293 0
 2360 0006 0024     		movs	r4, #0
 2361              	.LVL316:
 2362              	.L172:
1296:main.c        **** 
1297:main.c        ****   while(true){
1298:main.c        ****     LSM303D_Start();
 2363              		.loc 1 1298 0
 2364 0008 FFF7FEFF 		bl	LSM303D_Start
 2365              	.LVL317:
1299:main.c        ****     LSM303D_Read_Acc(&data);
 2366              		.loc 1 1299 0
 2367 000c 6846     		mov	r0, sp
 2368 000e FFF7FEFF 		bl	LSM303D_Read_Acc
 2369              	.LVL318:
1300:main.c        ****     
1301:main.c        ****     xAcc += data.accX;
 2370              		.loc 1 1301 0
 2371 0012 BDF90000 		ldrsh	r0, [sp]
 2372 0016 FFF7FEFF 		bl	__aeabi_i2f
 2373              	.LVL319:
 2374 001a 0146     		mov	r1, r0
 2375 001c 2046     		mov	r0, r4
 2376 001e FFF7FEFF 		bl	__aeabi_fadd
 2377              	.LVL320:
 2378 0022 0446     		mov	r4, r0
 2379              	.LVL321:
1302:main.c        ****     
1303:main.c        ****     if(loopNum%10 == 0){
 2380              		.loc 1 1303 0
ARM GAS  C:\Users\samue\AppData\Local\Temp\ccm0rw4c.s 			page 67


 2381 0024 214B     		ldr	r3, .L177
 2382 0026 83FB0732 		smull	r3, r2, r3, r7
 2383 002a FB17     		asrs	r3, r7, #31
 2384 002c C3EBA203 		rsb	r3, r3, r2, asr #2
 2385 0030 03EB8303 		add	r3, r3, r3, lsl #2
 2386 0034 5A00     		lsls	r2, r3, #1
 2387 0036 9742     		cmp	r7, r2
 2388 0038 35D1     		bne	.L162
1304:main.c        ****       
1305:main.c        ****       xAcc /= 10;
 2389              		.loc 1 1305 0
 2390 003a 1D49     		ldr	r1, .L177+4
 2391 003c FFF7FEFF 		bl	__aeabi_fdiv
 2392              	.LVL322:
 2393 0040 0646     		mov	r6, r0
 2394              	.LVL323:
 2395              	.LBB4:
1306:main.c        ****       for(uint i=40;i>0;i--){
 2396              		.loc 1 1306 0
 2397 0042 2824     		movs	r4, #40
 2398 0044 15E0     		b	.L163
 2399              	.LVL324:
 2400              	.L167:
1307:main.c        ****         if(-xAcc / 400 < i){
 2401              		.loc 1 1307 0
 2402 0046 06F10040 		add	r0, r6, #-2147483648
 2403 004a 1A49     		ldr	r1, .L177+8
 2404 004c FFF7FEFF 		bl	__aeabi_fdiv
 2405              	.LVL325:
 2406 0050 0546     		mov	r5, r0
 2407 0052 2046     		mov	r0, r4
 2408 0054 FFF7FEFF 		bl	__aeabi_ui2f
 2409              	.LVL326:
 2410 0058 0146     		mov	r1, r0
 2411 005a 2846     		mov	r0, r5
 2412 005c FFF7FEFF 		bl	__aeabi_fcmplt
 2413              	.LVL327:
 2414 0060 18B1     		cbz	r0, .L175
1308:main.c        ****           printf(" ");
 2415              		.loc 1 1308 0
 2416 0062 2020     		movs	r0, #32
 2417 0064 FFF7FEFF 		bl	putchar
 2418              	.LVL328:
 2419 0068 02E0     		b	.L166
 2420              	.L175:
1309:main.c        ****         } else {
1310:main.c        ****           printf("<");
 2421              		.loc 1 1310 0
 2422 006a 3C20     		movs	r0, #60
 2423 006c FFF7FEFF 		bl	putchar
 2424              	.LVL329:
 2425              	.L166:
1306:main.c        ****         if(-xAcc / 400 < i){
 2426              		.loc 1 1306 0 discriminator 2
 2427 0070 013C     		subs	r4, r4, #1
 2428              	.LVL330:
 2429              	.L163:
ARM GAS  C:\Users\samue\AppData\Local\Temp\ccm0rw4c.s 			page 68


1306:main.c        ****         if(-xAcc / 400 < i){
 2430              		.loc 1 1306 0 is_stmt 0 discriminator 1
 2431 0072 002C     		cmp	r4, #0
 2432 0074 E7D1     		bne	.L167
 2433 0076 10E0     		b	.L168
 2434              	.LVL331:
 2435              	.L171:
 2436              	.LBE4:
 2437              	.LBB5:
1311:main.c        ****         }
1312:main.c        ****       }
1313:main.c        ****     
1314:main.c        ****       for(uint i=0;i<40;i++){
1315:main.c        ****         if(xAcc / 400 > i){
 2438              		.loc 1 1315 0 is_stmt 1
 2439 0078 0E49     		ldr	r1, .L177+8
 2440 007a 3046     		mov	r0, r6
 2441 007c FFF7FEFF 		bl	__aeabi_fdiv
 2442              	.LVL332:
 2443 0080 0546     		mov	r5, r0
 2444 0082 2046     		mov	r0, r4
 2445 0084 FFF7FEFF 		bl	__aeabi_ui2f
 2446              	.LVL333:
 2447 0088 0146     		mov	r1, r0
 2448 008a 2846     		mov	r0, r5
 2449 008c FFF7FEFF 		bl	__aeabi_fcmpgt
 2450              	.LVL334:
 2451 0090 28B1     		cbz	r0, .L169
1316:main.c        ****           printf(">");
 2452              		.loc 1 1316 0 discriminator 2
 2453 0092 3E20     		movs	r0, #62
 2454 0094 FFF7FEFF 		bl	putchar
 2455              	.LVL335:
1314:main.c        ****         if(xAcc / 400 > i){
 2456              		.loc 1 1314 0 discriminator 2
 2457 0098 0134     		adds	r4, r4, #1
 2458              	.LVL336:
 2459              	.L168:
1314:main.c        ****         if(xAcc / 400 > i){
 2460              		.loc 1 1314 0 is_stmt 0 discriminator 1
 2461 009a 272C     		cmp	r4, #39
 2462 009c ECD9     		bls	.L171
 2463              	.L169:
 2464              	.LVL337:
 2465              	.LBE5:
1317:main.c        ****         } else {
1318:main.c        ****           break;
1319:main.c        ****         }
1320:main.c        ****       }
1321:main.c        ****       xAcc = 0;
1322:main.c        ****       printf("\n");
 2466              		.loc 1 1322 0 is_stmt 1
 2467 009e 0A20     		movs	r0, #10
 2468 00a0 FFF7FEFF 		bl	putchar
 2469              	.LVL338:
1321:main.c        ****       printf("\n");
 2470              		.loc 1 1321 0
ARM GAS  C:\Users\samue\AppData\Local\Temp\ccm0rw4c.s 			page 69


 2471 00a4 0024     		movs	r4, #0
 2472              	.LVL339:
 2473              	.L162:
1323:main.c        ****     }
1324:main.c        ****     loopNum++;
 2474              		.loc 1 1324 0
 2475 00a6 0137     		adds	r7, r7, #1
 2476              	.LVL340:
1325:main.c        ****   }
 2477              		.loc 1 1325 0
 2478 00a8 AEE7     		b	.L172
 2479              	.L178:
 2480 00aa 00BF     		.align	2
 2481              	.L177:
 2482 00ac 67666666 		.word	1717986919
 2483 00b0 00002041 		.word	1092616192
 2484 00b4 0000C843 		.word	1137180672
 2485              		.cfi_endproc
 2486              	.LFE121:
 2487              		.size	accTest, .-accTest
 2488              		.section	.text.mqttTest,"ax",%progbits
 2489              		.align	2
 2490              		.global	mqttTest
 2491              		.thumb
 2492              		.thumb_func
 2493              		.type	mqttTest, %function
 2494              	mqttTest:
 2495              	.LFB122:
1326:main.c        **** }
1327:main.c        **** 
1328:main.c        **** void mqttTest(){
 2496              		.loc 1 1328 0
 2497              		.cfi_startproc
 2498              		@ Volatile: function does not return.
 2499              		@ args = 0, pretend = 0, frame = 0
 2500              		@ frame_needed = 0, uses_anonymous_args = 0
 2501 0000 08B5     		push	{r3, lr}
 2502              		.cfi_def_cfa_offset 8
 2503              		.cfi_offset 3, -8
 2504              		.cfi_offset 14, -4
1329:main.c        ****   srand(time(0));  // initialize rand()
 2505              		.loc 1 1329 0
 2506 0002 0020     		movs	r0, #0
 2507 0004 FFF7FEFF 		bl	time
 2508              	.LVL341:
 2509 0008 FFF7FEFF 		bl	srand
 2510              	.LVL342:
 2511              	.L180:
1330:main.c        ****   while(true){
1331:main.c        ****     while(SW1_Read()){};
 2512              		.loc 1 1331 0 discriminator 1
 2513 000c FFF7FEFF 		bl	SW1_Read
 2514              	.LVL343:
 2515 0010 0028     		cmp	r0, #0
 2516 0012 FBD1     		bne	.L180
1332:main.c        ****     printf("Hello, world!,%d\n",rand()%2);// print to screen (PuTTy)
 2517              		.loc 1 1332 0
ARM GAS  C:\Users\samue\AppData\Local\Temp\ccm0rw4c.s 			page 70


 2518 0014 FFF7FEFF 		bl	rand
 2519              	.LVL344:
 2520 0018 0B49     		ldr	r1, .L185
 2521 001a 0140     		ands	r1, r0, r1
 2522 001c 03D5     		bpl	.L181
 2523 001e 0139     		subs	r1, r1, #1
 2524 0020 61F00101 		orn	r1, r1, #1
 2525 0024 0131     		adds	r1, r1, #1
 2526              	.L181:
 2527 0026 0948     		ldr	r0, .L185+4
 2528 0028 FFF7FEFF 		bl	printf
 2529              	.LVL345:
1333:main.c        ****     print_mqtt("Zumo035/output", "asd");// Send message to topic
 2530              		.loc 1 1333 0
 2531 002c 0849     		ldr	r1, .L185+8
 2532 002e 0948     		ldr	r0, .L185+12
 2533 0030 FFF7FEFF 		bl	print_mqtt
 2534              	.LVL346:
1334:main.c        ****     vTaskDelay(500);
 2535              		.loc 1 1334 0
 2536 0034 4FF4FA70 		mov	r0, #500
 2537 0038 FFF7FEFF 		bl	vTaskDelay
 2538              	.LVL347:
 2539              	.L182:
1335:main.c        ****     while(!SW1_Read()){};
 2540              		.loc 1 1335 0 discriminator 1
 2541 003c FFF7FEFF 		bl	SW1_Read
 2542              	.LVL348:
 2543 0040 0028     		cmp	r0, #0
 2544 0042 FBD0     		beq	.L182
 2545 0044 E2E7     		b	.L180
 2546              	.L186:
 2547 0046 00BF     		.align	2
 2548              	.L185:
 2549 0048 01000080 		.word	-2147483647
 2550 004c C4000000 		.word	.LC17
 2551 0050 D8000000 		.word	.LC18
 2552 0054 DC000000 		.word	.LC19
 2553              		.cfi_endproc
 2554              	.LFE122:
 2555              		.size	mqttTest, .-mqttTest
 2556              		.section	.text.turn90deg,"ax",%progbits
 2557              		.align	2
 2558              		.global	turn90deg
 2559              		.thumb
 2560              		.thumb_func
 2561              		.type	turn90deg, %function
 2562              	turn90deg:
 2563              	.LFB123:
1336:main.c        ****   }
1337:main.c        **** }
1338:main.c        **** 
1339:main.c        **** void turn90deg(int dir){ // 1 = turn right, 0 = turn left
 2564              		.loc 1 1339 0
 2565              		.cfi_startproc
 2566              		@ args = 0, pretend = 0, frame = 0
 2567              		@ frame_needed = 0, uses_anonymous_args = 0
ARM GAS  C:\Users\samue\AppData\Local\Temp\ccm0rw4c.s 			page 71


 2568              	.LVL349:
 2569 0000 10B5     		push	{r4, lr}
 2570              		.cfi_def_cfa_offset 8
 2571              		.cfi_offset 4, -8
 2572              		.cfi_offset 14, -4
 2573 0002 0446     		mov	r4, r0
 2574              	.LVL350:
1340:main.c        ****   int speed = 150;
1341:main.c        **** 
1342:main.c        ****   MotorDirLeft_Write(dir);
 2575              		.loc 1 1342 0
 2576 0004 C0B2     		uxtb	r0, r0
 2577              	.LVL351:
 2578 0006 FFF7FEFF 		bl	MotorDirLeft_Write
 2579              	.LVL352:
1343:main.c        ****   MotorDirRight_Write(!dir);
 2580              		.loc 1 1343 0
 2581 000a B4FA84F0 		clz	r0, r4
 2582 000e 4009     		lsrs	r0, r0, #5
 2583 0010 FFF7FEFF 		bl	MotorDirRight_Write
 2584              	.LVL353:
1344:main.c        **** 
1345:main.c        ****   PWM_WriteCompare1(speed);
 2585              		.loc 1 1345 0
 2586 0014 9620     		movs	r0, #150
 2587 0016 FFF7FEFF 		bl	PWM_WriteCompare1
 2588              	.LVL354:
1346:main.c        ****   PWM_WriteCompare2(speed);
 2589              		.loc 1 1346 0
 2590 001a 9620     		movs	r0, #150
 2591 001c FFF7FEFF 		bl	PWM_WriteCompare2
 2592              	.LVL355:
1347:main.c        **** 
1348:main.c        ****   vTaskDelay(300);
 2593              		.loc 1 1348 0
 2594 0020 4FF49670 		mov	r0, #300
 2595 0024 FFF7FEFF 		bl	vTaskDelay
 2596              	.LVL356:
 2597 0028 10BD     		pop	{r4, pc}
 2598              		.cfi_endproc
 2599              	.LFE123:
 2600              		.size	turn90deg, .-turn90deg
 2601 002a 00BF     		.section	.text.goToCenter,"ax",%progbits
 2602              		.align	2
 2603              		.global	goToCenter
 2604              		.thumb
 2605              		.thumb_func
 2606              		.type	goToCenter, %function
 2607              	goToCenter:
 2608              	.LFB87:
 388:main.c        ****     while(turnToCenter(ref)>100&&blackSensors(dig)>0&&blackSensors(dig)<6){};
 2609              		.loc 1 388 0
 2610              		.cfi_startproc
 2611              		@ args = 16, pretend = 8, frame = 16
 2612              		@ frame_needed = 0, uses_anonymous_args = 0
 2613 0000 82B0     		sub	sp, sp, #8
 2614              		.cfi_def_cfa_offset 8
ARM GAS  C:\Users\samue\AppData\Local\Temp\ccm0rw4c.s 			page 72


 2615 0002 00B5     		push	{lr}
 2616              		.cfi_def_cfa_offset 12
 2617              		.cfi_offset 14, -12
 2618 0004 85B0     		sub	sp, sp, #20
 2619              		.cfi_def_cfa_offset 32
 2620 0006 0DF1100E 		add	lr, sp, #16
 2621 000a 0EE90700 		stmdb	lr, {r0, r1, r2}
 2622 000e 0793     		str	r3, [sp, #28]
 2623              	.L192:
 389:main.c        ****     motor_backward(150,500);
 2624              		.loc 1 389 0 discriminator 3
 2625 0010 07AB     		add	r3, sp, #28
 2626 0012 93E80700 		ldmia	r3, {r0, r1, r2}
 2627 0016 FFF7FEFF 		bl	turnToCenter
 2628              	.LVL357:
 2629 001a 1349     		ldr	r1, .L195
 2630 001c FFF7FEFF 		bl	__aeabi_fcmpgt
 2631              	.LVL358:
 2632 0020 68B1     		cbz	r0, .L190
 389:main.c        ****     motor_backward(150,500);
 2633              		.loc 1 389 0 is_stmt 0 discriminator 1
 2634 0022 04AB     		add	r3, sp, #16
 2635 0024 13E90700 		ldmdb	r3, {r0, r1, r2}
 2636 0028 FFF7FEFF 		bl	blackSensors
 2637              	.LVL359:
 2638 002c 0028     		cmp	r0, #0
 2639 002e 06DD     		ble	.L190
 389:main.c        ****     motor_backward(150,500);
 2640              		.loc 1 389 0 discriminator 2
 2641 0030 04AB     		add	r3, sp, #16
 2642 0032 13E90700 		ldmdb	r3, {r0, r1, r2}
 2643 0036 FFF7FEFF 		bl	blackSensors
 2644              	.LVL360:
 2645 003a 0528     		cmp	r0, #5
 2646 003c E8DD     		ble	.L192
 2647              	.L190:
 390:main.c        ****     turn90deg(0);
 2648              		.loc 1 390 0 is_stmt 1
 2649 003e 4FF4FA71 		mov	r1, #500
 2650 0042 9620     		movs	r0, #150
 2651 0044 FFF7FEFF 		bl	motor_backward
 2652              	.LVL361:
 391:main.c        ****     turn90deg(0);
 2653              		.loc 1 391 0
 2654 0048 0020     		movs	r0, #0
 2655 004a FFF7FEFF 		bl	turn90deg
 2656              	.LVL362:
 392:main.c        ****     motor_forward(150,0);
 2657              		.loc 1 392 0
 2658 004e 0020     		movs	r0, #0
 2659 0050 FFF7FEFF 		bl	turn90deg
 2660              	.LVL363:
 393:main.c        **** }
 2661              		.loc 1 393 0
 2662 0054 0021     		movs	r1, #0
 2663 0056 9620     		movs	r0, #150
 2664 0058 FFF7FEFF 		bl	motor_forward
ARM GAS  C:\Users\samue\AppData\Local\Temp\ccm0rw4c.s 			page 73


 2665              	.LVL364:
 394:main.c        **** 
 2666              		.loc 1 394 0
 2667 005c 05B0     		add	sp, sp, #20
 2668              		.cfi_def_cfa_offset 12
 2669              		@ sp needed
 2670 005e 5DF804EB 		ldr	lr, [sp], #4
 2671              		.cfi_restore 14
 2672              		.cfi_def_cfa_offset 8
 2673 0062 02B0     		add	sp, sp, #8
 2674              		.cfi_def_cfa_offset 0
 2675 0064 7047     		bx	lr
 2676              	.L196:
 2677 0066 00BF     		.align	2
 2678              	.L195:
 2679 0068 0000C842 		.word	1120403456
 2680              		.cfi_endproc
 2681              	.LFE87:
 2682              		.size	goToCenter, .-goToCenter
 2683              		.section	.text.goToCenter2,"ax",%progbits
 2684              		.align	2
 2685              		.global	goToCenter2
 2686              		.thumb
 2687              		.thumb_func
 2688              		.type	goToCenter2, %function
 2689              	goToCenter2:
 2690              	.LFB89:
 412:main.c        ****   struct sensors_ ref, dig;
 2691              		.loc 1 412 0
 2692              		.cfi_startproc
 2693              		@ args = 0, pretend = 0, frame = 24
 2694              		@ frame_needed = 0, uses_anonymous_args = 0
 2695 0000 30B5     		push	{r4, r5, lr}
 2696              		.cfi_def_cfa_offset 12
 2697              		.cfi_offset 4, -12
 2698              		.cfi_offset 5, -8
 2699              		.cfi_offset 14, -4
 2700 0002 87B0     		sub	sp, sp, #28
 2701              		.cfi_def_cfa_offset 40
 414:main.c        ****   IR_wait();
 2702              		.loc 1 414 0
 2703 0004 2348     		ldr	r0, .L206
 2704 0006 FFF7FEFF 		bl	startComponents
 2705              	.LVL365:
 415:main.c        ****   while(true){
 2706              		.loc 1 415 0
 2707 000a FFF7FEFF 		bl	IR_wait
 2708              	.LVL366:
 2709              	.L203:
 417:main.c        ****     reflectance_digital(&dig);
 2710              		.loc 1 417 0
 2711 000e 0021     		movs	r1, #0
 2712 0010 9620     		movs	r0, #150
 2713 0012 FFF7FEFF 		bl	motor_forward
 2714              	.LVL367:
 418:main.c        ****     while(!(dig.l3|dig.l2|dig.l1|dig.r1|dig.r2|dig.r3)){
 2715              		.loc 1 418 0
ARM GAS  C:\Users\samue\AppData\Local\Temp\ccm0rw4c.s 			page 74


 2716 0016 6846     		mov	r0, sp
 2717 0018 FFF7FEFF 		bl	reflectance_digital
 2718              	.LVL368:
 419:main.c        ****       reflectance_digital(&dig);
 2719              		.loc 1 419 0
 2720 001c 02E0     		b	.L198
 2721              	.L199:
 420:main.c        ****     };
 2722              		.loc 1 420 0
 2723 001e 6846     		mov	r0, sp
 2724 0020 FFF7FEFF 		bl	reflectance_digital
 2725              	.LVL369:
 2726              	.L198:
 419:main.c        ****       reflectance_digital(&dig);
 2727              		.loc 1 419 0
 2728 0024 BDF80020 		ldrh	r2, [sp]
 2729 0028 BDF80210 		ldrh	r1, [sp, #2]
 2730 002c BDF80430 		ldrh	r3, [sp, #4]
 2731 0030 BDF80650 		ldrh	r5, [sp, #6]
 2732 0034 BDF80840 		ldrh	r4, [sp, #8]
 2733 0038 BDF80A00 		ldrh	r0, [sp, #10]
 2734 003c 0A43     		orrs	r2, r2, r1
 2735 003e 1A43     		orrs	r2, r2, r3
 2736 0040 45EA0203 		orr	r3, r5, r2
 2737 0044 2343     		orrs	r3, r3, r4
 2738 0046 0343     		orrs	r3, r0, r3
 2739 0048 E9D0     		beq	.L199
 2740              	.L202:
 422:main.c        ****     motor_backward(150,500);
 2741              		.loc 1 422 0 discriminator 3
 2742 004a 06AB     		add	r3, sp, #24
 2743 004c 13E90700 		ldmdb	r3, {r0, r1, r2}
 2744 0050 FFF7FEFF 		bl	turnToCenter
 2745              	.LVL370:
 2746 0054 1049     		ldr	r1, .L206+4
 2747 0056 FFF7FEFF 		bl	__aeabi_fcmpgt
 2748              	.LVL371:
 2749 005a 58B1     		cbz	r0, .L200
 422:main.c        ****     motor_backward(150,500);
 2750              		.loc 1 422 0 is_stmt 0 discriminator 1
 2751 005c 9DE80700 		ldmia	sp, {r0, r1, r2}
 2752 0060 FFF7FEFF 		bl	blackSensors
 2753              	.LVL372:
 2754 0064 0028     		cmp	r0, #0
 2755 0066 05DD     		ble	.L200
 422:main.c        ****     motor_backward(150,500);
 2756              		.loc 1 422 0 discriminator 2
 2757 0068 9DE80700 		ldmia	sp, {r0, r1, r2}
 2758 006c FFF7FEFF 		bl	blackSensors
 2759              	.LVL373:
 2760 0070 0528     		cmp	r0, #5
 2761 0072 EADD     		ble	.L202
 2762              	.L200:
 423:main.c        ****     turn90deg(0);
 2763              		.loc 1 423 0 is_stmt 1
 2764 0074 4FF4FA71 		mov	r1, #500
 2765 0078 9620     		movs	r0, #150
ARM GAS  C:\Users\samue\AppData\Local\Temp\ccm0rw4c.s 			page 75


 2766 007a FFF7FEFF 		bl	motor_backward
 2767              	.LVL374:
 424:main.c        ****     turn90deg(0);
 2768              		.loc 1 424 0
 2769 007e 0020     		movs	r0, #0
 2770 0080 FFF7FEFF 		bl	turn90deg
 2771              	.LVL375:
 425:main.c        ****     motor_forward(150,0);
 2772              		.loc 1 425 0
 2773 0084 0020     		movs	r0, #0
 2774 0086 FFF7FEFF 		bl	turn90deg
 2775              	.LVL376:
 426:main.c        ****   }
 2776              		.loc 1 426 0
 2777 008a 0021     		movs	r1, #0
 2778 008c 9620     		movs	r0, #150
 2779 008e FFF7FEFF 		bl	motor_forward
 2780              	.LVL377:
 427:main.c        **** }
 2781              		.loc 1 427 0
 2782 0092 BCE7     		b	.L203
 2783              	.L207:
 2784              		.align	2
 2785              	.L206:
 2786 0094 EC000000 		.word	.LC20
 2787 0098 0000C842 		.word	1120403456
 2788              		.cfi_endproc
 2789              	.LFE89:
 2790              		.size	goToCenter2, .-goToCenter2
 2791              		.section	.text.mazeSolver2000,"ax",%progbits
 2792              		.align	2
 2793              		.global	mazeSolver2000
 2794              		.thumb
 2795              		.thumb_func
 2796              		.type	mazeSolver2000, %function
 2797              	mazeSolver2000:
 2798              	.LFB102:
 823:main.c        ****     
 2799              		.loc 1 823 0
 2800              		.cfi_startproc
 2801              		@ args = 0, pretend = 0, frame = 16
 2802              		@ frame_needed = 0, uses_anonymous_args = 0
 2803 0000 2DE9F041 		push	{r4, r5, r6, r7, r8, lr}
 2804              		.cfi_def_cfa_offset 24
 2805              		.cfi_offset 4, -24
 2806              		.cfi_offset 5, -20
 2807              		.cfi_offset 6, -16
 2808              		.cfi_offset 7, -12
 2809              		.cfi_offset 8, -8
 2810              		.cfi_offset 14, -4
 2811 0004 84B0     		sub	sp, sp, #16
 2812              		.cfi_def_cfa_offset 40
 2813 0006 04AB     		add	r3, sp, #16
 2814 0008 03E90700 		stmdb	r3, {r0, r1, r2}
 2815              	.LVL378:
 828:main.c        ****     
 2816              		.loc 1 828 0
ARM GAS  C:\Users\samue\AppData\Local\Temp\ccm0rw4c.s 			page 76


 2817 000c 42F21078 		movw	r8, #10000
 827:main.c        ****     int width = 10000;
 2818              		.loc 1 827 0
 2819 0010 4FF0FF36 		mov	r6, #-1
 826:main.c        ****     int y = -1;
 2820              		.loc 1 826 0
 2821 0014 0027     		movs	r7, #0
 825:main.c        ****     int x = 0;
 2822              		.loc 1 825 0
 2823 0016 4546     		mov	r5, r8
 2824              	.LVL379:
 2825              	.L225:
 2826              	.LBB6:
 834:main.c        ****             reflectance_digital(&dig);
 2827              		.loc 1 834 0
 2828 0018 0024     		movs	r4, #0
 2829 001a 62E0     		b	.L209
 2830              	.LVL380:
 2831              	.L224:
 835:main.c        ****             if(Ultra_GetDistance()<15 || !(dig.l3 | dig.l2 | dig.l1 | dig.r1 | dig.r2 | dig.r3)) {
 2832              		.loc 1 835 0
 2833 001c 01A8     		add	r0, sp, #4
 2834 001e FFF7FEFF 		bl	reflectance_digital
 2835              	.LVL381:
 836:main.c        ****                 motor_forward(0,0);
 2836              		.loc 1 836 0
 2837 0022 FFF7FEFF 		bl	Ultra_GetDistance
 2838              	.LVL382:
 2839 0026 0E28     		cmp	r0, #14
 2840 0028 13DD     		ble	.L210
 836:main.c        ****                 motor_forward(0,0);
 2841              		.loc 1 836 0 is_stmt 0 discriminator 1
 2842 002a BDF80420 		ldrh	r2, [sp, #4]
 2843 002e BDF80610 		ldrh	r1, [sp, #6]
 2844 0032 BDF80830 		ldrh	r3, [sp, #8]
 2845 0036 BDF80AC0 		ldrh	ip, [sp, #10]
 2846 003a BDF80CE0 		ldrh	lr, [sp, #12]
 2847 003e BDF80E00 		ldrh	r0, [sp, #14]
 2848 0042 0A43     		orrs	r2, r2, r1
 2849 0044 1A43     		orrs	r2, r2, r3
 2850 0046 4CEA0203 		orr	r3, ip, r2
 2851 004a 4EEA0303 		orr	r3, lr, r3
 2852 004e 0343     		orrs	r3, r0, r3
 2853 0050 0BD1     		bne	.L211
 2854              	.L210:
 837:main.c        ****                 vTaskDelay(250);
 2855              		.loc 1 837 0 is_stmt 1
 2856 0052 0021     		movs	r1, #0
 2857 0054 0846     		mov	r0, r1
 2858 0056 FFF7FEFF 		bl	motor_forward
 2859              	.LVL383:
 838:main.c        ****                 turn90deg(1);
 2860              		.loc 1 838 0
 2861 005a FA20     		movs	r0, #250
 2862 005c FFF7FEFF 		bl	vTaskDelay
 2863              	.LVL384:
 839:main.c        ****                 direction--;
ARM GAS  C:\Users\samue\AppData\Local\Temp\ccm0rw4c.s 			page 77


 2864              		.loc 1 839 0
 2865 0060 0120     		movs	r0, #1
 2866 0062 FFF7FEFF 		bl	turn90deg
 2867              	.LVL385:
 840:main.c        ****             } else {
 2868              		.loc 1 840 0
 2869 0066 013D     		subs	r5, r5, #1
 2870              	.LVL386:
 2871 0068 3AE0     		b	.L212
 2872              	.L211:
 842:main.c        ****             case 0: 
 2873              		.loc 1 842 0
 2874 006a 224B     		ldr	r3, .L229
 2875 006c 2B40     		ands	r3, r5, r3
 2876 006e 03D5     		bpl	.L213
 2877 0070 013B     		subs	r3, r3, #1
 2878 0072 63F00303 		orn	r3, r3, #3
 2879 0076 0133     		adds	r3, r3, #1
 2880              	.L213:
 2881 0078 012B     		cmp	r3, #1
 2882 007a 04D0     		beq	.L215
 2883 007c 022B     		cmp	r3, #2
 2884 007e 04D0     		beq	.L216
 2885 0080 2BB9     		cbnz	r3, .L227
 844:main.c        ****                 break;
 2886              		.loc 1 844 0
 2887 0082 0136     		adds	r6, r6, #1
 2888              	.LVL387:
 845:main.c        ****     
 2889              		.loc 1 845 0
 2890 0084 04E0     		b	.L218
 2891              	.L215:
 848:main.c        ****                 break;
 2892              		.loc 1 848 0
 2893 0086 0137     		adds	r7, r7, #1
 2894              	.LVL388:
 849:main.c        ****             
 2895              		.loc 1 849 0
 2896 0088 02E0     		b	.L218
 2897              	.L216:
 852:main.c        ****                 break;
 2898              		.loc 1 852 0
 2899 008a 013E     		subs	r6, r6, #1
 2900              	.LVL389:
 853:main.c        ****             
 2901              		.loc 1 853 0
 2902 008c 00E0     		b	.L218
 2903              	.L227:
 856:main.c        ****         }
 2904              		.loc 1 856 0
 2905 008e 013F     		subs	r7, r7, #1
 2906              	.LVL390:
 2907              	.L218:
 858:main.c        ****                 if (y==1 && width == 10000) {
 2908              		.loc 1 858 0
 2909 0090 04AB     		add	r3, sp, #16
 2910 0092 13E90700 		ldmdb	r3, {r0, r1, r2}
ARM GAS  C:\Users\samue\AppData\Local\Temp\ccm0rw4c.s 			page 78


 2911 0096 FFF7FEFF 		bl	moveToNextIntersection
 2912              	.LVL391:
 859:main.c        ****                     width=x;
 2913              		.loc 1 859 0
 2914 009a 012E     		cmp	r6, #1
 2915 009c 04D1     		bne	.L219
 859:main.c        ****                     width=x;
 2916              		.loc 1 859 0 is_stmt 0 discriminator 1
 2917 009e 42F21073 		movw	r3, #10000
 2918 00a2 9845     		cmp	r8, r3
 2919 00a4 00D1     		bne	.L219
 860:main.c        ****                 }
 2920              		.loc 1 860 0 is_stmt 1
 2921 00a6 B846     		mov	r8, r7
 2922              	.LVL392:
 2923              	.L219:
 863:main.c        ****                 
 2924              		.loc 1 863 0
 2925 00a8 C820     		movs	r0, #200
 2926 00aa FFF7FEFF 		bl	vTaskDelay
 2927              	.LVL393:
 865:main.c        ****                     
 2928              		.loc 1 865 0
 2929 00ae 16B9     		cbnz	r6, .L220
 865:main.c        ****                     
 2930              		.loc 1 865 0 is_stmt 0 discriminator 2
 2931 00b0 15F0030F 		tst	r5, #3
 2932 00b4 01D1     		bne	.L221
 2933              	.L220:
 865:main.c        ****                     
 2934              		.loc 1 865 0 discriminator 3
 2935 00b6 4745     		cmp	r7, r8
 2936 00b8 09D1     		bne	.L222
 2937              	.L221:
 865:main.c        ****                     
 2938              		.loc 1 865 0 discriminator 5
 2939 00ba 04AB     		add	r3, sp, #16
 2940 00bc 13E90700 		ldmdb	r3, {r0, r1, r2}
 2941 00c0 FFF7FEFF 		bl	blackSensors
 2942              	.LVL394:
 2943 00c4 0028     		cmp	r0, #0
 2944 00c6 06DC     		bgt	.L223
 865:main.c        ****                     
 2945              		.loc 1 865 0 discriminator 6
 2946 00c8 15F0030F 		tst	r5, #3
 2947 00cc 03D1     		bne	.L223
 2948              	.L222:
 867:main.c        ****                     direction++;
 2949              		.loc 1 867 0 is_stmt 1
 2950 00ce 0020     		movs	r0, #0
 2951 00d0 FFF7FEFF 		bl	turn90deg
 2952              	.LVL395:
 868:main.c        ****                 }
 2953              		.loc 1 868 0
 2954 00d4 0135     		adds	r5, r5, #1
 2955              	.LVL396:
 2956              	.L223:
ARM GAS  C:\Users\samue\AppData\Local\Temp\ccm0rw4c.s 			page 79


 874:main.c        ****             }
 2957              		.loc 1 874 0
 2958 00d6 4FF49671 		mov	r1, #300
 2959 00da 0020     		movs	r0, #0
 2960 00dc FFF7FEFF 		bl	motor_forward
 2961              	.LVL397:
 2962              	.L212:
 834:main.c        ****             reflectance_digital(&dig);
 2963              		.loc 1 834 0 discriminator 2
 2964 00e0 0134     		adds	r4, r4, #1
 2965              	.LVL398:
 2966              	.L209:
 834:main.c        ****             reflectance_digital(&dig);
 2967              		.loc 1 834 0 is_stmt 0 discriminator 1
 2968 00e2 022C     		cmp	r4, #2
 2969 00e4 9ADD     		ble	.L224
 2970              	.LBE6:
 877:main.c        ****        
 2971              		.loc 1 877 0 is_stmt 1
 2972 00e6 3346     		mov	r3, r6
 2973 00e8 3A46     		mov	r2, r7
 2974 00ea 0349     		ldr	r1, .L229+4
 2975 00ec 0348     		ldr	r0, .L229+8
 2976 00ee FFF7FEFF 		bl	print_mqtt
 2977              	.LVL399:
 879:main.c        **** }
 2978              		.loc 1 879 0
 2979 00f2 91E7     		b	.L225
 2980              	.L230:
 2981              		.align	2
 2982              	.L229:
 2983 00f4 03000080 		.word	-2147483645
 2984 00f8 F4000000 		.word	.LC21
 2985 00fc 00010000 		.word	.LC22
 2986              		.cfi_endproc
 2987              	.LFE102:
 2988              		.size	mazeSolver2000, .-mazeSolver2000
 2989              		.section	.text.mazeMain,"ax",%progbits
 2990              		.align	2
 2991              		.global	mazeMain
 2992              		.thumb
 2993              		.thumb_func
 2994              		.type	mazeMain, %function
 2995              	mazeMain:
 2996              	.LFB101:
 771:main.c        ****     struct sensors_ ref, dig;
 2997              		.loc 1 771 0
 2998              		.cfi_startproc
 2999              		@ args = 0, pretend = 0, frame = 16
 3000              		@ frame_needed = 0, uses_anonymous_args = 0
 3001 0000 10B5     		push	{r4, lr}
 3002              		.cfi_def_cfa_offset 8
 3003              		.cfi_offset 4, -8
 3004              		.cfi_offset 14, -4
 3005 0002 84B0     		sub	sp, sp, #16
 3006              		.cfi_def_cfa_offset 24
 773:main.c        ****     moveToStartLineAndWait("zumo", dig);
ARM GAS  C:\Users\samue\AppData\Local\Temp\ccm0rw4c.s 			page 80


 3007              		.loc 1 773 0
 3008 0004 054C     		ldr	r4, .L233
 3009 0006 2046     		mov	r0, r4
 3010 0008 FFF7FEFF 		bl	startComponents
 3011              	.LVL400:
 774:main.c        ****     mazeSolver2000();
 3012              		.loc 1 774 0
 3013 000c 04AB     		add	r3, sp, #16
 3014 000e 13E90E00 		ldmdb	r3, {r1, r2, r3}
 3015 0012 2046     		mov	r0, r4
 3016 0014 FFF7FEFF 		bl	moveToStartLineAndWait
 3017              	.LVL401:
 775:main.c        ****     //stopAndReport();
 3018              		.loc 1 775 0
 3019 0018 FFF7FEFF 		bl	mazeSolver2000
 3020              	.LVL402:
 3021              	.L234:
 3022              		.align	2
 3023              	.L233:
 3024 001c EC000000 		.word	.LC20
 3025              		.cfi_endproc
 3026              	.LFE101:
 3027              		.size	mazeMain, .-mazeMain
 3028              		.section	.text.decideMazeTurn,"ax",%progbits
 3029              		.align	2
 3030              		.global	decideMazeTurn
 3031              		.thumb
 3032              		.thumb_func
 3033              		.type	decideMazeTurn, %function
 3034              	decideMazeTurn:
 3035              	.LFB104:
 900:main.c        ****   for(int i = 0;i<3;i++){
 3036              		.loc 1 900 0
 3037              		.cfi_startproc
 3038              		@ args = 12, pretend = 8, frame = 0
 3039              		@ frame_needed = 0, uses_anonymous_args = 0
 3040              	.LVL403:
 3041 0000 82B0     		sub	sp, sp, #8
 3042              		.cfi_def_cfa_offset 8
 3043 0002 F8B5     		push	{r3, r4, r5, r6, r7, lr}
 3044              		.cfi_def_cfa_offset 32
 3045              		.cfi_offset 3, -32
 3046              		.cfi_offset 4, -28
 3047              		.cfi_offset 5, -24
 3048              		.cfi_offset 6, -20
 3049              		.cfi_offset 7, -16
 3050              		.cfi_offset 14, -12
 3051 0004 0446     		mov	r4, r0
 3052 0006 0D46     		mov	r5, r1
 3053 0008 06A9     		add	r1, sp, #24
 3054              	.LVL404:
 3055 000a 81E80C00 		stmia	r1, {r2, r3}
 3056              	.LVL405:
 3057              	.LBB7:
 901:main.c        ****     turn90deg(0);
 3058              		.loc 1 901 0
 3059 000e 0026     		movs	r6, #0
ARM GAS  C:\Users\samue\AppData\Local\Temp\ccm0rw4c.s 			page 81


 3060 0010 1DE0     		b	.L236
 3061              	.LVL406:
 3062              	.L239:
 902:main.c        ****     reflectance_digital(&dig);
 3063              		.loc 1 902 0
 3064 0012 0020     		movs	r0, #0
 3065 0014 FFF7FEFF 		bl	turn90deg
 3066              	.LVL407:
 903:main.c        ****     if(Ultra_GetDistance()>15 && !(dig.l3|dig.l2|dig.l1|dig.r1|dig.r2|dig.r3)){
 3067              		.loc 1 903 0
 3068 0018 06A8     		add	r0, sp, #24
 3069 001a FFF7FEFF 		bl	reflectance_digital
 3070              	.LVL408:
 904:main.c        ****       break;
 3071              		.loc 1 904 0
 3072 001e FFF7FEFF 		bl	Ultra_GetDistance
 3073              	.LVL409:
 3074 0022 0F28     		cmp	r0, #15
 3075 0024 12DD     		ble	.L237
 904:main.c        ****       break;
 3076              		.loc 1 904 0 is_stmt 0 discriminator 1
 3077 0026 BDF81820 		ldrh	r2, [sp, #24]
 3078 002a BDF81A10 		ldrh	r1, [sp, #26]
 3079 002e BDF81C30 		ldrh	r3, [sp, #28]
 3080 0032 BDF81EE0 		ldrh	lr, [sp, #30]
 3081 0036 BDF82070 		ldrh	r7, [sp, #32]
 3082 003a BDF82200 		ldrh	r0, [sp, #34]
 3083 003e 0A43     		orrs	r2, r2, r1
 3084 0040 1A43     		orrs	r2, r2, r3
 3085 0042 4EEA0203 		orr	r3, lr, r2
 3086 0046 3B43     		orrs	r3, r3, r7
 3087 0048 0343     		orrs	r3, r0, r3
 3088 004a 02D0     		beq	.L238
 3089              	.L237:
 901:main.c        ****     turn90deg(0);
 3090              		.loc 1 901 0 is_stmt 1 discriminator 2
 3091 004c 0136     		adds	r6, r6, #1
 3092              	.LVL410:
 3093              	.L236:
 901:main.c        ****     turn90deg(0);
 3094              		.loc 1 901 0 is_stmt 0 discriminator 1
 3095 004e 022E     		cmp	r6, #2
 3096 0050 DFDD     		ble	.L239
 3097              	.L238:
 3098              	.LBE7:
 909:main.c        ****   if(dir%2){
 3099              		.loc 1 909 0 is_stmt 1
 3100 0052 0D4B     		ldr	r3, .L244
 3101 0054 2B40     		ands	r3, r5, r3
 3102 0056 03D5     		bpl	.L240
 3103 0058 013B     		subs	r3, r3, #1
 3104 005a 63F00303 		orn	r3, r3, #3
 3105 005e 0133     		adds	r3, r3, #1
 3106              	.L240:
 3107 0060 03EBD373 		add	r3, r3, r3, lsr #31
 3108 0064 23F00103 		bic	r3, r3, #1
 3109 0068 013B     		subs	r3, r3, #1
ARM GAS  C:\Users\samue\AppData\Local\Temp\ccm0rw4c.s 			page 82


 3110              	.LVL411:
 910:main.c        ****     xy[0] += a;
 3111              		.loc 1 910 0
 3112 006a 15F0010F 		tst	r5, #1
 3113 006e 03D0     		beq	.L241
 911:main.c        ****   } else {
 3114              		.loc 1 911 0
 3115 0070 2268     		ldr	r2, [r4]
 3116 0072 1344     		add	r3, r3, r2
 3117              	.LVL412:
 3118 0074 2360     		str	r3, [r4]
 3119 0076 02E0     		b	.L242
 3120              	.LVL413:
 3121              	.L241:
 913:main.c        ****   }
 3122              		.loc 1 913 0
 3123 0078 6268     		ldr	r2, [r4, #4]
 3124 007a 1344     		add	r3, r3, r2
 3125              	.LVL414:
 3126 007c 6360     		str	r3, [r4, #4]
 3127              	.L242:
 916:main.c        **** 
 3128              		.loc 1 916 0
 3129 007e 2046     		mov	r0, r4
 3130 0080 BDE8F840 		pop	{r3, r4, r5, r6, r7, lr}
 3131              		.cfi_restore 14
 3132              		.cfi_restore 7
 3133              		.cfi_restore 6
 3134              		.cfi_restore 5
 3135              		.cfi_restore 4
 3136              		.cfi_restore 3
 3137              		.cfi_def_cfa_offset 8
 3138              	.LVL415:
 3139 0084 02B0     		add	sp, sp, #8
 3140              		.cfi_def_cfa_offset 0
 3141 0086 7047     		bx	lr
 3142              	.L245:
 3143              		.align	2
 3144              	.L244:
 3145 0088 03000080 		.word	-2147483645
 3146              		.cfi_endproc
 3147              	.LFE104:
 3148              		.size	decideMazeTurn, .-decideMazeTurn
 3149              		.section	.text.tankTurn,"ax",%progbits
 3150              		.align	2
 3151              		.global	tankTurn
 3152              		.thumb
 3153              		.thumb_func
 3154              		.type	tankTurn, %function
 3155              	tankTurn:
 3156              	.LFB124:
1349:main.c        **** }
1350:main.c        **** 
1351:main.c        **** void tankTurn(int speed, int dir){ // 1 = turn right, 0 = turn left
 3157              		.loc 1 1351 0
 3158              		.cfi_startproc
 3159              		@ args = 0, pretend = 0, frame = 0
ARM GAS  C:\Users\samue\AppData\Local\Temp\ccm0rw4c.s 			page 83


 3160              		@ frame_needed = 0, uses_anonymous_args = 0
 3161              	.LVL416:
 3162 0000 38B5     		push	{r3, r4, r5, lr}
 3163              		.cfi_def_cfa_offset 16
 3164              		.cfi_offset 3, -16
 3165              		.cfi_offset 4, -12
 3166              		.cfi_offset 5, -8
 3167              		.cfi_offset 14, -4
 3168 0002 0446     		mov	r4, r0
 3169 0004 0D46     		mov	r5, r1
1352:main.c        ****   MotorDirLeft_Write(dir);
 3170              		.loc 1 1352 0
 3171 0006 C8B2     		uxtb	r0, r1
 3172              	.LVL417:
 3173 0008 FFF7FEFF 		bl	MotorDirLeft_Write
 3174              	.LVL418:
1353:main.c        ****   MotorDirRight_Write(!dir);
 3175              		.loc 1 1353 0
 3176 000c B5FA85F0 		clz	r0, r5
 3177 0010 4009     		lsrs	r0, r0, #5
 3178 0012 FFF7FEFF 		bl	MotorDirRight_Write
 3179              	.LVL419:
1354:main.c        **** 
1355:main.c        ****   PWM_WriteCompare1(speed);
 3180              		.loc 1 1355 0
 3181 0016 E4B2     		uxtb	r4, r4
 3182              	.LVL420:
 3183 0018 2046     		mov	r0, r4
 3184 001a FFF7FEFF 		bl	PWM_WriteCompare1
 3185              	.LVL421:
1356:main.c        ****   PWM_WriteCompare2(speed);
 3186              		.loc 1 1356 0
 3187 001e 2046     		mov	r0, r4
 3188 0020 FFF7FEFF 		bl	PWM_WriteCompare2
 3189              	.LVL422:
1357:main.c        **** 
1358:main.c        ****   vTaskDelay(320);
 3190              		.loc 1 1358 0
 3191 0024 4FF4A070 		mov	r0, #320
 3192 0028 FFF7FEFF 		bl	vTaskDelay
 3193              	.LVL423:
 3194 002c 38BD     		pop	{r3, r4, r5, pc}
 3195              		.cfi_endproc
 3196              	.LFE124:
 3197              		.size	tankTurn, .-tankTurn
 3198              		.global	__aeabi_dcmplt
 3199 002e 00BF     		.section	.text.rp_sumoWrestling,"ax",%progbits
 3200              		.align	2
 3201              		.global	rp_sumoWrestling
 3202              		.thumb
 3203              		.thumb_func
 3204              		.type	rp_sumoWrestling, %function
 3205              	rp_sumoWrestling:
 3206              	.LFB86:
 309:main.c        ****   struct sensors_ ref, dig = {0,0,0,0,0,0};
 3207              		.loc 1 309 0
 3208              		.cfi_startproc
ARM GAS  C:\Users\samue\AppData\Local\Temp\ccm0rw4c.s 			page 84


 3209              		@ args = 0, pretend = 0, frame = 40
 3210              		@ frame_needed = 0, uses_anonymous_args = 0
 3211 0000 2DE9F04F 		push	{r4, r5, r6, r7, r8, r9, r10, fp, lr}
 3212              		.cfi_def_cfa_offset 36
 3213              		.cfi_offset 4, -36
 3214              		.cfi_offset 5, -32
 3215              		.cfi_offset 6, -28
 3216              		.cfi_offset 7, -24
 3217              		.cfi_offset 8, -20
 3218              		.cfi_offset 9, -16
 3219              		.cfi_offset 10, -12
 3220              		.cfi_offset 11, -8
 3221              		.cfi_offset 14, -4
 3222 0004 8BB0     		sub	sp, sp, #44
 3223              		.cfi_def_cfa_offset 80
 310:main.c        ****   struct accData_ acc      = {0,0,0};
 3224              		.loc 1 310 0
 3225 0006 04AC     		add	r4, sp, #16
 3226 0008 0026     		movs	r6, #0
 3227 000a 0496     		str	r6, [sp, #16]
 3228 000c 0596     		str	r6, [sp, #20]
 3229 000e 0696     		str	r6, [sp, #24]
 311:main.c        ****   TickType_t start         = 0;
 3230              		.loc 1 311 0
 3231 0010 ADF80860 		strh	r6, [sp, #8]	@ movhi
 3232 0014 ADF80A60 		strh	r6, [sp, #10]	@ movhi
 3233 0018 ADF80C60 		strh	r6, [sp, #12]	@ movhi
 3234              	.LVL424:
 324:main.c        ****   moveToStartLineAndWait("zumo",dig);
 3235              		.loc 1 324 0
 3236 001c 644D     		ldr	r5, .L271+8
 3237 001e 2846     		mov	r0, r5
 3238 0020 FFF7FEFF 		bl	startComponents
 3239              	.LVL425:
 325:main.c        ****   start = startWrestling(dig);
 3240              		.loc 1 325 0
 3241 0024 94E80E00 		ldmia	r4, {r1, r2, r3}
 3242 0028 2846     		mov	r0, r5
 3243 002a FFF7FEFF 		bl	moveToStartLineAndWait
 3244              	.LVL426:
 326:main.c        ****   while(SW1_Read()){
 3245              		.loc 1 326 0
 3246 002e 94E80700 		ldmia	r4, {r0, r1, r2}
 3247 0032 FFF7FEFF 		bl	startWrestling
 3248              	.LVL427:
 3249 0036 0190     		str	r0, [sp, #4]
 3250              	.LVL428:
 319:main.c        ****   int hit                  = 361;
 3251              		.loc 1 319 0
 3252 0038 3446     		mov	r4, r6
 318:main.c        ****   bool enemyDetected       = false;
 3253              		.loc 1 318 0
 3254 003a B346     		mov	fp, r6
 317:main.c        ****   bool atCenter            = false;
 3255              		.loc 1 317 0
 3256 003c B146     		mov	r9, r6
 316:main.c        ****   bool headedForCenter     = false;
ARM GAS  C:\Users\samue\AppData\Local\Temp\ccm0rw4c.s 			page 85


 3257              		.loc 1 316 0
 3258 003e 3546     		mov	r5, r6
 315:main.c        ****   bool runningToEdge       = false;
 3259              		.loc 1 315 0
 3260 0040 4FF0FF38 		mov	r8, #-1
 314:main.c        ****   TickType_t atCenterTime  = INFINITY;
 3261              		.loc 1 314 0
 3262 0044 4746     		mov	r7, r8
 327:main.c        ****     hit = detectZumoHit(acc);
 3263              		.loc 1 327 0
 3264 0046 A1E0     		b	.L249
 3265              	.LVL429:
 3266              	.L266:
 328:main.c        ****     
 3267              		.loc 1 328 0
 3268 0048 02AB     		add	r3, sp, #8
 3269 004a 93E80300 		ldmia	r3, {r0, r1}
 3270 004e FFF7FEFF 		bl	detectZumoHit
 3271              	.LVL430:
 3272 0052 8246     		mov	r10, r0
 3273              	.LVL431:
 330:main.c        ****       if(headedForCenter){
 3274              		.loc 1 330 0
 3275 0054 FFF7FEFF 		bl	__aeabi_i2d
 3276              	.LVL432:
 3277 0058 53A3     		adr	r3, .L271
 3278 005a D3E90023 		ldrd	r2, [r3]
 3279 005e FFF7FEFF 		bl	__aeabi_dcmplt
 3280              	.LVL433:
 3281 0062 D0B1     		cbz	r0, .L250
 330:main.c        ****       if(headedForCenter){
 3282              		.loc 1 330 0 is_stmt 0 discriminator 1
 3283 0064 FFF7FEFF 		bl	xTaskGetTickCount
 3284              	.LVL434:
 3285 0068 801B     		subs	r0, r0, r6
 3286 006a C828     		cmp	r0, #200
 3287 006c 15D9     		bls	.L250
 330:main.c        ****       if(headedForCenter){
 3288              		.loc 1 330 0 discriminator 2
 3289 006e A4B9     		cbnz	r4, .L250
 331:main.c        ****         headedForCenter = false;
 3290              		.loc 1 331 0 is_stmt 1
 3291 0070 B9F1000F 		cmp	r9, #0
 3292 0074 06D0     		beq	.L252
 3293              	.LVL435:
 334:main.c        ****       }
 3294              		.loc 1 334 0
 3295 0076 0021     		movs	r1, #0
 3296 0078 C820     		movs	r0, #200
 3297 007a FFF7FEFF 		bl	motor_forward
 3298              	.LVL436:
 332:main.c        ****         runningToEdge = true;
 3299              		.loc 1 332 0
 3300 007e 4FF00009 		mov	r9, #0
 333:main.c        ****         motor_forward(defSpeed,0);
 3301              		.loc 1 333 0
 3302 0082 0125     		movs	r5, #1
ARM GAS  C:\Users\samue\AppData\Local\Temp\ccm0rw4c.s 			page 86


 3303              	.LVL437:
 3304              	.L252:
 336:main.c        ****         dodgeEndTime = respondToHit(hit);
 3305              		.loc 1 336 0
 3306 0084 1DB9     		cbnz	r5, .L253
 337:main.c        ****       }
 3307              		.loc 1 337 0
 3308 0086 5046     		mov	r0, r10
 3309 0088 FFF7FEFF 		bl	respondToHit
 3310              	.LVL438:
 3311 008c 0746     		mov	r7, r0
 3312              	.LVL439:
 3313              	.L253:
 339:main.c        ****       lastHitTime = xTaskGetTickCount();
 3314              		.loc 1 339 0
 3315 008e 5046     		mov	r0, r10
 3316 0090 FFF7FEFF 		bl	reportZumoHit
 3317              	.LVL440:
 340:main.c        ****       hit = 361.0;
 3318              		.loc 1 340 0
 3319 0094 FFF7FEFF 		bl	xTaskGetTickCount
 3320              	.LVL441:
 3321 0098 0646     		mov	r6, r0
 3322              	.LVL442:
 3323              	.L250:
 344:main.c        ****       atCenter = false;
 3324              		.loc 1 344 0
 3325 009a FFF7FEFF 		bl	xTaskGetTickCount
 3326              	.LVL443:
 3327 009e 8742     		cmp	r7, r0
 3328 00a0 16D2     		bcs	.L254
 3329              	.LVL444:
 346:main.c        ****         enemyDetected = true;
 3330              		.loc 1 346 0
 3331 00a2 FFF7FEFF 		bl	Ultra_GetDistance
 3332              	.LVL445:
 3333 00a6 0928     		cmp	r0, #9
 3334 00a8 09DC     		bgt	.L255
 3335              	.LVL446:
 348:main.c        ****       } else {
 3336              		.loc 1 348 0
 3337 00aa 0021     		movs	r1, #0
 3338 00ac FF20     		movs	r0, #255
 3339 00ae FFF7FEFF 		bl	motor_forward
 3340              	.LVL447:
 347:main.c        ****         motor_forward(atkSpeed,0);
 3341              		.loc 1 347 0
 3342 00b2 0124     		movs	r4, #1
 345:main.c        ****       if(Ultra_GetDistance() < 10){
 3343              		.loc 1 345 0
 3344 00b4 4FF0000B 		mov	fp, #0
 353:main.c        ****     }
 3345              		.loc 1 353 0
 3346 00b8 4FF0FF37 		mov	r7, #-1
 3347              	.LVL448:
 3348 00bc 08E0     		b	.L254
 3349              	.LVL449:
ARM GAS  C:\Users\samue\AppData\Local\Temp\ccm0rw4c.s 			page 87


 3350              	.L255:
 351:main.c        ****       }
 3351              		.loc 1 351 0
 3352 00be 0021     		movs	r1, #0
 3353 00c0 C820     		movs	r0, #200
 3354 00c2 FFF7FEFF 		bl	motor_forward
 3355              	.LVL450:
 345:main.c        ****       if(Ultra_GetDistance() < 10){
 3356              		.loc 1 345 0
 3357 00c6 4FF0000B 		mov	fp, #0
 350:main.c        ****         motor_forward(defSpeed,0);
 3358              		.loc 1 350 0
 3359 00ca 0125     		movs	r5, #1
 353:main.c        ****     }
 3360              		.loc 1 353 0
 3361 00cc 4FF0FF37 		mov	r7, #-1
 3362              	.LVL451:
 3363              	.L254:
 356:main.c        ****       while(Ultra_GetDistance() < 15 && blackSensors(dig) < 2){
 3364              		.loc 1 356 0
 3365 00d0 1CB9     		cbnz	r4, .L256
 3366 00d2 13E0     		b	.L257
 3367              	.L259:
 358:main.c        ****       }
 3368              		.loc 1 358 0
 3369 00d4 1420     		movs	r0, #20
 3370 00d6 FFF7FEFF 		bl	vTaskDelay
 3371              	.LVL452:
 3372              	.L256:
 357:main.c        ****         vTaskDelay(20);
 3373              		.loc 1 357 0
 3374 00da FFF7FEFF 		bl	Ultra_GetDistance
 3375              	.LVL453:
 3376 00de 0E28     		cmp	r0, #14
 3377 00e0 06DC     		bgt	.L258
 357:main.c        ****         vTaskDelay(20);
 3378              		.loc 1 357 0 is_stmt 0 discriminator 1
 3379 00e2 04AB     		add	r3, sp, #16
 3380 00e4 93E80700 		ldmia	r3, {r0, r1, r2}
 3381 00e8 FFF7FEFF 		bl	blackSensors
 3382              	.LVL454:
 3383 00ec 0128     		cmp	r0, #1
 3384 00ee F1DD     		ble	.L259
 3385              	.L258:
 3386              	.LVL455:
 362:main.c        ****     }
 3387              		.loc 1 362 0 is_stmt 1
 3388 00f0 0021     		movs	r1, #0
 3389 00f2 C820     		movs	r0, #200
 3390 00f4 FFF7FEFF 		bl	motor_forward
 3391              	.LVL456:
 360:main.c        ****       runningToEdge = true;
 3392              		.loc 1 360 0
 3393 00f8 0024     		movs	r4, #0
 361:main.c        ****       motor_forward(defSpeed,0);
 3394              		.loc 1 361 0
 3395 00fa 0125     		movs	r5, #1
ARM GAS  C:\Users\samue\AppData\Local\Temp\ccm0rw4c.s 			page 88


 3396              	.LVL457:
 3397              	.L257:
 365:main.c        ****       while(turnToCenter(ref)>100&&blackSensors(dig)>0&&blackSensors(dig)<6){};
 3398              		.loc 1 365 0
 3399 00fc 04AB     		add	r3, sp, #16
 3400 00fe 93E80700 		ldmia	r3, {r0, r1, r2}
 3401 0102 FFF7FEFF 		bl	blackSensors
 3402              	.LVL458:
 3403 0106 0128     		cmp	r0, #1
 3404 0108 22DD     		ble	.L260
 3405              	.L263:
 366:main.c        ****       runningToEdge = false;
 3406              		.loc 1 366 0 discriminator 3
 3407 010a 0AAB     		add	r3, sp, #40
 3408 010c 13E90700 		ldmdb	r3, {r0, r1, r2}
 3409 0110 FFF7FEFF 		bl	turnToCenter
 3410              	.LVL459:
 3411 0114 2749     		ldr	r1, .L271+12
 3412 0116 FFF7FEFF 		bl	__aeabi_fcmpgt
 3413              	.LVL460:
 3414 011a 68B1     		cbz	r0, .L261
 366:main.c        ****       runningToEdge = false;
 3415              		.loc 1 366 0 is_stmt 0 discriminator 1
 3416 011c 04AB     		add	r3, sp, #16
 3417 011e 93E80700 		ldmia	r3, {r0, r1, r2}
 3418 0122 FFF7FEFF 		bl	blackSensors
 3419              	.LVL461:
 3420 0126 0028     		cmp	r0, #0
 3421 0128 06DD     		ble	.L261
 366:main.c        ****       runningToEdge = false;
 3422              		.loc 1 366 0 discriminator 2
 3423 012a 04AB     		add	r3, sp, #16
 3424 012c 93E80700 		ldmia	r3, {r0, r1, r2}
 3425 0130 FFF7FEFF 		bl	blackSensors
 3426              	.LVL462:
 3427 0134 0528     		cmp	r0, #5
 3428 0136 E8DD     		ble	.L263
 3429              	.L261:
 3430              	.LVL463:
 369:main.c        ****       motor_backward(defSpeed,0);
 3431              		.loc 1 369 0 is_stmt 1
 3432 0138 FFF7FEFF 		bl	xTaskGetTickCount
 3433              	.LVL464:
 3434 013c 00F2DC58 		addw	r8, r0, #1500
 3435              	.LVL465:
 370:main.c        ****     } else if(atCenterTime < xTaskGetTickCount()){
 3436              		.loc 1 370 0
 3437 0140 0021     		movs	r1, #0
 3438 0142 C820     		movs	r0, #200
 3439 0144 FFF7FEFF 		bl	motor_backward
 3440              	.LVL466:
 368:main.c        ****       atCenterTime = xTaskGetTickCount() + 1500; // adjust
 3441              		.loc 1 368 0
 3442 0148 4FF00109 		mov	r9, #1
 367:main.c        ****       headedForCenter = true;
 3443              		.loc 1 367 0
 3444 014c 0025     		movs	r5, #0
ARM GAS  C:\Users\samue\AppData\Local\Temp\ccm0rw4c.s 			page 89


 3445 014e 1DE0     		b	.L249
 3446              	.LVL467:
 3447              	.L260:
 371:main.c        ****       runningToEdge = false;
 3448              		.loc 1 371 0
 3449 0150 FFF7FEFF 		bl	xTaskGetTickCount
 3450              	.LVL468:
 3451 0154 8045     		cmp	r8, r0
 3452 0156 0BD2     		bcs	.L265
 3453              	.LVL469:
 376:main.c        ****     } else if(atCenter && Ultra_GetDistance() < 10){
 3454              		.loc 1 376 0
 3455 0158 0121     		movs	r1, #1
 3456 015a 9620     		movs	r0, #150
 3457 015c FFF7FEFF 		bl	tankTurn
 3458              	.LVL470:
 374:main.c        ****       atCenterTime = INFINITY;
 3459              		.loc 1 374 0
 3460 0160 4FF0010B 		mov	fp, #1
 373:main.c        ****       atCenter = true;
 3461              		.loc 1 373 0
 3462 0164 4FF00009 		mov	r9, #0
 372:main.c        ****       headedForCenter = false;
 3463              		.loc 1 372 0
 3464 0168 4D46     		mov	r5, r9
 375:main.c        ****       tankTurn(150,1);
 3465              		.loc 1 375 0
 3466 016a 4FF0FF38 		mov	r8, #-1
 3467 016e 0DE0     		b	.L249
 3468              	.LVL471:
 3469              	.L265:
 377:main.c        ****       enemyDetected = true;
 3470              		.loc 1 377 0
 3471 0170 BBF1000F 		cmp	fp, #0
 3472 0174 0AD0     		beq	.L249
 377:main.c        ****       enemyDetected = true;
 3473              		.loc 1 377 0 is_stmt 0 discriminator 1
 3474 0176 FFF7FEFF 		bl	Ultra_GetDistance
 3475              	.LVL472:
 3476 017a 0928     		cmp	r0, #9
 3477 017c 06DC     		bgt	.L249
 3478              	.LVL473:
 380:main.c        ****     }
 3479              		.loc 1 380 0 is_stmt 1
 3480 017e 0021     		movs	r1, #0
 3481 0180 FF20     		movs	r0, #255
 3482 0182 FFF7FEFF 		bl	motor_forward
 3483              	.LVL474:
 378:main.c        ****       atCenter = false;
 3484              		.loc 1 378 0
 3485 0186 0124     		movs	r4, #1
 379:main.c        ****       motor_forward(atkSpeed,0);
 3486              		.loc 1 379 0
 3487 0188 4FF0000B 		mov	fp, #0
 3488              	.LVL475:
 3489              	.L249:
 327:main.c        ****     hit = detectZumoHit(acc);
ARM GAS  C:\Users\samue\AppData\Local\Temp\ccm0rw4c.s 			page 90


 3490              		.loc 1 327 0
 3491 018c FFF7FEFF 		bl	SW1_Read
 3492              	.LVL476:
 3493 0190 0028     		cmp	r0, #0
 3494 0192 7FF459AF 		bne	.L266
 383:main.c        **** }
 3495              		.loc 1 383 0
 3496 0196 0198     		ldr	r0, [sp, #4]
 3497 0198 FFF7FEFF 		bl	wrestlingEnd
 3498              	.LVL477:
 384:main.c        **** 
 3499              		.loc 1 384 0
 3500 019c 0BB0     		add	sp, sp, #44
 3501              		.cfi_def_cfa_offset 36
 3502              		@ sp needed
 3503 019e BDE8F08F 		pop	{r4, r5, r6, r7, r8, r9, r10, fp, pc}
 3504              	.LVL478:
 3505              	.L272:
 3506 01a2 00BFAFF3 		.align	3
 3506      0080
 3507              	.L271:
 3508 01a8 00000000 		.word	0
 3509 01ac 00907640 		.word	1081511936
 3510 01b0 EC000000 		.word	.LC20
 3511 01b4 0000C842 		.word	1120403456
 3512              		.cfi_endproc
 3513              	.LFE86:
 3514              		.size	rp_sumoWrestling, .-rp_sumoWrestling
 3515              		.section	.text.zmain,"ax",%progbits
 3516              		.align	2
 3517              		.global	zmain
 3518              		.thumb
 3519              		.thumb_func
 3520              		.type	zmain, %function
 3521              	zmain:
 3522              	.LFB85:
 148:main.c        ****   /*
 3523              		.loc 1 148 0
 3524              		.cfi_startproc
 3525              		@ Volatile: function does not return.
 3526              		@ args = 0, pretend = 0, frame = 0
 3527              		@ frame_needed = 0, uses_anonymous_args = 0
 3528 0000 08B5     		push	{r3, lr}
 3529              		.cfi_def_cfa_offset 8
 3530              		.cfi_offset 3, -8
 3531              		.cfi_offset 14, -4
 167:main.c        **** 
 3532              		.loc 1 167 0
 3533 0002 FFF7FEFF 		bl	rp_sumoWrestling
 3534              	.LVL479:
 3535              	.L274:
 195:main.c        ****     [[[[[[[[[THANK YOU FOR YOUR CO-OPERATION]]]]]]]]]*/
 3536              		.loc 1 195 0 discriminator 1
 3537 0006 C820     		movs	r0, #200
 3538 0008 FFF7FEFF 		bl	vTaskDelay
 3539              	.LVL480:
 3540 000c FBE7     		b	.L274
ARM GAS  C:\Users\samue\AppData\Local\Temp\ccm0rw4c.s 			page 91


 3541              		.cfi_endproc
 3542              	.LFE85:
 3543              		.size	zmain, .-zmain
 3544 000e 00BF     		.section	.text.goToCenterTest,"ax",%progbits
 3545              		.align	2
 3546              		.global	goToCenterTest
 3547              		.thumb
 3548              		.thumb_func
 3549              		.type	goToCenterTest, %function
 3550              	goToCenterTest:
 3551              	.LFB88:
 396:main.c        ****   struct sensors_ ref, dig;
 3552              		.loc 1 396 0
 3553              		.cfi_startproc
 3554              		@ args = 0, pretend = 0, frame = 24
 3555              		@ frame_needed = 0, uses_anonymous_args = 0
 3556 0000 00B5     		push	{lr}
 3557              		.cfi_def_cfa_offset 4
 3558              		.cfi_offset 14, -4
 3559 0002 87B0     		sub	sp, sp, #28
 3560              		.cfi_def_cfa_offset 32
 398:main.c        ****   IR_wait();
 3561              		.loc 1 398 0
 3562 0004 1A48     		ldr	r0, .L284
 3563 0006 FFF7FEFF 		bl	startComponents
 3564              	.LVL481:
 399:main.c        ****   motor_forward(150,0);
 3565              		.loc 1 399 0
 3566 000a FFF7FEFF 		bl	IR_wait
 3567              	.LVL482:
 400:main.c        ****   while(true){
 3568              		.loc 1 400 0
 3569 000e 0021     		movs	r1, #0
 3570 0010 9620     		movs	r0, #150
 3571 0012 FFF7FEFF 		bl	motor_forward
 3572              	.LVL483:
 3573              	.L277:
 402:main.c        ****       while(turnToCenter(ref)>50&&blackSensors(dig)>0&&blackSensors(dig)<6){};
 3574              		.loc 1 402 0
 3575 0016 9DE80700 		ldmia	sp, {r0, r1, r2}
 3576 001a FFF7FEFF 		bl	blackSensors
 3577              	.LVL484:
 3578 001e 0128     		cmp	r0, #1
 3579 0020 F9DD     		ble	.L277
 3580              	.L280:
 403:main.c        ****       motor_backward(150,1000);
 3581              		.loc 1 403 0 discriminator 3
 3582 0022 06AB     		add	r3, sp, #24
 3583 0024 13E90700 		ldmdb	r3, {r0, r1, r2}
 3584 0028 FFF7FEFF 		bl	turnToCenter
 3585              	.LVL485:
 3586 002c 1149     		ldr	r1, .L284+4
 3587 002e FFF7FEFF 		bl	__aeabi_fcmpgt
 3588              	.LVL486:
 3589 0032 58B1     		cbz	r0, .L278
 403:main.c        ****       motor_backward(150,1000);
 3590              		.loc 1 403 0 is_stmt 0 discriminator 1
ARM GAS  C:\Users\samue\AppData\Local\Temp\ccm0rw4c.s 			page 92


 3591 0034 9DE80700 		ldmia	sp, {r0, r1, r2}
 3592 0038 FFF7FEFF 		bl	blackSensors
 3593              	.LVL487:
 3594 003c 0028     		cmp	r0, #0
 3595 003e 05DD     		ble	.L278
 403:main.c        ****       motor_backward(150,1000);
 3596              		.loc 1 403 0 discriminator 2
 3597 0040 9DE80700 		ldmia	sp, {r0, r1, r2}
 3598 0044 FFF7FEFF 		bl	blackSensors
 3599              	.LVL488:
 3600 0048 0528     		cmp	r0, #5
 3601 004a EADD     		ble	.L280
 3602              	.L278:
 404:main.c        ****       tankTurn(200,0);
 3603              		.loc 1 404 0 is_stmt 1
 3604 004c 4FF47A71 		mov	r1, #1000
 3605 0050 9620     		movs	r0, #150
 3606 0052 FFF7FEFF 		bl	motor_backward
 3607              	.LVL489:
 405:main.c        ****       vTaskDelay(200);
 3608              		.loc 1 405 0
 3609 0056 0021     		movs	r1, #0
 3610 0058 C820     		movs	r0, #200
 3611 005a FFF7FEFF 		bl	tankTurn
 3612              	.LVL490:
 406:main.c        ****       motor_forward(150,0);
 3613              		.loc 1 406 0
 3614 005e C820     		movs	r0, #200
 3615 0060 FFF7FEFF 		bl	vTaskDelay
 3616              	.LVL491:
 407:main.c        ****     }
 3617              		.loc 1 407 0
 3618 0064 0021     		movs	r1, #0
 3619 0066 9620     		movs	r0, #150
 3620 0068 FFF7FEFF 		bl	motor_forward
 3621              	.LVL492:
 3622 006c D3E7     		b	.L277
 3623              	.L285:
 3624 006e 00BF     		.align	2
 3625              	.L284:
 3626 0070 EC000000 		.word	.LC20
 3627 0074 00004842 		.word	1112014848
 3628              		.cfi_endproc
 3629              	.LFE88:
 3630              		.size	goToCenterTest, .-goToCenterTest
 3631              		.section	.text.filterSavitzkyGolay7,"ax",%progbits
 3632              		.align	2
 3633              		.global	filterSavitzkyGolay7
 3634              		.thumb
 3635              		.thumb_func
 3636              		.type	filterSavitzkyGolay7, %function
 3637              	filterSavitzkyGolay7:
 3638              	.LFB125:
1359:main.c        **** }
1360:main.c        **** 
1361:main.c        **** int filterSavitzkyGolay7(int a[]){
 3639              		.loc 1 1361 0
ARM GAS  C:\Users\samue\AppData\Local\Temp\ccm0rw4c.s 			page 93


 3640              		.cfi_startproc
 3641              		@ args = 0, pretend = 0, frame = 0
 3642              		@ frame_needed = 0, uses_anonymous_args = 0
 3643              		@ link register save eliminated.
 3644              	.LVL493:
1362:main.c        ****   return -2*a[6] + 3*a[5] + 6*a[4] + 7*a[3] + 6*a[2] + 3*a[1] - 2*a[0];
 3645              		.loc 1 1362 0
 3646 0000 8169     		ldr	r1, [r0, #24]
 3647 0002 CB07     		lsls	r3, r1, #31
 3648 0004 591A     		subs	r1, r3, r1
 3649 0006 4A00     		lsls	r2, r1, #1
 3650 0008 4369     		ldr	r3, [r0, #20]
 3651 000a 03EB4303 		add	r3, r3, r3, lsl #1
 3652 000e 1344     		add	r3, r3, r2
 3653 0010 0169     		ldr	r1, [r0, #16]
 3654 0012 01EB4101 		add	r1, r1, r1, lsl #1
 3655 0016 4A00     		lsls	r2, r1, #1
 3656 0018 1344     		add	r3, r3, r2
 3657 001a C268     		ldr	r2, [r0, #12]
 3658 001c C2EBC202 		rsb	r2, r2, r2, lsl #3
 3659 0020 1A44     		add	r2, r2, r3
 3660 0022 8168     		ldr	r1, [r0, #8]
 3661 0024 01EB4101 		add	r1, r1, r1, lsl #1
 3662 0028 4B00     		lsls	r3, r1, #1
 3663 002a 1A44     		add	r2, r2, r3
 3664 002c 4368     		ldr	r3, [r0, #4]
 3665 002e 03EB4303 		add	r3, r3, r3, lsl #1
 3666 0032 1344     		add	r3, r3, r2
 3667 0034 0068     		ldr	r0, [r0]
 3668              	.LVL494:
1363:main.c        **** }
 3669              		.loc 1 1363 0
 3670 0036 A3EB4000 		sub	r0, r3, r0, lsl #1
 3671 003a 7047     		bx	lr
 3672              		.cfi_endproc
 3673              	.LFE125:
 3674              		.size	filterSavitzkyGolay7, .-filterSavitzkyGolay7
 3675              		.section	.text.irMsgTest,"ax",%progbits
 3676              		.align	2
 3677              		.global	irMsgTest
 3678              		.thumb
 3679              		.thumb_func
 3680              		.type	irMsgTest, %function
 3681              	irMsgTest:
 3682              	.LFB126:
1364:main.c        **** 
1365:main.c        **** void irMsgTest(){
 3683              		.loc 1 1365 0
 3684              		.cfi_startproc
 3685              		@ args = 0, pretend = 0, frame = 8
 3686              		@ frame_needed = 0, uses_anonymous_args = 0
 3687 0000 00B5     		push	{lr}
 3688              		.cfi_def_cfa_offset 4
 3689              		.cfi_offset 14, -4
 3690 0002 83B0     		sub	sp, sp, #12
 3691              		.cfi_def_cfa_offset 16
1366:main.c        ****   IR_Start();
ARM GAS  C:\Users\samue\AppData\Local\Temp\ccm0rw4c.s 			page 94


 3692              		.loc 1 1366 0
 3693 0004 FFF7FEFF 		bl	IR_Start
 3694              	.LVL495:
1367:main.c        ****   uint32_t IR_val; 
1368:main.c        ****   printf("\n\nIR test\n");
 3695              		.loc 1 1368 0
 3696 0008 0E48     		ldr	r0, .L293
 3697 000a FFF7FEFF 		bl	puts
 3698              	.LVL496:
1369:main.c        ****   IR_flush(); // clear IR receive buffer
 3699              		.loc 1 1369 0
 3700 000e FFF7FEFF 		bl	IR_flush
 3701              	.LVL497:
1370:main.c        ****   printf("Buffer cleared\n");
 3702              		.loc 1 1370 0
 3703 0012 0D48     		ldr	r0, .L293+4
 3704 0014 FFF7FEFF 		bl	puts
 3705              	.LVL498:
 3706              	.L288:
1371:main.c        ****     
1372:main.c        ****   // print received IR pulses and their lengths
1373:main.c        ****   for(;;)
1374:main.c        ****   {
1375:main.c        ****     IR_flush();
 3707              		.loc 1 1375 0
 3708 0018 FFF7FEFF 		bl	IR_flush
 3709              	.LVL499:
1376:main.c        ****     if(IR_get(&IR_val, portMAX_DELAY)) {
 3710              		.loc 1 1376 0
 3711 001c 4FF0FF31 		mov	r1, #-1
 3712 0020 01A8     		add	r0, sp, #4
 3713 0022 FFF7FEFF 		bl	IR_get
 3714              	.LVL500:
 3715 0026 0028     		cmp	r0, #0
 3716 0028 F6D0     		beq	.L288
 3717              	.LBB8:
1377:main.c        ****       int l = IR_val & IR_SIGNAL_MASK; // get pulse length
 3718              		.loc 1 1377 0
 3719 002a 019B     		ldr	r3, [sp, #4]
 3720 002c 23F00042 		bic	r2, r3, #-2147483648
 3721              	.LVL501:
1378:main.c        ****       int b = 0;
1379:main.c        ****       if((IR_val & IR_SIGNAL_HIGH) != 0) b = 1; // get pulse state (0/1)
 3722              		.loc 1 1379 0
 3723 0030 002B     		cmp	r3, #0
 3724 0032 01DB     		blt	.L291
1378:main.c        ****       int b = 0;
 3725              		.loc 1 1378 0
 3726 0034 0021     		movs	r1, #0
 3727 0036 00E0     		b	.L289
 3728              	.L291:
 3729              		.loc 1 1379 0
 3730 0038 0121     		movs	r1, #1
 3731              	.L289:
 3732              	.LVL502:
1380:main.c        **** 
1381:main.c        ****            
ARM GAS  C:\Users\samue\AppData\Local\Temp\ccm0rw4c.s 			page 95


1382:main.c        ****            printf("%d %d %d\r\n",b, l, IR_val);
 3733              		.loc 1 1382 0
 3734 003a 0448     		ldr	r0, .L293+8
 3735 003c FFF7FEFF 		bl	printf
 3736              	.LVL503:
 3737 0040 EAE7     		b	.L288
 3738              	.L294:
 3739 0042 00BF     		.align	2
 3740              	.L293:
 3741 0044 14010000 		.word	.LC23
 3742 0048 20010000 		.word	.LC24
 3743 004c 30010000 		.word	.LC25
 3744              	.LBE8:
 3745              		.cfi_endproc
 3746              	.LFE126:
 3747              		.size	irMsgTest, .-irMsgTest
 3748              		.section	.text.shiftArray,"ax",%progbits
 3749              		.align	2
 3750              		.global	shiftArray
 3751              		.thumb
 3752              		.thumb_func
 3753              		.type	shiftArray, %function
 3754              	shiftArray:
 3755              	.LFB127:
1383:main.c        ****         
1384:main.c        ****       }
1385:main.c        ****    }    
1386:main.c        **** }
1387:main.c        **** 
1388:main.c        **** int* shiftArray(int* a){
 3756              		.loc 1 1388 0
 3757              		.cfi_startproc
 3758              		@ args = 0, pretend = 0, frame = 0
 3759              		@ frame_needed = 0, uses_anonymous_args = 0
 3760              		@ link register save eliminated.
 3761              	.LVL504:
1389:main.c        ****   int size = sizeof(a) / sizeof(int);
1390:main.c        ****   return a;
1391:main.c        **** }
 3762              		.loc 1 1391 0
 3763 0000 7047     		bx	lr
 3764              		.cfi_endproc
 3765              	.LFE127:
 3766              		.size	shiftArray, .-shiftArray
 3767 0002 00BF     		.section	.rodata
 3768              		.align	2
 3769              		.set	.LANCHOR0,. + 0
 3770              	.LC0:
 3771 0000 F0000000 		.word	240
 3772 0004 D6000000 		.word	214
 3773 0008 7F000000 		.word	127
 3774 000c 7F000000 		.word	127
 3775 0010 8F000000 		.word	143
 3776 0014 8F000000 		.word	143
 3777 0018 00000000 		.word	0
 3778 001c BF000000 		.word	191
 3779 0020 B4000000 		.word	180
ARM GAS  C:\Users\samue\AppData\Local\Temp\ccm0rw4c.s 			page 96


 3780 0024 6B000000 		.word	107
 3781 0028 6B000000 		.word	107
 3782 002c 78000000 		.word	120
 3783 0030 78000000 		.word	120
 3784 0034 00000000 		.word	0
 3785 0038 B4000000 		.word	180
 3786 003c A0000000 		.word	160
 3787 0040 5F000000 		.word	95
 3788 0044 5F000000 		.word	95
 3789 0048 78000000 		.word	120
 3790 004c 78000000 		.word	120
 3791 0050 A0000000 		.word	160
 3792 0054 A0000000 		.word	160
 3793 0058 A0000000 		.word	160
 3794              		.section	.rodata.str1.4,"aMS",%progbits,1
 3795              		.align	2
 3796              	.LC1:
 3797 0000 25642025 		.ascii	"%d %d\000"
 3797      6400
 3798 0006 0000     		.space	2
 3799              	.LC2:
 3800 0008 5A756D6F 		.ascii	"Zumo035/hit\000"
 3800      3033352F 
 3800      68697400 
 3801              	.LC3:
 3802 0014 256400   		.ascii	"%d\000"
 3803 0017 00       		.space	1
 3804              	.LC4:
 3805 0018 5A756D6F 		.ascii	"Zumo035/stop\000"
 3805      3033352F 
 3805      73746F70 
 3805      00
 3806 0025 000000   		.space	3
 3807              	.LC5:
 3808 0028 5A756D6F 		.ascii	"Zumo035/time\000"
 3808      3033352F 
 3808      74696D65 
 3808      00
 3809 0035 000000   		.space	3
 3810              	.LC6:
 3811 0038 6C696E65 		.ascii	"line\000"
 3811      00
 3812 003d 000000   		.space	3
 3813              	.LC7:
 3814 0040 5A756D6F 		.ascii	"Zumo035/\000"
 3814      3033352F 
 3814      00
 3815 0049 000000   		.space	3
 3816              	.LC8:
 3817 004c 20257300 		.ascii	" %s\000"
 3818              	.LC9:
 3819 0050 5A756D6F 		.ascii	"Zumo035/miss\000"
 3819      3033352F 
 3819      6D697373 
 3819      00
 3820 005d 000000   		.space	3
 3821              	.LC10:
ARM GAS  C:\Users\samue\AppData\Local\Temp\ccm0rw4c.s 			page 97


 3822 0060 5A756D6F 		.ascii	"Zumo035/line\000"
 3822      3033352F 
 3822      6C696E65 
 3822      00
 3823 006d 000000   		.space	3
 3824              	.LC11:
 3825 0070 5A756D6F 		.ascii	"Zumo035/start\000"
 3825      3033352F 
 3825      73746172 
 3825      7400
 3826 007e 0000     		.space	2
 3827              	.LC12:
 3828 0080 73746172 		.ascii	"start\000"
 3828      7400
 3829 0086 0000     		.space	2
 3830              	.LC13:
 3831 0088 257300   		.ascii	"%s\000"
 3832 008b 00       		.space	1
 3833              	.LC14:
 3834 008c 5A756D6F 		.ascii	"Zumo035/ready\000"
 3834      3033352F 
 3834      72656164 
 3834      7900
 3835 009a 0000     		.space	2
 3836              	.LC15:
 3837 009c 49522073 		.ascii	"IR signal received\000"
 3837      69676E61 
 3837      6C207265 
 3837      63656976 
 3837      656400
 3838 00af 00       		.space	1
 3839              	.LC16:
 3840 00b0 25642C25 		.ascii	"%d,%d,%d,%d,%d,%d\012\000"
 3840      642C2564 
 3840      2C25642C 
 3840      25642C25 
 3840      640A00
 3841 00c3 00       		.space	1
 3842              	.LC17:
 3843 00c4 48656C6C 		.ascii	"Hello, world!,%d\012\000"
 3843      6F2C2077 
 3843      6F726C64 
 3843      212C2564 
 3843      0A00
 3844 00d6 0000     		.space	2
 3845              	.LC18:
 3846 00d8 61736400 		.ascii	"asd\000"
 3847              	.LC19:
 3848 00dc 5A756D6F 		.ascii	"Zumo035/output\000"
 3848      3033352F 
 3848      6F757470 
 3848      757400
 3849 00eb 00       		.space	1
 3850              	.LC20:
 3851 00ec 7A756D6F 		.ascii	"zumo\000"
 3851      00
 3852 00f1 000000   		.space	3
ARM GAS  C:\Users\samue\AppData\Local\Temp\ccm0rw4c.s 			page 98


 3853              	.LC21:
 3854 00f4 783A2025 		.ascii	"x: %d y: %d\000"
 3854      6420793A 
 3854      20256400 
 3855              	.LC22:
 3856 0100 5A756D6F 		.ascii	"Zumo035/position\000"
 3856      3033352F 
 3856      706F7369 
 3856      74696F6E 
 3856      00
 3857 0111 000000   		.space	3
 3858              	.LC23:
 3859 0114 0A0A4952 		.ascii	"\012\012IR test\000"
 3859      20746573 
 3859      7400
 3860 011e 0000     		.space	2
 3861              	.LC24:
 3862 0120 42756666 		.ascii	"Buffer cleared\000"
 3862      65722063 
 3862      6C656172 
 3862      656400
 3863 012f 00       		.space	1
 3864              	.LC25:
 3865 0130 25642025 		.ascii	"%d %d %d\015\012\000"
 3865      64202564 
 3865      0D0A00
 3866              		.text
 3867              	.Letext0:
 3868              		.file 2 "c:\\program files (x86)\\cypress\\psoc creator\\4.2\\psoc creator\\import\\gnu\\arm\\5.4.
 3869              		.file 3 "c:\\program files (x86)\\cypress\\psoc creator\\4.2\\psoc creator\\import\\gnu\\arm\\5.4.
 3870              		.file 4 "c:\\program files (x86)\\cypress\\psoc creator\\4.2\\psoc creator\\import\\gnu\\arm\\5.4.
 3871              		.file 5 "..\\FreeRTOS\\Source\\portable\\GCC\\ARM_CM3/portmacro.h"
 3872              		.file 6 ".\\ZumoLibrary/Reflectance.h"
 3873              		.file 7 ".\\ZumoLibrary/LSM303D.h"
 3874              		.file 8 "..\\FreeRTOS\\Source\\include/task.h"
 3875              		.file 9 ".\\ZumoLibrary/Motor.h"
 3876              		.file 10 "c:\\program files (x86)\\cypress\\psoc creator\\4.2\\psoc creator\\import\\gnu\\arm\\5.4
 3877              		.file 11 ".\\ZumoLibrary/mqtt_sender.h"
 3878              		.file 12 ".\\ZumoLibrary/Ultra.h"
 3879              		.file 13 ".\\ZumoLibrary/IR.h"
 3880              		.file 14 "Generated_Source\\PSoC5/MotorDirLeft.h"
 3881              		.file 15 "Generated_Source\\PSoC5/MotorDirRight.h"
 3882              		.file 16 "Generated_Source\\PSoC5/PWM.h"
 3883              		.file 17 "c:\\program files (x86)\\cypress\\psoc creator\\4.2\\psoc creator\\import\\gnu\\arm\\5.4
 3884              		.file 18 "Generated_Source\\PSoC5/SW1.h"
 3885              		.file 19 "Generated_Source\\PSoC5/BatteryLed.h"
 3886              		.file 20 ".\\ZumoLibrary/Beep.h"
 3887              		.file 21 "c:\\program files (x86)\\cypress\\psoc creator\\4.2\\psoc creator\\import\\gnu\\arm\\5.4
 3888              		.file 22 "<built-in>"
 3889              		.file 23 "c:\\program files (x86)\\cypress\\psoc creator\\4.2\\psoc creator\\import\\gnu\\arm\\5.4
 3890              		.file 24 "c:\\program files (x86)\\cypress\\psoc creator\\4.2\\psoc creator\\import\\gnu\\arm\\5.4
 3891              		.file 25 "Generated_Source\\PSoC5/core_cm3.h"
 3892              		.section	.debug_info,"",%progbits
 3893              	.Ldebug_info0:
 3894 0000 B61F0000 		.4byte	0x1fb6
 3895 0004 0400     		.2byte	0x4
 3896 0006 00000000 		.4byte	.Ldebug_abbrev0
ARM GAS  C:\Users\samue\AppData\Local\Temp\ccm0rw4c.s 			page 99


 3897 000a 04       		.byte	0x4
 3898 000b 01       		.uleb128 0x1
 3899 000c 1A050000 		.4byte	.LASF156
 3900 0010 0C       		.byte	0xc
 3901 0011 1C030000 		.4byte	.LASF157
 3902 0015 2C010000 		.4byte	.LASF158
 3903 0019 00000000 		.4byte	.Ldebug_ranges0+0
 3904 001d 00000000 		.4byte	0
 3905 0021 00000000 		.4byte	.Ldebug_line0
 3906 0025 02       		.uleb128 0x2
 3907 0026 04       		.byte	0x4
 3908 0027 04       		.byte	0x4
 3909 0028 59040000 		.4byte	.LASF0
 3910 002c 02       		.uleb128 0x2
 3911 002d 01       		.byte	0x1
 3912 002e 06       		.byte	0x6
 3913 002f 15010000 		.4byte	.LASF1
 3914 0033 02       		.uleb128 0x2
 3915 0034 01       		.byte	0x1
 3916 0035 08       		.byte	0x8
 3917 0036 DC040000 		.4byte	.LASF2
 3918 003a 03       		.uleb128 0x3
 3919 003b 0E020000 		.4byte	.LASF4
 3920 003f 02       		.byte	0x2
 3921 0040 29       		.byte	0x29
 3922 0041 45000000 		.4byte	0x45
 3923 0045 02       		.uleb128 0x2
 3924 0046 02       		.byte	0x2
 3925 0047 05       		.byte	0x5
 3926 0048 4F030000 		.4byte	.LASF3
 3927 004c 03       		.uleb128 0x3
 3928 004d 59060000 		.4byte	.LASF5
 3929 0051 02       		.byte	0x2
 3930 0052 2B       		.byte	0x2b
 3931 0053 57000000 		.4byte	0x57
 3932 0057 02       		.uleb128 0x2
 3933 0058 02       		.byte	0x2
 3934 0059 07       		.byte	0x7
 3935 005a F4020000 		.4byte	.LASF6
 3936 005e 03       		.uleb128 0x3
 3937 005f 74060000 		.4byte	.LASF7
 3938 0063 02       		.byte	0x2
 3939 0064 3F       		.byte	0x3f
 3940 0065 69000000 		.4byte	0x69
 3941 0069 02       		.uleb128 0x2
 3942 006a 04       		.byte	0x4
 3943 006b 05       		.byte	0x5
 3944 006c 81010000 		.4byte	.LASF8
 3945 0070 03       		.uleb128 0x3
 3946 0071 03020000 		.4byte	.LASF9
 3947 0075 02       		.byte	0x2
 3948 0076 41       		.byte	0x41
 3949 0077 7B000000 		.4byte	0x7b
 3950 007b 02       		.uleb128 0x2
 3951 007c 04       		.byte	0x4
 3952 007d 07       		.byte	0x7
 3953 007e 8A020000 		.4byte	.LASF10
ARM GAS  C:\Users\samue\AppData\Local\Temp\ccm0rw4c.s 			page 100


 3954 0082 02       		.uleb128 0x2
 3955 0083 08       		.byte	0x8
 3956 0084 05       		.byte	0x5
 3957 0085 07010000 		.4byte	.LASF11
 3958 0089 02       		.uleb128 0x2
 3959 008a 08       		.byte	0x8
 3960 008b 07       		.byte	0x7
 3961 008c 91000000 		.4byte	.LASF12
 3962 0090 04       		.uleb128 0x4
 3963 0091 04       		.byte	0x4
 3964 0092 05       		.byte	0x5
 3965 0093 696E7400 		.ascii	"int\000"
 3966 0097 02       		.uleb128 0x2
 3967 0098 04       		.byte	0x4
 3968 0099 07       		.byte	0x7
 3969 009a 47020000 		.4byte	.LASF13
 3970 009e 03       		.uleb128 0x3
 3971 009f EE000000 		.4byte	.LASF14
 3972 00a3 03       		.byte	0x3
 3973 00a4 20       		.byte	0x20
 3974 00a5 3A000000 		.4byte	0x3a
 3975 00a9 03       		.uleb128 0x3
 3976 00aa C6010000 		.4byte	.LASF15
 3977 00ae 03       		.byte	0x3
 3978 00af 24       		.byte	0x24
 3979 00b0 4C000000 		.4byte	0x4c
 3980 00b4 03       		.uleb128 0x3
 3981 00b5 D4040000 		.4byte	.LASF16
 3982 00b9 03       		.byte	0x3
 3983 00ba 2C       		.byte	0x2c
 3984 00bb 5E000000 		.4byte	0x5e
 3985 00bf 03       		.uleb128 0x3
 3986 00c0 13060000 		.4byte	.LASF17
 3987 00c4 03       		.byte	0x3
 3988 00c5 30       		.byte	0x30
 3989 00c6 70000000 		.4byte	0x70
 3990 00ca 02       		.uleb128 0x2
 3991 00cb 08       		.byte	0x8
 3992 00cc 04       		.byte	0x4
 3993 00cd D8010000 		.4byte	.LASF18
 3994 00d1 02       		.uleb128 0x2
 3995 00d2 01       		.byte	0x1
 3996 00d3 08       		.byte	0x8
 3997 00d4 3C060000 		.4byte	.LASF19
 3998 00d8 02       		.uleb128 0x2
 3999 00d9 08       		.byte	0x8
 4000 00da 04       		.byte	0x4
 4001 00db 30060000 		.4byte	.LASF20
 4002 00df 02       		.uleb128 0x2
 4003 00e0 04       		.byte	0x4
 4004 00e1 07       		.byte	0x7
 4005 00e2 A5030000 		.4byte	.LASF21
 4006 00e6 05       		.uleb128 0x5
 4007 00e7 04       		.byte	0x4
 4008 00e8 D1000000 		.4byte	0xd1
 4009 00ec 03       		.uleb128 0x3
 4010 00ed 95040000 		.4byte	.LASF22
ARM GAS  C:\Users\samue\AppData\Local\Temp\ccm0rw4c.s 			page 101


 4011 00f1 04       		.byte	0x4
 4012 00f2 6C       		.byte	0x6c
 4013 00f3 97000000 		.4byte	0x97
 4014 00f7 03       		.uleb128 0x3
 4015 00f8 C5030000 		.4byte	.LASF23
 4016 00fc 05       		.byte	0x5
 4017 00fd 3F       		.byte	0x3f
 4018 00fe BF000000 		.4byte	0xbf
 4019 0102 06       		.uleb128 0x6
 4020 0103 50060000 		.4byte	.LASF24
 4021 0107 0C       		.byte	0xc
 4022 0108 06       		.byte	0x6
 4023 0109 0E       		.byte	0xe
 4024 010a 51010000 		.4byte	0x151
 4025 010e 07       		.uleb128 0x7
 4026 010f 6C3300   		.ascii	"l3\000"
 4027 0112 06       		.byte	0x6
 4028 0113 0F       		.byte	0xf
 4029 0114 A9000000 		.4byte	0xa9
 4030 0118 00       		.byte	0
 4031 0119 07       		.uleb128 0x7
 4032 011a 6C3200   		.ascii	"l2\000"
 4033 011d 06       		.byte	0x6
 4034 011e 10       		.byte	0x10
 4035 011f A9000000 		.4byte	0xa9
 4036 0123 02       		.byte	0x2
 4037 0124 07       		.uleb128 0x7
 4038 0125 6C3100   		.ascii	"l1\000"
 4039 0128 06       		.byte	0x6
 4040 0129 11       		.byte	0x11
 4041 012a A9000000 		.4byte	0xa9
 4042 012e 04       		.byte	0x4
 4043 012f 07       		.uleb128 0x7
 4044 0130 723100   		.ascii	"r1\000"
 4045 0133 06       		.byte	0x6
 4046 0134 12       		.byte	0x12
 4047 0135 A9000000 		.4byte	0xa9
 4048 0139 06       		.byte	0x6
 4049 013a 07       		.uleb128 0x7
 4050 013b 723200   		.ascii	"r2\000"
 4051 013e 06       		.byte	0x6
 4052 013f 13       		.byte	0x13
 4053 0140 A9000000 		.4byte	0xa9
 4054 0144 08       		.byte	0x8
 4055 0145 07       		.uleb128 0x7
 4056 0146 723300   		.ascii	"r3\000"
 4057 0149 06       		.byte	0x6
 4058 014a 14       		.byte	0x14
 4059 014b A9000000 		.4byte	0xa9
 4060 014f 0A       		.byte	0xa
 4061 0150 00       		.byte	0
 4062 0151 06       		.uleb128 0x6
 4063 0152 18020000 		.4byte	.LASF25
 4064 0156 06       		.byte	0x6
 4065 0157 07       		.byte	0x7
 4066 0158 47       		.byte	0x47
 4067 0159 82010000 		.4byte	0x182
ARM GAS  C:\Users\samue\AppData\Local\Temp\ccm0rw4c.s 			page 102


 4068 015d 08       		.uleb128 0x8
 4069 015e A8000000 		.4byte	.LASF26
 4070 0162 07       		.byte	0x7
 4071 0163 49       		.byte	0x49
 4072 0164 9E000000 		.4byte	0x9e
 4073 0168 00       		.byte	0
 4074 0169 08       		.uleb128 0x8
 4075 016a AD000000 		.4byte	.LASF27
 4076 016e 07       		.byte	0x7
 4077 016f 4A       		.byte	0x4a
 4078 0170 9E000000 		.4byte	0x9e
 4079 0174 02       		.byte	0x2
 4080 0175 08       		.uleb128 0x8
 4081 0176 B2000000 		.4byte	.LASF28
 4082 017a 07       		.byte	0x7
 4083 017b 4B       		.byte	0x4b
 4084 017c 9E000000 		.4byte	0x9e
 4085 0180 04       		.byte	0x4
 4086 0181 00       		.byte	0
 4087 0182 09       		.uleb128 0x9
 4088 0183 5B070000 		.4byte	.LASF31
 4089 0187 01       		.byte	0x1
 4090 0188 AE01     		.2byte	0x1ae
 4091 018a F7000000 		.4byte	0xf7
 4092 018e 00000000 		.4byte	.LFB90
 4093 0192 F6000000 		.4byte	.LFE90-.LFB90
 4094 0196 01       		.uleb128 0x1
 4095 0197 9C       		.byte	0x9c
 4096 0198 8A030000 		.4byte	0x38a
 4097 019c 0A       		.uleb128 0xa
 4098 019d 68697400 		.ascii	"hit\000"
 4099 01a1 01       		.byte	0x1
 4100 01a2 AE01     		.2byte	0x1ae
 4101 01a4 90000000 		.4byte	0x90
 4102 01a8 00000000 		.4byte	.LLST0
 4103 01ac 0B       		.uleb128 0xb
 4104 01ad 2A020000 		.4byte	.LASF29
 4105 01b1 01       		.byte	0x1
 4106 01b2 AF01     		.2byte	0x1af
 4107 01b4 F7000000 		.4byte	0xf7
 4108 01b8 1E000000 		.4byte	.LLST1
 4109 01bc 0B       		.uleb128 0xb
 4110 01bd EA040000 		.4byte	.LASF30
 4111 01c1 01       		.byte	0x1
 4112 01c2 B001     		.2byte	0x1b0
 4113 01c4 90000000 		.4byte	0x90
 4114 01c8 EC000000 		.4byte	.LLST2
 4115 01cc 0C       		.uleb128 0xc
 4116 01cd 08000000 		.4byte	.LVL1
 4117 01d1 F91D0000 		.4byte	0x1df9
 4118 01d5 0D       		.uleb128 0xd
 4119 01d6 16000000 		.4byte	.LVL4
 4120 01da 051E0000 		.4byte	0x1e05
 4121 01de ED010000 		.4byte	0x1ed
 4122 01e2 0E       		.uleb128 0xe
 4123 01e3 01       		.uleb128 0x1
 4124 01e4 50       		.byte	0x50
ARM GAS  C:\Users\samue\AppData\Local\Temp\ccm0rw4c.s 			page 103


 4125 01e5 01       		.uleb128 0x1
 4126 01e6 30       		.byte	0x30
 4127 01e7 0E       		.uleb128 0xe
 4128 01e8 01       		.uleb128 0x1
 4129 01e9 51       		.byte	0x51
 4130 01ea 01       		.uleb128 0x1
 4131 01eb 30       		.byte	0x30
 4132 01ec 00       		.byte	0
 4133 01ed 0D       		.uleb128 0xd
 4134 01ee 20000000 		.4byte	.LVL5
 4135 01f2 101E0000 		.4byte	0x1e10
 4136 01f6 0C020000 		.4byte	0x20c
 4137 01fa 0E       		.uleb128 0xe
 4138 01fb 01       		.uleb128 0x1
 4139 01fc 50       		.byte	0x50
 4140 01fd 02       		.uleb128 0x2
 4141 01fe 09       		.byte	0x9
 4142 01ff FF       		.byte	0xff
 4143 0200 0E       		.uleb128 0xe
 4144 0201 01       		.uleb128 0x1
 4145 0202 51       		.byte	0x51
 4146 0203 02       		.uleb128 0x2
 4147 0204 08       		.byte	0x8
 4148 0205 32       		.byte	0x32
 4149 0206 0E       		.uleb128 0xe
 4150 0207 01       		.uleb128 0x1
 4151 0208 52       		.byte	0x52
 4152 0209 01       		.uleb128 0x1
 4153 020a 30       		.byte	0x30
 4154 020b 00       		.byte	0
 4155 020c 0D       		.uleb128 0xd
 4156 020d 32000000 		.4byte	.LVL8
 4157 0211 051E0000 		.4byte	0x1e05
 4158 0215 24020000 		.4byte	0x224
 4159 0219 0E       		.uleb128 0xe
 4160 021a 01       		.uleb128 0x1
 4161 021b 50       		.byte	0x50
 4162 021c 01       		.uleb128 0x1
 4163 021d 30       		.byte	0x30
 4164 021e 0E       		.uleb128 0xe
 4165 021f 01       		.uleb128 0x1
 4166 0220 51       		.byte	0x51
 4167 0221 01       		.uleb128 0x1
 4168 0222 30       		.byte	0x30
 4169 0223 00       		.byte	0
 4170 0224 0D       		.uleb128 0xd
 4171 0225 3C000000 		.4byte	.LVL9
 4172 0229 101E0000 		.4byte	0x1e10
 4173 022d 43020000 		.4byte	0x243
 4174 0231 0E       		.uleb128 0xe
 4175 0232 01       		.uleb128 0x1
 4176 0233 50       		.byte	0x50
 4177 0234 02       		.uleb128 0x2
 4178 0235 09       		.byte	0x9
 4179 0236 FF       		.byte	0xff
 4180 0237 0E       		.uleb128 0xe
 4181 0238 01       		.uleb128 0x1
ARM GAS  C:\Users\samue\AppData\Local\Temp\ccm0rw4c.s 			page 104


 4182 0239 51       		.byte	0x51
 4183 023a 02       		.uleb128 0x2
 4184 023b 08       		.byte	0x8
 4185 023c 32       		.byte	0x32
 4186 023d 0E       		.uleb128 0xe
 4187 023e 01       		.uleb128 0x1
 4188 023f 52       		.byte	0x52
 4189 0240 01       		.uleb128 0x1
 4190 0241 30       		.byte	0x30
 4191 0242 00       		.byte	0
 4192 0243 0D       		.uleb128 0xd
 4193 0244 4E000000 		.4byte	.LVL12
 4194 0248 1B1E0000 		.4byte	0x1e1b
 4195 024c 5B020000 		.4byte	0x25b
 4196 0250 0E       		.uleb128 0xe
 4197 0251 01       		.uleb128 0x1
 4198 0252 50       		.byte	0x50
 4199 0253 01       		.uleb128 0x1
 4200 0254 30       		.byte	0x30
 4201 0255 0E       		.uleb128 0xe
 4202 0256 01       		.uleb128 0x1
 4203 0257 51       		.byte	0x51
 4204 0258 01       		.uleb128 0x1
 4205 0259 30       		.byte	0x30
 4206 025a 00       		.byte	0
 4207 025b 0D       		.uleb128 0xd
 4208 025c 58000000 		.4byte	.LVL13
 4209 0260 101E0000 		.4byte	0x1e10
 4210 0264 7A020000 		.4byte	0x27a
 4211 0268 0E       		.uleb128 0xe
 4212 0269 01       		.uleb128 0x1
 4213 026a 50       		.byte	0x50
 4214 026b 02       		.uleb128 0x2
 4215 026c 09       		.byte	0x9
 4216 026d FF       		.byte	0xff
 4217 026e 0E       		.uleb128 0xe
 4218 026f 01       		.uleb128 0x1
 4219 0270 51       		.byte	0x51
 4220 0271 02       		.uleb128 0x2
 4221 0272 08       		.byte	0x8
 4222 0273 32       		.byte	0x32
 4223 0274 0E       		.uleb128 0xe
 4224 0275 01       		.uleb128 0x1
 4225 0276 52       		.byte	0x52
 4226 0277 01       		.uleb128 0x1
 4227 0278 30       		.byte	0x30
 4228 0279 00       		.byte	0
 4229 027a 0D       		.uleb128 0xd
 4230 027b 6A000000 		.4byte	.LVL16
 4231 027f 1B1E0000 		.4byte	0x1e1b
 4232 0283 92020000 		.4byte	0x292
 4233 0287 0E       		.uleb128 0xe
 4234 0288 01       		.uleb128 0x1
 4235 0289 50       		.byte	0x50
 4236 028a 01       		.uleb128 0x1
 4237 028b 30       		.byte	0x30
 4238 028c 0E       		.uleb128 0xe
ARM GAS  C:\Users\samue\AppData\Local\Temp\ccm0rw4c.s 			page 105


 4239 028d 01       		.uleb128 0x1
 4240 028e 51       		.byte	0x51
 4241 028f 01       		.uleb128 0x1
 4242 0290 30       		.byte	0x30
 4243 0291 00       		.byte	0
 4244 0292 0D       		.uleb128 0xd
 4245 0293 74000000 		.4byte	.LVL17
 4246 0297 101E0000 		.4byte	0x1e10
 4247 029b B1020000 		.4byte	0x2b1
 4248 029f 0E       		.uleb128 0xe
 4249 02a0 01       		.uleb128 0x1
 4250 02a1 50       		.byte	0x50
 4251 02a2 02       		.uleb128 0x2
 4252 02a3 09       		.byte	0x9
 4253 02a4 FF       		.byte	0xff
 4254 02a5 0E       		.uleb128 0xe
 4255 02a6 01       		.uleb128 0x1
 4256 02a7 51       		.byte	0x51
 4257 02a8 02       		.uleb128 0x2
 4258 02a9 08       		.byte	0x8
 4259 02aa 32       		.byte	0x32
 4260 02ab 0E       		.uleb128 0xe
 4261 02ac 01       		.uleb128 0x1
 4262 02ad 52       		.byte	0x52
 4263 02ae 01       		.uleb128 0x1
 4264 02af 30       		.byte	0x30
 4265 02b0 00       		.byte	0
 4266 02b1 0D       		.uleb128 0xd
 4267 02b2 86000000 		.4byte	.LVL20
 4268 02b6 1B1E0000 		.4byte	0x1e1b
 4269 02ba C9020000 		.4byte	0x2c9
 4270 02be 0E       		.uleb128 0xe
 4271 02bf 01       		.uleb128 0x1
 4272 02c0 50       		.byte	0x50
 4273 02c1 01       		.uleb128 0x1
 4274 02c2 30       		.byte	0x30
 4275 02c3 0E       		.uleb128 0xe
 4276 02c4 01       		.uleb128 0x1
 4277 02c5 51       		.byte	0x51
 4278 02c6 01       		.uleb128 0x1
 4279 02c7 30       		.byte	0x30
 4280 02c8 00       		.byte	0
 4281 02c9 0D       		.uleb128 0xd
 4282 02ca 90000000 		.4byte	.LVL21
 4283 02ce 101E0000 		.4byte	0x1e10
 4284 02d2 E8020000 		.4byte	0x2e8
 4285 02d6 0E       		.uleb128 0xe
 4286 02d7 01       		.uleb128 0x1
 4287 02d8 50       		.byte	0x50
 4288 02d9 02       		.uleb128 0x2
 4289 02da 08       		.byte	0x8
 4290 02db 32       		.byte	0x32
 4291 02dc 0E       		.uleb128 0xe
 4292 02dd 01       		.uleb128 0x1
 4293 02de 51       		.byte	0x51
 4294 02df 02       		.uleb128 0x2
 4295 02e0 09       		.byte	0x9
ARM GAS  C:\Users\samue\AppData\Local\Temp\ccm0rw4c.s 			page 106


 4296 02e1 FF       		.byte	0xff
 4297 02e2 0E       		.uleb128 0xe
 4298 02e3 01       		.uleb128 0x1
 4299 02e4 52       		.byte	0x52
 4300 02e5 01       		.uleb128 0x1
 4301 02e6 30       		.byte	0x30
 4302 02e7 00       		.byte	0
 4303 02e8 0D       		.uleb128 0xd
 4304 02e9 A4000000 		.4byte	.LVL24
 4305 02ed 1B1E0000 		.4byte	0x1e1b
 4306 02f1 00030000 		.4byte	0x300
 4307 02f5 0E       		.uleb128 0xe
 4308 02f6 01       		.uleb128 0x1
 4309 02f7 50       		.byte	0x50
 4310 02f8 01       		.uleb128 0x1
 4311 02f9 30       		.byte	0x30
 4312 02fa 0E       		.uleb128 0xe
 4313 02fb 01       		.uleb128 0x1
 4314 02fc 51       		.byte	0x51
 4315 02fd 01       		.uleb128 0x1
 4316 02fe 30       		.byte	0x30
 4317 02ff 00       		.byte	0
 4318 0300 0D       		.uleb128 0xd
 4319 0301 AE000000 		.4byte	.LVL25
 4320 0305 101E0000 		.4byte	0x1e10
 4321 0309 1F030000 		.4byte	0x31f
 4322 030d 0E       		.uleb128 0xe
 4323 030e 01       		.uleb128 0x1
 4324 030f 50       		.byte	0x50
 4325 0310 02       		.uleb128 0x2
 4326 0311 08       		.byte	0x8
 4327 0312 32       		.byte	0x32
 4328 0313 0E       		.uleb128 0xe
 4329 0314 01       		.uleb128 0x1
 4330 0315 51       		.byte	0x51
 4331 0316 02       		.uleb128 0x2
 4332 0317 09       		.byte	0x9
 4333 0318 FF       		.byte	0xff
 4334 0319 0E       		.uleb128 0xe
 4335 031a 01       		.uleb128 0x1
 4336 031b 52       		.byte	0x52
 4337 031c 01       		.uleb128 0x1
 4338 031d 30       		.byte	0x30
 4339 031e 00       		.byte	0
 4340 031f 0D       		.uleb128 0xd
 4341 0320 C2000000 		.4byte	.LVL28
 4342 0324 051E0000 		.4byte	0x1e05
 4343 0328 37030000 		.4byte	0x337
 4344 032c 0E       		.uleb128 0xe
 4345 032d 01       		.uleb128 0x1
 4346 032e 50       		.byte	0x50
 4347 032f 01       		.uleb128 0x1
 4348 0330 30       		.byte	0x30
 4349 0331 0E       		.uleb128 0xe
 4350 0332 01       		.uleb128 0x1
 4351 0333 51       		.byte	0x51
 4352 0334 01       		.uleb128 0x1
ARM GAS  C:\Users\samue\AppData\Local\Temp\ccm0rw4c.s 			page 107


 4353 0335 30       		.byte	0x30
 4354 0336 00       		.byte	0
 4355 0337 0D       		.uleb128 0xd
 4356 0338 CC000000 		.4byte	.LVL29
 4357 033c 101E0000 		.4byte	0x1e10
 4358 0340 56030000 		.4byte	0x356
 4359 0344 0E       		.uleb128 0xe
 4360 0345 01       		.uleb128 0x1
 4361 0346 50       		.byte	0x50
 4362 0347 02       		.uleb128 0x2
 4363 0348 08       		.byte	0x8
 4364 0349 32       		.byte	0x32
 4365 034a 0E       		.uleb128 0xe
 4366 034b 01       		.uleb128 0x1
 4367 034c 51       		.byte	0x51
 4368 034d 02       		.uleb128 0x2
 4369 034e 09       		.byte	0x9
 4370 034f FF       		.byte	0xff
 4371 0350 0E       		.uleb128 0xe
 4372 0351 01       		.uleb128 0x1
 4373 0352 52       		.byte	0x52
 4374 0353 01       		.uleb128 0x1
 4375 0354 30       		.byte	0x30
 4376 0355 00       		.byte	0
 4377 0356 0D       		.uleb128 0xd
 4378 0357 E0000000 		.4byte	.LVL32
 4379 035b 051E0000 		.4byte	0x1e05
 4380 035f 6E030000 		.4byte	0x36e
 4381 0363 0E       		.uleb128 0xe
 4382 0364 01       		.uleb128 0x1
 4383 0365 50       		.byte	0x50
 4384 0366 01       		.uleb128 0x1
 4385 0367 30       		.byte	0x30
 4386 0368 0E       		.uleb128 0xe
 4387 0369 01       		.uleb128 0x1
 4388 036a 51       		.byte	0x51
 4389 036b 01       		.uleb128 0x1
 4390 036c 30       		.byte	0x30
 4391 036d 00       		.byte	0
 4392 036e 0F       		.uleb128 0xf
 4393 036f EA000000 		.4byte	.LVL33
 4394 0373 101E0000 		.4byte	0x1e10
 4395 0377 0E       		.uleb128 0xe
 4396 0378 01       		.uleb128 0x1
 4397 0379 50       		.byte	0x50
 4398 037a 02       		.uleb128 0x2
 4399 037b 08       		.byte	0x8
 4400 037c 32       		.byte	0x32
 4401 037d 0E       		.uleb128 0xe
 4402 037e 01       		.uleb128 0x1
 4403 037f 51       		.byte	0x51
 4404 0380 02       		.uleb128 0x2
 4405 0381 09       		.byte	0x9
 4406 0382 FF       		.byte	0xff
 4407 0383 0E       		.uleb128 0xe
 4408 0384 01       		.uleb128 0x1
 4409 0385 52       		.byte	0x52
ARM GAS  C:\Users\samue\AppData\Local\Temp\ccm0rw4c.s 			page 108


 4410 0386 01       		.uleb128 0x1
 4411 0387 30       		.byte	0x30
 4412 0388 00       		.byte	0
 4413 0389 00       		.byte	0
 4414 038a 10       		.uleb128 0x10
 4415 038b B7000000 		.4byte	.LASF32
 4416 038f 01       		.byte	0x1
 4417 0390 DE01     		.2byte	0x1de
 4418 0392 90000000 		.4byte	0x90
 4419 0396 00000000 		.4byte	.LFB92
 4420 039a D0000000 		.4byte	.LFE92-.LFB92
 4421 039e 01       		.uleb128 0x1
 4422 039f 9C       		.byte	0x9c
 4423 03a0 FC030000 		.4byte	0x3fc
 4424 03a4 11       		.uleb128 0x11
 4425 03a5 61636300 		.ascii	"acc\000"
 4426 03a9 01       		.byte	0x1
 4427 03aa DE01     		.2byte	0x1de
 4428 03ac 51010000 		.4byte	0x151
 4429 03b0 02       		.uleb128 0x2
 4430 03b1 91       		.byte	0x91
 4431 03b2 60       		.sleb128 -32
 4432 03b3 12       		.uleb128 0x12
 4433 03b4 68697400 		.ascii	"hit\000"
 4434 03b8 01       		.byte	0x1
 4435 03b9 DF01     		.2byte	0x1df
 4436 03bb CA000000 		.4byte	0xca
 4437 03bf DB010000 		.4byte	.LLST3
 4438 03c3 0D       		.uleb128 0xd
 4439 03c4 0E000000 		.4byte	.LVL38
 4440 03c8 261E0000 		.4byte	0x1e26
 4441 03cc D7030000 		.4byte	0x3d7
 4442 03d0 0E       		.uleb128 0xe
 4443 03d1 01       		.uleb128 0x1
 4444 03d2 50       		.byte	0x50
 4445 03d3 02       		.uleb128 0x2
 4446 03d4 7D       		.byte	0x7d
 4447 03d5 00       		.sleb128 0
 4448 03d6 00       		.byte	0
 4449 03d7 0C       		.uleb128 0xc
 4450 03d8 24000000 		.4byte	.LVL40
 4451 03dc 311E0000 		.4byte	0x1e31
 4452 03e0 0C       		.uleb128 0xc
 4453 03e1 38000000 		.4byte	.LVL42
 4454 03e5 311E0000 		.4byte	0x1e31
 4455 03e9 0C       		.uleb128 0xc
 4456 03ea 4C000000 		.4byte	.LVL44
 4457 03ee 3C1E0000 		.4byte	0x1e3c
 4458 03f2 0C       		.uleb128 0xc
 4459 03f3 7E000000 		.4byte	.LVL49
 4460 03f7 471E0000 		.4byte	0x1e47
 4461 03fb 00       		.byte	0
 4462 03fc 13       		.uleb128 0x13
 4463 03fd 76070000 		.4byte	.LASF34
 4464 0401 01       		.byte	0x1
 4465 0402 EA01     		.2byte	0x1ea
 4466 0404 00000000 		.4byte	.LFB93
ARM GAS  C:\Users\samue\AppData\Local\Temp\ccm0rw4c.s 			page 109


 4467 0408 20000000 		.4byte	.LFE93-.LFB93
 4468 040c 01       		.uleb128 0x1
 4469 040d 9C       		.byte	0x9c
 4470 040e 4E040000 		.4byte	0x44e
 4471 0412 14       		.uleb128 0x14
 4472 0413 E8050000 		.4byte	.LASF33
 4473 0417 01       		.byte	0x1
 4474 0418 EA01     		.2byte	0x1ea
 4475 041a 90000000 		.4byte	0x90
 4476 041e 3B020000 		.4byte	.LLST4
 4477 0422 0C       		.uleb128 0xc
 4478 0423 08000000 		.4byte	.LVL57
 4479 0427 F91D0000 		.4byte	0x1df9
 4480 042b 0F       		.uleb128 0xf
 4481 042c 14000000 		.4byte	.LVL58
 4482 0430 521E0000 		.4byte	0x1e52
 4483 0434 0E       		.uleb128 0xe
 4484 0435 01       		.uleb128 0x1
 4485 0436 50       		.byte	0x50
 4486 0437 05       		.uleb128 0x5
 4487 0438 03       		.byte	0x3
 4488 0439 08000000 		.4byte	.LC2
 4489 043d 0E       		.uleb128 0xe
 4490 043e 01       		.uleb128 0x1
 4491 043f 51       		.byte	0x51
 4492 0440 05       		.uleb128 0x5
 4493 0441 03       		.byte	0x3
 4494 0442 00000000 		.4byte	.LC1
 4495 0446 0E       		.uleb128 0xe
 4496 0447 01       		.uleb128 0x1
 4497 0448 53       		.byte	0x53
 4498 0449 02       		.uleb128 0x2
 4499 044a 74       		.byte	0x74
 4500 044b 00       		.sleb128 0
 4501 044c 00       		.byte	0
 4502 044d 00       		.byte	0
 4503 044e 13       		.uleb128 0x13
 4504 044f F6010000 		.4byte	.LASF35
 4505 0453 01       		.byte	0x1
 4506 0454 EE01     		.2byte	0x1ee
 4507 0456 00000000 		.4byte	.LFB94
 4508 045a 3C000000 		.4byte	.LFE94-.LFB94
 4509 045e 01       		.uleb128 0x1
 4510 045f 9C       		.byte	0x9c
 4511 0460 F4040000 		.4byte	0x4f4
 4512 0464 14       		.uleb128 0x14
 4513 0465 68070000 		.4byte	.LASF36
 4514 0469 01       		.byte	0x1
 4515 046a EE01     		.2byte	0x1ee
 4516 046c F7000000 		.4byte	0xf7
 4517 0470 67020000 		.4byte	.LLST5
 4518 0474 0B       		.uleb128 0xb
 4519 0475 84070000 		.4byte	.LASF37
 4520 0479 01       		.byte	0x1
 4521 047a F001     		.2byte	0x1f0
 4522 047c F7000000 		.4byte	0xf7
 4523 0480 93020000 		.4byte	.LLST6
ARM GAS  C:\Users\samue\AppData\Local\Temp\ccm0rw4c.s 			page 110


 4524 0484 0D       		.uleb128 0xd
 4525 0485 0C000000 		.4byte	.LVL62
 4526 0489 1B1E0000 		.4byte	0x1e1b
 4527 048d 9C040000 		.4byte	0x49c
 4528 0491 0E       		.uleb128 0xe
 4529 0492 01       		.uleb128 0x1
 4530 0493 50       		.byte	0x50
 4531 0494 01       		.uleb128 0x1
 4532 0495 30       		.byte	0x30
 4533 0496 0E       		.uleb128 0xe
 4534 0497 01       		.uleb128 0x1
 4535 0498 51       		.byte	0x51
 4536 0499 01       		.uleb128 0x1
 4537 049a 30       		.byte	0x30
 4538 049b 00       		.byte	0
 4539 049c 0C       		.uleb128 0xc
 4540 049d 10000000 		.4byte	.LVL63
 4541 04a1 F91D0000 		.4byte	0x1df9
 4542 04a5 0D       		.uleb128 0xd
 4543 04a6 1E000000 		.4byte	.LVL66
 4544 04aa 521E0000 		.4byte	0x1e52
 4545 04ae C8040000 		.4byte	0x4c8
 4546 04b2 0E       		.uleb128 0xe
 4547 04b3 01       		.uleb128 0x1
 4548 04b4 50       		.byte	0x50
 4549 04b5 05       		.uleb128 0x5
 4550 04b6 03       		.byte	0x3
 4551 04b7 18000000 		.4byte	.LC4
 4552 04bb 0E       		.uleb128 0xe
 4553 04bc 01       		.uleb128 0x1
 4554 04bd 51       		.byte	0x51
 4555 04be 02       		.uleb128 0x2
 4556 04bf 74       		.byte	0x74
 4557 04c0 00       		.sleb128 0
 4558 04c1 0E       		.uleb128 0xe
 4559 04c2 01       		.uleb128 0x1
 4560 04c3 52       		.byte	0x52
 4561 04c4 02       		.uleb128 0x2
 4562 04c5 75       		.byte	0x75
 4563 04c6 00       		.sleb128 0
 4564 04c7 00       		.byte	0
 4565 04c8 0C       		.uleb128 0xc
 4566 04c9 22000000 		.4byte	.LVL67
 4567 04cd 5D1E0000 		.4byte	0x1e5d
 4568 04d1 0F       		.uleb128 0xf
 4569 04d2 2C000000 		.4byte	.LVL68
 4570 04d6 521E0000 		.4byte	0x1e52
 4571 04da 0E       		.uleb128 0xe
 4572 04db 01       		.uleb128 0x1
 4573 04dc 50       		.byte	0x50
 4574 04dd 05       		.uleb128 0x5
 4575 04de 03       		.byte	0x3
 4576 04df 28000000 		.4byte	.LC5
 4577 04e3 0E       		.uleb128 0xe
 4578 04e4 01       		.uleb128 0x1
 4579 04e5 51       		.byte	0x51
 4580 04e6 02       		.uleb128 0x2
ARM GAS  C:\Users\samue\AppData\Local\Temp\ccm0rw4c.s 			page 111


 4581 04e7 74       		.byte	0x74
 4582 04e8 00       		.sleb128 0
 4583 04e9 0E       		.uleb128 0xe
 4584 04ea 01       		.uleb128 0x1
 4585 04eb 52       		.byte	0x52
 4586 04ec 05       		.uleb128 0x5
 4587 04ed 75       		.byte	0x75
 4588 04ee 00       		.sleb128 0
 4589 04ef 76       		.byte	0x76
 4590 04f0 00       		.sleb128 0
 4591 04f1 1C       		.byte	0x1c
 4592 04f2 00       		.byte	0
 4593 04f3 00       		.byte	0
 4594 04f4 15       		.uleb128 0x15
 4595 04f5 AE030000 		.4byte	.LASF38
 4596 04f9 01       		.byte	0x1
 4597 04fa F601     		.2byte	0x1f6
 4598 04fc 00000000 		.4byte	.LFB95
 4599 0500 58000000 		.4byte	.LFE95-.LFB95
 4600 0504 01       		.uleb128 0x1
 4601 0505 9C       		.byte	0x9c
 4602 0506 E4050000 		.4byte	0x5e4
 4603 050a 16       		.uleb128 0x16
 4604 050b 2A070000 		.4byte	.LASF39
 4605 050f 01       		.byte	0x1
 4606 0510 FC01     		.2byte	0x1fc
 4607 0512 F7000000 		.4byte	0xf7
 4608 0516 00       		.byte	0
 4609 0517 0C       		.uleb128 0xc
 4610 0518 06000000 		.4byte	.LVL70
 4611 051c 681E0000 		.4byte	0x1e68
 4612 0520 0C       		.uleb128 0xc
 4613 0521 0A000000 		.4byte	.LVL71
 4614 0525 731E0000 		.4byte	0x1e73
 4615 0529 0C       		.uleb128 0xc
 4616 052a 0E000000 		.4byte	.LVL72
 4617 052e 7E1E0000 		.4byte	0x1e7e
 4618 0532 0C       		.uleb128 0xc
 4619 0533 12000000 		.4byte	.LVL73
 4620 0537 891E0000 		.4byte	0x1e89
 4621 053b 0C       		.uleb128 0xc
 4622 053c 16000000 		.4byte	.LVL74
 4623 0540 941E0000 		.4byte	0x1e94
 4624 0544 0D       		.uleb128 0xd
 4625 0545 1E000000 		.4byte	.LVL75
 4626 0549 1B1E0000 		.4byte	0x1e1b
 4627 054d 5D050000 		.4byte	0x55d
 4628 0551 0E       		.uleb128 0xe
 4629 0552 01       		.uleb128 0x1
 4630 0553 50       		.byte	0x50
 4631 0554 02       		.uleb128 0x2
 4632 0555 08       		.byte	0x8
 4633 0556 32       		.byte	0x32
 4634 0557 0E       		.uleb128 0xe
 4635 0558 01       		.uleb128 0x1
 4636 0559 51       		.byte	0x51
 4637 055a 01       		.uleb128 0x1
ARM GAS  C:\Users\samue\AppData\Local\Temp\ccm0rw4c.s 			page 112


 4638 055b 30       		.byte	0x30
 4639 055c 00       		.byte	0
 4640 055d 0D       		.uleb128 0xd
 4641 055e 26000000 		.4byte	.LVL76
 4642 0562 9F1E0000 		.4byte	0x1e9f
 4643 0566 70050000 		.4byte	0x570
 4644 056a 0E       		.uleb128 0xe
 4645 056b 01       		.uleb128 0x1
 4646 056c 50       		.byte	0x50
 4647 056d 01       		.uleb128 0x1
 4648 056e 44       		.byte	0x44
 4649 056f 00       		.byte	0
 4650 0570 0C       		.uleb128 0xc
 4651 0571 2A000000 		.4byte	.LVL77
 4652 0575 AB1E0000 		.4byte	0x1eab
 4653 0579 0D       		.uleb128 0xd
 4654 057a 34000000 		.4byte	.LVL78
 4655 057e B61E0000 		.4byte	0x1eb6
 4656 0582 8C050000 		.4byte	0x58c
 4657 0586 0E       		.uleb128 0xe
 4658 0587 01       		.uleb128 0x1
 4659 0588 50       		.byte	0x50
 4660 0589 01       		.uleb128 0x1
 4661 058a 31       		.byte	0x31
 4662 058b 00       		.byte	0
 4663 058c 0D       		.uleb128 0xd
 4664 058d 3A000000 		.4byte	.LVL79
 4665 0591 C11E0000 		.4byte	0x1ec1
 4666 0595 9F050000 		.4byte	0x59f
 4667 0599 0E       		.uleb128 0xe
 4668 059a 01       		.uleb128 0x1
 4669 059b 50       		.byte	0x50
 4670 059c 01       		.uleb128 0x1
 4671 059d 30       		.byte	0x30
 4672 059e 00       		.byte	0
 4673 059f 0D       		.uleb128 0xd
 4674 05a0 40000000 		.4byte	.LVL80
 4675 05a4 CC1E0000 		.4byte	0x1ecc
 4676 05a8 B3050000 		.4byte	0x5b3
 4677 05ac 0E       		.uleb128 0xe
 4678 05ad 01       		.uleb128 0x1
 4679 05ae 50       		.byte	0x50
 4680 05af 02       		.uleb128 0x2
 4681 05b0 08       		.byte	0x8
 4682 05b1 64       		.byte	0x64
 4683 05b2 00       		.byte	0
 4684 05b3 0D       		.uleb128 0xd
 4685 05b4 46000000 		.4byte	.LVL81
 4686 05b8 D71E0000 		.4byte	0x1ed7
 4687 05bc C7050000 		.4byte	0x5c7
 4688 05c0 0E       		.uleb128 0xe
 4689 05c1 01       		.uleb128 0x1
 4690 05c2 50       		.byte	0x50
 4691 05c3 02       		.uleb128 0x2
 4692 05c4 08       		.byte	0x8
 4693 05c5 64       		.byte	0x64
 4694 05c6 00       		.byte	0
ARM GAS  C:\Users\samue\AppData\Local\Temp\ccm0rw4c.s 			page 113


 4695 05c7 0D       		.uleb128 0xd
 4696 05c8 4E000000 		.4byte	.LVL82
 4697 05cc 9F1E0000 		.4byte	0x1e9f
 4698 05d0 DA050000 		.4byte	0x5da
 4699 05d4 0E       		.uleb128 0xe
 4700 05d5 01       		.uleb128 0x1
 4701 05d6 50       		.byte	0x50
 4702 05d7 01       		.uleb128 0x1
 4703 05d8 44       		.byte	0x44
 4704 05d9 00       		.byte	0
 4705 05da 0C       		.uleb128 0xc
 4706 05db 52000000 		.4byte	.LVL83
 4707 05df AB1E0000 		.4byte	0x1eab
 4708 05e3 00       		.byte	0
 4709 05e4 13       		.uleb128 0x13
 4710 05e5 EF050000 		.4byte	.LASF40
 4711 05e9 01       		.byte	0x1
 4712 05ea 6E02     		.2byte	0x26e
 4713 05ec 00000000 		.4byte	.LFB97
 4714 05f0 44000000 		.4byte	.LFE97-.LFB97
 4715 05f4 01       		.uleb128 0x1
 4716 05f5 9C       		.byte	0x9c
 4717 05f6 94060000 		.4byte	0x694
 4718 05fa 14       		.uleb128 0x14
 4719 05fb 7E060000 		.4byte	.LASF41
 4720 05ff 01       		.byte	0x1
 4721 0600 6E02     		.2byte	0x26e
 4722 0602 E6000000 		.4byte	0xe6
 4723 0606 BC020000 		.4byte	.LLST7
 4724 060a 0C       		.uleb128 0xc
 4725 060b 0A000000 		.4byte	.LVL85
 4726 060f 7E1E0000 		.4byte	0x1e7e
 4727 0613 0C       		.uleb128 0xc
 4728 0614 0E000000 		.4byte	.LVL86
 4729 0618 E21E0000 		.4byte	0x1ee2
 4730 061c 0D       		.uleb128 0xd
 4731 061d 22000000 		.4byte	.LVL87
 4732 0621 ED1E0000 		.4byte	0x1eed
 4733 0625 56060000 		.4byte	0x656
 4734 0629 0E       		.uleb128 0xe
 4735 062a 01       		.uleb128 0x1
 4736 062b 50       		.byte	0x50
 4737 062c 03       		.uleb128 0x3
 4738 062d 0A       		.byte	0xa
 4739 062e 2823     		.2byte	0x2328
 4740 0630 0E       		.uleb128 0xe
 4741 0631 01       		.uleb128 0x1
 4742 0632 51       		.byte	0x51
 4743 0633 03       		.uleb128 0x3
 4744 0634 0A       		.byte	0xa
 4745 0635 2823     		.2byte	0x2328
 4746 0637 0E       		.uleb128 0xe
 4747 0638 01       		.uleb128 0x1
 4748 0639 52       		.byte	0x52
 4749 063a 03       		.uleb128 0x3
 4750 063b 0A       		.byte	0xa
 4751 063c F82A     		.2byte	0x2af8
ARM GAS  C:\Users\samue\AppData\Local\Temp\ccm0rw4c.s 			page 114


 4752 063e 0E       		.uleb128 0xe
 4753 063f 01       		.uleb128 0x1
 4754 0640 53       		.byte	0x53
 4755 0641 03       		.uleb128 0x3
 4756 0642 0A       		.byte	0xa
 4757 0643 F82A     		.2byte	0x2af8
 4758 0645 0E       		.uleb128 0xe
 4759 0646 02       		.uleb128 0x2
 4760 0647 7D       		.byte	0x7d
 4761 0648 00       		.sleb128 0
 4762 0649 03       		.uleb128 0x3
 4763 064a 0A       		.byte	0xa
 4764 064b 2823     		.2byte	0x2328
 4765 064d 0E       		.uleb128 0xe
 4766 064e 02       		.uleb128 0x2
 4767 064f 7D       		.byte	0x7d
 4768 0650 04       		.sleb128 4
 4769 0651 03       		.uleb128 0x3
 4770 0652 0A       		.byte	0xa
 4771 0653 2823     		.2byte	0x2328
 4772 0655 00       		.byte	0
 4773 0656 0C       		.uleb128 0xc
 4774 0657 26000000 		.4byte	.LVL88
 4775 065b 731E0000 		.4byte	0x1e73
 4776 065f 0D       		.uleb128 0xd
 4777 0660 30000000 		.4byte	.LVL89
 4778 0664 F81E0000 		.4byte	0x1ef8
 4779 0668 81060000 		.4byte	0x681
 4780 066c 0E       		.uleb128 0xe
 4781 066d 01       		.uleb128 0x1
 4782 066e 50       		.byte	0x50
 4783 066f 02       		.uleb128 0x2
 4784 0670 74       		.byte	0x74
 4785 0671 00       		.sleb128 0
 4786 0672 0E       		.uleb128 0xe
 4787 0673 01       		.uleb128 0x1
 4788 0674 51       		.byte	0x51
 4789 0675 05       		.uleb128 0x5
 4790 0676 03       		.byte	0x3
 4791 0677 38000000 		.4byte	.LC6
 4792 067b 0E       		.uleb128 0xe
 4793 067c 01       		.uleb128 0x1
 4794 067d 52       		.byte	0x52
 4795 067e 01       		.uleb128 0x1
 4796 067f 34       		.byte	0x34
 4797 0680 00       		.byte	0
 4798 0681 0C       		.uleb128 0xc
 4799 0682 36000000 		.4byte	.LVL90
 4800 0686 031F0000 		.4byte	0x1f03
 4801 068a 0C       		.uleb128 0xc
 4802 068b 3A000000 		.4byte	.LVL91
 4803 068f 681E0000 		.4byte	0x1e68
 4804 0693 00       		.byte	0
 4805 0694 13       		.uleb128 0x13
 4806 0695 A1020000 		.4byte	.LASF42
 4807 0699 01       		.byte	0x1
 4808 069a 9603     		.2byte	0x396
ARM GAS  C:\Users\samue\AppData\Local\Temp\ccm0rw4c.s 			page 115


 4809 069c 00000000 		.4byte	.LFB105
 4810 06a0 20000000 		.4byte	.LFE105-.LFB105
 4811 06a4 01       		.uleb128 0x1
 4812 06a5 9C       		.byte	0x9c
 4813 06a6 12070000 		.4byte	0x712
 4814 06aa 14       		.uleb128 0x14
 4815 06ab 3E020000 		.4byte	.LASF43
 4816 06af 01       		.byte	0x1
 4817 06b0 9603     		.2byte	0x396
 4818 06b2 E6000000 		.4byte	0xe6
 4819 06b6 E8020000 		.4byte	.LLST8
 4820 06ba 14       		.uleb128 0x14
 4821 06bb EA020000 		.4byte	.LASF44
 4822 06bf 01       		.byte	0x1
 4823 06c0 9603     		.2byte	0x396
 4824 06c2 E6000000 		.4byte	0xe6
 4825 06c6 14030000 		.4byte	.LLST9
 4826 06ca 0B       		.uleb128 0xb
 4827 06cb 9C010000 		.4byte	.LASF45
 4828 06cf 01       		.byte	0x1
 4829 06d0 9703     		.2byte	0x397
 4830 06d2 E6000000 		.4byte	0xe6
 4831 06d6 40030000 		.4byte	.LLST10
 4832 06da 0D       		.uleb128 0xd
 4833 06db 0C000000 		.4byte	.LVL96
 4834 06df 0E1F0000 		.4byte	0x1f0e
 4835 06e3 F8060000 		.4byte	0x6f8
 4836 06e7 0E       		.uleb128 0xe
 4837 06e8 01       		.uleb128 0x1
 4838 06e9 50       		.byte	0x50
 4839 06ea 05       		.uleb128 0x5
 4840 06eb 03       		.byte	0x3
 4841 06ec 40000000 		.4byte	.LC7
 4842 06f0 0E       		.uleb128 0xe
 4843 06f1 01       		.uleb128 0x1
 4844 06f2 51       		.byte	0x51
 4845 06f3 03       		.uleb128 0x3
 4846 06f4 F3       		.byte	0xf3
 4847 06f5 01       		.uleb128 0x1
 4848 06f6 50       		.byte	0x50
 4849 06f7 00       		.byte	0
 4850 06f8 0F       		.uleb128 0xf
 4851 06f9 14000000 		.4byte	.LVL97
 4852 06fd 521E0000 		.4byte	0x1e52
 4853 0701 0E       		.uleb128 0xe
 4854 0702 01       		.uleb128 0x1
 4855 0703 51       		.byte	0x51
 4856 0704 05       		.uleb128 0x5
 4857 0705 03       		.byte	0x3
 4858 0706 4C000000 		.4byte	.LC8
 4859 070a 0E       		.uleb128 0xe
 4860 070b 01       		.uleb128 0x1
 4861 070c 52       		.byte	0x52
 4862 070d 02       		.uleb128 0x2
 4863 070e 74       		.byte	0x74
 4864 070f 00       		.sleb128 0
 4865 0710 00       		.byte	0
ARM GAS  C:\Users\samue\AppData\Local\Temp\ccm0rw4c.s 			page 116


 4866 0711 00       		.byte	0
 4867 0712 10       		.uleb128 0x10
 4868 0713 1F070000 		.4byte	.LASF46
 4869 0717 01       		.byte	0x1
 4870 0718 B903     		.2byte	0x3b9
 4871 071a 90000000 		.4byte	0x90
 4872 071e 00000000 		.4byte	.LFB108
 4873 0722 9C010000 		.4byte	.LFE108-.LFB108
 4874 0726 01       		.uleb128 0x1
 4875 0727 9C       		.byte	0x9c
 4876 0728 3A080000 		.4byte	0x83a
 4877 072c 11       		.uleb128 0x11
 4878 072d 72656600 		.ascii	"ref\000"
 4879 0731 01       		.byte	0x1
 4880 0732 B903     		.2byte	0x3b9
 4881 0734 02010000 		.4byte	0x102
 4882 0738 02       		.uleb128 0x2
 4883 0739 91       		.byte	0x91
 4884 073a 5C       		.sleb128 -36
 4885 073b 11       		.uleb128 0x11
 4886 073c 64696700 		.ascii	"dig\000"
 4887 0740 01       		.byte	0x1
 4888 0741 B903     		.2byte	0x3b9
 4889 0743 02010000 		.4byte	0x102
 4890 0747 02       		.uleb128 0x2
 4891 0748 91       		.byte	0x91
 4892 0749 7C       		.sleb128 -4
 4893 074a 14       		.uleb128 0x14
 4894 074b 7E040000 		.4byte	.LASF47
 4895 074f 01       		.byte	0x1
 4896 0750 B903     		.2byte	0x3b9
 4897 0752 90000000 		.4byte	0x90
 4898 0756 53030000 		.4byte	.LLST11
 4899 075a 17       		.uleb128 0x17
 4900 075b 89070000 		.4byte	.LASF48
 4901 075f 01       		.byte	0x1
 4902 0760 BA03     		.2byte	0x3ba
 4903 0762 25000000 		.4byte	0x25
 4904 0766 04       		.byte	0x4
 4905 0767 00004843 		.4byte	0x43480000
 4906 076b 12       		.uleb128 0x12
 4907 076c 76616C00 		.ascii	"val\000"
 4908 0770 01       		.byte	0x1
 4909 0771 BB03     		.2byte	0x3bb
 4910 0773 25000000 		.4byte	0x25
 4911 0777 A1030000 		.4byte	.LLST12
 4912 077b 0B       		.uleb128 0xb
 4913 077c 65000000 		.4byte	.LASF49
 4914 0780 01       		.byte	0x1
 4915 0781 C103     		.2byte	0x3c1
 4916 0783 90000000 		.4byte	0x90
 4917 0787 C4030000 		.4byte	.LLST13
 4918 078b 0B       		.uleb128 0xb
 4919 078c 6A000000 		.4byte	.LASF50
 4920 0790 01       		.byte	0x1
 4921 0791 C203     		.2byte	0x3c2
 4922 0793 90000000 		.4byte	0x90
ARM GAS  C:\Users\samue\AppData\Local\Temp\ccm0rw4c.s 			page 117


 4923 0797 E2030000 		.4byte	.LLST14
 4924 079b 0D       		.uleb128 0xd
 4925 079c 16000000 		.4byte	.LVL101
 4926 07a0 191F0000 		.4byte	0x1f19
 4927 07a4 AF070000 		.4byte	0x7af
 4928 07a8 0E       		.uleb128 0xe
 4929 07a9 01       		.uleb128 0x1
 4930 07aa 50       		.byte	0x50
 4931 07ab 02       		.uleb128 0x2
 4932 07ac 74       		.byte	0x74
 4933 07ad 00       		.sleb128 0
 4934 07ae 00       		.byte	0
 4935 07af 0D       		.uleb128 0xd
 4936 07b0 12010000 		.4byte	.LVL133
 4937 07b4 CC1E0000 		.4byte	0x1ecc
 4938 07b8 C3070000 		.4byte	0x7c3
 4939 07bc 0E       		.uleb128 0xe
 4940 07bd 01       		.uleb128 0x1
 4941 07be 50       		.byte	0x50
 4942 07bf 02       		.uleb128 0x2
 4943 07c0 75       		.byte	0x75
 4944 07c1 00       		.sleb128 0
 4945 07c2 00       		.byte	0
 4946 07c3 0D       		.uleb128 0xd
 4947 07c4 18010000 		.4byte	.LVL134
 4948 07c8 D71E0000 		.4byte	0x1ed7
 4949 07cc D7070000 		.4byte	0x7d7
 4950 07d0 0E       		.uleb128 0xe
 4951 07d1 01       		.uleb128 0x1
 4952 07d2 50       		.byte	0x50
 4953 07d3 02       		.uleb128 0x2
 4954 07d4 74       		.byte	0x74
 4955 07d5 00       		.sleb128 0
 4956 07d6 00       		.byte	0
 4957 07d7 0D       		.uleb128 0xd
 4958 07d8 1E010000 		.4byte	.LVL135
 4959 07dc 241F0000 		.4byte	0x1f24
 4960 07e0 EB070000 		.4byte	0x7eb
 4961 07e4 0E       		.uleb128 0xe
 4962 07e5 01       		.uleb128 0x1
 4963 07e6 50       		.byte	0x50
 4964 07e7 02       		.uleb128 0x2
 4965 07e8 91       		.byte	0x91
 4966 07e9 6C       		.sleb128 -20
 4967 07ea 00       		.byte	0
 4968 07eb 0C       		.uleb128 0xc
 4969 07ec 3A010000 		.4byte	.LVL137
 4970 07f0 F91D0000 		.4byte	0x1df9
 4971 07f4 0D       		.uleb128 0xd
 4972 07f5 44010000 		.4byte	.LVL138
 4973 07f9 521E0000 		.4byte	0x1e52
 4974 07fd 14080000 		.4byte	0x814
 4975 0801 0E       		.uleb128 0xe
 4976 0802 01       		.uleb128 0x1
 4977 0803 50       		.byte	0x50
 4978 0804 05       		.uleb128 0x5
 4979 0805 03       		.byte	0x3
ARM GAS  C:\Users\samue\AppData\Local\Temp\ccm0rw4c.s 			page 118


 4980 0806 50000000 		.4byte	.LC9
 4981 080a 0E       		.uleb128 0xe
 4982 080b 01       		.uleb128 0x1
 4983 080c 51       		.byte	0x51
 4984 080d 05       		.uleb128 0x5
 4985 080e 03       		.byte	0x3
 4986 080f 14000000 		.4byte	.LC3
 4987 0813 00       		.byte	0
 4988 0814 0C       		.uleb128 0xc
 4989 0815 52010000 		.4byte	.LVL141
 4990 0819 F91D0000 		.4byte	0x1df9
 4991 081d 0F       		.uleb128 0xf
 4992 081e 5C010000 		.4byte	.LVL142
 4993 0822 521E0000 		.4byte	0x1e52
 4994 0826 0E       		.uleb128 0xe
 4995 0827 01       		.uleb128 0x1
 4996 0828 50       		.byte	0x50
 4997 0829 05       		.uleb128 0x5
 4998 082a 03       		.byte	0x3
 4999 082b 60000000 		.4byte	.LC10
 5000 082f 0E       		.uleb128 0xe
 5001 0830 01       		.uleb128 0x1
 5002 0831 51       		.byte	0x51
 5003 0832 05       		.uleb128 0x5
 5004 0833 03       		.byte	0x3
 5005 0834 14000000 		.4byte	.LC3
 5006 0838 00       		.byte	0
 5007 0839 00       		.byte	0
 5008 083a 18       		.uleb128 0x18
 5009 083b 7E000000 		.4byte	.LASF51
 5010 083f 01       		.byte	0x1
 5011 0840 D603     		.2byte	0x3d6
 5012 0842 00000000 		.4byte	.LFB109
 5013 0846 3C010000 		.4byte	.LFE109-.LFB109
 5014 084a 01       		.uleb128 0x1
 5015 084b 9C       		.byte	0x9c
 5016 084c D9080000 		.4byte	0x8d9
 5017 0850 11       		.uleb128 0x11
 5018 0851 72656600 		.ascii	"ref\000"
 5019 0855 01       		.byte	0x1
 5020 0856 D603     		.2byte	0x3d6
 5021 0858 02010000 		.4byte	0x102
 5022 085c 02       		.uleb128 0x2
 5023 085d 91       		.byte	0x91
 5024 085e 64       		.sleb128 -28
 5025 085f 17       		.uleb128 0x17
 5026 0860 89070000 		.4byte	.LASF48
 5027 0864 01       		.byte	0x1
 5028 0865 D703     		.2byte	0x3d7
 5029 0867 25000000 		.4byte	0x25
 5030 086b 04       		.byte	0x4
 5031 086c 00004842 		.4byte	0x42480000
 5032 0870 12       		.uleb128 0x12
 5033 0871 76616C00 		.ascii	"val\000"
 5034 0875 01       		.byte	0x1
 5035 0876 D803     		.2byte	0x3d8
 5036 0878 25000000 		.4byte	0x25
ARM GAS  C:\Users\samue\AppData\Local\Temp\ccm0rw4c.s 			page 119


 5037 087c 00040000 		.4byte	.LLST15
 5038 0880 0B       		.uleb128 0xb
 5039 0881 65000000 		.4byte	.LASF49
 5040 0885 01       		.byte	0x1
 5041 0886 DE03     		.2byte	0x3de
 5042 0888 90000000 		.4byte	0x90
 5043 088c 23040000 		.4byte	.LLST16
 5044 0890 0B       		.uleb128 0xb
 5045 0891 6A000000 		.4byte	.LASF50
 5046 0895 01       		.byte	0x1
 5047 0896 DF03     		.2byte	0x3df
 5048 0898 90000000 		.4byte	0x90
 5049 089c 41040000 		.4byte	.LLST17
 5050 08a0 0D       		.uleb128 0xd
 5051 08a1 10000000 		.4byte	.LVL146
 5052 08a5 191F0000 		.4byte	0x1f19
 5053 08a9 B4080000 		.4byte	0x8b4
 5054 08ad 0E       		.uleb128 0xe
 5055 08ae 01       		.uleb128 0x1
 5056 08af 50       		.byte	0x50
 5057 08b0 02       		.uleb128 0x2
 5058 08b1 91       		.byte	0x91
 5059 08b2 64       		.sleb128 -28
 5060 08b3 00       		.byte	0
 5061 08b4 0D       		.uleb128 0xd
 5062 08b5 0C010000 		.4byte	.LVL178
 5063 08b9 CC1E0000 		.4byte	0x1ecc
 5064 08bd C8080000 		.4byte	0x8c8
 5065 08c1 0E       		.uleb128 0xe
 5066 08c2 01       		.uleb128 0x1
 5067 08c3 50       		.byte	0x50
 5068 08c4 02       		.uleb128 0x2
 5069 08c5 75       		.byte	0x75
 5070 08c6 00       		.sleb128 0
 5071 08c7 00       		.byte	0
 5072 08c8 0F       		.uleb128 0xf
 5073 08c9 12010000 		.4byte	.LVL179
 5074 08cd D71E0000 		.4byte	0x1ed7
 5075 08d1 0E       		.uleb128 0xe
 5076 08d2 01       		.uleb128 0x1
 5077 08d3 50       		.byte	0x50
 5078 08d4 02       		.uleb128 0x2
 5079 08d5 74       		.byte	0x74
 5080 08d6 00       		.sleb128 0
 5081 08d7 00       		.byte	0
 5082 08d8 00       		.byte	0
 5083 08d9 10       		.uleb128 0x10
 5084 08da 86060000 		.4byte	.LASF52
 5085 08de 01       		.byte	0x1
 5086 08df EA03     		.2byte	0x3ea
 5087 08e1 25000000 		.4byte	0x25
 5088 08e5 00000000 		.4byte	.LFB110
 5089 08e9 0C010000 		.4byte	.LFE110-.LFB110
 5090 08ed 01       		.uleb128 0x1
 5091 08ee 9C       		.byte	0x9c
 5092 08ef 8B090000 		.4byte	0x98b
 5093 08f3 11       		.uleb128 0x11
ARM GAS  C:\Users\samue\AppData\Local\Temp\ccm0rw4c.s 			page 120


 5094 08f4 72656600 		.ascii	"ref\000"
 5095 08f8 01       		.byte	0x1
 5096 08f9 EA03     		.2byte	0x3ea
 5097 08fb 02010000 		.4byte	0x102
 5098 08ff 02       		.uleb128 0x2
 5099 0900 91       		.byte	0x91
 5100 0901 64       		.sleb128 -28
 5101 0902 16       		.uleb128 0x16
 5102 0903 89070000 		.4byte	.LASF48
 5103 0907 01       		.byte	0x1
 5104 0908 EB03     		.2byte	0x3eb
 5105 090a 90000000 		.4byte	0x90
 5106 090e FF       		.byte	0xff
 5107 090f 12       		.uleb128 0x12
 5108 0910 76616C00 		.ascii	"val\000"
 5109 0914 01       		.byte	0x1
 5110 0915 EC03     		.2byte	0x3ec
 5111 0917 25000000 		.4byte	0x25
 5112 091b 5F040000 		.4byte	.LLST18
 5113 091f 17       		.uleb128 0x17
 5114 0920 6E060000 		.4byte	.LASF53
 5115 0924 01       		.byte	0x1
 5116 0925 ED03     		.2byte	0x3ed
 5117 0927 25000000 		.4byte	0x25
 5118 092b 04       		.byte	0x4
 5119 092c 0000C841 		.4byte	0x41c80000
 5120 0930 19       		.uleb128 0x19
 5121 0931 70776D00 		.ascii	"pwm\000"
 5122 0935 01       		.byte	0x1
 5123 0936 EE03     		.2byte	0x3ee
 5124 0938 90000000 		.4byte	0x90
 5125 093c 00       		.byte	0
 5126 093d 0B       		.uleb128 0xb
 5127 093e 65000000 		.4byte	.LASF49
 5128 0942 01       		.byte	0x1
 5129 0943 EF03     		.2byte	0x3ef
 5130 0945 90000000 		.4byte	0x90
 5131 0949 98040000 		.4byte	.LLST19
 5132 094d 0B       		.uleb128 0xb
 5133 094e 6A000000 		.4byte	.LASF50
 5134 0952 01       		.byte	0x1
 5135 0953 F003     		.2byte	0x3f0
 5136 0955 90000000 		.4byte	0x90
 5137 0959 B7040000 		.4byte	.LLST20
 5138 095d 0D       		.uleb128 0xd
 5139 095e 10000000 		.4byte	.LVL182
 5140 0962 191F0000 		.4byte	0x1f19
 5141 0966 71090000 		.4byte	0x971
 5142 096a 0E       		.uleb128 0xe
 5143 096b 01       		.uleb128 0x1
 5144 096c 50       		.byte	0x50
 5145 096d 02       		.uleb128 0x2
 5146 096e 91       		.byte	0x91
 5147 096f 64       		.sleb128 -28
 5148 0970 00       		.byte	0
 5149 0971 0C       		.uleb128 0xc
 5150 0972 E4000000 		.4byte	.LVL205
ARM GAS  C:\Users\samue\AppData\Local\Temp\ccm0rw4c.s 			page 121


 5151 0976 CC1E0000 		.4byte	0x1ecc
 5152 097a 0F       		.uleb128 0xf
 5153 097b EA000000 		.4byte	.LVL206
 5154 097f D71E0000 		.4byte	0x1ed7
 5155 0983 0E       		.uleb128 0xe
 5156 0984 01       		.uleb128 0x1
 5157 0985 50       		.byte	0x50
 5158 0986 02       		.uleb128 0x2
 5159 0987 75       		.byte	0x75
 5160 0988 00       		.sleb128 0
 5161 0989 00       		.byte	0
 5162 098a 00       		.byte	0
 5163 098b 09       		.uleb128 0x9
 5164 098c CF010000 		.4byte	.LASF54
 5165 0990 01       		.byte	0x1
 5166 0991 1F04     		.2byte	0x41f
 5167 0993 C5090000 		.4byte	0x9c5
 5168 0997 00000000 		.4byte	.LFB111
 5169 099b 3E000000 		.4byte	.LFE111-.LFB111
 5170 099f 01       		.uleb128 0x1
 5171 09a0 9C       		.byte	0x9c
 5172 09a1 C5090000 		.4byte	0x9c5
 5173 09a5 11       		.uleb128 0x11
 5174 09a6 64696700 		.ascii	"dig\000"
 5175 09aa 01       		.byte	0x1
 5176 09ab 1F04     		.2byte	0x41f
 5177 09ad 02010000 		.4byte	0x102
 5178 09b1 02       		.uleb128 0x2
 5179 09b2 91       		.byte	0x91
 5180 09b3 64       		.sleb128 -28
 5181 09b4 0F       		.uleb128 0xf
 5182 09b5 10000000 		.4byte	.LVL208
 5183 09b9 241F0000 		.4byte	0x1f24
 5184 09bd 0E       		.uleb128 0xe
 5185 09be 01       		.uleb128 0x1
 5186 09bf 50       		.byte	0x50
 5187 09c0 02       		.uleb128 0x2
 5188 09c1 91       		.byte	0x91
 5189 09c2 64       		.sleb128 -28
 5190 09c3 00       		.byte	0
 5191 09c4 00       		.byte	0
 5192 09c5 02       		.uleb128 0x2
 5193 09c6 01       		.byte	0x1
 5194 09c7 02       		.byte	0x2
 5195 09c8 CE040000 		.4byte	.LASF55
 5196 09cc 09       		.uleb128 0x9
 5197 09cd 86040000 		.4byte	.LASF56
 5198 09d1 01       		.byte	0x1
 5199 09d2 D501     		.2byte	0x1d5
 5200 09d4 F7000000 		.4byte	0xf7
 5201 09d8 00000000 		.4byte	.LFB91
 5202 09dc 4C000000 		.4byte	.LFE91-.LFB91
 5203 09e0 01       		.uleb128 0x1
 5204 09e1 9C       		.byte	0x9c
 5205 09e2 740A0000 		.4byte	0xa74
 5206 09e6 11       		.uleb128 0x11
 5207 09e7 64696700 		.ascii	"dig\000"
ARM GAS  C:\Users\samue\AppData\Local\Temp\ccm0rw4c.s 			page 122


 5208 09eb 01       		.byte	0x1
 5209 09ec D501     		.2byte	0x1d5
 5210 09ee 02010000 		.4byte	0x102
 5211 09f2 02       		.uleb128 0x2
 5212 09f3 91       		.byte	0x91
 5213 09f4 6C       		.sleb128 -20
 5214 09f5 0B       		.uleb128 0xb
 5215 09f6 68070000 		.4byte	.LASF36
 5216 09fa 01       		.byte	0x1
 5217 09fb D601     		.2byte	0x1d6
 5218 09fd F7000000 		.4byte	0xf7
 5219 0a01 D6040000 		.4byte	.LLST21
 5220 0a05 0C       		.uleb128 0xc
 5221 0a06 0E000000 		.4byte	.LVL209
 5222 0a0a F91D0000 		.4byte	0x1df9
 5223 0a0e 0D       		.uleb128 0xd
 5224 0a0f 1A000000 		.4byte	.LVL212
 5225 0a13 521E0000 		.4byte	0x1e52
 5226 0a17 340A0000 		.4byte	0xa34
 5227 0a1b 0E       		.uleb128 0xe
 5228 0a1c 01       		.uleb128 0x1
 5229 0a1d 50       		.byte	0x50
 5230 0a1e 05       		.uleb128 0x5
 5231 0a1f 03       		.byte	0x3
 5232 0a20 70000000 		.4byte	.LC11
 5233 0a24 0E       		.uleb128 0xe
 5234 0a25 01       		.uleb128 0x1
 5235 0a26 51       		.byte	0x51
 5236 0a27 05       		.uleb128 0x5
 5237 0a28 03       		.byte	0x3
 5238 0a29 14000000 		.4byte	.LC3
 5239 0a2d 0E       		.uleb128 0xe
 5240 0a2e 01       		.uleb128 0x1
 5241 0a2f 52       		.byte	0x52
 5242 0a30 02       		.uleb128 0x2
 5243 0a31 74       		.byte	0x74
 5244 0a32 00       		.sleb128 0
 5245 0a33 00       		.byte	0
 5246 0a34 0D       		.uleb128 0xd
 5247 0a35 22000000 		.4byte	.LVL213
 5248 0a39 94060000 		.4byte	0x694
 5249 0a3d 510A0000 		.4byte	0xa51
 5250 0a41 0E       		.uleb128 0xe
 5251 0a42 01       		.uleb128 0x1
 5252 0a43 50       		.byte	0x50
 5253 0a44 05       		.uleb128 0x5
 5254 0a45 03       		.byte	0x3
 5255 0a46 80000000 		.4byte	.LC12
 5256 0a4a 0E       		.uleb128 0xe
 5257 0a4b 01       		.uleb128 0x1
 5258 0a4c 51       		.byte	0x51
 5259 0a4d 02       		.uleb128 0x2
 5260 0a4e 74       		.byte	0x74
 5261 0a4f 00       		.sleb128 0
 5262 0a50 00       		.byte	0
 5263 0a51 0D       		.uleb128 0xd
 5264 0a52 2A000000 		.4byte	.LVL214
ARM GAS  C:\Users\samue\AppData\Local\Temp\ccm0rw4c.s 			page 123


 5265 0a56 1B1E0000 		.4byte	0x1e1b
 5266 0a5a 6A0A0000 		.4byte	0xa6a
 5267 0a5e 0E       		.uleb128 0xe
 5268 0a5f 01       		.uleb128 0x1
 5269 0a60 50       		.byte	0x50
 5270 0a61 02       		.uleb128 0x2
 5271 0a62 08       		.byte	0x8
 5272 0a63 32       		.byte	0x32
 5273 0a64 0E       		.uleb128 0xe
 5274 0a65 01       		.uleb128 0x1
 5275 0a66 51       		.byte	0x51
 5276 0a67 01       		.uleb128 0x1
 5277 0a68 30       		.byte	0x30
 5278 0a69 00       		.byte	0
 5279 0a6a 0C       		.uleb128 0xc
 5280 0a6b 34000000 		.4byte	.LVL215
 5281 0a6f 8B090000 		.4byte	0x98b
 5282 0a73 00       		.byte	0
 5283 0a74 13       		.uleb128 0x13
 5284 0a75 6A010000 		.4byte	.LASF57
 5285 0a79 01       		.byte	0x1
 5286 0a7a 7902     		.2byte	0x279
 5287 0a7c 00000000 		.4byte	.LFB98
 5288 0a80 54000000 		.4byte	.LFE98-.LFB98
 5289 0a84 01       		.uleb128 0x1
 5290 0a85 9C       		.byte	0x9c
 5291 0a86 310B0000 		.4byte	0xb31
 5292 0a8a 14       		.uleb128 0x14
 5293 0a8b 7E060000 		.4byte	.LASF41
 5294 0a8f 01       		.byte	0x1
 5295 0a90 7902     		.2byte	0x279
 5296 0a92 E6000000 		.4byte	0xe6
 5297 0a96 0A050000 		.4byte	.LLST22
 5298 0a9a 11       		.uleb128 0x11
 5299 0a9b 64696700 		.ascii	"dig\000"
 5300 0a9f 01       		.byte	0x1
 5301 0aa0 7902     		.2byte	0x279
 5302 0aa2 02010000 		.4byte	0x102
 5303 0aa6 02       		.uleb128 0x2
 5304 0aa7 91       		.byte	0x91
 5305 0aa8 6C       		.sleb128 -20
 5306 0aa9 0C       		.uleb128 0xc
 5307 0aaa 10000000 		.4byte	.LVL219
 5308 0aae 2F1F0000 		.4byte	0x1f2f
 5309 0ab2 0D       		.uleb128 0xd
 5310 0ab3 1C000000 		.4byte	.LVL220
 5311 0ab7 9F1E0000 		.4byte	0x1e9f
 5312 0abb C70A0000 		.4byte	0xac7
 5313 0abf 0E       		.uleb128 0xe
 5314 0ac0 01       		.uleb128 0x1
 5315 0ac1 50       		.byte	0x50
 5316 0ac2 03       		.uleb128 0x3
 5317 0ac3 0A       		.byte	0xa
 5318 0ac4 F401     		.2byte	0x1f4
 5319 0ac6 00       		.byte	0
 5320 0ac7 0D       		.uleb128 0xd
 5321 0ac8 24000000 		.4byte	.LVL221
ARM GAS  C:\Users\samue\AppData\Local\Temp\ccm0rw4c.s 			page 124


 5322 0acc 1B1E0000 		.4byte	0x1e1b
 5323 0ad0 E00A0000 		.4byte	0xae0
 5324 0ad4 0E       		.uleb128 0xe
 5325 0ad5 01       		.uleb128 0x1
 5326 0ad6 50       		.byte	0x50
 5327 0ad7 02       		.uleb128 0x2
 5328 0ad8 08       		.byte	0x8
 5329 0ad9 32       		.byte	0x32
 5330 0ada 0E       		.uleb128 0xe
 5331 0adb 01       		.uleb128 0x1
 5332 0adc 51       		.byte	0x51
 5333 0add 01       		.uleb128 0x1
 5334 0ade 30       		.byte	0x30
 5335 0adf 00       		.byte	0
 5336 0ae0 0C       		.uleb128 0xc
 5337 0ae1 2E000000 		.4byte	.LVL222
 5338 0ae5 8B090000 		.4byte	0x98b
 5339 0ae9 0D       		.uleb128 0xd
 5340 0aea 3A000000 		.4byte	.LVL223
 5341 0aee 1B1E0000 		.4byte	0x1e1b
 5342 0af2 010B0000 		.4byte	0xb01
 5343 0af6 0E       		.uleb128 0xe
 5344 0af7 01       		.uleb128 0x1
 5345 0af8 50       		.byte	0x50
 5346 0af9 01       		.uleb128 0x1
 5347 0afa 30       		.byte	0x30
 5348 0afb 0E       		.uleb128 0xe
 5349 0afc 01       		.uleb128 0x1
 5350 0afd 51       		.byte	0x51
 5351 0afe 01       		.uleb128 0x1
 5352 0aff 30       		.byte	0x30
 5353 0b00 00       		.byte	0
 5354 0b01 0D       		.uleb128 0xd
 5355 0b02 44000000 		.4byte	.LVL224
 5356 0b06 521E0000 		.4byte	0x1e52
 5357 0b0a 270B0000 		.4byte	0xb27
 5358 0b0e 0E       		.uleb128 0xe
 5359 0b0f 01       		.uleb128 0x1
 5360 0b10 50       		.byte	0x50
 5361 0b11 05       		.uleb128 0x5
 5362 0b12 03       		.byte	0x3
 5363 0b13 8C000000 		.4byte	.LC14
 5364 0b17 0E       		.uleb128 0xe
 5365 0b18 01       		.uleb128 0x1
 5366 0b19 51       		.byte	0x51
 5367 0b1a 05       		.uleb128 0x5
 5368 0b1b 03       		.byte	0x3
 5369 0b1c 88000000 		.4byte	.LC13
 5370 0b20 0E       		.uleb128 0xe
 5371 0b21 01       		.uleb128 0x1
 5372 0b22 52       		.byte	0x52
 5373 0b23 02       		.uleb128 0x2
 5374 0b24 74       		.byte	0x74
 5375 0b25 00       		.sleb128 0
 5376 0b26 00       		.byte	0
 5377 0b27 0C       		.uleb128 0xc
 5378 0b28 48000000 		.4byte	.LVL225
ARM GAS  C:\Users\samue\AppData\Local\Temp\ccm0rw4c.s 			page 125


 5379 0b2c 941E0000 		.4byte	0x1e94
 5380 0b30 00       		.byte	0
 5381 0b31 09       		.uleb128 0x9
 5382 0b32 B1050000 		.4byte	.LASF58
 5383 0b36 01       		.byte	0x1
 5384 0b37 8302     		.2byte	0x283
 5385 0b39 F7000000 		.4byte	0xf7
 5386 0b3d 00000000 		.4byte	.LFB99
 5387 0b41 40000000 		.4byte	.LFE99-.LFB99
 5388 0b45 01       		.uleb128 0x1
 5389 0b46 9C       		.byte	0x9c
 5390 0b47 BC0B0000 		.4byte	0xbbc
 5391 0b4b 11       		.uleb128 0x11
 5392 0b4c 64696700 		.ascii	"dig\000"
 5393 0b50 01       		.byte	0x1
 5394 0b51 8302     		.2byte	0x283
 5395 0b53 02010000 		.4byte	0x102
 5396 0b57 02       		.uleb128 0x2
 5397 0b58 91       		.byte	0x91
 5398 0b59 6C       		.sleb128 -20
 5399 0b5a 0B       		.uleb128 0xb
 5400 0b5b 68070000 		.4byte	.LASF36
 5401 0b5f 01       		.byte	0x1
 5402 0b60 8402     		.2byte	0x284
 5403 0b62 F7000000 		.4byte	0xf7
 5404 0b66 36050000 		.4byte	.LLST23
 5405 0b6a 0C       		.uleb128 0xc
 5406 0b6b 0E000000 		.4byte	.LVL227
 5407 0b6f F91D0000 		.4byte	0x1df9
 5408 0b73 0D       		.uleb128 0xd
 5409 0b74 1A000000 		.4byte	.LVL230
 5410 0b78 521E0000 		.4byte	0x1e52
 5411 0b7c 990B0000 		.4byte	0xb99
 5412 0b80 0E       		.uleb128 0xe
 5413 0b81 01       		.uleb128 0x1
 5414 0b82 50       		.byte	0x50
 5415 0b83 05       		.uleb128 0x5
 5416 0b84 03       		.byte	0x3
 5417 0b85 70000000 		.4byte	.LC11
 5418 0b89 0E       		.uleb128 0xe
 5419 0b8a 01       		.uleb128 0x1
 5420 0b8b 51       		.byte	0x51
 5421 0b8c 05       		.uleb128 0x5
 5422 0b8d 03       		.byte	0x3
 5423 0b8e 14000000 		.4byte	.LC3
 5424 0b92 0E       		.uleb128 0xe
 5425 0b93 01       		.uleb128 0x1
 5426 0b94 52       		.byte	0x52
 5427 0b95 02       		.uleb128 0x2
 5428 0b96 74       		.byte	0x74
 5429 0b97 00       		.sleb128 0
 5430 0b98 00       		.byte	0
 5431 0b99 0D       		.uleb128 0xd
 5432 0b9a 22000000 		.4byte	.LVL231
 5433 0b9e 1B1E0000 		.4byte	0x1e1b
 5434 0ba2 B20B0000 		.4byte	0xbb2
 5435 0ba6 0E       		.uleb128 0xe
ARM GAS  C:\Users\samue\AppData\Local\Temp\ccm0rw4c.s 			page 126


 5436 0ba7 01       		.uleb128 0x1
 5437 0ba8 50       		.byte	0x50
 5438 0ba9 02       		.uleb128 0x2
 5439 0baa 08       		.byte	0x8
 5440 0bab 32       		.byte	0x32
 5441 0bac 0E       		.uleb128 0xe
 5442 0bad 01       		.uleb128 0x1
 5443 0bae 51       		.byte	0x51
 5444 0baf 01       		.uleb128 0x1
 5445 0bb0 30       		.byte	0x30
 5446 0bb1 00       		.byte	0
 5447 0bb2 0C       		.uleb128 0xc
 5448 0bb3 2C000000 		.4byte	.LVL232
 5449 0bb7 8B090000 		.4byte	0x98b
 5450 0bbb 00       		.byte	0
 5451 0bbc 13       		.uleb128 0x13
 5452 0bbd 00000000 		.4byte	.LASF59
 5453 0bc1 01       		.byte	0x1
 5454 0bc2 8B02     		.2byte	0x28b
 5455 0bc4 00000000 		.4byte	.LFB100
 5456 0bc8 60000000 		.4byte	.LFE100-.LFB100
 5457 0bcc 01       		.uleb128 0x1
 5458 0bcd 9C       		.byte	0x9c
 5459 0bce 840C0000 		.4byte	0xc84
 5460 0bd2 14       		.uleb128 0x14
 5461 0bd3 68070000 		.4byte	.LASF36
 5462 0bd7 01       		.byte	0x1
 5463 0bd8 8B02     		.2byte	0x28b
 5464 0bda F7000000 		.4byte	0xf7
 5465 0bde 6A050000 		.4byte	.LLST24
 5466 0be2 11       		.uleb128 0x11
 5467 0be3 64696700 		.ascii	"dig\000"
 5468 0be7 01       		.byte	0x1
 5469 0be8 8B02     		.2byte	0x28b
 5470 0bea 02010000 		.4byte	0x102
 5471 0bee 02       		.uleb128 0x2
 5472 0bef 91       		.byte	0x91
 5473 0bf0 64       		.sleb128 -28
 5474 0bf1 0B       		.uleb128 0xb
 5475 0bf2 84070000 		.4byte	.LASF37
 5476 0bf6 01       		.byte	0x1
 5477 0bf7 8F02     		.2byte	0x28f
 5478 0bf9 F7000000 		.4byte	0xf7
 5479 0bfd 96050000 		.4byte	.LLST25
 5480 0c01 0D       		.uleb128 0xd
 5481 0c02 14000000 		.4byte	.LVL236
 5482 0c06 1B1E0000 		.4byte	0x1e1b
 5483 0c0a 1A0C0000 		.4byte	0xc1a
 5484 0c0e 0E       		.uleb128 0xe
 5485 0c0f 01       		.uleb128 0x1
 5486 0c10 50       		.byte	0x50
 5487 0c11 02       		.uleb128 0x2
 5488 0c12 08       		.byte	0x8
 5489 0c13 32       		.byte	0x32
 5490 0c14 0E       		.uleb128 0xe
 5491 0c15 01       		.uleb128 0x1
 5492 0c16 51       		.byte	0x51
ARM GAS  C:\Users\samue\AppData\Local\Temp\ccm0rw4c.s 			page 127


 5493 0c17 01       		.uleb128 0x1
 5494 0c18 30       		.byte	0x30
 5495 0c19 00       		.byte	0
 5496 0c1a 0C       		.uleb128 0xc
 5497 0c1b 1E000000 		.4byte	.LVL237
 5498 0c1f 8B090000 		.4byte	0x98b
 5499 0c23 0C       		.uleb128 0xc
 5500 0c24 2C000000 		.4byte	.LVL238
 5501 0c28 8B090000 		.4byte	0x98b
 5502 0c2c 0C       		.uleb128 0xc
 5503 0c2d 34000000 		.4byte	.LVL239
 5504 0c31 F91D0000 		.4byte	0x1df9
 5505 0c35 0D       		.uleb128 0xd
 5506 0c36 42000000 		.4byte	.LVL242
 5507 0c3a 521E0000 		.4byte	0x1e52
 5508 0c3e 580C0000 		.4byte	0xc58
 5509 0c42 0E       		.uleb128 0xe
 5510 0c43 01       		.uleb128 0x1
 5511 0c44 50       		.byte	0x50
 5512 0c45 05       		.uleb128 0x5
 5513 0c46 03       		.byte	0x3
 5514 0c47 18000000 		.4byte	.LC4
 5515 0c4b 0E       		.uleb128 0xe
 5516 0c4c 01       		.uleb128 0x1
 5517 0c4d 51       		.byte	0x51
 5518 0c4e 02       		.uleb128 0x2
 5519 0c4f 74       		.byte	0x74
 5520 0c50 00       		.sleb128 0
 5521 0c51 0E       		.uleb128 0xe
 5522 0c52 01       		.uleb128 0x1
 5523 0c53 52       		.byte	0x52
 5524 0c54 02       		.uleb128 0x2
 5525 0c55 75       		.byte	0x75
 5526 0c56 00       		.sleb128 0
 5527 0c57 00       		.byte	0
 5528 0c58 0C       		.uleb128 0xc
 5529 0c59 46000000 		.4byte	.LVL243
 5530 0c5d 5D1E0000 		.4byte	0x1e5d
 5531 0c61 0F       		.uleb128 0xf
 5532 0c62 50000000 		.4byte	.LVL244
 5533 0c66 521E0000 		.4byte	0x1e52
 5534 0c6a 0E       		.uleb128 0xe
 5535 0c6b 01       		.uleb128 0x1
 5536 0c6c 50       		.byte	0x50
 5537 0c6d 05       		.uleb128 0x5
 5538 0c6e 03       		.byte	0x3
 5539 0c6f 28000000 		.4byte	.LC5
 5540 0c73 0E       		.uleb128 0xe
 5541 0c74 01       		.uleb128 0x1
 5542 0c75 51       		.byte	0x51
 5543 0c76 02       		.uleb128 0x2
 5544 0c77 74       		.byte	0x74
 5545 0c78 00       		.sleb128 0
 5546 0c79 0E       		.uleb128 0xe
 5547 0c7a 01       		.uleb128 0x1
 5548 0c7b 52       		.byte	0x52
 5549 0c7c 05       		.uleb128 0x5
ARM GAS  C:\Users\samue\AppData\Local\Temp\ccm0rw4c.s 			page 128


 5550 0c7d 75       		.byte	0x75
 5551 0c7e 00       		.sleb128 0
 5552 0c7f 76       		.byte	0x76
 5553 0c80 00       		.sleb128 0
 5554 0c81 1C       		.byte	0x1c
 5555 0c82 00       		.byte	0
 5556 0c83 00       		.byte	0
 5557 0c84 1A       		.uleb128 0x1a
 5558 0c85 D0030000 		.4byte	.LASF62
 5559 0c89 01       		.byte	0x1
 5560 0c8a 6002     		.2byte	0x260
 5561 0c8c 00000000 		.4byte	.LFB96
 5562 0c90 5C000000 		.4byte	.LFE96-.LFB96
 5563 0c94 01       		.uleb128 0x1
 5564 0c95 9C       		.byte	0x9c
 5565 0c96 380D0000 		.4byte	0xd38
 5566 0c9a 1B       		.uleb128 0x1b
 5567 0c9b 72656600 		.ascii	"ref\000"
 5568 0c9f 01       		.byte	0x1
 5569 0ca0 6102     		.2byte	0x261
 5570 0ca2 02010000 		.4byte	0x102
 5571 0ca6 02       		.uleb128 0x2
 5572 0ca7 91       		.byte	0x91
 5573 0ca8 64       		.sleb128 -28
 5574 0ca9 1B       		.uleb128 0x1b
 5575 0caa 64696700 		.ascii	"dig\000"
 5576 0cae 01       		.byte	0x1
 5577 0caf 6102     		.2byte	0x261
 5578 0cb1 02010000 		.4byte	0x102
 5579 0cb5 02       		.uleb128 0x2
 5580 0cb6 91       		.byte	0x91
 5581 0cb7 58       		.sleb128 -40
 5582 0cb8 0B       		.uleb128 0xb
 5583 0cb9 68070000 		.4byte	.LASF36
 5584 0cbd 01       		.byte	0x1
 5585 0cbe 6202     		.2byte	0x262
 5586 0cc0 F7000000 		.4byte	0xf7
 5587 0cc4 BF050000 		.4byte	.LLST26
 5588 0cc8 0B       		.uleb128 0xb
 5589 0cc9 93060000 		.4byte	.LASF60
 5590 0ccd 01       		.byte	0x1
 5591 0cce 6302     		.2byte	0x263
 5592 0cd0 90000000 		.4byte	0x90
 5593 0cd4 DD050000 		.4byte	.LLST27
 5594 0cd8 0D       		.uleb128 0xd
 5595 0cd9 0C000000 		.4byte	.LVL247
 5596 0cdd E4050000 		.4byte	0x5e4
 5597 0ce1 EC0C0000 		.4byte	0xcec
 5598 0ce5 0E       		.uleb128 0xe
 5599 0ce6 01       		.uleb128 0x1
 5600 0ce7 50       		.byte	0x50
 5601 0ce8 02       		.uleb128 0x2
 5602 0ce9 75       		.byte	0x75
 5603 0cea 00       		.sleb128 0
 5604 0ceb 00       		.byte	0
 5605 0cec 0D       		.uleb128 0xd
 5606 0ced 18000000 		.4byte	.LVL248
ARM GAS  C:\Users\samue\AppData\Local\Temp\ccm0rw4c.s 			page 129


 5607 0cf1 740A0000 		.4byte	0xa74
 5608 0cf5 000D0000 		.4byte	0xd00
 5609 0cf9 0E       		.uleb128 0xe
 5610 0cfa 01       		.uleb128 0x1
 5611 0cfb 50       		.byte	0x50
 5612 0cfc 02       		.uleb128 0x2
 5613 0cfd 75       		.byte	0x75
 5614 0cfe 00       		.sleb128 0
 5615 0cff 00       		.byte	0
 5616 0d00 0C       		.uleb128 0xc
 5617 0d01 20000000 		.4byte	.LVL249
 5618 0d05 310B0000 		.4byte	0xb31
 5619 0d09 0D       		.uleb128 0xd
 5620 0d0a 3E000000 		.4byte	.LVL252
 5621 0d0e 12070000 		.4byte	0x712
 5622 0d12 1E0D0000 		.4byte	0xd1e
 5623 0d16 0E       		.uleb128 0xe
 5624 0d17 02       		.uleb128 0x2
 5625 0d18 7D       		.byte	0x7d
 5626 0d19 08       		.sleb128 8
 5627 0d1a 02       		.uleb128 0x2
 5628 0d1b 74       		.byte	0x74
 5629 0d1c 00       		.sleb128 0
 5630 0d1d 00       		.byte	0
 5631 0d1e 0C       		.uleb128 0xc
 5632 0d1f 4A000000 		.4byte	.LVL254
 5633 0d23 8B090000 		.4byte	0x98b
 5634 0d27 0F       		.uleb128 0xf
 5635 0d28 54000000 		.4byte	.LVL255
 5636 0d2c BC0B0000 		.4byte	0xbbc
 5637 0d30 0E       		.uleb128 0xe
 5638 0d31 01       		.uleb128 0x1
 5639 0d32 50       		.byte	0x50
 5640 0d33 02       		.uleb128 0x2
 5641 0d34 75       		.byte	0x75
 5642 0d35 00       		.sleb128 0
 5643 0d36 00       		.byte	0
 5644 0d37 00       		.byte	0
 5645 0d38 13       		.uleb128 0x13
 5646 0d39 3A070000 		.4byte	.LASF61
 5647 0d3d 01       		.byte	0x1
 5648 0d3e 7103     		.2byte	0x371
 5649 0d40 00000000 		.4byte	.LFB103
 5650 0d44 78000000 		.4byte	.LFE103-.LFB103
 5651 0d48 01       		.uleb128 0x1
 5652 0d49 9C       		.byte	0x9c
 5653 0d4a C40D0000 		.4byte	0xdc4
 5654 0d4e 11       		.uleb128 0x11
 5655 0d4f 64696700 		.ascii	"dig\000"
 5656 0d53 01       		.byte	0x1
 5657 0d54 7103     		.2byte	0x371
 5658 0d56 02010000 		.4byte	0x102
 5659 0d5a 02       		.uleb128 0x2
 5660 0d5b 91       		.byte	0x91
 5661 0d5c 5C       		.sleb128 -36
 5662 0d5d 11       		.uleb128 0x11
 5663 0d5e 72656600 		.ascii	"ref\000"
ARM GAS  C:\Users\samue\AppData\Local\Temp\ccm0rw4c.s 			page 130


 5664 0d62 01       		.byte	0x1
 5665 0d63 7103     		.2byte	0x371
 5666 0d65 02010000 		.4byte	0x102
 5667 0d69 02       		.uleb128 0x2
 5668 0d6a 91       		.byte	0x91
 5669 0d6b 7C       		.sleb128 -4
 5670 0d6c 0D       		.uleb128 0xd
 5671 0d6d 18000000 		.4byte	.LVL257
 5672 0d71 1B1E0000 		.4byte	0x1e1b
 5673 0d75 870D0000 		.4byte	0xd87
 5674 0d79 0E       		.uleb128 0xe
 5675 0d7a 01       		.uleb128 0x1
 5676 0d7b 50       		.byte	0x50
 5677 0d7c 02       		.uleb128 0x2
 5678 0d7d 08       		.byte	0x8
 5679 0d7e 32       		.byte	0x32
 5680 0d7f 0E       		.uleb128 0xe
 5681 0d80 01       		.uleb128 0x1
 5682 0d81 51       		.byte	0x51
 5683 0d82 03       		.uleb128 0x3
 5684 0d83 0A       		.byte	0xa
 5685 0d84 2C01     		.2byte	0x12c
 5686 0d86 00       		.byte	0
 5687 0d87 0C       		.uleb128 0xc
 5688 0d88 22000000 		.4byte	.LVL258
 5689 0d8c 3A080000 		.4byte	0x83a
 5690 0d90 0D       		.uleb128 0xd
 5691 0d91 28000000 		.4byte	.LVL259
 5692 0d95 241F0000 		.4byte	0x1f24
 5693 0d99 A40D0000 		.4byte	0xda4
 5694 0d9d 0E       		.uleb128 0xe
 5695 0d9e 01       		.uleb128 0x1
 5696 0d9f 50       		.byte	0x50
 5697 0da0 02       		.uleb128 0x2
 5698 0da1 91       		.byte	0x91
 5699 0da2 4C       		.sleb128 -52
 5700 0da3 00       		.byte	0
 5701 0da4 0C       		.uleb128 0xc
 5702 0da5 62000000 		.4byte	.LVL260
 5703 0da9 8B090000 		.4byte	0x98b
 5704 0dad 0F       		.uleb128 0xf
 5705 0dae 6E000000 		.4byte	.LVL261
 5706 0db2 1B1E0000 		.4byte	0x1e1b
 5707 0db6 0E       		.uleb128 0xe
 5708 0db7 01       		.uleb128 0x1
 5709 0db8 50       		.byte	0x50
 5710 0db9 02       		.uleb128 0x2
 5711 0dba 08       		.byte	0x8
 5712 0dbb 32       		.byte	0x32
 5713 0dbc 0E       		.uleb128 0xe
 5714 0dbd 01       		.uleb128 0x1
 5715 0dbe 51       		.byte	0x51
 5716 0dbf 02       		.uleb128 0x2
 5717 0dc0 08       		.byte	0x8
 5718 0dc1 C8       		.byte	0xc8
 5719 0dc2 00       		.byte	0
 5720 0dc3 00       		.byte	0
ARM GAS  C:\Users\samue\AppData\Local\Temp\ccm0rw4c.s 			page 131


 5721 0dc4 1A       		.uleb128 0x1a
 5722 0dc5 F0030000 		.4byte	.LASF63
 5723 0dc9 01       		.byte	0x1
 5724 0dca AB03     		.2byte	0x3ab
 5725 0dcc 00000000 		.4byte	.LFB106
 5726 0dd0 28000000 		.4byte	.LFE106-.LFB106
 5727 0dd4 01       		.uleb128 0x1
 5728 0dd5 9C       		.byte	0x9c
 5729 0dd6 240E0000 		.4byte	0xe24
 5730 0dda 0C       		.uleb128 0xc
 5731 0ddb 06000000 		.4byte	.LVL262
 5732 0ddf 2F1F0000 		.4byte	0x1f2f
 5733 0de3 0D       		.uleb128 0xd
 5734 0de4 12000000 		.4byte	.LVL263
 5735 0de8 9F1E0000 		.4byte	0x1e9f
 5736 0dec F80D0000 		.4byte	0xdf8
 5737 0df0 0E       		.uleb128 0xe
 5738 0df1 01       		.uleb128 0x1
 5739 0df2 50       		.byte	0x50
 5740 0df3 03       		.uleb128 0x3
 5741 0df4 0A       		.byte	0xa
 5742 0df5 F401     		.2byte	0x1f4
 5743 0df7 00       		.byte	0
 5744 0df8 0D       		.uleb128 0xd
 5745 0df9 1A000000 		.4byte	.LVL264
 5746 0dfd 1B1E0000 		.4byte	0x1e1b
 5747 0e01 110E0000 		.4byte	0xe11
 5748 0e05 0E       		.uleb128 0xe
 5749 0e06 01       		.uleb128 0x1
 5750 0e07 50       		.byte	0x50
 5751 0e08 02       		.uleb128 0x2
 5752 0e09 08       		.byte	0x8
 5753 0e0a 32       		.byte	0x32
 5754 0e0b 0E       		.uleb128 0xe
 5755 0e0c 01       		.uleb128 0x1
 5756 0e0d 51       		.byte	0x51
 5757 0e0e 01       		.uleb128 0x1
 5758 0e0f 30       		.byte	0x30
 5759 0e10 00       		.byte	0
 5760 0e11 0C       		.uleb128 0xc
 5761 0e12 1E000000 		.4byte	.LVL265
 5762 0e16 8B090000 		.4byte	0x98b
 5763 0e1a 0C       		.uleb128 0xc
 5764 0e1b 26000000 		.4byte	.LVL266
 5765 0e1f 5D1E0000 		.4byte	0x1e5d
 5766 0e23 00       		.byte	0
 5767 0e24 13       		.uleb128 0x13
 5768 0e25 E9060000 		.4byte	.LASF64
 5769 0e29 01       		.byte	0x1
 5770 0e2a B403     		.2byte	0x3b4
 5771 0e2c 00000000 		.4byte	.LFB107
 5772 0e30 2C000000 		.4byte	.LFE107-.LFB107
 5773 0e34 01       		.uleb128 0x1
 5774 0e35 9C       		.byte	0x9c
 5775 0e36 5C0E0000 		.4byte	0xe5c
 5776 0e3a 11       		.uleb128 0x11
 5777 0e3b 64696700 		.ascii	"dig\000"
ARM GAS  C:\Users\samue\AppData\Local\Temp\ccm0rw4c.s 			page 132


 5778 0e3f 01       		.byte	0x1
 5779 0e40 B403     		.2byte	0x3b4
 5780 0e42 02010000 		.4byte	0x102
 5781 0e46 02       		.uleb128 0x2
 5782 0e47 91       		.byte	0x91
 5783 0e48 6C       		.sleb128 -20
 5784 0e49 0C       		.uleb128 0xc
 5785 0e4a 14000000 		.4byte	.LVL267
 5786 0e4e 8B090000 		.4byte	0x98b
 5787 0e52 0C       		.uleb128 0xc
 5788 0e53 22000000 		.4byte	.LVL268
 5789 0e57 8B090000 		.4byte	0x98b
 5790 0e5b 00       		.byte	0
 5791 0e5c 09       		.uleb128 0x9
 5792 0e5d E0030000 		.4byte	.LASF65
 5793 0e61 01       		.byte	0x1
 5794 0e62 2404     		.2byte	0x424
 5795 0e64 C5090000 		.4byte	0x9c5
 5796 0e68 00000000 		.4byte	.LFB112
 5797 0e6c 3E000000 		.4byte	.LFE112-.LFB112
 5798 0e70 01       		.uleb128 0x1
 5799 0e71 9C       		.byte	0x9c
 5800 0e72 960E0000 		.4byte	0xe96
 5801 0e76 11       		.uleb128 0x11
 5802 0e77 64696700 		.ascii	"dig\000"
 5803 0e7b 01       		.byte	0x1
 5804 0e7c 2404     		.2byte	0x424
 5805 0e7e 02010000 		.4byte	0x102
 5806 0e82 02       		.uleb128 0x2
 5807 0e83 91       		.byte	0x91
 5808 0e84 64       		.sleb128 -28
 5809 0e85 0F       		.uleb128 0xf
 5810 0e86 10000000 		.4byte	.LVL269
 5811 0e8a 241F0000 		.4byte	0x1f24
 5812 0e8e 0E       		.uleb128 0xe
 5813 0e8f 01       		.uleb128 0x1
 5814 0e90 50       		.byte	0x50
 5815 0e91 02       		.uleb128 0x2
 5816 0e92 91       		.byte	0x91
 5817 0e93 64       		.sleb128 -28
 5818 0e94 00       		.byte	0
 5819 0e95 00       		.byte	0
 5820 0e96 09       		.uleb128 0x9
 5821 0e97 AE060000 		.4byte	.LASF66
 5822 0e9b 01       		.byte	0x1
 5823 0e9c 2904     		.2byte	0x429
 5824 0e9e C5090000 		.4byte	0x9c5
 5825 0ea2 00000000 		.4byte	.LFB113
 5826 0ea6 3E000000 		.4byte	.LFE113-.LFB113
 5827 0eaa 01       		.uleb128 0x1
 5828 0eab 9C       		.byte	0x9c
 5829 0eac D00E0000 		.4byte	0xed0
 5830 0eb0 11       		.uleb128 0x11
 5831 0eb1 64696700 		.ascii	"dig\000"
 5832 0eb5 01       		.byte	0x1
 5833 0eb6 2904     		.2byte	0x429
 5834 0eb8 02010000 		.4byte	0x102
ARM GAS  C:\Users\samue\AppData\Local\Temp\ccm0rw4c.s 			page 133


 5835 0ebc 02       		.uleb128 0x2
 5836 0ebd 91       		.byte	0x91
 5837 0ebe 64       		.sleb128 -28
 5838 0ebf 0F       		.uleb128 0xf
 5839 0ec0 10000000 		.4byte	.LVL270
 5840 0ec4 241F0000 		.4byte	0x1f24
 5841 0ec8 0E       		.uleb128 0xe
 5842 0ec9 01       		.uleb128 0x1
 5843 0eca 50       		.byte	0x50
 5844 0ecb 02       		.uleb128 0x2
 5845 0ecc 91       		.byte	0x91
 5846 0ecd 64       		.sleb128 -28
 5847 0ece 00       		.byte	0
 5848 0ecf 00       		.byte	0
 5849 0ed0 09       		.uleb128 0x9
 5850 0ed1 B1010000 		.4byte	.LASF67
 5851 0ed5 01       		.byte	0x1
 5852 0ed6 2E04     		.2byte	0x42e
 5853 0ed8 90000000 		.4byte	0x90
 5854 0edc 00000000 		.4byte	.LFB114
 5855 0ee0 38000000 		.4byte	.LFE114-.LFB114
 5856 0ee4 01       		.uleb128 0x1
 5857 0ee5 9C       		.byte	0x9c
 5858 0ee6 0A0F0000 		.4byte	0xf0a
 5859 0eea 11       		.uleb128 0x11
 5860 0eeb 64696700 		.ascii	"dig\000"
 5861 0eef 01       		.byte	0x1
 5862 0ef0 2E04     		.2byte	0x42e
 5863 0ef2 02010000 		.4byte	0x102
 5864 0ef6 02       		.uleb128 0x2
 5865 0ef7 91       		.byte	0x91
 5866 0ef8 6C       		.sleb128 -20
 5867 0ef9 0F       		.uleb128 0xf
 5868 0efa 10000000 		.4byte	.LVL271
 5869 0efe 241F0000 		.4byte	0x1f24
 5870 0f02 0E       		.uleb128 0xe
 5871 0f03 01       		.uleb128 0x1
 5872 0f04 50       		.byte	0x50
 5873 0f05 02       		.uleb128 0x2
 5874 0f06 91       		.byte	0x91
 5875 0f07 6C       		.sleb128 -20
 5876 0f08 00       		.byte	0
 5877 0f09 00       		.byte	0
 5878 0f0a 10       		.uleb128 0x10
 5879 0f0b 8A010000 		.4byte	.LASF68
 5880 0f0f 01       		.byte	0x1
 5881 0f10 3504     		.2byte	0x435
 5882 0f12 25000000 		.4byte	0x25
 5883 0f16 00000000 		.4byte	.LFB115
 5884 0f1a 30000000 		.4byte	.LFE115-.LFB115
 5885 0f1e 01       		.uleb128 0x1
 5886 0f1f 9C       		.byte	0x9c
 5887 0f20 830F0000 		.4byte	0xf83
 5888 0f24 0A       		.uleb128 0xa
 5889 0f25 523100   		.ascii	"R1\000"
 5890 0f28 01       		.byte	0x1
 5891 0f29 3504     		.2byte	0x435
ARM GAS  C:\Users\samue\AppData\Local\Temp\ccm0rw4c.s 			page 134


 5892 0f2b 25000000 		.4byte	0x25
 5893 0f2f FC050000 		.4byte	.LLST28
 5894 0f33 0A       		.uleb128 0xa
 5895 0f34 523200   		.ascii	"R2\000"
 5896 0f37 01       		.byte	0x1
 5897 0f38 3504     		.2byte	0x435
 5898 0f3a 25000000 		.4byte	0x25
 5899 0f3e 1F060000 		.4byte	.LLST29
 5900 0f42 14       		.uleb128 0x14
 5901 0f43 72030000 		.4byte	.LASF69
 5902 0f47 01       		.byte	0x1
 5903 0f48 3504     		.2byte	0x435
 5904 0f4a 25000000 		.4byte	0x25
 5905 0f4e 4D060000 		.4byte	.LLST30
 5906 0f52 14       		.uleb128 0x14
 5907 0f53 F7040000 		.4byte	.LASF70
 5908 0f57 01       		.byte	0x1
 5909 0f58 3504     		.2byte	0x435
 5910 0f5a 90000000 		.4byte	0x90
 5911 0f5e 6B060000 		.4byte	.LLST31
 5912 0f62 0B       		.uleb128 0xb
 5913 0f63 42000000 		.4byte	.LASF71
 5914 0f67 01       		.byte	0x1
 5915 0f68 6404     		.2byte	0x464
 5916 0f6a 25000000 		.4byte	0x25
 5917 0f6e 89060000 		.4byte	.LLST32
 5918 0f72 0B       		.uleb128 0xb
 5919 0f73 FF050000 		.4byte	.LASF72
 5920 0f77 01       		.byte	0x1
 5921 0f78 6504     		.2byte	0x465
 5922 0f7a 25000000 		.4byte	0x25
 5923 0f7e A7060000 		.4byte	.LLST33
 5924 0f82 00       		.byte	0
 5925 0f83 13       		.uleb128 0x13
 5926 0f84 07030000 		.4byte	.LASF73
 5927 0f88 01       		.byte	0x1
 5928 0f89 6A04     		.2byte	0x46a
 5929 0f8b 00000000 		.4byte	.LFB116
 5930 0f8f 18000000 		.4byte	.LFE116-.LFB116
 5931 0f93 01       		.uleb128 0x1
 5932 0f94 9C       		.byte	0x9c
 5933 0f95 E00F0000 		.4byte	0xfe0
 5934 0f99 14       		.uleb128 0x14
 5935 0f9a 21020000 		.4byte	.LASF74
 5936 0f9e 01       		.byte	0x1
 5937 0f9f 6A04     		.2byte	0x46a
 5938 0fa1 EC000000 		.4byte	0xec
 5939 0fa5 C5060000 		.4byte	.LLST34
 5940 0fa9 0D       		.uleb128 0xd
 5941 0faa 0A000000 		.4byte	.LVL283
 5942 0fae 3A1F0000 		.4byte	0x1f3a
 5943 0fb2 BC0F0000 		.4byte	0xfbc
 5944 0fb6 0E       		.uleb128 0xe
 5945 0fb7 01       		.uleb128 0x1
 5946 0fb8 50       		.byte	0x50
 5947 0fb9 01       		.uleb128 0x1
 5948 0fba 31       		.byte	0x31
ARM GAS  C:\Users\samue\AppData\Local\Temp\ccm0rw4c.s 			page 135


 5949 0fbb 00       		.byte	0
 5950 0fbc 0D       		.uleb128 0xd
 5951 0fbd 10000000 		.4byte	.LVL284
 5952 0fc1 9F1E0000 		.4byte	0x1e9f
 5953 0fc5 D00F0000 		.4byte	0xfd0
 5954 0fc9 0E       		.uleb128 0xe
 5955 0fca 01       		.uleb128 0x1
 5956 0fcb 50       		.byte	0x50
 5957 0fcc 02       		.uleb128 0x2
 5958 0fcd 74       		.byte	0x74
 5959 0fce 00       		.sleb128 0
 5960 0fcf 00       		.byte	0
 5961 0fd0 0F       		.uleb128 0xf
 5962 0fd1 16000000 		.4byte	.LVL285
 5963 0fd5 3A1F0000 		.4byte	0x1f3a
 5964 0fd9 0E       		.uleb128 0xe
 5965 0fda 01       		.uleb128 0x1
 5966 0fdb 50       		.byte	0x50
 5967 0fdc 01       		.uleb128 0x1
 5968 0fdd 30       		.byte	0x30
 5969 0fde 00       		.byte	0
 5970 0fdf 00       		.byte	0
 5971 0fe0 13       		.uleb128 0x13
 5972 0fe1 DF020000 		.4byte	.LASF75
 5973 0fe5 01       		.byte	0x1
 5974 0fe6 9204     		.2byte	0x492
 5975 0fe8 00000000 		.4byte	.LFB117
 5976 0fec 74000000 		.4byte	.LFE117-.LFB117
 5977 0ff0 01       		.uleb128 0x1
 5978 0ff1 9C       		.byte	0x9c
 5979 0ff2 B9100000 		.4byte	0x10b9
 5980 0ff6 14       		.uleb128 0x14
 5981 0ff7 6E070000 		.4byte	.LASF76
 5982 0ffb 01       		.byte	0x1
 5983 0ffc 9204     		.2byte	0x492
 5984 0ffe E6000000 		.4byte	0xe6
 5985 1002 E3060000 		.4byte	.LLST35
 5986 1006 14       		.uleb128 0x14
 5987 1007 0A070000 		.4byte	.LASF77
 5988 100b 01       		.byte	0x1
 5989 100c 9204     		.2byte	0x492
 5990 100e EC000000 		.4byte	0xec
 5991 1012 01070000 		.4byte	.LLST36
 5992 1016 14       		.uleb128 0x14
 5993 1017 A6060000 		.4byte	.LASF78
 5994 101b 01       		.byte	0x1
 5995 101c 9204     		.2byte	0x492
 5996 101e EC000000 		.4byte	0xec
 5997 1022 1F070000 		.4byte	.LLST37
 5998 1026 0B       		.uleb128 0xb
 5999 1027 AC020000 		.4byte	.LASF79
 6000 102b 01       		.byte	0x1
 6001 102c C104     		.2byte	0x4c1
 6002 102e EC000000 		.4byte	0xec
 6003 1032 3D070000 		.4byte	.LLST38
 6004 1036 0B       		.uleb128 0xb
 6005 1037 27060000 		.4byte	.LASF80
ARM GAS  C:\Users\samue\AppData\Local\Temp\ccm0rw4c.s 			page 136


 6006 103b 01       		.byte	0x1
 6007 103c C204     		.2byte	0x4c2
 6008 103e EC000000 		.4byte	0xec
 6009 1042 5B070000 		.4byte	.LLST39
 6010 1046 12       		.uleb128 0x12
 6011 1047 67617000 		.ascii	"gap\000"
 6012 104b 01       		.byte	0x1
 6013 104c C304     		.2byte	0x4c3
 6014 104e EC000000 		.4byte	0xec
 6015 1052 7A070000 		.4byte	.LLST40
 6016 1056 1C       		.uleb128 0x1c
 6017 1057 10000000 		.4byte	.LBB2
 6018 105b 60000000 		.4byte	.LBE2-.LBB2
 6019 105f A8100000 		.4byte	0x10a8
 6020 1063 12       		.uleb128 0x12
 6021 1064 6900     		.ascii	"i\000"
 6022 1066 01       		.byte	0x1
 6023 1067 C504     		.2byte	0x4c5
 6024 1069 EC000000 		.4byte	0xec
 6025 106d BD070000 		.4byte	.LLST41
 6026 1071 0D       		.uleb128 0xd
 6027 1072 40000000 		.4byte	.LVL291
 6028 1076 830F0000 		.4byte	0xf83
 6029 107a 85100000 		.4byte	0x1085
 6030 107e 0E       		.uleb128 0xe
 6031 107f 01       		.uleb128 0x1
 6032 1080 50       		.byte	0x50
 6033 1081 02       		.uleb128 0x2
 6034 1082 77       		.byte	0x77
 6035 1083 00       		.sleb128 0
 6036 1084 00       		.byte	0
 6037 1085 0D       		.uleb128 0xd
 6038 1086 4C000000 		.4byte	.LVL293
 6039 108a 830F0000 		.4byte	0xf83
 6040 108e 9E100000 		.4byte	0x109e
 6041 1092 0E       		.uleb128 0xe
 6042 1093 01       		.uleb128 0x1
 6043 1094 50       		.byte	0x50
 6044 1095 07       		.uleb128 0x7
 6045 1096 77       		.byte	0x77
 6046 1097 00       		.sleb128 0
 6047 1098 31       		.byte	0x31
 6048 1099 24       		.byte	0x24
 6049 109a 77       		.byte	0x77
 6050 109b 00       		.sleb128 0
 6051 109c 22       		.byte	0x22
 6052 109d 00       		.byte	0
 6053 109e 0C       		.uleb128 0xc
 6054 109f 66000000 		.4byte	.LVL299
 6055 10a3 9F1E0000 		.4byte	0x1e9f
 6056 10a7 00       		.byte	0
 6057 10a8 0F       		.uleb128 0xf
 6058 10a9 0E000000 		.4byte	.LVL287
 6059 10ad 451F0000 		.4byte	0x1f45
 6060 10b1 0E       		.uleb128 0xe
 6061 10b2 01       		.uleb128 0x1
 6062 10b3 50       		.byte	0x50
ARM GAS  C:\Users\samue\AppData\Local\Temp\ccm0rw4c.s 			page 137


 6063 10b4 02       		.uleb128 0x2
 6064 10b5 79       		.byte	0x79
 6065 10b6 00       		.sleb128 0
 6066 10b7 00       		.byte	0
 6067 10b8 00       		.byte	0
 6068 10b9 1A       		.uleb128 0x1a
 6069 10ba 4F040000 		.4byte	.LASF81
 6070 10be 01       		.byte	0x1
 6071 10bf E304     		.2byte	0x4e3
 6072 10c1 00000000 		.4byte	.LFB118
 6073 10c5 3C000000 		.4byte	.LFE118-.LFB118
 6074 10c9 01       		.uleb128 0x1
 6075 10ca 9C       		.byte	0x9c
 6076 10cb 46110000 		.4byte	0x1146
 6077 10cf 1D       		.uleb128 0x1d
 6078 10d0 F8060000 		.4byte	.LASF82
 6079 10d4 01       		.byte	0x1
 6080 10d5 E404     		.2byte	0x4e4
 6081 10d7 46110000 		.4byte	0x1146
 6082 10db 03       		.uleb128 0x3
 6083 10dc 91       		.byte	0x91
 6084 10dd 9C7F     		.sleb128 -100
 6085 10df 16       		.uleb128 0x16
 6086 10e0 EA040000 		.4byte	.LASF30
 6087 10e4 01       		.byte	0x1
 6088 10e5 E704     		.2byte	0x4e7
 6089 10e7 90000000 		.4byte	0x90
 6090 10eb 64       		.byte	0x64
 6091 10ec 16       		.uleb128 0x16
 6092 10ed EF020000 		.4byte	.LASF83
 6093 10f1 01       		.byte	0x1
 6094 10f2 E804     		.2byte	0x4e8
 6095 10f4 90000000 		.4byte	0x90
 6096 10f8 17       		.byte	0x17
 6097 10f9 1C       		.uleb128 0x1c
 6098 10fa 0E000000 		.4byte	.LBB3
 6099 10fe 24000000 		.4byte	.LBE3-.LBB3
 6100 1102 25110000 		.4byte	0x1125
 6101 1106 12       		.uleb128 0x12
 6102 1107 6900     		.ascii	"i\000"
 6103 1109 01       		.byte	0x1
 6104 110a E904     		.2byte	0x4e9
 6105 110c 90000000 		.4byte	0x90
 6106 1110 DC070000 		.4byte	.LLST42
 6107 1114 0F       		.uleb128 0xf
 6108 1115 2C000000 		.4byte	.LVL303
 6109 1119 501F0000 		.4byte	0x1f50
 6110 111d 0E       		.uleb128 0xe
 6111 111e 01       		.uleb128 0x1
 6112 111f 50       		.byte	0x50
 6113 1120 02       		.uleb128 0x2
 6114 1121 08       		.byte	0x8
 6115 1122 64       		.byte	0x64
 6116 1123 00       		.byte	0
 6117 1124 00       		.byte	0
 6118 1125 0F       		.uleb128 0xf
 6119 1126 0E000000 		.4byte	.LVL301
ARM GAS  C:\Users\samue\AppData\Local\Temp\ccm0rw4c.s 			page 138


 6120 112a 5B1F0000 		.4byte	0x1f5b
 6121 112e 0E       		.uleb128 0xe
 6122 112f 01       		.uleb128 0x1
 6123 1130 50       		.byte	0x50
 6124 1131 03       		.uleb128 0x3
 6125 1132 91       		.byte	0x91
 6126 1133 9C7F     		.sleb128 -100
 6127 1135 0E       		.uleb128 0xe
 6128 1136 01       		.uleb128 0x1
 6129 1137 51       		.byte	0x51
 6130 1138 05       		.uleb128 0x5
 6131 1139 03       		.byte	0x3
 6132 113a 00000000 		.4byte	.LANCHOR0
 6133 113e 0E       		.uleb128 0xe
 6134 113f 01       		.uleb128 0x1
 6135 1140 52       		.byte	0x52
 6136 1141 02       		.uleb128 0x2
 6137 1142 08       		.byte	0x8
 6138 1143 5C       		.byte	0x5c
 6139 1144 00       		.byte	0
 6140 1145 00       		.byte	0
 6141 1146 1E       		.uleb128 0x1e
 6142 1147 90000000 		.4byte	0x90
 6143 114b 56110000 		.4byte	0x1156
 6144 114f 1F       		.uleb128 0x1f
 6145 1150 DF000000 		.4byte	0xdf
 6146 1154 16       		.byte	0x16
 6147 1155 00       		.byte	0
 6148 1156 15       		.uleb128 0x15
 6149 1157 98060000 		.4byte	.LASF84
 6150 115b 01       		.byte	0x1
 6151 115c F404     		.2byte	0x4f4
 6152 115e 00000000 		.4byte	.LFB119
 6153 1162 1C000000 		.4byte	.LFE119-.LFB119
 6154 1166 01       		.uleb128 0x1
 6155 1167 9C       		.byte	0x9c
 6156 1168 9B110000 		.4byte	0x119b
 6157 116c 0C       		.uleb128 0xc
 6158 116d 06000000 		.4byte	.LVL306
 6159 1171 7E1E0000 		.4byte	0x1e7e
 6160 1175 0C       		.uleb128 0xc
 6161 1176 0A000000 		.4byte	.LVL307
 6162 117a 891E0000 		.4byte	0x1e89
 6163 117e 0C       		.uleb128 0xc
 6164 117f 0E000000 		.4byte	.LVL308
 6165 1183 941E0000 		.4byte	0x1e94
 6166 1187 0F       		.uleb128 0xf
 6167 1188 14000000 		.4byte	.LVL309
 6168 118c 641F0000 		.4byte	0x1f64
 6169 1190 0E       		.uleb128 0xe
 6170 1191 01       		.uleb128 0x1
 6171 1192 50       		.byte	0x50
 6172 1193 05       		.uleb128 0x5
 6173 1194 03       		.byte	0x3
 6174 1195 9C000000 		.4byte	.LC15
 6175 1199 00       		.byte	0
 6176 119a 00       		.byte	0
ARM GAS  C:\Users\samue\AppData\Local\Temp\ccm0rw4c.s 			page 139


 6177 119b 15       		.uleb128 0x15
 6178 119c 00040000 		.4byte	.LASF85
 6179 11a0 01       		.byte	0x1
 6180 11a1 FD04     		.2byte	0x4fd
 6181 11a3 00000000 		.4byte	.LFB120
 6182 11a7 54000000 		.4byte	.LFE120-.LFB120
 6183 11ab 01       		.uleb128 0x1
 6184 11ac 9C       		.byte	0x9c
 6185 11ad 4D120000 		.4byte	0x124d
 6186 11b1 1B       		.uleb128 0x1b
 6187 11b2 64696700 		.ascii	"dig\000"
 6188 11b6 01       		.byte	0x1
 6189 11b7 FF04     		.2byte	0x4ff
 6190 11b9 02010000 		.4byte	0x102
 6191 11bd 02       		.uleb128 0x2
 6192 11be 91       		.byte	0x91
 6193 11bf 64       		.sleb128 -28
 6194 11c0 0C       		.uleb128 0xc
 6195 11c1 08000000 		.4byte	.LVL310
 6196 11c5 E21E0000 		.4byte	0x1ee2
 6197 11c9 0D       		.uleb128 0xd
 6198 11ca 1C000000 		.4byte	.LVL311
 6199 11ce ED1E0000 		.4byte	0x1eed
 6200 11d2 03120000 		.4byte	0x1203
 6201 11d6 0E       		.uleb128 0xe
 6202 11d7 01       		.uleb128 0x1
 6203 11d8 50       		.byte	0x50
 6204 11d9 03       		.uleb128 0x3
 6205 11da 0A       		.byte	0xa
 6206 11db 2823     		.2byte	0x2328
 6207 11dd 0E       		.uleb128 0xe
 6208 11de 01       		.uleb128 0x1
 6209 11df 51       		.byte	0x51
 6210 11e0 03       		.uleb128 0x3
 6211 11e1 0A       		.byte	0xa
 6212 11e2 2823     		.2byte	0x2328
 6213 11e4 0E       		.uleb128 0xe
 6214 11e5 01       		.uleb128 0x1
 6215 11e6 52       		.byte	0x52
 6216 11e7 03       		.uleb128 0x3
 6217 11e8 0A       		.byte	0xa
 6218 11e9 F82A     		.2byte	0x2af8
 6219 11eb 0E       		.uleb128 0xe
 6220 11ec 01       		.uleb128 0x1
 6221 11ed 53       		.byte	0x53
 6222 11ee 03       		.uleb128 0x3
 6223 11ef 0A       		.byte	0xa
 6224 11f0 F82A     		.2byte	0x2af8
 6225 11f2 0E       		.uleb128 0xe
 6226 11f3 02       		.uleb128 0x2
 6227 11f4 7D       		.byte	0x7d
 6228 11f5 00       		.sleb128 0
 6229 11f6 03       		.uleb128 0x3
 6230 11f7 0A       		.byte	0xa
 6231 11f8 2823     		.2byte	0x2328
 6232 11fa 0E       		.uleb128 0xe
 6233 11fb 02       		.uleb128 0x2
ARM GAS  C:\Users\samue\AppData\Local\Temp\ccm0rw4c.s 			page 140


 6234 11fc 7D       		.byte	0x7d
 6235 11fd 04       		.sleb128 4
 6236 11fe 03       		.uleb128 0x3
 6237 11ff 0A       		.byte	0xa
 6238 1200 2823     		.2byte	0x2328
 6239 1202 00       		.byte	0
 6240 1203 0D       		.uleb128 0xd
 6241 1204 22000000 		.4byte	.LVL312
 6242 1208 241F0000 		.4byte	0x1f24
 6243 120c 17120000 		.4byte	0x1217
 6244 1210 0E       		.uleb128 0xe
 6245 1211 01       		.uleb128 0x1
 6246 1212 50       		.byte	0x50
 6247 1213 02       		.uleb128 0x2
 6248 1214 91       		.byte	0x91
 6249 1215 64       		.sleb128 -28
 6250 1216 00       		.byte	0
 6251 1217 0D       		.uleb128 0xd
 6252 1218 28000000 		.4byte	.LVL313
 6253 121c 241F0000 		.4byte	0x1f24
 6254 1220 2B120000 		.4byte	0x122b
 6255 1224 0E       		.uleb128 0xe
 6256 1225 01       		.uleb128 0x1
 6257 1226 50       		.byte	0x50
 6258 1227 02       		.uleb128 0x2
 6259 1228 91       		.byte	0x91
 6260 1229 64       		.sleb128 -28
 6261 122a 00       		.byte	0
 6262 122b 0F       		.uleb128 0xf
 6263 122c 4C000000 		.4byte	.LVL314
 6264 1230 731F0000 		.4byte	0x1f73
 6265 1234 0E       		.uleb128 0xe
 6266 1235 01       		.uleb128 0x1
 6267 1236 50       		.byte	0x50
 6268 1237 05       		.uleb128 0x5
 6269 1238 03       		.byte	0x3
 6270 1239 B0000000 		.4byte	.LC16
 6271 123d 0E       		.uleb128 0xe
 6272 123e 02       		.uleb128 0x2
 6273 123f 7D       		.byte	0x7d
 6274 1240 04       		.sleb128 4
 6275 1241 02       		.uleb128 0x2
 6276 1242 74       		.byte	0x74
 6277 1243 00       		.sleb128 0
 6278 1244 0E       		.uleb128 0xe
 6279 1245 02       		.uleb128 0x2
 6280 1246 7D       		.byte	0x7d
 6281 1247 08       		.sleb128 8
 6282 1248 02       		.uleb128 0x2
 6283 1249 75       		.byte	0x75
 6284 124a 00       		.sleb128 0
 6285 124b 00       		.byte	0
 6286 124c 00       		.byte	0
 6287 124d 20       		.uleb128 0x20
 6288 124e 12050000 		.4byte	.LASF86
 6289 1252 01       		.byte	0x1
 6290 1253 0B05     		.2byte	0x50b
ARM GAS  C:\Users\samue\AppData\Local\Temp\ccm0rw4c.s 			page 141


 6291 1255 00000000 		.4byte	.LFB121
 6292 1259 B8000000 		.4byte	.LFE121-.LFB121
 6293 125d 01       		.uleb128 0x1
 6294 125e 9C       		.byte	0x9c
 6295 125f 2B130000 		.4byte	0x132b
 6296 1263 1D       		.uleb128 0x1d
 6297 1264 EA020000 		.4byte	.LASF44
 6298 1268 01       		.byte	0x1
 6299 1269 0C05     		.2byte	0x50c
 6300 126b 51010000 		.4byte	0x151
 6301 126f 02       		.uleb128 0x2
 6302 1270 91       		.byte	0x91
 6303 1271 60       		.sleb128 -32
 6304 1272 0B       		.uleb128 0xb
 6305 1273 2B000000 		.4byte	.LASF87
 6306 1277 01       		.byte	0x1
 6307 1278 0D05     		.2byte	0x50d
 6308 127a 25000000 		.4byte	0x25
 6309 127e FB070000 		.4byte	.LLST43
 6310 1282 0B       		.uleb128 0xb
 6311 1283 3B040000 		.4byte	.LASF88
 6312 1287 01       		.byte	0x1
 6313 1288 0F05     		.2byte	0x50f
 6314 128a 90000000 		.4byte	0x90
 6315 128e 65080000 		.4byte	.LLST44
 6316 1292 1C       		.uleb128 0x1c
 6317 1293 42000000 		.4byte	.LBB4
 6318 1297 36000000 		.4byte	.LBE4-.LBB4
 6319 129b D2120000 		.4byte	0x12d2
 6320 129f 12       		.uleb128 0x12
 6321 12a0 6900     		.ascii	"i\000"
 6322 12a2 01       		.byte	0x1
 6323 12a3 1A05     		.2byte	0x51a
 6324 12a5 EC000000 		.4byte	0xec
 6325 12a9 84080000 		.4byte	.LLST45
 6326 12ad 0D       		.uleb128 0xd
 6327 12ae 68000000 		.4byte	.LVL328
 6328 12b2 7E1F0000 		.4byte	0x1f7e
 6329 12b6 C1120000 		.4byte	0x12c1
 6330 12ba 0E       		.uleb128 0xe
 6331 12bb 01       		.uleb128 0x1
 6332 12bc 50       		.byte	0x50
 6333 12bd 02       		.uleb128 0x2
 6334 12be 08       		.byte	0x8
 6335 12bf 20       		.byte	0x20
 6336 12c0 00       		.byte	0
 6337 12c1 0F       		.uleb128 0xf
 6338 12c2 70000000 		.4byte	.LVL329
 6339 12c6 7E1F0000 		.4byte	0x1f7e
 6340 12ca 0E       		.uleb128 0xe
 6341 12cb 01       		.uleb128 0x1
 6342 12cc 50       		.byte	0x50
 6343 12cd 02       		.uleb128 0x2
 6344 12ce 08       		.byte	0x8
 6345 12cf 3C       		.byte	0x3c
 6346 12d0 00       		.byte	0
 6347 12d1 00       		.byte	0
ARM GAS  C:\Users\samue\AppData\Local\Temp\ccm0rw4c.s 			page 142


 6348 12d2 1C       		.uleb128 0x1c
 6349 12d3 78000000 		.4byte	.LBB5
 6350 12d7 26000000 		.4byte	.LBE5-.LBB5
 6351 12db FE120000 		.4byte	0x12fe
 6352 12df 12       		.uleb128 0x12
 6353 12e0 6900     		.ascii	"i\000"
 6354 12e2 01       		.byte	0x1
 6355 12e3 2205     		.2byte	0x522
 6356 12e5 EC000000 		.4byte	0xec
 6357 12e9 A4080000 		.4byte	.LLST46
 6358 12ed 0F       		.uleb128 0xf
 6359 12ee 98000000 		.4byte	.LVL335
 6360 12f2 7E1F0000 		.4byte	0x1f7e
 6361 12f6 0E       		.uleb128 0xe
 6362 12f7 01       		.uleb128 0x1
 6363 12f8 50       		.byte	0x50
 6364 12f9 02       		.uleb128 0x2
 6365 12fa 08       		.byte	0x8
 6366 12fb 3E       		.byte	0x3e
 6367 12fc 00       		.byte	0
 6368 12fd 00       		.byte	0
 6369 12fe 0C       		.uleb128 0xc
 6370 12ff 0C000000 		.4byte	.LVL317
 6371 1303 031F0000 		.4byte	0x1f03
 6372 1307 0D       		.uleb128 0xd
 6373 1308 12000000 		.4byte	.LVL318
 6374 130c 261E0000 		.4byte	0x1e26
 6375 1310 1B130000 		.4byte	0x131b
 6376 1314 0E       		.uleb128 0xe
 6377 1315 01       		.uleb128 0x1
 6378 1316 50       		.byte	0x50
 6379 1317 02       		.uleb128 0x2
 6380 1318 7D       		.byte	0x7d
 6381 1319 00       		.sleb128 0
 6382 131a 00       		.byte	0
 6383 131b 0F       		.uleb128 0xf
 6384 131c A4000000 		.4byte	.LVL338
 6385 1320 7E1F0000 		.4byte	0x1f7e
 6386 1324 0E       		.uleb128 0xe
 6387 1325 01       		.uleb128 0x1
 6388 1326 50       		.byte	0x50
 6389 1327 01       		.uleb128 0x1
 6390 1328 3A       		.byte	0x3a
 6391 1329 00       		.byte	0
 6392 132a 00       		.byte	0
 6393 132b 15       		.uleb128 0x15
 6394 132c 01070000 		.4byte	.LASF89
 6395 1330 01       		.byte	0x1
 6396 1331 3005     		.2byte	0x530
 6397 1333 00000000 		.4byte	.LFB122
 6398 1337 58000000 		.4byte	.LFE122-.LFB122
 6399 133b 01       		.uleb128 0x1
 6400 133c 9C       		.byte	0x9c
 6401 133d C5130000 		.4byte	0x13c5
 6402 1341 0D       		.uleb128 0xd
 6403 1342 08000000 		.4byte	.LVL341
 6404 1346 8D1F0000 		.4byte	0x1f8d
ARM GAS  C:\Users\samue\AppData\Local\Temp\ccm0rw4c.s 			page 143


 6405 134a 54130000 		.4byte	0x1354
 6406 134e 0E       		.uleb128 0xe
 6407 134f 01       		.uleb128 0x1
 6408 1350 50       		.byte	0x50
 6409 1351 01       		.uleb128 0x1
 6410 1352 30       		.byte	0x30
 6411 1353 00       		.byte	0
 6412 1354 0C       		.uleb128 0xc
 6413 1355 0C000000 		.4byte	.LVL342
 6414 1359 981F0000 		.4byte	0x1f98
 6415 135d 0C       		.uleb128 0xc
 6416 135e 10000000 		.4byte	.LVL343
 6417 1362 2F1F0000 		.4byte	0x1f2f
 6418 1366 0C       		.uleb128 0xc
 6419 1367 18000000 		.4byte	.LVL344
 6420 136b A31F0000 		.4byte	0x1fa3
 6421 136f 0D       		.uleb128 0xd
 6422 1370 2C000000 		.4byte	.LVL345
 6423 1374 731F0000 		.4byte	0x1f73
 6424 1378 86130000 		.4byte	0x1386
 6425 137c 0E       		.uleb128 0xe
 6426 137d 01       		.uleb128 0x1
 6427 137e 50       		.byte	0x50
 6428 137f 05       		.uleb128 0x5
 6429 1380 03       		.byte	0x3
 6430 1381 C4000000 		.4byte	.LC17
 6431 1385 00       		.byte	0
 6432 1386 0D       		.uleb128 0xd
 6433 1387 34000000 		.4byte	.LVL346
 6434 138b 521E0000 		.4byte	0x1e52
 6435 138f A6130000 		.4byte	0x13a6
 6436 1393 0E       		.uleb128 0xe
 6437 1394 01       		.uleb128 0x1
 6438 1395 50       		.byte	0x50
 6439 1396 05       		.uleb128 0x5
 6440 1397 03       		.byte	0x3
 6441 1398 DC000000 		.4byte	.LC19
 6442 139c 0E       		.uleb128 0xe
 6443 139d 01       		.uleb128 0x1
 6444 139e 51       		.byte	0x51
 6445 139f 05       		.uleb128 0x5
 6446 13a0 03       		.byte	0x3
 6447 13a1 D8000000 		.4byte	.LC18
 6448 13a5 00       		.byte	0
 6449 13a6 0D       		.uleb128 0xd
 6450 13a7 3C000000 		.4byte	.LVL347
 6451 13ab 9F1E0000 		.4byte	0x1e9f
 6452 13af BB130000 		.4byte	0x13bb
 6453 13b3 0E       		.uleb128 0xe
 6454 13b4 01       		.uleb128 0x1
 6455 13b5 50       		.byte	0x50
 6456 13b6 03       		.uleb128 0x3
 6457 13b7 0A       		.byte	0xa
 6458 13b8 F401     		.2byte	0x1f4
 6459 13ba 00       		.byte	0
 6460 13bb 0C       		.uleb128 0xc
 6461 13bc 40000000 		.4byte	.LVL348
ARM GAS  C:\Users\samue\AppData\Local\Temp\ccm0rw4c.s 			page 144


 6462 13c0 2F1F0000 		.4byte	0x1f2f
 6463 13c4 00       		.byte	0
 6464 13c5 13       		.uleb128 0x13
 6465 13c6 64060000 		.4byte	.LASF90
 6466 13ca 01       		.byte	0x1
 6467 13cb 3B05     		.2byte	0x53b
 6468 13cd 00000000 		.4byte	.LFB123
 6469 13d1 2A000000 		.4byte	.LFE123-.LFB123
 6470 13d5 01       		.uleb128 0x1
 6471 13d6 9C       		.byte	0x9c
 6472 13d7 5C140000 		.4byte	0x145c
 6473 13db 0A       		.uleb128 0xa
 6474 13dc 64697200 		.ascii	"dir\000"
 6475 13e0 01       		.byte	0x1
 6476 13e1 3B05     		.2byte	0x53b
 6477 13e3 90000000 		.4byte	0x90
 6478 13e7 B7080000 		.4byte	.LLST47
 6479 13eb 16       		.uleb128 0x16
 6480 13ec 60030000 		.4byte	.LASF91
 6481 13f0 01       		.byte	0x1
 6482 13f1 3C05     		.2byte	0x53c
 6483 13f3 90000000 		.4byte	0x90
 6484 13f7 96       		.byte	0x96
 6485 13f8 0D       		.uleb128 0xd
 6486 13f9 0A000000 		.4byte	.LVL352
 6487 13fd B61E0000 		.4byte	0x1eb6
 6488 1401 0C140000 		.4byte	0x140c
 6489 1405 0E       		.uleb128 0xe
 6490 1406 01       		.uleb128 0x1
 6491 1407 50       		.byte	0x50
 6492 1408 02       		.uleb128 0x2
 6493 1409 74       		.byte	0x74
 6494 140a 00       		.sleb128 0
 6495 140b 00       		.byte	0
 6496 140c 0D       		.uleb128 0xd
 6497 140d 14000000 		.4byte	.LVL353
 6498 1411 C11E0000 		.4byte	0x1ec1
 6499 1415 22140000 		.4byte	0x1422
 6500 1419 0E       		.uleb128 0xe
 6501 141a 01       		.uleb128 0x1
 6502 141b 50       		.byte	0x50
 6503 141c 04       		.uleb128 0x4
 6504 141d 74       		.byte	0x74
 6505 141e 00       		.sleb128 0
 6506 141f 30       		.byte	0x30
 6507 1420 29       		.byte	0x29
 6508 1421 00       		.byte	0
 6509 1422 0D       		.uleb128 0xd
 6510 1423 1A000000 		.4byte	.LVL354
 6511 1427 CC1E0000 		.4byte	0x1ecc
 6512 142b 36140000 		.4byte	0x1436
 6513 142f 0E       		.uleb128 0xe
 6514 1430 01       		.uleb128 0x1
 6515 1431 50       		.byte	0x50
 6516 1432 02       		.uleb128 0x2
 6517 1433 09       		.byte	0x9
 6518 1434 96       		.byte	0x96
ARM GAS  C:\Users\samue\AppData\Local\Temp\ccm0rw4c.s 			page 145


 6519 1435 00       		.byte	0
 6520 1436 0D       		.uleb128 0xd
 6521 1437 20000000 		.4byte	.LVL355
 6522 143b D71E0000 		.4byte	0x1ed7
 6523 143f 4A140000 		.4byte	0x144a
 6524 1443 0E       		.uleb128 0xe
 6525 1444 01       		.uleb128 0x1
 6526 1445 50       		.byte	0x50
 6527 1446 02       		.uleb128 0x2
 6528 1447 09       		.byte	0x9
 6529 1448 96       		.byte	0x96
 6530 1449 00       		.byte	0
 6531 144a 0F       		.uleb128 0xf
 6532 144b 28000000 		.4byte	.LVL356
 6533 144f 9F1E0000 		.4byte	0x1e9f
 6534 1453 0E       		.uleb128 0xe
 6535 1454 01       		.uleb128 0x1
 6536 1455 50       		.byte	0x50
 6537 1456 03       		.uleb128 0x3
 6538 1457 0A       		.byte	0xa
 6539 1458 2C01     		.2byte	0x12c
 6540 145a 00       		.byte	0
 6541 145b 00       		.byte	0
 6542 145c 18       		.uleb128 0x18
 6543 145d 20000000 		.4byte	.LASF92
 6544 1461 01       		.byte	0x1
 6545 1462 8401     		.2byte	0x184
 6546 1464 00000000 		.4byte	.LFB87
 6547 1468 6C000000 		.4byte	.LFE87-.LFB87
 6548 146c 01       		.uleb128 0x1
 6549 146d 9C       		.byte	0x9c
 6550 146e 02150000 		.4byte	0x1502
 6551 1472 11       		.uleb128 0x11
 6552 1473 64696700 		.ascii	"dig\000"
 6553 1477 01       		.byte	0x1
 6554 1478 8401     		.2byte	0x184
 6555 147a 02010000 		.4byte	0x102
 6556 147e 02       		.uleb128 0x2
 6557 147f 91       		.byte	0x91
 6558 1480 64       		.sleb128 -28
 6559 1481 11       		.uleb128 0x11
 6560 1482 72656600 		.ascii	"ref\000"
 6561 1486 01       		.byte	0x1
 6562 1487 8401     		.2byte	0x184
 6563 1489 02010000 		.4byte	0x102
 6564 148d 02       		.uleb128 0x2
 6565 148e 91       		.byte	0x91
 6566 148f 7C       		.sleb128 -4
 6567 1490 0C       		.uleb128 0xc
 6568 1491 1A000000 		.4byte	.LVL357
 6569 1495 D9080000 		.4byte	0x8d9
 6570 1499 0C       		.uleb128 0xc
 6571 149a 2C000000 		.4byte	.LVL359
 6572 149e D00E0000 		.4byte	0xed0
 6573 14a2 0C       		.uleb128 0xc
 6574 14a3 3A000000 		.4byte	.LVL360
 6575 14a7 D00E0000 		.4byte	0xed0
ARM GAS  C:\Users\samue\AppData\Local\Temp\ccm0rw4c.s 			page 146


 6576 14ab 0D       		.uleb128 0xd
 6577 14ac 48000000 		.4byte	.LVL361
 6578 14b0 051E0000 		.4byte	0x1e05
 6579 14b4 C6140000 		.4byte	0x14c6
 6580 14b8 0E       		.uleb128 0xe
 6581 14b9 01       		.uleb128 0x1
 6582 14ba 50       		.byte	0x50
 6583 14bb 02       		.uleb128 0x2
 6584 14bc 09       		.byte	0x9
 6585 14bd 96       		.byte	0x96
 6586 14be 0E       		.uleb128 0xe
 6587 14bf 01       		.uleb128 0x1
 6588 14c0 51       		.byte	0x51
 6589 14c1 03       		.uleb128 0x3
 6590 14c2 0A       		.byte	0xa
 6591 14c3 F401     		.2byte	0x1f4
 6592 14c5 00       		.byte	0
 6593 14c6 0D       		.uleb128 0xd
 6594 14c7 4E000000 		.4byte	.LVL362
 6595 14cb C5130000 		.4byte	0x13c5
 6596 14cf D9140000 		.4byte	0x14d9
 6597 14d3 0E       		.uleb128 0xe
 6598 14d4 01       		.uleb128 0x1
 6599 14d5 50       		.byte	0x50
 6600 14d6 01       		.uleb128 0x1
 6601 14d7 30       		.byte	0x30
 6602 14d8 00       		.byte	0
 6603 14d9 0D       		.uleb128 0xd
 6604 14da 54000000 		.4byte	.LVL363
 6605 14de C5130000 		.4byte	0x13c5
 6606 14e2 EC140000 		.4byte	0x14ec
 6607 14e6 0E       		.uleb128 0xe
 6608 14e7 01       		.uleb128 0x1
 6609 14e8 50       		.byte	0x50
 6610 14e9 01       		.uleb128 0x1
 6611 14ea 30       		.byte	0x30
 6612 14eb 00       		.byte	0
 6613 14ec 0F       		.uleb128 0xf
 6614 14ed 5C000000 		.4byte	.LVL364
 6615 14f1 1B1E0000 		.4byte	0x1e1b
 6616 14f5 0E       		.uleb128 0xe
 6617 14f6 01       		.uleb128 0x1
 6618 14f7 50       		.byte	0x50
 6619 14f8 02       		.uleb128 0x2
 6620 14f9 09       		.byte	0x9
 6621 14fa 96       		.byte	0x96
 6622 14fb 0E       		.uleb128 0xe
 6623 14fc 01       		.uleb128 0x1
 6624 14fd 51       		.byte	0x51
 6625 14fe 01       		.uleb128 0x1
 6626 14ff 30       		.byte	0x30
 6627 1500 00       		.byte	0
 6628 1501 00       		.byte	0
 6629 1502 20       		.uleb128 0x20
 6630 1503 43040000 		.4byte	.LASF93
 6631 1507 01       		.byte	0x1
 6632 1508 9C01     		.2byte	0x19c
ARM GAS  C:\Users\samue\AppData\Local\Temp\ccm0rw4c.s 			page 147


 6633 150a 00000000 		.4byte	.LFB89
 6634 150e 9C000000 		.4byte	.LFE89-.LFB89
 6635 1512 01       		.uleb128 0x1
 6636 1513 9C       		.byte	0x9c
 6637 1514 09160000 		.4byte	0x1609
 6638 1518 1B       		.uleb128 0x1b
 6639 1519 72656600 		.ascii	"ref\000"
 6640 151d 01       		.byte	0x1
 6641 151e 9D01     		.2byte	0x19d
 6642 1520 02010000 		.4byte	0x102
 6643 1524 02       		.uleb128 0x2
 6644 1525 91       		.byte	0x91
 6645 1526 64       		.sleb128 -28
 6646 1527 1B       		.uleb128 0x1b
 6647 1528 64696700 		.ascii	"dig\000"
 6648 152c 01       		.byte	0x1
 6649 152d 9D01     		.2byte	0x19d
 6650 152f 02010000 		.4byte	0x102
 6651 1533 02       		.uleb128 0x2
 6652 1534 91       		.byte	0x91
 6653 1535 58       		.sleb128 -40
 6654 1536 0D       		.uleb128 0xd
 6655 1537 0A000000 		.4byte	.LVL365
 6656 153b E4050000 		.4byte	0x5e4
 6657 153f 4D150000 		.4byte	0x154d
 6658 1543 0E       		.uleb128 0xe
 6659 1544 01       		.uleb128 0x1
 6660 1545 50       		.byte	0x50
 6661 1546 05       		.uleb128 0x5
 6662 1547 03       		.byte	0x3
 6663 1548 EC000000 		.4byte	.LC20
 6664 154c 00       		.byte	0
 6665 154d 0C       		.uleb128 0xc
 6666 154e 0E000000 		.4byte	.LVL366
 6667 1552 941E0000 		.4byte	0x1e94
 6668 1556 0D       		.uleb128 0xd
 6669 1557 16000000 		.4byte	.LVL367
 6670 155b 1B1E0000 		.4byte	0x1e1b
 6671 155f 6F150000 		.4byte	0x156f
 6672 1563 0E       		.uleb128 0xe
 6673 1564 01       		.uleb128 0x1
 6674 1565 50       		.byte	0x50
 6675 1566 02       		.uleb128 0x2
 6676 1567 09       		.byte	0x9
 6677 1568 96       		.byte	0x96
 6678 1569 0E       		.uleb128 0xe
 6679 156a 01       		.uleb128 0x1
 6680 156b 51       		.byte	0x51
 6681 156c 01       		.uleb128 0x1
 6682 156d 30       		.byte	0x30
 6683 156e 00       		.byte	0
 6684 156f 0D       		.uleb128 0xd
 6685 1570 1C000000 		.4byte	.LVL368
 6686 1574 241F0000 		.4byte	0x1f24
 6687 1578 83150000 		.4byte	0x1583
 6688 157c 0E       		.uleb128 0xe
 6689 157d 01       		.uleb128 0x1
ARM GAS  C:\Users\samue\AppData\Local\Temp\ccm0rw4c.s 			page 148


 6690 157e 50       		.byte	0x50
 6691 157f 02       		.uleb128 0x2
 6692 1580 7D       		.byte	0x7d
 6693 1581 00       		.sleb128 0
 6694 1582 00       		.byte	0
 6695 1583 0D       		.uleb128 0xd
 6696 1584 24000000 		.4byte	.LVL369
 6697 1588 241F0000 		.4byte	0x1f24
 6698 158c 97150000 		.4byte	0x1597
 6699 1590 0E       		.uleb128 0xe
 6700 1591 01       		.uleb128 0x1
 6701 1592 50       		.byte	0x50
 6702 1593 02       		.uleb128 0x2
 6703 1594 7D       		.byte	0x7d
 6704 1595 00       		.sleb128 0
 6705 1596 00       		.byte	0
 6706 1597 0C       		.uleb128 0xc
 6707 1598 54000000 		.4byte	.LVL370
 6708 159c D9080000 		.4byte	0x8d9
 6709 15a0 0C       		.uleb128 0xc
 6710 15a1 64000000 		.4byte	.LVL372
 6711 15a5 D00E0000 		.4byte	0xed0
 6712 15a9 0C       		.uleb128 0xc
 6713 15aa 70000000 		.4byte	.LVL373
 6714 15ae D00E0000 		.4byte	0xed0
 6715 15b2 0D       		.uleb128 0xd
 6716 15b3 7E000000 		.4byte	.LVL374
 6717 15b7 051E0000 		.4byte	0x1e05
 6718 15bb CD150000 		.4byte	0x15cd
 6719 15bf 0E       		.uleb128 0xe
 6720 15c0 01       		.uleb128 0x1
 6721 15c1 50       		.byte	0x50
 6722 15c2 02       		.uleb128 0x2
 6723 15c3 09       		.byte	0x9
 6724 15c4 96       		.byte	0x96
 6725 15c5 0E       		.uleb128 0xe
 6726 15c6 01       		.uleb128 0x1
 6727 15c7 51       		.byte	0x51
 6728 15c8 03       		.uleb128 0x3
 6729 15c9 0A       		.byte	0xa
 6730 15ca F401     		.2byte	0x1f4
 6731 15cc 00       		.byte	0
 6732 15cd 0D       		.uleb128 0xd
 6733 15ce 84000000 		.4byte	.LVL375
 6734 15d2 C5130000 		.4byte	0x13c5
 6735 15d6 E0150000 		.4byte	0x15e0
 6736 15da 0E       		.uleb128 0xe
 6737 15db 01       		.uleb128 0x1
 6738 15dc 50       		.byte	0x50
 6739 15dd 01       		.uleb128 0x1
 6740 15de 30       		.byte	0x30
 6741 15df 00       		.byte	0
 6742 15e0 0D       		.uleb128 0xd
 6743 15e1 8A000000 		.4byte	.LVL376
 6744 15e5 C5130000 		.4byte	0x13c5
 6745 15e9 F3150000 		.4byte	0x15f3
 6746 15ed 0E       		.uleb128 0xe
ARM GAS  C:\Users\samue\AppData\Local\Temp\ccm0rw4c.s 			page 149


 6747 15ee 01       		.uleb128 0x1
 6748 15ef 50       		.byte	0x50
 6749 15f0 01       		.uleb128 0x1
 6750 15f1 30       		.byte	0x30
 6751 15f2 00       		.byte	0
 6752 15f3 0F       		.uleb128 0xf
 6753 15f4 92000000 		.4byte	.LVL377
 6754 15f8 1B1E0000 		.4byte	0x1e1b
 6755 15fc 0E       		.uleb128 0xe
 6756 15fd 01       		.uleb128 0x1
 6757 15fe 50       		.byte	0x50
 6758 15ff 02       		.uleb128 0x2
 6759 1600 09       		.byte	0x9
 6760 1601 96       		.byte	0x96
 6761 1602 0E       		.uleb128 0xe
 6762 1603 01       		.uleb128 0x1
 6763 1604 51       		.byte	0x51
 6764 1605 01       		.uleb128 0x1
 6765 1606 30       		.byte	0x30
 6766 1607 00       		.byte	0
 6767 1608 00       		.byte	0
 6768 1609 21       		.uleb128 0x21
 6769 160a 41060000 		.4byte	.LASF94
 6770 160e 01       		.byte	0x1
 6771 160f 3703     		.2byte	0x337
 6772 1611 00000000 		.4byte	.LFB102
 6773 1615 00010000 		.4byte	.LFE102-.LFB102
 6774 1619 01       		.uleb128 0x1
 6775 161a 9C       		.byte	0x9c
 6776 161b 5A170000 		.4byte	0x175a
 6777 161f 11       		.uleb128 0x11
 6778 1620 64696700 		.ascii	"dig\000"
 6779 1624 01       		.byte	0x1
 6780 1625 3703     		.2byte	0x337
 6781 1627 02010000 		.4byte	0x102
 6782 162b 02       		.uleb128 0x2
 6783 162c 91       		.byte	0x91
 6784 162d 5C       		.sleb128 -36
 6785 162e 0B       		.uleb128 0xb
 6786 162f 5B000000 		.4byte	.LASF95
 6787 1633 01       		.byte	0x1
 6788 1634 3903     		.2byte	0x339
 6789 1636 90000000 		.4byte	0x90
 6790 163a D5080000 		.4byte	.LLST48
 6791 163e 12       		.uleb128 0x12
 6792 163f 7800     		.ascii	"x\000"
 6793 1641 01       		.byte	0x1
 6794 1642 3A03     		.2byte	0x33a
 6795 1644 90000000 		.4byte	0x90
 6796 1648 F6080000 		.4byte	.LLST49
 6797 164c 12       		.uleb128 0x12
 6798 164d 7900     		.ascii	"y\000"
 6799 164f 01       		.byte	0x1
 6800 1650 3B03     		.2byte	0x33b
 6801 1652 90000000 		.4byte	0x90
 6802 1656 15090000 		.4byte	.LLST50
 6803 165a 0B       		.uleb128 0xb
ARM GAS  C:\Users\samue\AppData\Local\Temp\ccm0rw4c.s 			page 150


 6804 165b D9020000 		.4byte	.LASF96
 6805 165f 01       		.byte	0x1
 6806 1660 3C03     		.2byte	0x33c
 6807 1662 90000000 		.4byte	0x90
 6808 1666 35090000 		.4byte	.LLST51
 6809 166a 1C       		.uleb128 0x1c
 6810 166b 18000000 		.4byte	.LBB6
 6811 166f CE000000 		.4byte	.LBE6-.LBB6
 6812 1673 31170000 		.4byte	0x1731
 6813 1677 12       		.uleb128 0x12
 6814 1678 6900     		.ascii	"i\000"
 6815 167a 01       		.byte	0x1
 6816 167b 4203     		.2byte	0x342
 6817 167d 90000000 		.4byte	0x90
 6818 1681 56090000 		.4byte	.LLST52
 6819 1685 0D       		.uleb128 0xd
 6820 1686 22000000 		.4byte	.LVL381
 6821 168a 241F0000 		.4byte	0x1f24
 6822 168e 99160000 		.4byte	0x1699
 6823 1692 0E       		.uleb128 0xe
 6824 1693 01       		.uleb128 0x1
 6825 1694 50       		.byte	0x50
 6826 1695 02       		.uleb128 0x2
 6827 1696 91       		.byte	0x91
 6828 1697 5C       		.sleb128 -36
 6829 1698 00       		.byte	0
 6830 1699 0C       		.uleb128 0xc
 6831 169a 26000000 		.4byte	.LVL382
 6832 169e AB1E0000 		.4byte	0x1eab
 6833 16a2 0D       		.uleb128 0xd
 6834 16a3 5A000000 		.4byte	.LVL383
 6835 16a7 1B1E0000 		.4byte	0x1e1b
 6836 16ab BA160000 		.4byte	0x16ba
 6837 16af 0E       		.uleb128 0xe
 6838 16b0 01       		.uleb128 0x1
 6839 16b1 50       		.byte	0x50
 6840 16b2 01       		.uleb128 0x1
 6841 16b3 30       		.byte	0x30
 6842 16b4 0E       		.uleb128 0xe
 6843 16b5 01       		.uleb128 0x1
 6844 16b6 51       		.byte	0x51
 6845 16b7 01       		.uleb128 0x1
 6846 16b8 30       		.byte	0x30
 6847 16b9 00       		.byte	0
 6848 16ba 0D       		.uleb128 0xd
 6849 16bb 60000000 		.4byte	.LVL384
 6850 16bf 9F1E0000 		.4byte	0x1e9f
 6851 16c3 CE160000 		.4byte	0x16ce
 6852 16c7 0E       		.uleb128 0xe
 6853 16c8 01       		.uleb128 0x1
 6854 16c9 50       		.byte	0x50
 6855 16ca 02       		.uleb128 0x2
 6856 16cb 08       		.byte	0x8
 6857 16cc FA       		.byte	0xfa
 6858 16cd 00       		.byte	0
 6859 16ce 0D       		.uleb128 0xd
 6860 16cf 66000000 		.4byte	.LVL385
ARM GAS  C:\Users\samue\AppData\Local\Temp\ccm0rw4c.s 			page 151


 6861 16d3 C5130000 		.4byte	0x13c5
 6862 16d7 E1160000 		.4byte	0x16e1
 6863 16db 0E       		.uleb128 0xe
 6864 16dc 01       		.uleb128 0x1
 6865 16dd 50       		.byte	0x50
 6866 16de 01       		.uleb128 0x1
 6867 16df 31       		.byte	0x31
 6868 16e0 00       		.byte	0
 6869 16e1 0C       		.uleb128 0xc
 6870 16e2 9A000000 		.4byte	.LVL391
 6871 16e6 380D0000 		.4byte	0xd38
 6872 16ea 0D       		.uleb128 0xd
 6873 16eb AE000000 		.4byte	.LVL393
 6874 16ef 9F1E0000 		.4byte	0x1e9f
 6875 16f3 FE160000 		.4byte	0x16fe
 6876 16f7 0E       		.uleb128 0xe
 6877 16f8 01       		.uleb128 0x1
 6878 16f9 50       		.byte	0x50
 6879 16fa 02       		.uleb128 0x2
 6880 16fb 08       		.byte	0x8
 6881 16fc C8       		.byte	0xc8
 6882 16fd 00       		.byte	0
 6883 16fe 0C       		.uleb128 0xc
 6884 16ff C4000000 		.4byte	.LVL394
 6885 1703 D00E0000 		.4byte	0xed0
 6886 1707 0D       		.uleb128 0xd
 6887 1708 D4000000 		.4byte	.LVL395
 6888 170c C5130000 		.4byte	0x13c5
 6889 1710 1A170000 		.4byte	0x171a
 6890 1714 0E       		.uleb128 0xe
 6891 1715 01       		.uleb128 0x1
 6892 1716 50       		.byte	0x50
 6893 1717 01       		.uleb128 0x1
 6894 1718 30       		.byte	0x30
 6895 1719 00       		.byte	0
 6896 171a 0F       		.uleb128 0xf
 6897 171b E0000000 		.4byte	.LVL397
 6898 171f 1B1E0000 		.4byte	0x1e1b
 6899 1723 0E       		.uleb128 0xe
 6900 1724 01       		.uleb128 0x1
 6901 1725 50       		.byte	0x50
 6902 1726 01       		.uleb128 0x1
 6903 1727 30       		.byte	0x30
 6904 1728 0E       		.uleb128 0xe
 6905 1729 01       		.uleb128 0x1
 6906 172a 51       		.byte	0x51
 6907 172b 03       		.uleb128 0x3
 6908 172c 0A       		.byte	0xa
 6909 172d 2C01     		.2byte	0x12c
 6910 172f 00       		.byte	0
 6911 1730 00       		.byte	0
 6912 1731 0F       		.uleb128 0xf
 6913 1732 F2000000 		.4byte	.LVL399
 6914 1736 521E0000 		.4byte	0x1e52
 6915 173a 0E       		.uleb128 0xe
 6916 173b 01       		.uleb128 0x1
 6917 173c 50       		.byte	0x50
ARM GAS  C:\Users\samue\AppData\Local\Temp\ccm0rw4c.s 			page 152


 6918 173d 05       		.uleb128 0x5
 6919 173e 03       		.byte	0x3
 6920 173f 00010000 		.4byte	.LC22
 6921 1743 0E       		.uleb128 0xe
 6922 1744 01       		.uleb128 0x1
 6923 1745 51       		.byte	0x51
 6924 1746 05       		.uleb128 0x5
 6925 1747 03       		.byte	0x3
 6926 1748 F4000000 		.4byte	.LC21
 6927 174c 0E       		.uleb128 0xe
 6928 174d 01       		.uleb128 0x1
 6929 174e 52       		.byte	0x52
 6930 174f 02       		.uleb128 0x2
 6931 1750 77       		.byte	0x77
 6932 1751 00       		.sleb128 0
 6933 1752 0E       		.uleb128 0xe
 6934 1753 01       		.uleb128 0x1
 6935 1754 53       		.byte	0x53
 6936 1755 02       		.uleb128 0x2
 6937 1756 76       		.byte	0x76
 6938 1757 00       		.sleb128 0
 6939 1758 00       		.byte	0
 6940 1759 00       		.byte	0
 6941 175a 15       		.uleb128 0x15
 6942 175b A0040000 		.4byte	.LASF97
 6943 175f 01       		.byte	0x1
 6944 1760 0303     		.2byte	0x303
 6945 1762 00000000 		.4byte	.LFB101
 6946 1766 20000000 		.4byte	.LFE101-.LFB101
 6947 176a 01       		.uleb128 0x1
 6948 176b 9C       		.byte	0x9c
 6949 176c BD170000 		.4byte	0x17bd
 6950 1770 22       		.uleb128 0x22
 6951 1771 72656600 		.ascii	"ref\000"
 6952 1775 01       		.byte	0x1
 6953 1776 0403     		.2byte	0x304
 6954 1778 02010000 		.4byte	0x102
 6955 177c 1B       		.uleb128 0x1b
 6956 177d 64696700 		.ascii	"dig\000"
 6957 1781 01       		.byte	0x1
 6958 1782 0403     		.2byte	0x304
 6959 1784 02010000 		.4byte	0x102
 6960 1788 02       		.uleb128 0x2
 6961 1789 91       		.byte	0x91
 6962 178a 6C       		.sleb128 -20
 6963 178b 0D       		.uleb128 0xd
 6964 178c 0C000000 		.4byte	.LVL400
 6965 1790 E4050000 		.4byte	0x5e4
 6966 1794 9F170000 		.4byte	0x179f
 6967 1798 0E       		.uleb128 0xe
 6968 1799 01       		.uleb128 0x1
 6969 179a 50       		.byte	0x50
 6970 179b 02       		.uleb128 0x2
 6971 179c 74       		.byte	0x74
 6972 179d 00       		.sleb128 0
 6973 179e 00       		.byte	0
 6974 179f 0D       		.uleb128 0xd
ARM GAS  C:\Users\samue\AppData\Local\Temp\ccm0rw4c.s 			page 153


 6975 17a0 18000000 		.4byte	.LVL401
 6976 17a4 740A0000 		.4byte	0xa74
 6977 17a8 B3170000 		.4byte	0x17b3
 6978 17ac 0E       		.uleb128 0xe
 6979 17ad 01       		.uleb128 0x1
 6980 17ae 50       		.byte	0x50
 6981 17af 02       		.uleb128 0x2
 6982 17b0 74       		.byte	0x74
 6983 17b1 00       		.sleb128 0
 6984 17b2 00       		.byte	0
 6985 17b3 0C       		.uleb128 0xc
 6986 17b4 1C000000 		.4byte	.LVL402
 6987 17b8 09160000 		.4byte	0x1609
 6988 17bc 00       		.byte	0
 6989 17bd 09       		.uleb128 0x9
 6990 17be 11000000 		.4byte	.LASF98
 6991 17c2 01       		.byte	0x1
 6992 17c3 8403     		.2byte	0x384
 6993 17c5 5C180000 		.4byte	0x185c
 6994 17c9 00000000 		.4byte	.LFB104
 6995 17cd 8C000000 		.4byte	.LFE104-.LFB104
 6996 17d1 01       		.uleb128 0x1
 6997 17d2 9C       		.byte	0x9c
 6998 17d3 5C180000 		.4byte	0x185c
 6999 17d7 0A       		.uleb128 0xa
 7000 17d8 787900   		.ascii	"xy\000"
 7001 17db 01       		.byte	0x1
 7002 17dc 8403     		.2byte	0x384
 7003 17de 5C180000 		.4byte	0x185c
 7004 17e2 75090000 		.4byte	.LLST53
 7005 17e6 0A       		.uleb128 0xa
 7006 17e7 64697200 		.ascii	"dir\000"
 7007 17eb 01       		.byte	0x1
 7008 17ec 8403     		.2byte	0x384
 7009 17ee 90000000 		.4byte	0x90
 7010 17f2 9E090000 		.4byte	.LLST54
 7011 17f6 11       		.uleb128 0x11
 7012 17f7 64696700 		.ascii	"dig\000"
 7013 17fb 01       		.byte	0x1
 7014 17fc 8403     		.2byte	0x384
 7015 17fe 02010000 		.4byte	0x102
 7016 1802 02       		.uleb128 0x2
 7017 1803 91       		.byte	0x91
 7018 1804 78       		.sleb128 -8
 7019 1805 12       		.uleb128 0x12
 7020 1806 6100     		.ascii	"a\000"
 7021 1808 01       		.byte	0x1
 7022 1809 8D03     		.2byte	0x38d
 7023 180b 90000000 		.4byte	0x90
 7024 180f CA090000 		.4byte	.LLST55
 7025 1813 23       		.uleb128 0x23
 7026 1814 0E000000 		.4byte	.LBB7
 7027 1818 44000000 		.4byte	.LBE7-.LBB7
 7028 181c 12       		.uleb128 0x12
 7029 181d 6900     		.ascii	"i\000"
 7030 181f 01       		.byte	0x1
 7031 1820 8503     		.2byte	0x385
ARM GAS  C:\Users\samue\AppData\Local\Temp\ccm0rw4c.s 			page 154


 7032 1822 90000000 		.4byte	0x90
 7033 1826 E8090000 		.4byte	.LLST56
 7034 182a 0D       		.uleb128 0xd
 7035 182b 18000000 		.4byte	.LVL407
 7036 182f C5130000 		.4byte	0x13c5
 7037 1833 3D180000 		.4byte	0x183d
 7038 1837 0E       		.uleb128 0xe
 7039 1838 01       		.uleb128 0x1
 7040 1839 50       		.byte	0x50
 7041 183a 01       		.uleb128 0x1
 7042 183b 30       		.byte	0x30
 7043 183c 00       		.byte	0
 7044 183d 0D       		.uleb128 0xd
 7045 183e 1E000000 		.4byte	.LVL408
 7046 1842 241F0000 		.4byte	0x1f24
 7047 1846 51180000 		.4byte	0x1851
 7048 184a 0E       		.uleb128 0xe
 7049 184b 01       		.uleb128 0x1
 7050 184c 50       		.byte	0x50
 7051 184d 02       		.uleb128 0x2
 7052 184e 91       		.byte	0x91
 7053 184f 68       		.sleb128 -24
 7054 1850 00       		.byte	0
 7055 1851 0C       		.uleb128 0xc
 7056 1852 22000000 		.4byte	.LVL409
 7057 1856 AB1E0000 		.4byte	0x1eab
 7058 185a 00       		.byte	0
 7059 185b 00       		.byte	0
 7060 185c 05       		.uleb128 0x5
 7061 185d 04       		.byte	0x4
 7062 185e 90000000 		.4byte	0x90
 7063 1862 13       		.uleb128 0x13
 7064 1863 A8050000 		.4byte	.LASF99
 7065 1867 01       		.byte	0x1
 7066 1868 4705     		.2byte	0x547
 7067 186a 00000000 		.4byte	.LFB124
 7068 186e 2E000000 		.4byte	.LFE124-.LFB124
 7069 1872 01       		.uleb128 0x1
 7070 1873 9C       		.byte	0x9c
 7071 1874 FC180000 		.4byte	0x18fc
 7072 1878 14       		.uleb128 0x14
 7073 1879 60030000 		.4byte	.LASF91
 7074 187d 01       		.byte	0x1
 7075 187e 4705     		.2byte	0x547
 7076 1880 90000000 		.4byte	0x90
 7077 1884 070A0000 		.4byte	.LLST57
 7078 1888 0A       		.uleb128 0xa
 7079 1889 64697200 		.ascii	"dir\000"
 7080 188d 01       		.byte	0x1
 7081 188e 4705     		.2byte	0x547
 7082 1890 90000000 		.4byte	0x90
 7083 1894 330A0000 		.4byte	.LLST58
 7084 1898 0D       		.uleb128 0xd
 7085 1899 0C000000 		.4byte	.LVL418
 7086 189d B61E0000 		.4byte	0x1eb6
 7087 18a1 AC180000 		.4byte	0x18ac
 7088 18a5 0E       		.uleb128 0xe
ARM GAS  C:\Users\samue\AppData\Local\Temp\ccm0rw4c.s 			page 155


 7089 18a6 01       		.uleb128 0x1
 7090 18a7 50       		.byte	0x50
 7091 18a8 02       		.uleb128 0x2
 7092 18a9 75       		.byte	0x75
 7093 18aa 00       		.sleb128 0
 7094 18ab 00       		.byte	0
 7095 18ac 0D       		.uleb128 0xd
 7096 18ad 16000000 		.4byte	.LVL419
 7097 18b1 C11E0000 		.4byte	0x1ec1
 7098 18b5 C2180000 		.4byte	0x18c2
 7099 18b9 0E       		.uleb128 0xe
 7100 18ba 01       		.uleb128 0x1
 7101 18bb 50       		.byte	0x50
 7102 18bc 04       		.uleb128 0x4
 7103 18bd 75       		.byte	0x75
 7104 18be 00       		.sleb128 0
 7105 18bf 30       		.byte	0x30
 7106 18c0 29       		.byte	0x29
 7107 18c1 00       		.byte	0
 7108 18c2 0D       		.uleb128 0xd
 7109 18c3 1E000000 		.4byte	.LVL421
 7110 18c7 CC1E0000 		.4byte	0x1ecc
 7111 18cb D6180000 		.4byte	0x18d6
 7112 18cf 0E       		.uleb128 0xe
 7113 18d0 01       		.uleb128 0x1
 7114 18d1 50       		.byte	0x50
 7115 18d2 02       		.uleb128 0x2
 7116 18d3 74       		.byte	0x74
 7117 18d4 00       		.sleb128 0
 7118 18d5 00       		.byte	0
 7119 18d6 0D       		.uleb128 0xd
 7120 18d7 24000000 		.4byte	.LVL422
 7121 18db D71E0000 		.4byte	0x1ed7
 7122 18df EA180000 		.4byte	0x18ea
 7123 18e3 0E       		.uleb128 0xe
 7124 18e4 01       		.uleb128 0x1
 7125 18e5 50       		.byte	0x50
 7126 18e6 02       		.uleb128 0x2
 7127 18e7 74       		.byte	0x74
 7128 18e8 00       		.sleb128 0
 7129 18e9 00       		.byte	0
 7130 18ea 0F       		.uleb128 0xf
 7131 18eb 2C000000 		.4byte	.LVL423
 7132 18ef 9F1E0000 		.4byte	0x1e9f
 7133 18f3 0E       		.uleb128 0xe
 7134 18f4 01       		.uleb128 0x1
 7135 18f5 50       		.byte	0x50
 7136 18f6 03       		.uleb128 0x3
 7137 18f7 0A       		.byte	0xa
 7138 18f8 4001     		.2byte	0x140
 7139 18fa 00       		.byte	0
 7140 18fb 00       		.byte	0
 7141 18fc 24       		.uleb128 0x24
 7142 18fd BD060000 		.4byte	.LASF100
 7143 1901 01       		.byte	0x1
 7144 1902 3501     		.2byte	0x135
 7145 1904 00000000 		.4byte	.LFB86
ARM GAS  C:\Users\samue\AppData\Local\Temp\ccm0rw4c.s 			page 156


 7146 1908 B8010000 		.4byte	.LFE86-.LFB86
 7147 190c 01       		.uleb128 0x1
 7148 190d 9C       		.byte	0x9c
 7149 190e AB1B0000 		.4byte	0x1bab
 7150 1912 1B       		.uleb128 0x1b
 7151 1913 72656600 		.ascii	"ref\000"
 7152 1917 01       		.byte	0x1
 7153 1918 3601     		.2byte	0x136
 7154 191a 02010000 		.4byte	0x102
 7155 191e 02       		.uleb128 0x2
 7156 191f 91       		.byte	0x91
 7157 1920 4C       		.sleb128 -52
 7158 1921 1B       		.uleb128 0x1b
 7159 1922 64696700 		.ascii	"dig\000"
 7160 1926 01       		.byte	0x1
 7161 1927 3601     		.2byte	0x136
 7162 1929 02010000 		.4byte	0x102
 7163 192d 02       		.uleb128 0x2
 7164 192e 91       		.byte	0x91
 7165 192f 40       		.sleb128 -64
 7166 1930 1B       		.uleb128 0x1b
 7167 1931 61636300 		.ascii	"acc\000"
 7168 1935 01       		.byte	0x1
 7169 1936 3701     		.2byte	0x137
 7170 1938 51010000 		.4byte	0x151
 7171 193c 03       		.uleb128 0x3
 7172 193d 91       		.byte	0x91
 7173 193e B87F     		.sleb128 -72
 7174 1940 0B       		.uleb128 0xb
 7175 1941 68070000 		.4byte	.LASF36
 7176 1945 01       		.byte	0x1
 7177 1946 3801     		.2byte	0x138
 7178 1948 F7000000 		.4byte	0xf7
 7179 194c 510A0000 		.4byte	.LLST59
 7180 1950 0B       		.uleb128 0xb
 7181 1951 78030000 		.4byte	.LASF101
 7182 1955 01       		.byte	0x1
 7183 1956 3901     		.2byte	0x139
 7184 1958 F7000000 		.4byte	0xf7
 7185 195c 8A0A0000 		.4byte	.LLST60
 7186 1960 0B       		.uleb128 0xb
 7187 1961 23030000 		.4byte	.LASF102
 7188 1965 01       		.byte	0x1
 7189 1966 3A01     		.2byte	0x13a
 7190 1968 F7000000 		.4byte	0xf7
 7191 196c A90A0000 		.4byte	.LLST61
 7192 1970 0B       		.uleb128 0xb
 7193 1971 30030000 		.4byte	.LASF103
 7194 1975 01       		.byte	0x1
 7195 1976 3B01     		.2byte	0x13b
 7196 1978 F7000000 		.4byte	0xf7
 7197 197c D40A0000 		.4byte	.LLST62
 7198 1980 0B       		.uleb128 0xb
 7199 1981 7C020000 		.4byte	.LASF104
 7200 1985 01       		.byte	0x1
 7201 1986 3C01     		.2byte	0x13c
 7202 1988 C5090000 		.4byte	0x9c5
ARM GAS  C:\Users\samue\AppData\Local\Temp\ccm0rw4c.s 			page 157


 7203 198c 0C0B0000 		.4byte	.LLST63
 7204 1990 0B       		.uleb128 0xb
 7205 1991 54020000 		.4byte	.LASF105
 7206 1995 01       		.byte	0x1
 7207 1996 3D01     		.2byte	0x13d
 7208 1998 C5090000 		.4byte	0x9c5
 7209 199c 9E0B0000 		.4byte	.LLST64
 7210 19a0 0B       		.uleb128 0xb
 7211 19a1 35020000 		.4byte	.LASF106
 7212 19a5 01       		.byte	0x1
 7213 19a6 3E01     		.2byte	0x13e
 7214 19a8 C5090000 		.4byte	0x9c5
 7215 19ac 020C0000 		.4byte	.LLST65
 7216 19b0 0B       		.uleb128 0xb
 7217 19b1 E0000000 		.4byte	.LASF107
 7218 19b5 01       		.byte	0x1
 7219 19b6 3F01     		.2byte	0x13f
 7220 19b8 C5090000 		.4byte	0x9c5
 7221 19bc 660C0000 		.4byte	.LLST66
 7222 19c0 12       		.uleb128 0x12
 7223 19c1 68697400 		.ascii	"hit\000"
 7224 19c5 01       		.byte	0x1
 7225 19c6 4001     		.2byte	0x140
 7226 19c8 90000000 		.4byte	0x90
 7227 19cc CA0C0000 		.4byte	.LLST67
 7228 19d0 16       		.uleb128 0x16
 7229 19d1 0A060000 		.4byte	.LASF108
 7230 19d5 01       		.byte	0x1
 7231 19d6 4101     		.2byte	0x141
 7232 19d8 90000000 		.4byte	0x90
 7233 19dc C8       		.byte	0xc8
 7234 19dd 16       		.uleb128 0x16
 7235 19de DF010000 		.4byte	.LASF109
 7236 19e2 01       		.byte	0x1
 7237 19e3 4201     		.2byte	0x142
 7238 19e5 90000000 		.4byte	0x90
 7239 19e9 FF       		.byte	0xff
 7240 19ea 0D       		.uleb128 0xd
 7241 19eb 24000000 		.4byte	.LVL425
 7242 19ef E4050000 		.4byte	0x5e4
 7243 19f3 FE190000 		.4byte	0x19fe
 7244 19f7 0E       		.uleb128 0xe
 7245 19f8 01       		.uleb128 0x1
 7246 19f9 50       		.byte	0x50
 7247 19fa 02       		.uleb128 0x2
 7248 19fb 75       		.byte	0x75
 7249 19fc 00       		.sleb128 0
 7250 19fd 00       		.byte	0
 7251 19fe 0D       		.uleb128 0xd
 7252 19ff 2E000000 		.4byte	.LVL426
 7253 1a03 740A0000 		.4byte	0xa74
 7254 1a07 121A0000 		.4byte	0x1a12
 7255 1a0b 0E       		.uleb128 0xe
 7256 1a0c 01       		.uleb128 0x1
 7257 1a0d 50       		.byte	0x50
 7258 1a0e 02       		.uleb128 0x2
 7259 1a0f 75       		.byte	0x75
ARM GAS  C:\Users\samue\AppData\Local\Temp\ccm0rw4c.s 			page 158


 7260 1a10 00       		.sleb128 0
 7261 1a11 00       		.byte	0
 7262 1a12 0C       		.uleb128 0xc
 7263 1a13 36000000 		.4byte	.LVL427
 7264 1a17 CC090000 		.4byte	0x9cc
 7265 1a1b 0C       		.uleb128 0xc
 7266 1a1c 52000000 		.4byte	.LVL430
 7267 1a20 8A030000 		.4byte	0x38a
 7268 1a24 0C       		.uleb128 0xc
 7269 1a25 68000000 		.4byte	.LVL434
 7270 1a29 F91D0000 		.4byte	0x1df9
 7271 1a2d 0D       		.uleb128 0xd
 7272 1a2e 7E000000 		.4byte	.LVL436
 7273 1a32 1B1E0000 		.4byte	0x1e1b
 7274 1a36 481A0000 		.4byte	0x1a48
 7275 1a3a 0E       		.uleb128 0xe
 7276 1a3b 01       		.uleb128 0x1
 7277 1a3c 50       		.byte	0x50
 7278 1a3d 02       		.uleb128 0x2
 7279 1a3e 09       		.byte	0x9
 7280 1a3f C8       		.byte	0xc8
 7281 1a40 0E       		.uleb128 0xe
 7282 1a41 01       		.uleb128 0x1
 7283 1a42 51       		.byte	0x51
 7284 1a43 03       		.uleb128 0x3
 7285 1a44 91       		.byte	0x91
 7286 1a45 40       		.sleb128 -64
 7287 1a46 06       		.byte	0x6
 7288 1a47 00       		.byte	0
 7289 1a48 0D       		.uleb128 0xd
 7290 1a49 8C000000 		.4byte	.LVL438
 7291 1a4d 82010000 		.4byte	0x182
 7292 1a51 5C1A0000 		.4byte	0x1a5c
 7293 1a55 0E       		.uleb128 0xe
 7294 1a56 01       		.uleb128 0x1
 7295 1a57 50       		.byte	0x50
 7296 1a58 02       		.uleb128 0x2
 7297 1a59 7A       		.byte	0x7a
 7298 1a5a 00       		.sleb128 0
 7299 1a5b 00       		.byte	0
 7300 1a5c 0D       		.uleb128 0xd
 7301 1a5d 94000000 		.4byte	.LVL440
 7302 1a61 FC030000 		.4byte	0x3fc
 7303 1a65 701A0000 		.4byte	0x1a70
 7304 1a69 0E       		.uleb128 0xe
 7305 1a6a 01       		.uleb128 0x1
 7306 1a6b 50       		.byte	0x50
 7307 1a6c 02       		.uleb128 0x2
 7308 1a6d 7A       		.byte	0x7a
 7309 1a6e 00       		.sleb128 0
 7310 1a6f 00       		.byte	0
 7311 1a70 0C       		.uleb128 0xc
 7312 1a71 98000000 		.4byte	.LVL441
 7313 1a75 F91D0000 		.4byte	0x1df9
 7314 1a79 0C       		.uleb128 0xc
 7315 1a7a 9E000000 		.4byte	.LVL443
 7316 1a7e F91D0000 		.4byte	0x1df9
ARM GAS  C:\Users\samue\AppData\Local\Temp\ccm0rw4c.s 			page 159


 7317 1a82 0C       		.uleb128 0xc
 7318 1a83 A6000000 		.4byte	.LVL445
 7319 1a87 AB1E0000 		.4byte	0x1eab
 7320 1a8b 0D       		.uleb128 0xd
 7321 1a8c B2000000 		.4byte	.LVL447
 7322 1a90 1B1E0000 		.4byte	0x1e1b
 7323 1a94 A61A0000 		.4byte	0x1aa6
 7324 1a98 0E       		.uleb128 0xe
 7325 1a99 01       		.uleb128 0x1
 7326 1a9a 50       		.byte	0x50
 7327 1a9b 02       		.uleb128 0x2
 7328 1a9c 09       		.byte	0x9
 7329 1a9d FF       		.byte	0xff
 7330 1a9e 0E       		.uleb128 0xe
 7331 1a9f 01       		.uleb128 0x1
 7332 1aa0 51       		.byte	0x51
 7333 1aa1 03       		.uleb128 0x3
 7334 1aa2 91       		.byte	0x91
 7335 1aa3 40       		.sleb128 -64
 7336 1aa4 06       		.byte	0x6
 7337 1aa5 00       		.byte	0
 7338 1aa6 0D       		.uleb128 0xd
 7339 1aa7 C6000000 		.4byte	.LVL450
 7340 1aab 1B1E0000 		.4byte	0x1e1b
 7341 1aaf C11A0000 		.4byte	0x1ac1
 7342 1ab3 0E       		.uleb128 0xe
 7343 1ab4 01       		.uleb128 0x1
 7344 1ab5 50       		.byte	0x50
 7345 1ab6 02       		.uleb128 0x2
 7346 1ab7 09       		.byte	0x9
 7347 1ab8 C8       		.byte	0xc8
 7348 1ab9 0E       		.uleb128 0xe
 7349 1aba 01       		.uleb128 0x1
 7350 1abb 51       		.byte	0x51
 7351 1abc 03       		.uleb128 0x3
 7352 1abd 91       		.byte	0x91
 7353 1abe 40       		.sleb128 -64
 7354 1abf 06       		.byte	0x6
 7355 1ac0 00       		.byte	0
 7356 1ac1 0D       		.uleb128 0xd
 7357 1ac2 DA000000 		.4byte	.LVL452
 7358 1ac6 9F1E0000 		.4byte	0x1e9f
 7359 1aca D41A0000 		.4byte	0x1ad4
 7360 1ace 0E       		.uleb128 0xe
 7361 1acf 01       		.uleb128 0x1
 7362 1ad0 50       		.byte	0x50
 7363 1ad1 01       		.uleb128 0x1
 7364 1ad2 44       		.byte	0x44
 7365 1ad3 00       		.byte	0
 7366 1ad4 0C       		.uleb128 0xc
 7367 1ad5 DE000000 		.4byte	.LVL453
 7368 1ad9 AB1E0000 		.4byte	0x1eab
 7369 1add 0C       		.uleb128 0xc
 7370 1ade EC000000 		.4byte	.LVL454
 7371 1ae2 D00E0000 		.4byte	0xed0
 7372 1ae6 0D       		.uleb128 0xd
 7373 1ae7 F8000000 		.4byte	.LVL456
ARM GAS  C:\Users\samue\AppData\Local\Temp\ccm0rw4c.s 			page 160


 7374 1aeb 1B1E0000 		.4byte	0x1e1b
 7375 1aef 011B0000 		.4byte	0x1b01
 7376 1af3 0E       		.uleb128 0xe
 7377 1af4 01       		.uleb128 0x1
 7378 1af5 50       		.byte	0x50
 7379 1af6 02       		.uleb128 0x2
 7380 1af7 09       		.byte	0x9
 7381 1af8 C8       		.byte	0xc8
 7382 1af9 0E       		.uleb128 0xe
 7383 1afa 01       		.uleb128 0x1
 7384 1afb 51       		.byte	0x51
 7385 1afc 03       		.uleb128 0x3
 7386 1afd 91       		.byte	0x91
 7387 1afe 40       		.sleb128 -64
 7388 1aff 06       		.byte	0x6
 7389 1b00 00       		.byte	0
 7390 1b01 0C       		.uleb128 0xc
 7391 1b02 06010000 		.4byte	.LVL458
 7392 1b06 D00E0000 		.4byte	0xed0
 7393 1b0a 0C       		.uleb128 0xc
 7394 1b0b 14010000 		.4byte	.LVL459
 7395 1b0f D9080000 		.4byte	0x8d9
 7396 1b13 0C       		.uleb128 0xc
 7397 1b14 26010000 		.4byte	.LVL461
 7398 1b18 D00E0000 		.4byte	0xed0
 7399 1b1c 0C       		.uleb128 0xc
 7400 1b1d 34010000 		.4byte	.LVL462
 7401 1b21 D00E0000 		.4byte	0xed0
 7402 1b25 0C       		.uleb128 0xc
 7403 1b26 3C010000 		.4byte	.LVL464
 7404 1b2a F91D0000 		.4byte	0x1df9
 7405 1b2e 0D       		.uleb128 0xd
 7406 1b2f 48010000 		.4byte	.LVL466
 7407 1b33 051E0000 		.4byte	0x1e05
 7408 1b37 491B0000 		.4byte	0x1b49
 7409 1b3b 0E       		.uleb128 0xe
 7410 1b3c 01       		.uleb128 0x1
 7411 1b3d 50       		.byte	0x50
 7412 1b3e 02       		.uleb128 0x2
 7413 1b3f 09       		.byte	0x9
 7414 1b40 C8       		.byte	0xc8
 7415 1b41 0E       		.uleb128 0xe
 7416 1b42 01       		.uleb128 0x1
 7417 1b43 51       		.byte	0x51
 7418 1b44 03       		.uleb128 0x3
 7419 1b45 91       		.byte	0x91
 7420 1b46 40       		.sleb128 -64
 7421 1b47 06       		.byte	0x6
 7422 1b48 00       		.byte	0
 7423 1b49 0C       		.uleb128 0xc
 7424 1b4a 54010000 		.4byte	.LVL468
 7425 1b4e F91D0000 		.4byte	0x1df9
 7426 1b52 0D       		.uleb128 0xd
 7427 1b53 60010000 		.4byte	.LVL470
 7428 1b57 62180000 		.4byte	0x1862
 7429 1b5b 6B1B0000 		.4byte	0x1b6b
 7430 1b5f 0E       		.uleb128 0xe
ARM GAS  C:\Users\samue\AppData\Local\Temp\ccm0rw4c.s 			page 161


 7431 1b60 01       		.uleb128 0x1
 7432 1b61 50       		.byte	0x50
 7433 1b62 02       		.uleb128 0x2
 7434 1b63 08       		.byte	0x8
 7435 1b64 96       		.byte	0x96
 7436 1b65 0E       		.uleb128 0xe
 7437 1b66 01       		.uleb128 0x1
 7438 1b67 51       		.byte	0x51
 7439 1b68 01       		.uleb128 0x1
 7440 1b69 31       		.byte	0x31
 7441 1b6a 00       		.byte	0
 7442 1b6b 0C       		.uleb128 0xc
 7443 1b6c 7A010000 		.4byte	.LVL472
 7444 1b70 AB1E0000 		.4byte	0x1eab
 7445 1b74 0D       		.uleb128 0xd
 7446 1b75 86010000 		.4byte	.LVL474
 7447 1b79 1B1E0000 		.4byte	0x1e1b
 7448 1b7d 8F1B0000 		.4byte	0x1b8f
 7449 1b81 0E       		.uleb128 0xe
 7450 1b82 01       		.uleb128 0x1
 7451 1b83 50       		.byte	0x50
 7452 1b84 02       		.uleb128 0x2
 7453 1b85 09       		.byte	0x9
 7454 1b86 FF       		.byte	0xff
 7455 1b87 0E       		.uleb128 0xe
 7456 1b88 01       		.uleb128 0x1
 7457 1b89 51       		.byte	0x51
 7458 1b8a 03       		.uleb128 0x3
 7459 1b8b 91       		.byte	0x91
 7460 1b8c 40       		.sleb128 -64
 7461 1b8d 06       		.byte	0x6
 7462 1b8e 00       		.byte	0
 7463 1b8f 0C       		.uleb128 0xc
 7464 1b90 90010000 		.4byte	.LVL476
 7465 1b94 2F1F0000 		.4byte	0x1f2f
 7466 1b98 0F       		.uleb128 0xf
 7467 1b99 9C010000 		.4byte	.LVL477
 7468 1b9d 4E040000 		.4byte	0x44e
 7469 1ba1 0E       		.uleb128 0xe
 7470 1ba2 01       		.uleb128 0x1
 7471 1ba3 50       		.byte	0x50
 7472 1ba4 04       		.uleb128 0x4
 7473 1ba5 91       		.byte	0x91
 7474 1ba6 B47F     		.sleb128 -76
 7475 1ba8 06       		.byte	0x6
 7476 1ba9 00       		.byte	0
 7477 1baa 00       		.byte	0
 7478 1bab 25       		.uleb128 0x25
 7479 1bac 34070000 		.4byte	.LASF110
 7480 1bb0 01       		.byte	0x1
 7481 1bb1 94       		.byte	0x94
 7482 1bb2 00000000 		.4byte	.LFB85
 7483 1bb6 0E000000 		.4byte	.LFE85-.LFB85
 7484 1bba 01       		.uleb128 0x1
 7485 1bbb 9C       		.byte	0x9c
 7486 1bbc DA1B0000 		.4byte	0x1bda
 7487 1bc0 0C       		.uleb128 0xc
ARM GAS  C:\Users\samue\AppData\Local\Temp\ccm0rw4c.s 			page 162


 7488 1bc1 06000000 		.4byte	.LVL479
 7489 1bc5 FC180000 		.4byte	0x18fc
 7490 1bc9 0F       		.uleb128 0xf
 7491 1bca 0C000000 		.4byte	.LVL480
 7492 1bce 9F1E0000 		.4byte	0x1e9f
 7493 1bd2 0E       		.uleb128 0xe
 7494 1bd3 01       		.uleb128 0x1
 7495 1bd4 50       		.byte	0x50
 7496 1bd5 02       		.uleb128 0x2
 7497 1bd6 08       		.byte	0x8
 7498 1bd7 C8       		.byte	0xc8
 7499 1bd8 00       		.byte	0
 7500 1bd9 00       		.byte	0
 7501 1bda 20       		.uleb128 0x20
 7502 1bdb BF040000 		.4byte	.LASF111
 7503 1bdf 01       		.byte	0x1
 7504 1be0 8C01     		.2byte	0x18c
 7505 1be2 00000000 		.4byte	.LFB88
 7506 1be6 78000000 		.4byte	.LFE88-.LFB88
 7507 1bea 01       		.uleb128 0x1
 7508 1beb 9C       		.byte	0x9c
 7509 1bec C91C0000 		.4byte	0x1cc9
 7510 1bf0 1B       		.uleb128 0x1b
 7511 1bf1 72656600 		.ascii	"ref\000"
 7512 1bf5 01       		.byte	0x1
 7513 1bf6 8D01     		.2byte	0x18d
 7514 1bf8 02010000 		.4byte	0x102
 7515 1bfc 02       		.uleb128 0x2
 7516 1bfd 91       		.byte	0x91
 7517 1bfe 6C       		.sleb128 -20
 7518 1bff 1B       		.uleb128 0x1b
 7519 1c00 64696700 		.ascii	"dig\000"
 7520 1c04 01       		.byte	0x1
 7521 1c05 8D01     		.2byte	0x18d
 7522 1c07 02010000 		.4byte	0x102
 7523 1c0b 02       		.uleb128 0x2
 7524 1c0c 91       		.byte	0x91
 7525 1c0d 60       		.sleb128 -32
 7526 1c0e 0D       		.uleb128 0xd
 7527 1c0f 0A000000 		.4byte	.LVL481
 7528 1c13 E4050000 		.4byte	0x5e4
 7529 1c17 251C0000 		.4byte	0x1c25
 7530 1c1b 0E       		.uleb128 0xe
 7531 1c1c 01       		.uleb128 0x1
 7532 1c1d 50       		.byte	0x50
 7533 1c1e 05       		.uleb128 0x5
 7534 1c1f 03       		.byte	0x3
 7535 1c20 EC000000 		.4byte	.LC20
 7536 1c24 00       		.byte	0
 7537 1c25 0C       		.uleb128 0xc
 7538 1c26 0E000000 		.4byte	.LVL482
 7539 1c2a 941E0000 		.4byte	0x1e94
 7540 1c2e 0D       		.uleb128 0xd
 7541 1c2f 16000000 		.4byte	.LVL483
 7542 1c33 1B1E0000 		.4byte	0x1e1b
 7543 1c37 471C0000 		.4byte	0x1c47
 7544 1c3b 0E       		.uleb128 0xe
ARM GAS  C:\Users\samue\AppData\Local\Temp\ccm0rw4c.s 			page 163


 7545 1c3c 01       		.uleb128 0x1
 7546 1c3d 50       		.byte	0x50
 7547 1c3e 02       		.uleb128 0x2
 7548 1c3f 09       		.byte	0x9
 7549 1c40 96       		.byte	0x96
 7550 1c41 0E       		.uleb128 0xe
 7551 1c42 01       		.uleb128 0x1
 7552 1c43 51       		.byte	0x51
 7553 1c44 01       		.uleb128 0x1
 7554 1c45 30       		.byte	0x30
 7555 1c46 00       		.byte	0
 7556 1c47 0C       		.uleb128 0xc
 7557 1c48 1E000000 		.4byte	.LVL484
 7558 1c4c D00E0000 		.4byte	0xed0
 7559 1c50 0C       		.uleb128 0xc
 7560 1c51 2C000000 		.4byte	.LVL485
 7561 1c55 D9080000 		.4byte	0x8d9
 7562 1c59 0C       		.uleb128 0xc
 7563 1c5a 3C000000 		.4byte	.LVL487
 7564 1c5e D00E0000 		.4byte	0xed0
 7565 1c62 0C       		.uleb128 0xc
 7566 1c63 48000000 		.4byte	.LVL488
 7567 1c67 D00E0000 		.4byte	0xed0
 7568 1c6b 0D       		.uleb128 0xd
 7569 1c6c 56000000 		.4byte	.LVL489
 7570 1c70 051E0000 		.4byte	0x1e05
 7571 1c74 861C0000 		.4byte	0x1c86
 7572 1c78 0E       		.uleb128 0xe
 7573 1c79 01       		.uleb128 0x1
 7574 1c7a 50       		.byte	0x50
 7575 1c7b 02       		.uleb128 0x2
 7576 1c7c 09       		.byte	0x9
 7577 1c7d 96       		.byte	0x96
 7578 1c7e 0E       		.uleb128 0xe
 7579 1c7f 01       		.uleb128 0x1
 7580 1c80 51       		.byte	0x51
 7581 1c81 03       		.uleb128 0x3
 7582 1c82 0A       		.byte	0xa
 7583 1c83 E803     		.2byte	0x3e8
 7584 1c85 00       		.byte	0
 7585 1c86 0D       		.uleb128 0xd
 7586 1c87 5E000000 		.4byte	.LVL490
 7587 1c8b 62180000 		.4byte	0x1862
 7588 1c8f 9F1C0000 		.4byte	0x1c9f
 7589 1c93 0E       		.uleb128 0xe
 7590 1c94 01       		.uleb128 0x1
 7591 1c95 50       		.byte	0x50
 7592 1c96 02       		.uleb128 0x2
 7593 1c97 08       		.byte	0x8
 7594 1c98 C8       		.byte	0xc8
 7595 1c99 0E       		.uleb128 0xe
 7596 1c9a 01       		.uleb128 0x1
 7597 1c9b 51       		.byte	0x51
 7598 1c9c 01       		.uleb128 0x1
 7599 1c9d 30       		.byte	0x30
 7600 1c9e 00       		.byte	0
 7601 1c9f 0D       		.uleb128 0xd
ARM GAS  C:\Users\samue\AppData\Local\Temp\ccm0rw4c.s 			page 164


 7602 1ca0 64000000 		.4byte	.LVL491
 7603 1ca4 9F1E0000 		.4byte	0x1e9f
 7604 1ca8 B31C0000 		.4byte	0x1cb3
 7605 1cac 0E       		.uleb128 0xe
 7606 1cad 01       		.uleb128 0x1
 7607 1cae 50       		.byte	0x50
 7608 1caf 02       		.uleb128 0x2
 7609 1cb0 08       		.byte	0x8
 7610 1cb1 C8       		.byte	0xc8
 7611 1cb2 00       		.byte	0
 7612 1cb3 0F       		.uleb128 0xf
 7613 1cb4 6C000000 		.4byte	.LVL492
 7614 1cb8 1B1E0000 		.4byte	0x1e1b
 7615 1cbc 0E       		.uleb128 0xe
 7616 1cbd 01       		.uleb128 0x1
 7617 1cbe 50       		.byte	0x50
 7618 1cbf 02       		.uleb128 0x2
 7619 1cc0 09       		.byte	0x9
 7620 1cc1 96       		.byte	0x96
 7621 1cc2 0E       		.uleb128 0xe
 7622 1cc3 01       		.uleb128 0x1
 7623 1cc4 51       		.byte	0x51
 7624 1cc5 01       		.uleb128 0x1
 7625 1cc6 30       		.byte	0x30
 7626 1cc7 00       		.byte	0
 7627 1cc8 00       		.byte	0
 7628 1cc9 09       		.uleb128 0x9
 7629 1cca 08040000 		.4byte	.LASF112
 7630 1cce 01       		.byte	0x1
 7631 1ccf 5105     		.2byte	0x551
 7632 1cd1 90000000 		.4byte	0x90
 7633 1cd5 00000000 		.4byte	.LFB125
 7634 1cd9 3C000000 		.4byte	.LFE125-.LFB125
 7635 1cdd 01       		.uleb128 0x1
 7636 1cde 9C       		.byte	0x9c
 7637 1cdf F21C0000 		.4byte	0x1cf2
 7638 1ce3 0A       		.uleb128 0xa
 7639 1ce4 6100     		.ascii	"a\000"
 7640 1ce6 01       		.byte	0x1
 7641 1ce7 5105     		.2byte	0x551
 7642 1ce9 5C180000 		.4byte	0x185c
 7643 1ced F60C0000 		.4byte	.LLST68
 7644 1cf1 00       		.byte	0
 7645 1cf2 15       		.uleb128 0x15
 7646 1cf3 51070000 		.4byte	.LASF113
 7647 1cf7 01       		.byte	0x1
 7648 1cf8 5505     		.2byte	0x555
 7649 1cfa 00000000 		.4byte	.LFB126
 7650 1cfe 50000000 		.4byte	.LFE126-.LFB126
 7651 1d02 01       		.uleb128 0x1
 7652 1d03 9C       		.byte	0x9c
 7653 1d04 B41D0000 		.4byte	0x1db4
 7654 1d08 1D       		.uleb128 0x1d
 7655 1d09 F0040000 		.4byte	.LASF114
 7656 1d0d 01       		.byte	0x1
 7657 1d0e 5705     		.2byte	0x557
 7658 1d10 BF000000 		.4byte	0xbf
ARM GAS  C:\Users\samue\AppData\Local\Temp\ccm0rw4c.s 			page 165


 7659 1d14 02       		.uleb128 0x2
 7660 1d15 91       		.byte	0x91
 7661 1d16 74       		.sleb128 -12
 7662 1d17 1C       		.uleb128 0x1c
 7663 1d18 2A000000 		.4byte	.LBB8
 7664 1d1c 26000000 		.4byte	.LBE8-.LBB8
 7665 1d20 541D0000 		.4byte	0x1d54
 7666 1d24 12       		.uleb128 0x12
 7667 1d25 6C00     		.ascii	"l\000"
 7668 1d27 01       		.byte	0x1
 7669 1d28 6105     		.2byte	0x561
 7670 1d2a 90000000 		.4byte	0x90
 7671 1d2e 170D0000 		.4byte	.LLST69
 7672 1d32 12       		.uleb128 0x12
 7673 1d33 6200     		.ascii	"b\000"
 7674 1d35 01       		.byte	0x1
 7675 1d36 6205     		.2byte	0x562
 7676 1d38 90000000 		.4byte	0x90
 7677 1d3c 2A0D0000 		.4byte	.LLST70
 7678 1d40 0F       		.uleb128 0xf
 7679 1d41 40000000 		.4byte	.LVL503
 7680 1d45 731F0000 		.4byte	0x1f73
 7681 1d49 0E       		.uleb128 0xe
 7682 1d4a 01       		.uleb128 0x1
 7683 1d4b 50       		.byte	0x50
 7684 1d4c 05       		.uleb128 0x5
 7685 1d4d 03       		.byte	0x3
 7686 1d4e 30010000 		.4byte	.LC25
 7687 1d52 00       		.byte	0
 7688 1d53 00       		.byte	0
 7689 1d54 0C       		.uleb128 0xc
 7690 1d55 08000000 		.4byte	.LVL495
 7691 1d59 7E1E0000 		.4byte	0x1e7e
 7692 1d5d 0D       		.uleb128 0xd
 7693 1d5e 0E000000 		.4byte	.LVL496
 7694 1d62 641F0000 		.4byte	0x1f64
 7695 1d66 741D0000 		.4byte	0x1d74
 7696 1d6a 0E       		.uleb128 0xe
 7697 1d6b 01       		.uleb128 0x1
 7698 1d6c 50       		.byte	0x50
 7699 1d6d 05       		.uleb128 0x5
 7700 1d6e 03       		.byte	0x3
 7701 1d6f 14010000 		.4byte	.LC23
 7702 1d73 00       		.byte	0
 7703 1d74 0C       		.uleb128 0xc
 7704 1d75 12000000 		.4byte	.LVL497
 7705 1d79 891E0000 		.4byte	0x1e89
 7706 1d7d 0D       		.uleb128 0xd
 7707 1d7e 18000000 		.4byte	.LVL498
 7708 1d82 641F0000 		.4byte	0x1f64
 7709 1d86 941D0000 		.4byte	0x1d94
 7710 1d8a 0E       		.uleb128 0xe
 7711 1d8b 01       		.uleb128 0x1
 7712 1d8c 50       		.byte	0x50
 7713 1d8d 05       		.uleb128 0x5
 7714 1d8e 03       		.byte	0x3
 7715 1d8f 20010000 		.4byte	.LC24
ARM GAS  C:\Users\samue\AppData\Local\Temp\ccm0rw4c.s 			page 166


 7716 1d93 00       		.byte	0
 7717 1d94 0C       		.uleb128 0xc
 7718 1d95 1C000000 		.4byte	.LVL499
 7719 1d99 891E0000 		.4byte	0x1e89
 7720 1d9d 0F       		.uleb128 0xf
 7721 1d9e 26000000 		.4byte	.LVL500
 7722 1da2 AE1F0000 		.4byte	0x1fae
 7723 1da6 0E       		.uleb128 0xe
 7724 1da7 01       		.uleb128 0x1
 7725 1da8 50       		.byte	0x50
 7726 1da9 02       		.uleb128 0x2
 7727 1daa 91       		.byte	0x91
 7728 1dab 74       		.sleb128 -12
 7729 1dac 0E       		.uleb128 0xe
 7730 1dad 01       		.uleb128 0x1
 7731 1dae 51       		.byte	0x51
 7732 1daf 02       		.uleb128 0x2
 7733 1db0 09       		.byte	0x9
 7734 1db1 FF       		.byte	0xff
 7735 1db2 00       		.byte	0
 7736 1db3 00       		.byte	0
 7737 1db4 09       		.uleb128 0x9
 7738 1db5 A9040000 		.4byte	.LASF115
 7739 1db9 01       		.byte	0x1
 7740 1dba 6C05     		.2byte	0x56c
 7741 1dbc 5C180000 		.4byte	0x185c
 7742 1dc0 00000000 		.4byte	.LFB127
 7743 1dc4 02000000 		.4byte	.LFE127-.LFB127
 7744 1dc8 01       		.uleb128 0x1
 7745 1dc9 9C       		.byte	0x9c
 7746 1dca E81D0000 		.4byte	0x1de8
 7747 1dce 11       		.uleb128 0x11
 7748 1dcf 6100     		.ascii	"a\000"
 7749 1dd1 01       		.byte	0x1
 7750 1dd2 6C05     		.2byte	0x56c
 7751 1dd4 5C180000 		.4byte	0x185c
 7752 1dd8 01       		.uleb128 0x1
 7753 1dd9 50       		.byte	0x50
 7754 1dda 16       		.uleb128 0x16
 7755 1ddb EF020000 		.4byte	.LASF83
 7756 1ddf 01       		.byte	0x1
 7757 1de0 6D05     		.2byte	0x56d
 7758 1de2 90000000 		.4byte	0x90
 7759 1de6 01       		.byte	0x1
 7760 1de7 00       		.byte	0
 7761 1de8 26       		.uleb128 0x26
 7762 1de9 CE000000 		.4byte	.LASF159
 7763 1ded 19       		.byte	0x19
 7764 1dee 1207     		.2byte	0x712
 7765 1df0 F41D0000 		.4byte	0x1df4
 7766 1df4 27       		.uleb128 0x27
 7767 1df5 B4000000 		.4byte	0xb4
 7768 1df9 28       		.uleb128 0x28
 7769 1dfa 3D030000 		.4byte	.LASF116
 7770 1dfe 3D030000 		.4byte	.LASF116
 7771 1e02 08       		.byte	0x8
 7772 1e03 3E05     		.2byte	0x53e
ARM GAS  C:\Users\samue\AppData\Local\Temp\ccm0rw4c.s 			page 167


 7773 1e05 29       		.uleb128 0x29
 7774 1e06 6F000000 		.4byte	.LASF117
 7775 1e0a 6F000000 		.4byte	.LASF117
 7776 1e0e 09       		.byte	0x9
 7777 1e0f 15       		.byte	0x15
 7778 1e10 29       		.uleb128 0x29
 7779 1e11 B4040000 		.4byte	.LASF118
 7780 1e15 B4040000 		.4byte	.LASF118
 7781 1e19 09       		.byte	0x9
 7782 1e1a 12       		.byte	0x12
 7783 1e1b 29       		.uleb128 0x29
 7784 1e1c 4D000000 		.4byte	.LASF119
 7785 1e20 4D000000 		.4byte	.LASF119
 7786 1e24 09       		.byte	0x9
 7787 1e25 0F       		.byte	0xf
 7788 1e26 29       		.uleb128 0x29
 7789 1e27 6B020000 		.4byte	.LASF120
 7790 1e2b 6B020000 		.4byte	.LASF120
 7791 1e2f 07       		.byte	0x7
 7792 1e30 51       		.byte	0x51
 7793 1e31 2A       		.uleb128 0x2a
 7794 1e32 706F7700 		.ascii	"pow\000"
 7795 1e36 706F7700 		.ascii	"pow\000"
 7796 1e3a 0A       		.byte	0xa
 7797 1e3b 86       		.byte	0x86
 7798 1e3c 29       		.uleb128 0x29
 7799 1e3d 13070000 		.4byte	.LASF121
 7800 1e41 13070000 		.4byte	.LASF121
 7801 1e45 0A       		.byte	0xa
 7802 1e46 87       		.byte	0x87
 7803 1e47 29       		.uleb128 0x29
 7804 1e48 5F040000 		.4byte	.LASF122
 7805 1e4c 5F040000 		.4byte	.LASF122
 7806 1e50 0A       		.byte	0xa
 7807 1e51 6D       		.byte	0x6d
 7808 1e52 29       		.uleb128 0x29
 7809 1e53 1C060000 		.4byte	.LASF123
 7810 1e57 1C060000 		.4byte	.LASF123
 7811 1e5b 0B       		.byte	0xb
 7812 1e5c 07       		.byte	0x7
 7813 1e5d 29       		.uleb128 0x29
 7814 1e5e BA030000 		.4byte	.LASF124
 7815 1e62 BA030000 		.4byte	.LASF124
 7816 1e66 09       		.byte	0x9
 7817 1e67 0C       		.byte	0xc
 7818 1e68 29       		.uleb128 0x29
 7819 1e69 66030000 		.4byte	.LASF125
 7820 1e6d 66030000 		.4byte	.LASF125
 7821 1e71 0C       		.byte	0xc
 7822 1e72 0A       		.byte	0xa
 7823 1e73 29       		.uleb128 0x29
 7824 1e74 10030000 		.4byte	.LASF126
 7825 1e78 10030000 		.4byte	.LASF126
 7826 1e7c 09       		.byte	0x9
 7827 1e7d 0B       		.byte	0xb
 7828 1e7e 29       		.uleb128 0x29
 7829 1e7f CE060000 		.4byte	.LASF127
ARM GAS  C:\Users\samue\AppData\Local\Temp\ccm0rw4c.s 			page 168


 7830 1e83 CE060000 		.4byte	.LASF127
 7831 1e87 0D       		.byte	0xd
 7832 1e88 11       		.byte	0x11
 7833 1e89 29       		.uleb128 0x29
 7834 1e8a 61010000 		.4byte	.LASF128
 7835 1e8e 61010000 		.4byte	.LASF128
 7836 1e92 0D       		.byte	0xd
 7837 1e93 18       		.byte	0x18
 7838 1e94 29       		.uleb128 0x29
 7839 1e95 33040000 		.4byte	.LASF129
 7840 1e99 33040000 		.4byte	.LASF129
 7841 1e9d 0D       		.byte	0xd
 7842 1e9e 1B       		.byte	0x1b
 7843 1e9f 28       		.uleb128 0x28
 7844 1ea0 21010000 		.4byte	.LASF130
 7845 1ea4 21010000 		.4byte	.LASF130
 7846 1ea8 08       		.byte	0x8
 7847 1ea9 ED02     		.2byte	0x2ed
 7848 1eab 29       		.uleb128 0x29
 7849 1eac D7060000 		.4byte	.LASF131
 7850 1eb0 D7060000 		.4byte	.LASF131
 7851 1eb4 0C       		.byte	0xc
 7852 1eb5 0D       		.byte	0xd
 7853 1eb6 29       		.uleb128 0x29
 7854 1eb7 FF040000 		.4byte	.LASF132
 7855 1ebb FF040000 		.4byte	.LASF132
 7856 1ebf 0E       		.byte	0xe
 7857 1ec0 26       		.byte	0x26
 7858 1ec1 29       		.uleb128 0x29
 7859 1ec2 C5020000 		.4byte	.LASF133
 7860 1ec6 C5020000 		.4byte	.LASF133
 7861 1eca 0F       		.byte	0xf
 7862 1ecb 26       		.byte	0x26
 7863 1ecc 29       		.uleb128 0x29
 7864 1ecd C4050000 		.4byte	.LASF134
 7865 1ed1 C4050000 		.4byte	.LASF134
 7866 1ed5 10       		.byte	0x10
 7867 1ed6 C7       		.byte	0xc7
 7868 1ed7 29       		.uleb128 0x29
 7869 1ed8 D6050000 		.4byte	.LASF135
 7870 1edc D6050000 		.4byte	.LASF135
 7871 1ee0 10       		.byte	0x10
 7872 1ee1 CA       		.byte	0xca
 7873 1ee2 29       		.uleb128 0x29
 7874 1ee3 30000000 		.4byte	.LASF136
 7875 1ee7 30000000 		.4byte	.LASF136
 7876 1eeb 06       		.byte	0x6
 7877 1eec 17       		.byte	0x17
 7878 1eed 29       		.uleb128 0x29
 7879 1eee 64040000 		.4byte	.LASF137
 7880 1ef2 64040000 		.4byte	.LASF137
 7881 1ef6 06       		.byte	0x6
 7882 1ef7 1A       		.byte	0x1a
 7883 1ef8 29       		.uleb128 0x29
 7884 1ef9 9D030000 		.4byte	.LASF138
 7885 1efd 9D030000 		.4byte	.LASF138
 7886 1f01 11       		.byte	0x11
ARM GAS  C:\Users\samue\AppData\Local\Temp\ccm0rw4c.s 			page 169


 7887 1f02 23       		.byte	0x23
 7888 1f03 29       		.uleb128 0x29
 7889 1f04 E8010000 		.4byte	.LASF139
 7890 1f08 E8010000 		.4byte	.LASF139
 7891 1f0c 07       		.byte	0x7
 7892 1f0d 50       		.byte	0x50
 7893 1f0e 29       		.uleb128 0x29
 7894 1f0f 59030000 		.4byte	.LASF140
 7895 1f13 59030000 		.4byte	.LASF140
 7896 1f17 11       		.byte	0x11
 7897 1f18 1A       		.byte	0x1a
 7898 1f19 29       		.uleb128 0x29
 7899 1f1a F6000000 		.4byte	.LASF141
 7900 1f1e F6000000 		.4byte	.LASF141
 7901 1f22 06       		.byte	0x6
 7902 1f23 18       		.byte	0x18
 7903 1f24 29       		.uleb128 0x29
 7904 1f25 89030000 		.4byte	.LASF142
 7905 1f29 89030000 		.4byte	.LASF142
 7906 1f2d 06       		.byte	0x6
 7907 1f2e 19       		.byte	0x19
 7908 1f2f 29       		.uleb128 0x29
 7909 1f30 C5000000 		.4byte	.LASF143
 7910 1f34 C5000000 		.4byte	.LASF143
 7911 1f38 12       		.byte	0x12
 7912 1f39 29       		.byte	0x29
 7913 1f3a 29       		.uleb128 0x29
 7914 1f3b 1D040000 		.4byte	.LASF144
 7915 1f3f 1D040000 		.4byte	.LASF144
 7916 1f43 13       		.byte	0x13
 7917 1f44 26       		.byte	0x26
 7918 1f45 29       		.uleb128 0x29
 7919 1f46 64020000 		.4byte	.LASF145
 7920 1f4a 64020000 		.4byte	.LASF145
 7921 1f4e 11       		.byte	0x11
 7922 1f4f 21       		.byte	0x21
 7923 1f50 29       		.uleb128 0x29
 7924 1f51 DB000000 		.4byte	.LASF146
 7925 1f55 DB000000 		.4byte	.LASF146
 7926 1f59 14       		.byte	0x14
 7927 1f5a 05       		.byte	0x5
 7928 1f5b 2B       		.uleb128 0x2b
 7929 1f5c 9F060000 		.4byte	.LASF160
 7930 1f60 9F060000 		.4byte	.LASF160
 7931 1f64 2C       		.uleb128 0x2c
 7932 1f65 84030000 		.4byte	.LASF148
 7933 1f69 A2010000 		.4byte	.LASF150
 7934 1f6d 16       		.byte	0x16
 7935 1f6e 00       		.byte	0
 7936 1f6f 84030000 		.4byte	.LASF148
 7937 1f73 29       		.uleb128 0x29
 7938 1f74 8A000000 		.4byte	.LASF147
 7939 1f78 8A000000 		.4byte	.LASF147
 7940 1f7c 15       		.byte	0x15
 7941 1f7d BB       		.byte	0xbb
 7942 1f7e 2C       		.uleb128 0x2c
 7943 1f7f BE010000 		.4byte	.LASF149
ARM GAS  C:\Users\samue\AppData\Local\Temp\ccm0rw4c.s 			page 170


 7944 1f83 B3020000 		.4byte	.LASF151
 7945 1f87 16       		.byte	0x16
 7946 1f88 00       		.byte	0
 7947 1f89 BE010000 		.4byte	.LASF149
 7948 1f8d 29       		.uleb128 0x29
 7949 1f8e 2E040000 		.4byte	.LASF152
 7950 1f92 2E040000 		.4byte	.LASF152
 7951 1f96 17       		.byte	0x17
 7952 1f97 37       		.byte	0x37
 7953 1f98 29       		.uleb128 0x29
 7954 1f99 9A040000 		.4byte	.LASF153
 7955 1f9d 9A040000 		.4byte	.LASF153
 7956 1fa1 18       		.byte	0x18
 7957 1fa2 96       		.byte	0x96
 7958 1fa3 29       		.uleb128 0x29
 7959 1fa4 9C020000 		.4byte	.LASF154
 7960 1fa8 9C020000 		.4byte	.LASF154
 7961 1fac 18       		.byte	0x18
 7962 1fad 88       		.byte	0x88
 7963 1fae 29       		.uleb128 0x29
 7964 1faf 18070000 		.4byte	.LASF155
 7965 1fb3 18070000 		.4byte	.LASF155
 7966 1fb7 0D       		.byte	0xd
 7967 1fb8 15       		.byte	0x15
 7968 1fb9 00       		.byte	0
 7969              		.section	.debug_abbrev,"",%progbits
 7970              	.Ldebug_abbrev0:
 7971 0000 01       		.uleb128 0x1
 7972 0001 11       		.uleb128 0x11
 7973 0002 01       		.byte	0x1
 7974 0003 25       		.uleb128 0x25
 7975 0004 0E       		.uleb128 0xe
 7976 0005 13       		.uleb128 0x13
 7977 0006 0B       		.uleb128 0xb
 7978 0007 03       		.uleb128 0x3
 7979 0008 0E       		.uleb128 0xe
 7980 0009 1B       		.uleb128 0x1b
 7981 000a 0E       		.uleb128 0xe
 7982 000b 55       		.uleb128 0x55
 7983 000c 17       		.uleb128 0x17
 7984 000d 11       		.uleb128 0x11
 7985 000e 01       		.uleb128 0x1
 7986 000f 10       		.uleb128 0x10
 7987 0010 17       		.uleb128 0x17
 7988 0011 00       		.byte	0
 7989 0012 00       		.byte	0
 7990 0013 02       		.uleb128 0x2
 7991 0014 24       		.uleb128 0x24
 7992 0015 00       		.byte	0
 7993 0016 0B       		.uleb128 0xb
 7994 0017 0B       		.uleb128 0xb
 7995 0018 3E       		.uleb128 0x3e
 7996 0019 0B       		.uleb128 0xb
 7997 001a 03       		.uleb128 0x3
 7998 001b 0E       		.uleb128 0xe
 7999 001c 00       		.byte	0
 8000 001d 00       		.byte	0
ARM GAS  C:\Users\samue\AppData\Local\Temp\ccm0rw4c.s 			page 171


 8001 001e 03       		.uleb128 0x3
 8002 001f 16       		.uleb128 0x16
 8003 0020 00       		.byte	0
 8004 0021 03       		.uleb128 0x3
 8005 0022 0E       		.uleb128 0xe
 8006 0023 3A       		.uleb128 0x3a
 8007 0024 0B       		.uleb128 0xb
 8008 0025 3B       		.uleb128 0x3b
 8009 0026 0B       		.uleb128 0xb
 8010 0027 49       		.uleb128 0x49
 8011 0028 13       		.uleb128 0x13
 8012 0029 00       		.byte	0
 8013 002a 00       		.byte	0
 8014 002b 04       		.uleb128 0x4
 8015 002c 24       		.uleb128 0x24
 8016 002d 00       		.byte	0
 8017 002e 0B       		.uleb128 0xb
 8018 002f 0B       		.uleb128 0xb
 8019 0030 3E       		.uleb128 0x3e
 8020 0031 0B       		.uleb128 0xb
 8021 0032 03       		.uleb128 0x3
 8022 0033 08       		.uleb128 0x8
 8023 0034 00       		.byte	0
 8024 0035 00       		.byte	0
 8025 0036 05       		.uleb128 0x5
 8026 0037 0F       		.uleb128 0xf
 8027 0038 00       		.byte	0
 8028 0039 0B       		.uleb128 0xb
 8029 003a 0B       		.uleb128 0xb
 8030 003b 49       		.uleb128 0x49
 8031 003c 13       		.uleb128 0x13
 8032 003d 00       		.byte	0
 8033 003e 00       		.byte	0
 8034 003f 06       		.uleb128 0x6
 8035 0040 13       		.uleb128 0x13
 8036 0041 01       		.byte	0x1
 8037 0042 03       		.uleb128 0x3
 8038 0043 0E       		.uleb128 0xe
 8039 0044 0B       		.uleb128 0xb
 8040 0045 0B       		.uleb128 0xb
 8041 0046 3A       		.uleb128 0x3a
 8042 0047 0B       		.uleb128 0xb
 8043 0048 3B       		.uleb128 0x3b
 8044 0049 0B       		.uleb128 0xb
 8045 004a 01       		.uleb128 0x1
 8046 004b 13       		.uleb128 0x13
 8047 004c 00       		.byte	0
 8048 004d 00       		.byte	0
 8049 004e 07       		.uleb128 0x7
 8050 004f 0D       		.uleb128 0xd
 8051 0050 00       		.byte	0
 8052 0051 03       		.uleb128 0x3
 8053 0052 08       		.uleb128 0x8
 8054 0053 3A       		.uleb128 0x3a
 8055 0054 0B       		.uleb128 0xb
 8056 0055 3B       		.uleb128 0x3b
 8057 0056 0B       		.uleb128 0xb
ARM GAS  C:\Users\samue\AppData\Local\Temp\ccm0rw4c.s 			page 172


 8058 0057 49       		.uleb128 0x49
 8059 0058 13       		.uleb128 0x13
 8060 0059 38       		.uleb128 0x38
 8061 005a 0B       		.uleb128 0xb
 8062 005b 00       		.byte	0
 8063 005c 00       		.byte	0
 8064 005d 08       		.uleb128 0x8
 8065 005e 0D       		.uleb128 0xd
 8066 005f 00       		.byte	0
 8067 0060 03       		.uleb128 0x3
 8068 0061 0E       		.uleb128 0xe
 8069 0062 3A       		.uleb128 0x3a
 8070 0063 0B       		.uleb128 0xb
 8071 0064 3B       		.uleb128 0x3b
 8072 0065 0B       		.uleb128 0xb
 8073 0066 49       		.uleb128 0x49
 8074 0067 13       		.uleb128 0x13
 8075 0068 38       		.uleb128 0x38
 8076 0069 0B       		.uleb128 0xb
 8077 006a 00       		.byte	0
 8078 006b 00       		.byte	0
 8079 006c 09       		.uleb128 0x9
 8080 006d 2E       		.uleb128 0x2e
 8081 006e 01       		.byte	0x1
 8082 006f 3F       		.uleb128 0x3f
 8083 0070 19       		.uleb128 0x19
 8084 0071 03       		.uleb128 0x3
 8085 0072 0E       		.uleb128 0xe
 8086 0073 3A       		.uleb128 0x3a
 8087 0074 0B       		.uleb128 0xb
 8088 0075 3B       		.uleb128 0x3b
 8089 0076 05       		.uleb128 0x5
 8090 0077 27       		.uleb128 0x27
 8091 0078 19       		.uleb128 0x19
 8092 0079 49       		.uleb128 0x49
 8093 007a 13       		.uleb128 0x13
 8094 007b 11       		.uleb128 0x11
 8095 007c 01       		.uleb128 0x1
 8096 007d 12       		.uleb128 0x12
 8097 007e 06       		.uleb128 0x6
 8098 007f 40       		.uleb128 0x40
 8099 0080 18       		.uleb128 0x18
 8100 0081 9742     		.uleb128 0x2117
 8101 0083 19       		.uleb128 0x19
 8102 0084 01       		.uleb128 0x1
 8103 0085 13       		.uleb128 0x13
 8104 0086 00       		.byte	0
 8105 0087 00       		.byte	0
 8106 0088 0A       		.uleb128 0xa
 8107 0089 05       		.uleb128 0x5
 8108 008a 00       		.byte	0
 8109 008b 03       		.uleb128 0x3
 8110 008c 08       		.uleb128 0x8
 8111 008d 3A       		.uleb128 0x3a
 8112 008e 0B       		.uleb128 0xb
 8113 008f 3B       		.uleb128 0x3b
 8114 0090 05       		.uleb128 0x5
ARM GAS  C:\Users\samue\AppData\Local\Temp\ccm0rw4c.s 			page 173


 8115 0091 49       		.uleb128 0x49
 8116 0092 13       		.uleb128 0x13
 8117 0093 02       		.uleb128 0x2
 8118 0094 17       		.uleb128 0x17
 8119 0095 00       		.byte	0
 8120 0096 00       		.byte	0
 8121 0097 0B       		.uleb128 0xb
 8122 0098 34       		.uleb128 0x34
 8123 0099 00       		.byte	0
 8124 009a 03       		.uleb128 0x3
 8125 009b 0E       		.uleb128 0xe
 8126 009c 3A       		.uleb128 0x3a
 8127 009d 0B       		.uleb128 0xb
 8128 009e 3B       		.uleb128 0x3b
 8129 009f 05       		.uleb128 0x5
 8130 00a0 49       		.uleb128 0x49
 8131 00a1 13       		.uleb128 0x13
 8132 00a2 02       		.uleb128 0x2
 8133 00a3 17       		.uleb128 0x17
 8134 00a4 00       		.byte	0
 8135 00a5 00       		.byte	0
 8136 00a6 0C       		.uleb128 0xc
 8137 00a7 898201   		.uleb128 0x4109
 8138 00aa 00       		.byte	0
 8139 00ab 11       		.uleb128 0x11
 8140 00ac 01       		.uleb128 0x1
 8141 00ad 31       		.uleb128 0x31
 8142 00ae 13       		.uleb128 0x13
 8143 00af 00       		.byte	0
 8144 00b0 00       		.byte	0
 8145 00b1 0D       		.uleb128 0xd
 8146 00b2 898201   		.uleb128 0x4109
 8147 00b5 01       		.byte	0x1
 8148 00b6 11       		.uleb128 0x11
 8149 00b7 01       		.uleb128 0x1
 8150 00b8 31       		.uleb128 0x31
 8151 00b9 13       		.uleb128 0x13
 8152 00ba 01       		.uleb128 0x1
 8153 00bb 13       		.uleb128 0x13
 8154 00bc 00       		.byte	0
 8155 00bd 00       		.byte	0
 8156 00be 0E       		.uleb128 0xe
 8157 00bf 8A8201   		.uleb128 0x410a
 8158 00c2 00       		.byte	0
 8159 00c3 02       		.uleb128 0x2
 8160 00c4 18       		.uleb128 0x18
 8161 00c5 9142     		.uleb128 0x2111
 8162 00c7 18       		.uleb128 0x18
 8163 00c8 00       		.byte	0
 8164 00c9 00       		.byte	0
 8165 00ca 0F       		.uleb128 0xf
 8166 00cb 898201   		.uleb128 0x4109
 8167 00ce 01       		.byte	0x1
 8168 00cf 11       		.uleb128 0x11
 8169 00d0 01       		.uleb128 0x1
 8170 00d1 31       		.uleb128 0x31
 8171 00d2 13       		.uleb128 0x13
ARM GAS  C:\Users\samue\AppData\Local\Temp\ccm0rw4c.s 			page 174


 8172 00d3 00       		.byte	0
 8173 00d4 00       		.byte	0
 8174 00d5 10       		.uleb128 0x10
 8175 00d6 2E       		.uleb128 0x2e
 8176 00d7 01       		.byte	0x1
 8177 00d8 3F       		.uleb128 0x3f
 8178 00d9 19       		.uleb128 0x19
 8179 00da 03       		.uleb128 0x3
 8180 00db 0E       		.uleb128 0xe
 8181 00dc 3A       		.uleb128 0x3a
 8182 00dd 0B       		.uleb128 0xb
 8183 00de 3B       		.uleb128 0x3b
 8184 00df 05       		.uleb128 0x5
 8185 00e0 27       		.uleb128 0x27
 8186 00e1 19       		.uleb128 0x19
 8187 00e2 49       		.uleb128 0x49
 8188 00e3 13       		.uleb128 0x13
 8189 00e4 11       		.uleb128 0x11
 8190 00e5 01       		.uleb128 0x1
 8191 00e6 12       		.uleb128 0x12
 8192 00e7 06       		.uleb128 0x6
 8193 00e8 40       		.uleb128 0x40
 8194 00e9 18       		.uleb128 0x18
 8195 00ea 9642     		.uleb128 0x2116
 8196 00ec 19       		.uleb128 0x19
 8197 00ed 01       		.uleb128 0x1
 8198 00ee 13       		.uleb128 0x13
 8199 00ef 00       		.byte	0
 8200 00f0 00       		.byte	0
 8201 00f1 11       		.uleb128 0x11
 8202 00f2 05       		.uleb128 0x5
 8203 00f3 00       		.byte	0
 8204 00f4 03       		.uleb128 0x3
 8205 00f5 08       		.uleb128 0x8
 8206 00f6 3A       		.uleb128 0x3a
 8207 00f7 0B       		.uleb128 0xb
 8208 00f8 3B       		.uleb128 0x3b
 8209 00f9 05       		.uleb128 0x5
 8210 00fa 49       		.uleb128 0x49
 8211 00fb 13       		.uleb128 0x13
 8212 00fc 02       		.uleb128 0x2
 8213 00fd 18       		.uleb128 0x18
 8214 00fe 00       		.byte	0
 8215 00ff 00       		.byte	0
 8216 0100 12       		.uleb128 0x12
 8217 0101 34       		.uleb128 0x34
 8218 0102 00       		.byte	0
 8219 0103 03       		.uleb128 0x3
 8220 0104 08       		.uleb128 0x8
 8221 0105 3A       		.uleb128 0x3a
 8222 0106 0B       		.uleb128 0xb
 8223 0107 3B       		.uleb128 0x3b
 8224 0108 05       		.uleb128 0x5
 8225 0109 49       		.uleb128 0x49
 8226 010a 13       		.uleb128 0x13
 8227 010b 02       		.uleb128 0x2
 8228 010c 17       		.uleb128 0x17
ARM GAS  C:\Users\samue\AppData\Local\Temp\ccm0rw4c.s 			page 175


 8229 010d 00       		.byte	0
 8230 010e 00       		.byte	0
 8231 010f 13       		.uleb128 0x13
 8232 0110 2E       		.uleb128 0x2e
 8233 0111 01       		.byte	0x1
 8234 0112 3F       		.uleb128 0x3f
 8235 0113 19       		.uleb128 0x19
 8236 0114 03       		.uleb128 0x3
 8237 0115 0E       		.uleb128 0xe
 8238 0116 3A       		.uleb128 0x3a
 8239 0117 0B       		.uleb128 0xb
 8240 0118 3B       		.uleb128 0x3b
 8241 0119 05       		.uleb128 0x5
 8242 011a 27       		.uleb128 0x27
 8243 011b 19       		.uleb128 0x19
 8244 011c 11       		.uleb128 0x11
 8245 011d 01       		.uleb128 0x1
 8246 011e 12       		.uleb128 0x12
 8247 011f 06       		.uleb128 0x6
 8248 0120 40       		.uleb128 0x40
 8249 0121 18       		.uleb128 0x18
 8250 0122 9742     		.uleb128 0x2117
 8251 0124 19       		.uleb128 0x19
 8252 0125 01       		.uleb128 0x1
 8253 0126 13       		.uleb128 0x13
 8254 0127 00       		.byte	0
 8255 0128 00       		.byte	0
 8256 0129 14       		.uleb128 0x14
 8257 012a 05       		.uleb128 0x5
 8258 012b 00       		.byte	0
 8259 012c 03       		.uleb128 0x3
 8260 012d 0E       		.uleb128 0xe
 8261 012e 3A       		.uleb128 0x3a
 8262 012f 0B       		.uleb128 0xb
 8263 0130 3B       		.uleb128 0x3b
 8264 0131 05       		.uleb128 0x5
 8265 0132 49       		.uleb128 0x49
 8266 0133 13       		.uleb128 0x13
 8267 0134 02       		.uleb128 0x2
 8268 0135 17       		.uleb128 0x17
 8269 0136 00       		.byte	0
 8270 0137 00       		.byte	0
 8271 0138 15       		.uleb128 0x15
 8272 0139 2E       		.uleb128 0x2e
 8273 013a 01       		.byte	0x1
 8274 013b 3F       		.uleb128 0x3f
 8275 013c 19       		.uleb128 0x19
 8276 013d 03       		.uleb128 0x3
 8277 013e 0E       		.uleb128 0xe
 8278 013f 3A       		.uleb128 0x3a
 8279 0140 0B       		.uleb128 0xb
 8280 0141 3B       		.uleb128 0x3b
 8281 0142 05       		.uleb128 0x5
 8282 0143 8701     		.uleb128 0x87
 8283 0145 19       		.uleb128 0x19
 8284 0146 11       		.uleb128 0x11
 8285 0147 01       		.uleb128 0x1
ARM GAS  C:\Users\samue\AppData\Local\Temp\ccm0rw4c.s 			page 176


 8286 0148 12       		.uleb128 0x12
 8287 0149 06       		.uleb128 0x6
 8288 014a 40       		.uleb128 0x40
 8289 014b 18       		.uleb128 0x18
 8290 014c 9742     		.uleb128 0x2117
 8291 014e 19       		.uleb128 0x19
 8292 014f 01       		.uleb128 0x1
 8293 0150 13       		.uleb128 0x13
 8294 0151 00       		.byte	0
 8295 0152 00       		.byte	0
 8296 0153 16       		.uleb128 0x16
 8297 0154 34       		.uleb128 0x34
 8298 0155 00       		.byte	0
 8299 0156 03       		.uleb128 0x3
 8300 0157 0E       		.uleb128 0xe
 8301 0158 3A       		.uleb128 0x3a
 8302 0159 0B       		.uleb128 0xb
 8303 015a 3B       		.uleb128 0x3b
 8304 015b 05       		.uleb128 0x5
 8305 015c 49       		.uleb128 0x49
 8306 015d 13       		.uleb128 0x13
 8307 015e 1C       		.uleb128 0x1c
 8308 015f 0B       		.uleb128 0xb
 8309 0160 00       		.byte	0
 8310 0161 00       		.byte	0
 8311 0162 17       		.uleb128 0x17
 8312 0163 34       		.uleb128 0x34
 8313 0164 00       		.byte	0
 8314 0165 03       		.uleb128 0x3
 8315 0166 0E       		.uleb128 0xe
 8316 0167 3A       		.uleb128 0x3a
 8317 0168 0B       		.uleb128 0xb
 8318 0169 3B       		.uleb128 0x3b
 8319 016a 05       		.uleb128 0x5
 8320 016b 49       		.uleb128 0x49
 8321 016c 13       		.uleb128 0x13
 8322 016d 1C       		.uleb128 0x1c
 8323 016e 0A       		.uleb128 0xa
 8324 016f 00       		.byte	0
 8325 0170 00       		.byte	0
 8326 0171 18       		.uleb128 0x18
 8327 0172 2E       		.uleb128 0x2e
 8328 0173 01       		.byte	0x1
 8329 0174 3F       		.uleb128 0x3f
 8330 0175 19       		.uleb128 0x19
 8331 0176 03       		.uleb128 0x3
 8332 0177 0E       		.uleb128 0xe
 8333 0178 3A       		.uleb128 0x3a
 8334 0179 0B       		.uleb128 0xb
 8335 017a 3B       		.uleb128 0x3b
 8336 017b 05       		.uleb128 0x5
 8337 017c 27       		.uleb128 0x27
 8338 017d 19       		.uleb128 0x19
 8339 017e 11       		.uleb128 0x11
 8340 017f 01       		.uleb128 0x1
 8341 0180 12       		.uleb128 0x12
 8342 0181 06       		.uleb128 0x6
ARM GAS  C:\Users\samue\AppData\Local\Temp\ccm0rw4c.s 			page 177


 8343 0182 40       		.uleb128 0x40
 8344 0183 18       		.uleb128 0x18
 8345 0184 9642     		.uleb128 0x2116
 8346 0186 19       		.uleb128 0x19
 8347 0187 01       		.uleb128 0x1
 8348 0188 13       		.uleb128 0x13
 8349 0189 00       		.byte	0
 8350 018a 00       		.byte	0
 8351 018b 19       		.uleb128 0x19
 8352 018c 34       		.uleb128 0x34
 8353 018d 00       		.byte	0
 8354 018e 03       		.uleb128 0x3
 8355 018f 08       		.uleb128 0x8
 8356 0190 3A       		.uleb128 0x3a
 8357 0191 0B       		.uleb128 0xb
 8358 0192 3B       		.uleb128 0x3b
 8359 0193 05       		.uleb128 0x5
 8360 0194 49       		.uleb128 0x49
 8361 0195 13       		.uleb128 0x13
 8362 0196 1C       		.uleb128 0x1c
 8363 0197 0B       		.uleb128 0xb
 8364 0198 00       		.byte	0
 8365 0199 00       		.byte	0
 8366 019a 1A       		.uleb128 0x1a
 8367 019b 2E       		.uleb128 0x2e
 8368 019c 01       		.byte	0x1
 8369 019d 3F       		.uleb128 0x3f
 8370 019e 19       		.uleb128 0x19
 8371 019f 03       		.uleb128 0x3
 8372 01a0 0E       		.uleb128 0xe
 8373 01a1 3A       		.uleb128 0x3a
 8374 01a2 0B       		.uleb128 0xb
 8375 01a3 3B       		.uleb128 0x3b
 8376 01a4 05       		.uleb128 0x5
 8377 01a5 11       		.uleb128 0x11
 8378 01a6 01       		.uleb128 0x1
 8379 01a7 12       		.uleb128 0x12
 8380 01a8 06       		.uleb128 0x6
 8381 01a9 40       		.uleb128 0x40
 8382 01aa 18       		.uleb128 0x18
 8383 01ab 9742     		.uleb128 0x2117
 8384 01ad 19       		.uleb128 0x19
 8385 01ae 01       		.uleb128 0x1
 8386 01af 13       		.uleb128 0x13
 8387 01b0 00       		.byte	0
 8388 01b1 00       		.byte	0
 8389 01b2 1B       		.uleb128 0x1b
 8390 01b3 34       		.uleb128 0x34
 8391 01b4 00       		.byte	0
 8392 01b5 03       		.uleb128 0x3
 8393 01b6 08       		.uleb128 0x8
 8394 01b7 3A       		.uleb128 0x3a
 8395 01b8 0B       		.uleb128 0xb
 8396 01b9 3B       		.uleb128 0x3b
 8397 01ba 05       		.uleb128 0x5
 8398 01bb 49       		.uleb128 0x49
 8399 01bc 13       		.uleb128 0x13
ARM GAS  C:\Users\samue\AppData\Local\Temp\ccm0rw4c.s 			page 178


 8400 01bd 02       		.uleb128 0x2
 8401 01be 18       		.uleb128 0x18
 8402 01bf 00       		.byte	0
 8403 01c0 00       		.byte	0
 8404 01c1 1C       		.uleb128 0x1c
 8405 01c2 0B       		.uleb128 0xb
 8406 01c3 01       		.byte	0x1
 8407 01c4 11       		.uleb128 0x11
 8408 01c5 01       		.uleb128 0x1
 8409 01c6 12       		.uleb128 0x12
 8410 01c7 06       		.uleb128 0x6
 8411 01c8 01       		.uleb128 0x1
 8412 01c9 13       		.uleb128 0x13
 8413 01ca 00       		.byte	0
 8414 01cb 00       		.byte	0
 8415 01cc 1D       		.uleb128 0x1d
 8416 01cd 34       		.uleb128 0x34
 8417 01ce 00       		.byte	0
 8418 01cf 03       		.uleb128 0x3
 8419 01d0 0E       		.uleb128 0xe
 8420 01d1 3A       		.uleb128 0x3a
 8421 01d2 0B       		.uleb128 0xb
 8422 01d3 3B       		.uleb128 0x3b
 8423 01d4 05       		.uleb128 0x5
 8424 01d5 49       		.uleb128 0x49
 8425 01d6 13       		.uleb128 0x13
 8426 01d7 02       		.uleb128 0x2
 8427 01d8 18       		.uleb128 0x18
 8428 01d9 00       		.byte	0
 8429 01da 00       		.byte	0
 8430 01db 1E       		.uleb128 0x1e
 8431 01dc 01       		.uleb128 0x1
 8432 01dd 01       		.byte	0x1
 8433 01de 49       		.uleb128 0x49
 8434 01df 13       		.uleb128 0x13
 8435 01e0 01       		.uleb128 0x1
 8436 01e1 13       		.uleb128 0x13
 8437 01e2 00       		.byte	0
 8438 01e3 00       		.byte	0
 8439 01e4 1F       		.uleb128 0x1f
 8440 01e5 21       		.uleb128 0x21
 8441 01e6 00       		.byte	0
 8442 01e7 49       		.uleb128 0x49
 8443 01e8 13       		.uleb128 0x13
 8444 01e9 2F       		.uleb128 0x2f
 8445 01ea 0B       		.uleb128 0xb
 8446 01eb 00       		.byte	0
 8447 01ec 00       		.byte	0
 8448 01ed 20       		.uleb128 0x20
 8449 01ee 2E       		.uleb128 0x2e
 8450 01ef 01       		.byte	0x1
 8451 01f0 3F       		.uleb128 0x3f
 8452 01f1 19       		.uleb128 0x19
 8453 01f2 03       		.uleb128 0x3
 8454 01f3 0E       		.uleb128 0xe
 8455 01f4 3A       		.uleb128 0x3a
 8456 01f5 0B       		.uleb128 0xb
ARM GAS  C:\Users\samue\AppData\Local\Temp\ccm0rw4c.s 			page 179


 8457 01f6 3B       		.uleb128 0x3b
 8458 01f7 05       		.uleb128 0x5
 8459 01f8 8701     		.uleb128 0x87
 8460 01fa 19       		.uleb128 0x19
 8461 01fb 11       		.uleb128 0x11
 8462 01fc 01       		.uleb128 0x1
 8463 01fd 12       		.uleb128 0x12
 8464 01fe 06       		.uleb128 0x6
 8465 01ff 40       		.uleb128 0x40
 8466 0200 18       		.uleb128 0x18
 8467 0201 9642     		.uleb128 0x2116
 8468 0203 19       		.uleb128 0x19
 8469 0204 01       		.uleb128 0x1
 8470 0205 13       		.uleb128 0x13
 8471 0206 00       		.byte	0
 8472 0207 00       		.byte	0
 8473 0208 21       		.uleb128 0x21
 8474 0209 2E       		.uleb128 0x2e
 8475 020a 01       		.byte	0x1
 8476 020b 3F       		.uleb128 0x3f
 8477 020c 19       		.uleb128 0x19
 8478 020d 03       		.uleb128 0x3
 8479 020e 0E       		.uleb128 0xe
 8480 020f 3A       		.uleb128 0x3a
 8481 0210 0B       		.uleb128 0xb
 8482 0211 3B       		.uleb128 0x3b
 8483 0212 05       		.uleb128 0x5
 8484 0213 27       		.uleb128 0x27
 8485 0214 19       		.uleb128 0x19
 8486 0215 8701     		.uleb128 0x87
 8487 0217 19       		.uleb128 0x19
 8488 0218 11       		.uleb128 0x11
 8489 0219 01       		.uleb128 0x1
 8490 021a 12       		.uleb128 0x12
 8491 021b 06       		.uleb128 0x6
 8492 021c 40       		.uleb128 0x40
 8493 021d 18       		.uleb128 0x18
 8494 021e 9742     		.uleb128 0x2117
 8495 0220 19       		.uleb128 0x19
 8496 0221 01       		.uleb128 0x1
 8497 0222 13       		.uleb128 0x13
 8498 0223 00       		.byte	0
 8499 0224 00       		.byte	0
 8500 0225 22       		.uleb128 0x22
 8501 0226 34       		.uleb128 0x34
 8502 0227 00       		.byte	0
 8503 0228 03       		.uleb128 0x3
 8504 0229 08       		.uleb128 0x8
 8505 022a 3A       		.uleb128 0x3a
 8506 022b 0B       		.uleb128 0xb
 8507 022c 3B       		.uleb128 0x3b
 8508 022d 05       		.uleb128 0x5
 8509 022e 49       		.uleb128 0x49
 8510 022f 13       		.uleb128 0x13
 8511 0230 00       		.byte	0
 8512 0231 00       		.byte	0
 8513 0232 23       		.uleb128 0x23
ARM GAS  C:\Users\samue\AppData\Local\Temp\ccm0rw4c.s 			page 180


 8514 0233 0B       		.uleb128 0xb
 8515 0234 01       		.byte	0x1
 8516 0235 11       		.uleb128 0x11
 8517 0236 01       		.uleb128 0x1
 8518 0237 12       		.uleb128 0x12
 8519 0238 06       		.uleb128 0x6
 8520 0239 00       		.byte	0
 8521 023a 00       		.byte	0
 8522 023b 24       		.uleb128 0x24
 8523 023c 2E       		.uleb128 0x2e
 8524 023d 01       		.byte	0x1
 8525 023e 3F       		.uleb128 0x3f
 8526 023f 19       		.uleb128 0x19
 8527 0240 03       		.uleb128 0x3
 8528 0241 0E       		.uleb128 0xe
 8529 0242 3A       		.uleb128 0x3a
 8530 0243 0B       		.uleb128 0xb
 8531 0244 3B       		.uleb128 0x3b
 8532 0245 05       		.uleb128 0x5
 8533 0246 11       		.uleb128 0x11
 8534 0247 01       		.uleb128 0x1
 8535 0248 12       		.uleb128 0x12
 8536 0249 06       		.uleb128 0x6
 8537 024a 40       		.uleb128 0x40
 8538 024b 18       		.uleb128 0x18
 8539 024c 9642     		.uleb128 0x2116
 8540 024e 19       		.uleb128 0x19
 8541 024f 01       		.uleb128 0x1
 8542 0250 13       		.uleb128 0x13
 8543 0251 00       		.byte	0
 8544 0252 00       		.byte	0
 8545 0253 25       		.uleb128 0x25
 8546 0254 2E       		.uleb128 0x2e
 8547 0255 01       		.byte	0x1
 8548 0256 3F       		.uleb128 0x3f
 8549 0257 19       		.uleb128 0x19
 8550 0258 03       		.uleb128 0x3
 8551 0259 0E       		.uleb128 0xe
 8552 025a 3A       		.uleb128 0x3a
 8553 025b 0B       		.uleb128 0xb
 8554 025c 3B       		.uleb128 0x3b
 8555 025d 0B       		.uleb128 0xb
 8556 025e 27       		.uleb128 0x27
 8557 025f 19       		.uleb128 0x19
 8558 0260 8701     		.uleb128 0x87
 8559 0262 19       		.uleb128 0x19
 8560 0263 11       		.uleb128 0x11
 8561 0264 01       		.uleb128 0x1
 8562 0265 12       		.uleb128 0x12
 8563 0266 06       		.uleb128 0x6
 8564 0267 40       		.uleb128 0x40
 8565 0268 18       		.uleb128 0x18
 8566 0269 9742     		.uleb128 0x2117
 8567 026b 19       		.uleb128 0x19
 8568 026c 01       		.uleb128 0x1
 8569 026d 13       		.uleb128 0x13
 8570 026e 00       		.byte	0
ARM GAS  C:\Users\samue\AppData\Local\Temp\ccm0rw4c.s 			page 181


 8571 026f 00       		.byte	0
 8572 0270 26       		.uleb128 0x26
 8573 0271 34       		.uleb128 0x34
 8574 0272 00       		.byte	0
 8575 0273 03       		.uleb128 0x3
 8576 0274 0E       		.uleb128 0xe
 8577 0275 3A       		.uleb128 0x3a
 8578 0276 0B       		.uleb128 0xb
 8579 0277 3B       		.uleb128 0x3b
 8580 0278 05       		.uleb128 0x5
 8581 0279 49       		.uleb128 0x49
 8582 027a 13       		.uleb128 0x13
 8583 027b 3F       		.uleb128 0x3f
 8584 027c 19       		.uleb128 0x19
 8585 027d 3C       		.uleb128 0x3c
 8586 027e 19       		.uleb128 0x19
 8587 027f 00       		.byte	0
 8588 0280 00       		.byte	0
 8589 0281 27       		.uleb128 0x27
 8590 0282 35       		.uleb128 0x35
 8591 0283 00       		.byte	0
 8592 0284 49       		.uleb128 0x49
 8593 0285 13       		.uleb128 0x13
 8594 0286 00       		.byte	0
 8595 0287 00       		.byte	0
 8596 0288 28       		.uleb128 0x28
 8597 0289 2E       		.uleb128 0x2e
 8598 028a 00       		.byte	0
 8599 028b 3F       		.uleb128 0x3f
 8600 028c 19       		.uleb128 0x19
 8601 028d 3C       		.uleb128 0x3c
 8602 028e 19       		.uleb128 0x19
 8603 028f 6E       		.uleb128 0x6e
 8604 0290 0E       		.uleb128 0xe
 8605 0291 03       		.uleb128 0x3
 8606 0292 0E       		.uleb128 0xe
 8607 0293 3A       		.uleb128 0x3a
 8608 0294 0B       		.uleb128 0xb
 8609 0295 3B       		.uleb128 0x3b
 8610 0296 05       		.uleb128 0x5
 8611 0297 00       		.byte	0
 8612 0298 00       		.byte	0
 8613 0299 29       		.uleb128 0x29
 8614 029a 2E       		.uleb128 0x2e
 8615 029b 00       		.byte	0
 8616 029c 3F       		.uleb128 0x3f
 8617 029d 19       		.uleb128 0x19
 8618 029e 3C       		.uleb128 0x3c
 8619 029f 19       		.uleb128 0x19
 8620 02a0 6E       		.uleb128 0x6e
 8621 02a1 0E       		.uleb128 0xe
 8622 02a2 03       		.uleb128 0x3
 8623 02a3 0E       		.uleb128 0xe
 8624 02a4 3A       		.uleb128 0x3a
 8625 02a5 0B       		.uleb128 0xb
 8626 02a6 3B       		.uleb128 0x3b
 8627 02a7 0B       		.uleb128 0xb
ARM GAS  C:\Users\samue\AppData\Local\Temp\ccm0rw4c.s 			page 182


 8628 02a8 00       		.byte	0
 8629 02a9 00       		.byte	0
 8630 02aa 2A       		.uleb128 0x2a
 8631 02ab 2E       		.uleb128 0x2e
 8632 02ac 00       		.byte	0
 8633 02ad 3F       		.uleb128 0x3f
 8634 02ae 19       		.uleb128 0x19
 8635 02af 3C       		.uleb128 0x3c
 8636 02b0 19       		.uleb128 0x19
 8637 02b1 6E       		.uleb128 0x6e
 8638 02b2 08       		.uleb128 0x8
 8639 02b3 03       		.uleb128 0x3
 8640 02b4 08       		.uleb128 0x8
 8641 02b5 3A       		.uleb128 0x3a
 8642 02b6 0B       		.uleb128 0xb
 8643 02b7 3B       		.uleb128 0x3b
 8644 02b8 0B       		.uleb128 0xb
 8645 02b9 00       		.byte	0
 8646 02ba 00       		.byte	0
 8647 02bb 2B       		.uleb128 0x2b
 8648 02bc 2E       		.uleb128 0x2e
 8649 02bd 00       		.byte	0
 8650 02be 3F       		.uleb128 0x3f
 8651 02bf 19       		.uleb128 0x19
 8652 02c0 3C       		.uleb128 0x3c
 8653 02c1 19       		.uleb128 0x19
 8654 02c2 6E       		.uleb128 0x6e
 8655 02c3 0E       		.uleb128 0xe
 8656 02c4 03       		.uleb128 0x3
 8657 02c5 0E       		.uleb128 0xe
 8658 02c6 00       		.byte	0
 8659 02c7 00       		.byte	0
 8660 02c8 2C       		.uleb128 0x2c
 8661 02c9 2E       		.uleb128 0x2e
 8662 02ca 00       		.byte	0
 8663 02cb 3F       		.uleb128 0x3f
 8664 02cc 19       		.uleb128 0x19
 8665 02cd 3C       		.uleb128 0x3c
 8666 02ce 19       		.uleb128 0x19
 8667 02cf 6E       		.uleb128 0x6e
 8668 02d0 0E       		.uleb128 0xe
 8669 02d1 03       		.uleb128 0x3
 8670 02d2 0E       		.uleb128 0xe
 8671 02d3 3A       		.uleb128 0x3a
 8672 02d4 0B       		.uleb128 0xb
 8673 02d5 3B       		.uleb128 0x3b
 8674 02d6 0B       		.uleb128 0xb
 8675 02d7 6E       		.uleb128 0x6e
 8676 02d8 0E       		.uleb128 0xe
 8677 02d9 00       		.byte	0
 8678 02da 00       		.byte	0
 8679 02db 00       		.byte	0
 8680              		.section	.debug_loc,"",%progbits
 8681              	.Ldebug_loc0:
 8682              	.LLST0:
 8683 0000 00000000 		.4byte	.LVL0
 8684 0004 07000000 		.4byte	.LVL1-1
ARM GAS  C:\Users\samue\AppData\Local\Temp\ccm0rw4c.s 			page 183


 8685 0008 0100     		.2byte	0x1
 8686 000a 50       		.byte	0x50
 8687 000b 07000000 		.4byte	.LVL1-1
 8688 000f F6000000 		.4byte	.LFE90
 8689 0013 0100     		.2byte	0x1
 8690 0015 54       		.byte	0x54
 8691 0016 00000000 		.4byte	0
 8692 001a 00000000 		.4byte	0
 8693              	.LLST1:
 8694 001e 0A000000 		.4byte	.LVL2
 8695 0022 12000000 		.4byte	.LVL3
 8696 0026 0100     		.2byte	0x1
 8697 0028 50       		.byte	0x50
 8698 0029 12000000 		.4byte	.LVL3
 8699 002d 26000000 		.4byte	.LVL6
 8700 0031 0100     		.2byte	0x1
 8701 0033 55       		.byte	0x55
 8702 0034 26000000 		.4byte	.LVL6
 8703 0038 2E000000 		.4byte	.LVL7
 8704 003c 0100     		.2byte	0x1
 8705 003e 50       		.byte	0x50
 8706 003f 2E000000 		.4byte	.LVL7
 8707 0043 42000000 		.4byte	.LVL10
 8708 0047 0100     		.2byte	0x1
 8709 0049 55       		.byte	0x55
 8710 004a 42000000 		.4byte	.LVL10
 8711 004e 4A000000 		.4byte	.LVL11
 8712 0052 0100     		.2byte	0x1
 8713 0054 50       		.byte	0x50
 8714 0055 4A000000 		.4byte	.LVL11
 8715 0059 5E000000 		.4byte	.LVL14
 8716 005d 0100     		.2byte	0x1
 8717 005f 55       		.byte	0x55
 8718 0060 5E000000 		.4byte	.LVL14
 8719 0064 66000000 		.4byte	.LVL15
 8720 0068 0100     		.2byte	0x1
 8721 006a 50       		.byte	0x50
 8722 006b 66000000 		.4byte	.LVL15
 8723 006f 7A000000 		.4byte	.LVL18
 8724 0073 0100     		.2byte	0x1
 8725 0075 55       		.byte	0x55
 8726 0076 7A000000 		.4byte	.LVL18
 8727 007a 82000000 		.4byte	.LVL19
 8728 007e 0100     		.2byte	0x1
 8729 0080 50       		.byte	0x50
 8730 0081 82000000 		.4byte	.LVL19
 8731 0085 96000000 		.4byte	.LVL22
 8732 0089 0100     		.2byte	0x1
 8733 008b 55       		.byte	0x55
 8734 008c 96000000 		.4byte	.LVL22
 8735 0090 A0000000 		.4byte	.LVL23
 8736 0094 0100     		.2byte	0x1
 8737 0096 50       		.byte	0x50
 8738 0097 A0000000 		.4byte	.LVL23
 8739 009b B4000000 		.4byte	.LVL26
 8740 009f 0100     		.2byte	0x1
 8741 00a1 55       		.byte	0x55
ARM GAS  C:\Users\samue\AppData\Local\Temp\ccm0rw4c.s 			page 184


 8742 00a2 B4000000 		.4byte	.LVL26
 8743 00a6 BE000000 		.4byte	.LVL27
 8744 00aa 0100     		.2byte	0x1
 8745 00ac 50       		.byte	0x50
 8746 00ad BE000000 		.4byte	.LVL27
 8747 00b1 D2000000 		.4byte	.LVL30
 8748 00b5 0100     		.2byte	0x1
 8749 00b7 55       		.byte	0x55
 8750 00b8 D2000000 		.4byte	.LVL30
 8751 00bc DC000000 		.4byte	.LVL31
 8752 00c0 0100     		.2byte	0x1
 8753 00c2 50       		.byte	0x50
 8754 00c3 DC000000 		.4byte	.LVL31
 8755 00c7 F0000000 		.4byte	.LVL34
 8756 00cb 0100     		.2byte	0x1
 8757 00cd 55       		.byte	0x55
 8758 00ce F0000000 		.4byte	.LVL34
 8759 00d2 F2000000 		.4byte	.LVL35
 8760 00d6 0100     		.2byte	0x1
 8761 00d8 50       		.byte	0x50
 8762 00d9 F2000000 		.4byte	.LVL35
 8763 00dd F6000000 		.4byte	.LFE90
 8764 00e1 0100     		.2byte	0x1
 8765 00e3 55       		.byte	0x55
 8766 00e4 00000000 		.4byte	0
 8767 00e8 00000000 		.4byte	0
 8768              	.LLST2:
 8769 00ec 0A000000 		.4byte	.LVL2
 8770 00f0 20000000 		.4byte	.LVL5
 8771 00f4 0200     		.2byte	0x2
 8772 00f6 30       		.byte	0x30
 8773 00f7 9F       		.byte	0x9f
 8774 00f8 20000000 		.4byte	.LVL5
 8775 00fc 26000000 		.4byte	.LVL6
 8776 0100 0400     		.2byte	0x4
 8777 0102 0A       		.byte	0xa
 8778 0103 F401     		.2byte	0x1f4
 8779 0105 9F       		.byte	0x9f
 8780 0106 26000000 		.4byte	.LVL6
 8781 010a 3C000000 		.4byte	.LVL9
 8782 010e 0200     		.2byte	0x2
 8783 0110 30       		.byte	0x30
 8784 0111 9F       		.byte	0x9f
 8785 0112 3C000000 		.4byte	.LVL9
 8786 0116 42000000 		.4byte	.LVL10
 8787 011a 0400     		.2byte	0x4
 8788 011c 0A       		.byte	0xa
 8789 011d 5E01     		.2byte	0x15e
 8790 011f 9F       		.byte	0x9f
 8791 0120 42000000 		.4byte	.LVL10
 8792 0124 58000000 		.4byte	.LVL13
 8793 0128 0200     		.2byte	0x2
 8794 012a 30       		.byte	0x30
 8795 012b 9F       		.byte	0x9f
 8796 012c 58000000 		.4byte	.LVL13
 8797 0130 5E000000 		.4byte	.LVL14
 8798 0134 0400     		.2byte	0x4
ARM GAS  C:\Users\samue\AppData\Local\Temp\ccm0rw4c.s 			page 185


 8799 0136 0A       		.byte	0xa
 8800 0137 9001     		.2byte	0x190
 8801 0139 9F       		.byte	0x9f
 8802 013a 5E000000 		.4byte	.LVL14
 8803 013e 74000000 		.4byte	.LVL17
 8804 0142 0200     		.2byte	0x2
 8805 0144 30       		.byte	0x30
 8806 0145 9F       		.byte	0x9f
 8807 0146 74000000 		.4byte	.LVL17
 8808 014a 7A000000 		.4byte	.LVL18
 8809 014e 0400     		.2byte	0x4
 8810 0150 0A       		.byte	0xa
 8811 0151 F401     		.2byte	0x1f4
 8812 0153 9F       		.byte	0x9f
 8813 0154 7A000000 		.4byte	.LVL18
 8814 0158 90000000 		.4byte	.LVL21
 8815 015c 0200     		.2byte	0x2
 8816 015e 30       		.byte	0x30
 8817 015f 9F       		.byte	0x9f
 8818 0160 90000000 		.4byte	.LVL21
 8819 0164 96000000 		.4byte	.LVL22
 8820 0168 0400     		.2byte	0x4
 8821 016a 0A       		.byte	0xa
 8822 016b F401     		.2byte	0x1f4
 8823 016d 9F       		.byte	0x9f
 8824 016e 96000000 		.4byte	.LVL22
 8825 0172 AE000000 		.4byte	.LVL25
 8826 0176 0200     		.2byte	0x2
 8827 0178 30       		.byte	0x30
 8828 0179 9F       		.byte	0x9f
 8829 017a AE000000 		.4byte	.LVL25
 8830 017e B4000000 		.4byte	.LVL26
 8831 0182 0400     		.2byte	0x4
 8832 0184 0A       		.byte	0xa
 8833 0185 9001     		.2byte	0x190
 8834 0187 9F       		.byte	0x9f
 8835 0188 B4000000 		.4byte	.LVL26
 8836 018c CC000000 		.4byte	.LVL29
 8837 0190 0200     		.2byte	0x2
 8838 0192 30       		.byte	0x30
 8839 0193 9F       		.byte	0x9f
 8840 0194 CC000000 		.4byte	.LVL29
 8841 0198 D2000000 		.4byte	.LVL30
 8842 019c 0400     		.2byte	0x4
 8843 019e 0A       		.byte	0xa
 8844 019f 5E01     		.2byte	0x15e
 8845 01a1 9F       		.byte	0x9f
 8846 01a2 D2000000 		.4byte	.LVL30
 8847 01a6 EA000000 		.4byte	.LVL33
 8848 01aa 0200     		.2byte	0x2
 8849 01ac 30       		.byte	0x30
 8850 01ad 9F       		.byte	0x9f
 8851 01ae EA000000 		.4byte	.LVL33
 8852 01b2 F0000000 		.4byte	.LVL34
 8853 01b6 0400     		.2byte	0x4
 8854 01b8 0A       		.byte	0xa
 8855 01b9 F401     		.2byte	0x1f4
ARM GAS  C:\Users\samue\AppData\Local\Temp\ccm0rw4c.s 			page 186


 8856 01bb 9F       		.byte	0x9f
 8857 01bc F0000000 		.4byte	.LVL34
 8858 01c0 F2000000 		.4byte	.LVL35
 8859 01c4 0200     		.2byte	0x2
 8860 01c6 30       		.byte	0x30
 8861 01c7 9F       		.byte	0x9f
 8862 01c8 F2000000 		.4byte	.LVL35
 8863 01cc F4000000 		.4byte	.LVL36
 8864 01d0 0100     		.2byte	0x1
 8865 01d2 50       		.byte	0x50
 8866 01d3 00000000 		.4byte	0
 8867 01d7 00000000 		.4byte	0
 8868              	.LLST3:
 8869 01db 08000000 		.4byte	.LVL37
 8870 01df 90000000 		.4byte	.LVL51
 8871 01e3 0A00     		.2byte	0xa
 8872 01e5 9E       		.byte	0x9e
 8873 01e6 08       		.uleb128 0x8
 8874 01e7 00000000 		.4byte	0
 8875 01eb 00907640 		.4byte	0x40769000
 8876 01ef 90000000 		.4byte	.LVL51
 8877 01f3 9B000000 		.4byte	.LVL52-1
 8878 01f7 0600     		.2byte	0x6
 8879 01f9 50       		.byte	0x50
 8880 01fa 93       		.byte	0x93
 8881 01fb 04       		.uleb128 0x4
 8882 01fc 51       		.byte	0x51
 8883 01fd 93       		.byte	0x93
 8884 01fe 04       		.uleb128 0x4
 8885 01ff 9C000000 		.4byte	.LVL52
 8886 0203 9E000000 		.4byte	.LVL53
 8887 0207 0600     		.2byte	0x6
 8888 0209 50       		.byte	0x50
 8889 020a 93       		.byte	0x93
 8890 020b 04       		.uleb128 0x4
 8891 020c 51       		.byte	0x51
 8892 020d 93       		.byte	0x93
 8893 020e 04       		.uleb128 0x4
 8894 020f 9E000000 		.4byte	.LVL53
 8895 0213 A4000000 		.4byte	.LVL54
 8896 0217 0A00     		.2byte	0xa
 8897 0219 9E       		.byte	0x9e
 8898 021a 08       		.uleb128 0x8
 8899 021b 00000000 		.4byte	0
 8900 021f 00907640 		.4byte	0x40769000
 8901 0223 A4000000 		.4byte	.LVL54
 8902 0227 A7000000 		.4byte	.LVL55-1
 8903 022b 0600     		.2byte	0x6
 8904 022d 50       		.byte	0x50
 8905 022e 93       		.byte	0x93
 8906 022f 04       		.uleb128 0x4
 8907 0230 51       		.byte	0x51
 8908 0231 93       		.byte	0x93
 8909 0232 04       		.uleb128 0x4
 8910 0233 00000000 		.4byte	0
 8911 0237 00000000 		.4byte	0
 8912              	.LLST4:
ARM GAS  C:\Users\samue\AppData\Local\Temp\ccm0rw4c.s 			page 187


 8913 023b 00000000 		.4byte	.LVL56
 8914 023f 07000000 		.4byte	.LVL57-1
 8915 0243 0100     		.2byte	0x1
 8916 0245 50       		.byte	0x50
 8917 0246 07000000 		.4byte	.LVL57-1
 8918 024a 16000000 		.4byte	.LVL59
 8919 024e 0100     		.2byte	0x1
 8920 0250 54       		.byte	0x54
 8921 0251 16000000 		.4byte	.LVL59
 8922 0255 20000000 		.4byte	.LFE93
 8923 0259 0400     		.2byte	0x4
 8924 025b F3       		.byte	0xf3
 8925 025c 01       		.uleb128 0x1
 8926 025d 50       		.byte	0x50
 8927 025e 9F       		.byte	0x9f
 8928 025f 00000000 		.4byte	0
 8929 0263 00000000 		.4byte	0
 8930              	.LLST5:
 8931 0267 00000000 		.4byte	.LVL60
 8932 026b 08000000 		.4byte	.LVL61
 8933 026f 0100     		.2byte	0x1
 8934 0271 50       		.byte	0x50
 8935 0272 08000000 		.4byte	.LVL61
 8936 0276 2E000000 		.4byte	.LVL69
 8937 027a 0100     		.2byte	0x1
 8938 027c 56       		.byte	0x56
 8939 027d 2E000000 		.4byte	.LVL69
 8940 0281 3C000000 		.4byte	.LFE94
 8941 0285 0400     		.2byte	0x4
 8942 0287 F3       		.byte	0xf3
 8943 0288 01       		.uleb128 0x1
 8944 0289 50       		.byte	0x50
 8945 028a 9F       		.byte	0x9f
 8946 028b 00000000 		.4byte	0
 8947 028f 00000000 		.4byte	0
 8948              	.LLST6:
 8949 0293 12000000 		.4byte	.LVL64
 8950 0297 1A000000 		.4byte	.LVL65
 8951 029b 0100     		.2byte	0x1
 8952 029d 50       		.byte	0x50
 8953 029e 1A000000 		.4byte	.LVL65
 8954 02a2 1D000000 		.4byte	.LVL66-1
 8955 02a6 0100     		.2byte	0x1
 8956 02a8 52       		.byte	0x52
 8957 02a9 1D000000 		.4byte	.LVL66-1
 8958 02ad 2E000000 		.4byte	.LVL69
 8959 02b1 0100     		.2byte	0x1
 8960 02b3 55       		.byte	0x55
 8961 02b4 00000000 		.4byte	0
 8962 02b8 00000000 		.4byte	0
 8963              	.LLST7:
 8964 02bc 00000000 		.4byte	.LVL84
 8965 02c0 09000000 		.4byte	.LVL85-1
 8966 02c4 0100     		.2byte	0x1
 8967 02c6 50       		.byte	0x50
 8968 02c7 09000000 		.4byte	.LVL85-1
 8969 02cb 3E000000 		.4byte	.LVL92
ARM GAS  C:\Users\samue\AppData\Local\Temp\ccm0rw4c.s 			page 188


 8970 02cf 0100     		.2byte	0x1
 8971 02d1 54       		.byte	0x54
 8972 02d2 3E000000 		.4byte	.LVL92
 8973 02d6 44000000 		.4byte	.LFE97
 8974 02da 0400     		.2byte	0x4
 8975 02dc F3       		.byte	0xf3
 8976 02dd 01       		.uleb128 0x1
 8977 02de 50       		.byte	0x50
 8978 02df 9F       		.byte	0x9f
 8979 02e0 00000000 		.4byte	0
 8980 02e4 00000000 		.4byte	0
 8981              	.LLST8:
 8982 02e8 00000000 		.4byte	.LVL93
 8983 02ec 08000000 		.4byte	.LVL95
 8984 02f0 0100     		.2byte	0x1
 8985 02f2 50       		.byte	0x50
 8986 02f3 08000000 		.4byte	.LVL95
 8987 02f7 0B000000 		.4byte	.LVL96-1
 8988 02fb 0100     		.2byte	0x1
 8989 02fd 51       		.byte	0x51
 8990 02fe 0B000000 		.4byte	.LVL96-1
 8991 0302 20000000 		.4byte	.LFE105
 8992 0306 0400     		.2byte	0x4
 8993 0308 F3       		.byte	0xf3
 8994 0309 01       		.uleb128 0x1
 8995 030a 50       		.byte	0x50
 8996 030b 9F       		.byte	0x9f
 8997 030c 00000000 		.4byte	0
 8998 0310 00000000 		.4byte	0
 8999              	.LLST9:
 9000 0314 00000000 		.4byte	.LVL93
 9001 0318 06000000 		.4byte	.LVL94
 9002 031c 0100     		.2byte	0x1
 9003 031e 51       		.byte	0x51
 9004 031f 06000000 		.4byte	.LVL94
 9005 0323 16000000 		.4byte	.LVL98
 9006 0327 0100     		.2byte	0x1
 9007 0329 54       		.byte	0x54
 9008 032a 16000000 		.4byte	.LVL98
 9009 032e 20000000 		.4byte	.LFE105
 9010 0332 0400     		.2byte	0x4
 9011 0334 F3       		.byte	0xf3
 9012 0335 01       		.uleb128 0x1
 9013 0336 51       		.byte	0x51
 9014 0337 9F       		.byte	0x9f
 9015 0338 00000000 		.4byte	0
 9016 033c 00000000 		.4byte	0
 9017              	.LLST10:
 9018 0340 0C000000 		.4byte	.LVL96
 9019 0344 13000000 		.4byte	.LVL97-1
 9020 0348 0100     		.2byte	0x1
 9021 034a 50       		.byte	0x50
 9022 034b 00000000 		.4byte	0
 9023 034f 00000000 		.4byte	0
 9024              	.LLST11:
 9025 0353 00000000 		.4byte	.LVL99
 9026 0357 36010000 		.4byte	.LVL136
ARM GAS  C:\Users\samue\AppData\Local\Temp\ccm0rw4c.s 			page 189


 9027 035b 0200     		.2byte	0x2
 9028 035d 91       		.byte	0x91
 9029 035e 08       		.sleb128 8
 9030 035f 36010000 		.4byte	.LVL136
 9031 0363 48010000 		.4byte	.LVL139
 9032 0367 0200     		.2byte	0x2
 9033 0369 31       		.byte	0x31
 9034 036a 9F       		.byte	0x9f
 9035 036b 48010000 		.4byte	.LVL139
 9036 036f 4E010000 		.4byte	.LVL140
 9037 0373 0200     		.2byte	0x2
 9038 0375 91       		.byte	0x91
 9039 0376 08       		.sleb128 8
 9040 0377 4E010000 		.4byte	.LVL140
 9041 037b 5E010000 		.4byte	.LVL143
 9042 037f 0200     		.2byte	0x2
 9043 0381 30       		.byte	0x30
 9044 0382 9F       		.byte	0x9f
 9045 0383 5E010000 		.4byte	.LVL143
 9046 0387 66010000 		.4byte	.LVL144
 9047 038b 0100     		.2byte	0x1
 9048 038d 56       		.byte	0x56
 9049 038e 66010000 		.4byte	.LVL144
 9050 0392 9C010000 		.4byte	.LFE108
 9051 0396 0100     		.2byte	0x1
 9052 0398 50       		.byte	0x50
 9053 0399 00000000 		.4byte	0
 9054 039d 00000000 		.4byte	0
 9055              	.LLST12:
 9056 03a1 10000000 		.4byte	.LVL100
 9057 03a5 D2000000 		.4byte	.LVL120
 9058 03a9 0600     		.2byte	0x6
 9059 03ab 9E       		.byte	0x9e
 9060 03ac 04       		.uleb128 0x4
 9061 03ad 00000000 		.4byte	0
 9062 03b1 D2000000 		.4byte	.LVL120
 9063 03b5 D7000000 		.4byte	.LVL121-1
 9064 03b9 0100     		.2byte	0x1
 9065 03bb 50       		.byte	0x50
 9066 03bc 00000000 		.4byte	0
 9067 03c0 00000000 		.4byte	0
 9068              	.LLST13:
 9069 03c4 E6000000 		.4byte	.LVL124
 9070 03c8 EA000000 		.4byte	.LVL125
 9071 03cc 0100     		.2byte	0x1
 9072 03ce 50       		.byte	0x50
 9073 03cf EA000000 		.4byte	.LVL125
 9074 03d3 66010000 		.4byte	.LVL144
 9075 03d7 0100     		.2byte	0x1
 9076 03d9 55       		.byte	0x55
 9077 03da 00000000 		.4byte	0
 9078 03de 00000000 		.4byte	0
 9079              	.LLST14:
 9080 03e2 F4000000 		.4byte	.LVL128
 9081 03e6 00010000 		.4byte	.LVL130
 9082 03ea 0100     		.2byte	0x1
 9083 03ec 50       		.byte	0x50
ARM GAS  C:\Users\samue\AppData\Local\Temp\ccm0rw4c.s 			page 190


 9084 03ed 00010000 		.4byte	.LVL130
 9085 03f1 66010000 		.4byte	.LVL144
 9086 03f5 0100     		.2byte	0x1
 9087 03f7 54       		.byte	0x54
 9088 03f8 00000000 		.4byte	0
 9089 03fc 00000000 		.4byte	0
 9090              	.LLST15:
 9091 0400 0A000000 		.4byte	.LVL145
 9092 0404 CC000000 		.4byte	.LVL165
 9093 0408 0600     		.2byte	0x6
 9094 040a 9E       		.byte	0x9e
 9095 040b 04       		.uleb128 0x4
 9096 040c 00000000 		.4byte	0
 9097 0410 CC000000 		.4byte	.LVL165
 9098 0414 D1000000 		.4byte	.LVL166-1
 9099 0418 0100     		.2byte	0x1
 9100 041a 50       		.byte	0x50
 9101 041b 00000000 		.4byte	0
 9102 041f 00000000 		.4byte	0
 9103              	.LLST16:
 9104 0423 E0000000 		.4byte	.LVL169
 9105 0427 E4000000 		.4byte	.LVL170
 9106 042b 0100     		.2byte	0x1
 9107 042d 50       		.byte	0x50
 9108 042e E4000000 		.4byte	.LVL170
 9109 0432 16010000 		.4byte	.LVL180
 9110 0436 0100     		.2byte	0x1
 9111 0438 55       		.byte	0x55
 9112 0439 00000000 		.4byte	0
 9113 043d 00000000 		.4byte	0
 9114              	.LLST17:
 9115 0441 EE000000 		.4byte	.LVL173
 9116 0445 FA000000 		.4byte	.LVL175
 9117 0449 0100     		.2byte	0x1
 9118 044b 50       		.byte	0x50
 9119 044c FA000000 		.4byte	.LVL175
 9120 0450 16010000 		.4byte	.LVL180
 9121 0454 0100     		.2byte	0x1
 9122 0456 54       		.byte	0x54
 9123 0457 00000000 		.4byte	0
 9124 045b 00000000 		.4byte	0
 9125              	.LLST18:
 9126 045f 0A000000 		.4byte	.LVL181
 9127 0463 CE000000 		.4byte	.LVL202
 9128 0467 0600     		.2byte	0x6
 9129 0469 9E       		.byte	0x9e
 9130 046a 04       		.uleb128 0x4
 9131 046b 00000000 		.4byte	0
 9132 046f CE000000 		.4byte	.LVL202
 9133 0473 D3000000 		.4byte	.LVL203-1
 9134 0477 0100     		.2byte	0x1
 9135 0479 50       		.byte	0x50
 9136 047a D3000000 		.4byte	.LVL203-1
 9137 047e F0000000 		.4byte	.LVL207
 9138 0482 0100     		.2byte	0x1
 9139 0484 54       		.byte	0x54
 9140 0485 F0000000 		.4byte	.LVL207
ARM GAS  C:\Users\samue\AppData\Local\Temp\ccm0rw4c.s 			page 191


 9141 0489 0C010000 		.4byte	.LFE110
 9142 048d 0100     		.2byte	0x1
 9143 048f 50       		.byte	0x50
 9144 0490 00000000 		.4byte	0
 9145 0494 00000000 		.4byte	0
 9146              	.LLST19:
 9147 0498 0A000000 		.4byte	.LVL181
 9148 049c CE000000 		.4byte	.LVL202
 9149 04a0 0200     		.2byte	0x2
 9150 04a2 30       		.byte	0x30
 9151 04a3 9F       		.byte	0x9f
 9152 04a4 E0000000 		.4byte	.LVL204
 9153 04a8 E3000000 		.4byte	.LVL205-1
 9154 04ac 0100     		.2byte	0x1
 9155 04ae 50       		.byte	0x50
 9156 04af 00000000 		.4byte	0
 9157 04b3 00000000 		.4byte	0
 9158              	.LLST20:
 9159 04b7 0A000000 		.4byte	.LVL181
 9160 04bb CE000000 		.4byte	.LVL202
 9161 04bf 0200     		.2byte	0x2
 9162 04c1 30       		.byte	0x30
 9163 04c2 9F       		.byte	0x9f
 9164 04c3 E0000000 		.4byte	.LVL204
 9165 04c7 F0000000 		.4byte	.LVL207
 9166 04cb 0100     		.2byte	0x1
 9167 04cd 55       		.byte	0x55
 9168 04ce 00000000 		.4byte	0
 9169 04d2 00000000 		.4byte	0
 9170              	.LLST21:
 9171 04d6 10000000 		.4byte	.LVL210
 9172 04da 16000000 		.4byte	.LVL211
 9173 04de 0100     		.2byte	0x1
 9174 04e0 50       		.byte	0x50
 9175 04e1 16000000 		.4byte	.LVL211
 9176 04e5 19000000 		.4byte	.LVL212-1
 9177 04e9 0100     		.2byte	0x1
 9178 04eb 52       		.byte	0x52
 9179 04ec 19000000 		.4byte	.LVL212-1
 9180 04f0 3E000000 		.4byte	.LVL216
 9181 04f4 0100     		.2byte	0x1
 9182 04f6 54       		.byte	0x54
 9183 04f7 3E000000 		.4byte	.LVL216
 9184 04fb 4C000000 		.4byte	.LFE91
 9185 04ff 0100     		.2byte	0x1
 9186 0501 50       		.byte	0x50
 9187 0502 00000000 		.4byte	0
 9188 0506 00000000 		.4byte	0
 9189              	.LLST22:
 9190 050a 00000000 		.4byte	.LVL217
 9191 050e 08000000 		.4byte	.LVL218
 9192 0512 0100     		.2byte	0x1
 9193 0514 50       		.byte	0x50
 9194 0515 08000000 		.4byte	.LVL218
 9195 0519 4C000000 		.4byte	.LVL226
 9196 051d 0100     		.2byte	0x1
 9197 051f 54       		.byte	0x54
ARM GAS  C:\Users\samue\AppData\Local\Temp\ccm0rw4c.s 			page 192


 9198 0520 4C000000 		.4byte	.LVL226
 9199 0524 54000000 		.4byte	.LFE98
 9200 0528 0400     		.2byte	0x4
 9201 052a F3       		.byte	0xf3
 9202 052b 01       		.uleb128 0x1
 9203 052c 50       		.byte	0x50
 9204 052d 9F       		.byte	0x9f
 9205 052e 00000000 		.4byte	0
 9206 0532 00000000 		.4byte	0
 9207              	.LLST23:
 9208 0536 10000000 		.4byte	.LVL228
 9209 053a 16000000 		.4byte	.LVL229
 9210 053e 0100     		.2byte	0x1
 9211 0540 50       		.byte	0x50
 9212 0541 16000000 		.4byte	.LVL229
 9213 0545 19000000 		.4byte	.LVL230-1
 9214 0549 0100     		.2byte	0x1
 9215 054b 52       		.byte	0x52
 9216 054c 19000000 		.4byte	.LVL230-1
 9217 0550 36000000 		.4byte	.LVL233
 9218 0554 0100     		.2byte	0x1
 9219 0556 54       		.byte	0x54
 9220 0557 36000000 		.4byte	.LVL233
 9221 055b 40000000 		.4byte	.LFE99
 9222 055f 0100     		.2byte	0x1
 9223 0561 50       		.byte	0x50
 9224 0562 00000000 		.4byte	0
 9225 0566 00000000 		.4byte	0
 9226              	.LLST24:
 9227 056a 00000000 		.4byte	.LVL234
 9228 056e 08000000 		.4byte	.LVL235
 9229 0572 0100     		.2byte	0x1
 9230 0574 50       		.byte	0x50
 9231 0575 08000000 		.4byte	.LVL235
 9232 0579 54000000 		.4byte	.LVL245
 9233 057d 0100     		.2byte	0x1
 9234 057f 56       		.byte	0x56
 9235 0580 54000000 		.4byte	.LVL245
 9236 0584 60000000 		.4byte	.LFE100
 9237 0588 0400     		.2byte	0x4
 9238 058a F3       		.byte	0xf3
 9239 058b 01       		.uleb128 0x1
 9240 058c 50       		.byte	0x50
 9241 058d 9F       		.byte	0x9f
 9242 058e 00000000 		.4byte	0
 9243 0592 00000000 		.4byte	0
 9244              	.LLST25:
 9245 0596 36000000 		.4byte	.LVL240
 9246 059a 3E000000 		.4byte	.LVL241
 9247 059e 0100     		.2byte	0x1
 9248 05a0 50       		.byte	0x50
 9249 05a1 3E000000 		.4byte	.LVL241
 9250 05a5 41000000 		.4byte	.LVL242-1
 9251 05a9 0100     		.2byte	0x1
 9252 05ab 52       		.byte	0x52
 9253 05ac 41000000 		.4byte	.LVL242-1
 9254 05b0 54000000 		.4byte	.LVL245
ARM GAS  C:\Users\samue\AppData\Local\Temp\ccm0rw4c.s 			page 193


 9255 05b4 0100     		.2byte	0x1
 9256 05b6 55       		.byte	0x55
 9257 05b7 00000000 		.4byte	0
 9258 05bb 00000000 		.4byte	0
 9259              	.LLST26:
 9260 05bf 22000000 		.4byte	.LVL250
 9261 05c3 26000000 		.4byte	.LVL251
 9262 05c7 0100     		.2byte	0x1
 9263 05c9 50       		.byte	0x50
 9264 05ca 26000000 		.4byte	.LVL251
 9265 05ce 58000000 		.4byte	.LVL256
 9266 05d2 0100     		.2byte	0x1
 9267 05d4 55       		.byte	0x55
 9268 05d5 00000000 		.4byte	0
 9269 05d9 00000000 		.4byte	0
 9270              	.LLST27:
 9271 05dd 04000000 		.4byte	.LVL246
 9272 05e1 26000000 		.4byte	.LVL251
 9273 05e5 0200     		.2byte	0x2
 9274 05e7 30       		.byte	0x30
 9275 05e8 9F       		.byte	0x9f
 9276 05e9 26000000 		.4byte	.LVL251
 9277 05ed 58000000 		.4byte	.LVL256
 9278 05f1 0100     		.2byte	0x1
 9279 05f3 54       		.byte	0x54
 9280 05f4 00000000 		.4byte	0
 9281 05f8 00000000 		.4byte	0
 9282              	.LLST28:
 9283 05fc 00000000 		.4byte	.LVL272
 9284 0600 0B000000 		.4byte	.LVL273-1
 9285 0604 0100     		.2byte	0x1
 9286 0606 50       		.byte	0x50
 9287 0607 0B000000 		.4byte	.LVL273-1
 9288 060b 30000000 		.4byte	.LFE115
 9289 060f 0600     		.2byte	0x6
 9290 0611 F3       		.byte	0xf3
 9291 0612 03       		.uleb128 0x3
 9292 0613 F5       		.byte	0xf5
 9293 0614 00       		.uleb128 0
 9294 0615 25       		.uleb128 0x25
 9295 0616 9F       		.byte	0x9f
 9296 0617 00000000 		.4byte	0
 9297 061b 00000000 		.4byte	0
 9298              	.LLST29:
 9299 061f 00000000 		.4byte	.LVL272
 9300 0623 0B000000 		.4byte	.LVL273-1
 9301 0627 0100     		.2byte	0x1
 9302 0629 51       		.byte	0x51
 9303 062a 0B000000 		.4byte	.LVL273-1
 9304 062e 16000000 		.4byte	.LVL275
 9305 0632 0100     		.2byte	0x1
 9306 0634 54       		.byte	0x54
 9307 0635 16000000 		.4byte	.LVL275
 9308 0639 30000000 		.4byte	.LFE115
 9309 063d 0600     		.2byte	0x6
 9310 063f F3       		.byte	0xf3
 9311 0640 03       		.uleb128 0x3
ARM GAS  C:\Users\samue\AppData\Local\Temp\ccm0rw4c.s 			page 194


 9312 0641 F5       		.byte	0xf5
 9313 0642 01       		.uleb128 0x1
 9314 0643 25       		.uleb128 0x25
 9315 0644 9F       		.byte	0x9f
 9316 0645 00000000 		.4byte	0
 9317 0649 00000000 		.4byte	0
 9318              	.LLST30:
 9319 064d 00000000 		.4byte	.LVL272
 9320 0651 0B000000 		.4byte	.LVL273-1
 9321 0655 0100     		.2byte	0x1
 9322 0657 52       		.byte	0x52
 9323 0658 0B000000 		.4byte	.LVL273-1
 9324 065c 30000000 		.4byte	.LFE115
 9325 0660 0100     		.2byte	0x1
 9326 0662 55       		.byte	0x55
 9327 0663 00000000 		.4byte	0
 9328 0667 00000000 		.4byte	0
 9329              	.LLST31:
 9330 066b 00000000 		.4byte	.LVL272
 9331 066f 0B000000 		.4byte	.LVL273-1
 9332 0673 0100     		.2byte	0x1
 9333 0675 53       		.byte	0x53
 9334 0676 0B000000 		.4byte	.LVL273-1
 9335 067a 30000000 		.4byte	.LFE115
 9336 067e 0100     		.2byte	0x1
 9337 0680 56       		.byte	0x56
 9338 0681 00000000 		.4byte	0
 9339 0685 00000000 		.4byte	0
 9340              	.LLST32:
 9341 0689 16000000 		.4byte	.LVL275
 9342 068d 18000000 		.4byte	.LVL276
 9343 0691 0100     		.2byte	0x1
 9344 0693 50       		.byte	0x50
 9345 0694 18000000 		.4byte	.LVL276
 9346 0698 30000000 		.4byte	.LFE115
 9347 069c 0100     		.2byte	0x1
 9348 069e 54       		.byte	0x54
 9349 069f 00000000 		.4byte	0
 9350 06a3 00000000 		.4byte	0
 9351              	.LLST33:
 9352 06a7 20000000 		.4byte	.LVL277
 9353 06ab 24000000 		.4byte	.LVL278
 9354 06af 0100     		.2byte	0x1
 9355 06b1 50       		.byte	0x50
 9356 06b2 24000000 		.4byte	.LVL278
 9357 06b6 27000000 		.4byte	.LVL279-1
 9358 06ba 0100     		.2byte	0x1
 9359 06bc 51       		.byte	0x51
 9360 06bd 00000000 		.4byte	0
 9361 06c1 00000000 		.4byte	0
 9362              	.LLST34:
 9363 06c5 00000000 		.4byte	.LVL281
 9364 06c9 06000000 		.4byte	.LVL282
 9365 06cd 0100     		.2byte	0x1
 9366 06cf 50       		.byte	0x50
 9367 06d0 06000000 		.4byte	.LVL282
 9368 06d4 18000000 		.4byte	.LFE116
ARM GAS  C:\Users\samue\AppData\Local\Temp\ccm0rw4c.s 			page 195


 9369 06d8 0100     		.2byte	0x1
 9370 06da 54       		.byte	0x54
 9371 06db 00000000 		.4byte	0
 9372 06df 00000000 		.4byte	0
 9373              	.LLST35:
 9374 06e3 00000000 		.4byte	.LVL286
 9375 06e7 0D000000 		.4byte	.LVL287-1
 9376 06eb 0100     		.2byte	0x1
 9377 06ed 50       		.byte	0x50
 9378 06ee 0D000000 		.4byte	.LVL287-1
 9379 06f2 74000000 		.4byte	.LFE117
 9380 06f6 0100     		.2byte	0x1
 9381 06f8 59       		.byte	0x59
 9382 06f9 00000000 		.4byte	0
 9383 06fd 00000000 		.4byte	0
 9384              	.LLST36:
 9385 0701 00000000 		.4byte	.LVL286
 9386 0705 0D000000 		.4byte	.LVL287-1
 9387 0709 0100     		.2byte	0x1
 9388 070b 51       		.byte	0x51
 9389 070c 0D000000 		.4byte	.LVL287-1
 9390 0710 74000000 		.4byte	.LFE117
 9391 0714 0100     		.2byte	0x1
 9392 0716 57       		.byte	0x57
 9393 0717 00000000 		.4byte	0
 9394 071b 00000000 		.4byte	0
 9395              	.LLST37:
 9396 071f 00000000 		.4byte	.LVL286
 9397 0723 0D000000 		.4byte	.LVL287-1
 9398 0727 0100     		.2byte	0x1
 9399 0729 52       		.byte	0x52
 9400 072a 0D000000 		.4byte	.LVL287-1
 9401 072e 74000000 		.4byte	.LFE117
 9402 0732 0100     		.2byte	0x1
 9403 0734 58       		.byte	0x58
 9404 0735 00000000 		.4byte	0
 9405 0739 00000000 		.4byte	0
 9406              	.LLST38:
 9407 073d 10000000 		.4byte	.LVL288
 9408 0741 14000000 		.4byte	.LVL289
 9409 0745 0100     		.2byte	0x1
 9410 0747 50       		.byte	0x50
 9411 0748 14000000 		.4byte	.LVL289
 9412 074c 74000000 		.4byte	.LFE117
 9413 0750 0100     		.2byte	0x1
 9414 0752 56       		.byte	0x56
 9415 0753 00000000 		.4byte	0
 9416 0757 00000000 		.4byte	0
 9417              	.LLST39:
 9418 075b 10000000 		.4byte	.LVL288
 9419 075f 14000000 		.4byte	.LVL289
 9420 0763 0200     		.2byte	0x2
 9421 0765 30       		.byte	0x30
 9422 0766 9F       		.byte	0x9f
 9423 0767 1C000000 		.4byte	.LVL290
 9424 076b 68000000 		.4byte	.LVL300
 9425 076f 0100     		.2byte	0x1
ARM GAS  C:\Users\samue\AppData\Local\Temp\ccm0rw4c.s 			page 196


 9426 0771 55       		.byte	0x55
 9427 0772 00000000 		.4byte	0
 9428 0776 00000000 		.4byte	0
 9429              	.LLST40:
 9430 077a 10000000 		.4byte	.LVL288
 9431 077e 14000000 		.4byte	.LVL289
 9432 0782 0200     		.2byte	0x2
 9433 0784 30       		.byte	0x30
 9434 0785 9F       		.byte	0x9f
 9435 0786 40000000 		.4byte	.LVL291
 9436 078a 44000000 		.4byte	.LVL292
 9437 078e 0200     		.2byte	0x2
 9438 0790 31       		.byte	0x31
 9439 0791 9F       		.byte	0x9f
 9440 0792 4C000000 		.4byte	.LVL293
 9441 0796 50000000 		.4byte	.LVL294
 9442 079a 0200     		.2byte	0x2
 9443 079c 31       		.byte	0x31
 9444 079d 9F       		.byte	0x9f
 9445 079e 50000000 		.4byte	.LVL294
 9446 07a2 54000000 		.4byte	.LVL295
 9447 07a6 0200     		.2byte	0x2
 9448 07a8 30       		.byte	0x30
 9449 07a9 9F       		.byte	0x9f
 9450 07aa 56000000 		.4byte	.LVL296
 9451 07ae 62000000 		.4byte	.LVL298
 9452 07b2 0100     		.2byte	0x1
 9453 07b4 50       		.byte	0x50
 9454 07b5 00000000 		.4byte	0
 9455 07b9 00000000 		.4byte	0
 9456              	.LLST41:
 9457 07bd 10000000 		.4byte	.LVL288
 9458 07c1 14000000 		.4byte	.LVL289
 9459 07c5 0200     		.2byte	0x2
 9460 07c7 30       		.byte	0x30
 9461 07c8 9F       		.byte	0x9f
 9462 07c9 14000000 		.4byte	.LVL289
 9463 07cd 74000000 		.4byte	.LFE117
 9464 07d1 0100     		.2byte	0x1
 9465 07d3 54       		.byte	0x54
 9466 07d4 00000000 		.4byte	0
 9467 07d8 00000000 		.4byte	0
 9468              	.LLST42:
 9469 07dc 0E000000 		.4byte	.LVL301
 9470 07e0 12000000 		.4byte	.LVL302
 9471 07e4 0200     		.2byte	0x2
 9472 07e6 30       		.byte	0x30
 9473 07e7 9F       		.byte	0x9f
 9474 07e8 12000000 		.4byte	.LVL302
 9475 07ec 36000000 		.4byte	.LVL305
 9476 07f0 0100     		.2byte	0x1
 9477 07f2 54       		.byte	0x54
 9478 07f3 00000000 		.4byte	0
 9479 07f7 00000000 		.4byte	0
 9480              	.LLST43:
 9481 07fb 04000000 		.4byte	.LVL315
 9482 07ff 08000000 		.4byte	.LVL316
ARM GAS  C:\Users\samue\AppData\Local\Temp\ccm0rw4c.s 			page 197


 9483 0803 0600     		.2byte	0x6
 9484 0805 9E       		.byte	0x9e
 9485 0806 04       		.uleb128 0x4
 9486 0807 00000000 		.4byte	0
 9487 080b 08000000 		.4byte	.LVL316
 9488 080f 24000000 		.4byte	.LVL321
 9489 0813 0100     		.2byte	0x1
 9490 0815 54       		.byte	0x54
 9491 0816 24000000 		.4byte	.LVL321
 9492 081a 3F000000 		.4byte	.LVL322-1
 9493 081e 0100     		.2byte	0x1
 9494 0820 50       		.byte	0x50
 9495 0821 3F000000 		.4byte	.LVL322-1
 9496 0825 42000000 		.4byte	.LVL323
 9497 0829 0100     		.2byte	0x1
 9498 082b 54       		.byte	0x54
 9499 082c 42000000 		.4byte	.LVL323
 9500 0830 46000000 		.4byte	.LVL324
 9501 0834 0100     		.2byte	0x1
 9502 0836 50       		.byte	0x50
 9503 0837 46000000 		.4byte	.LVL324
 9504 083b 9E000000 		.4byte	.LVL337
 9505 083f 0100     		.2byte	0x1
 9506 0841 56       		.byte	0x56
 9507 0842 9E000000 		.4byte	.LVL337
 9508 0846 A6000000 		.4byte	.LVL339
 9509 084a 0600     		.2byte	0x6
 9510 084c 9E       		.byte	0x9e
 9511 084d 04       		.uleb128 0x4
 9512 084e 00000000 		.4byte	0
 9513 0852 A6000000 		.4byte	.LVL339
 9514 0856 B8000000 		.4byte	.LFE121
 9515 085a 0100     		.2byte	0x1
 9516 085c 54       		.byte	0x54
 9517 085d 00000000 		.4byte	0
 9518 0861 00000000 		.4byte	0
 9519              	.LLST44:
 9520 0865 04000000 		.4byte	.LVL315
 9521 0869 08000000 		.4byte	.LVL316
 9522 086d 0200     		.2byte	0x2
 9523 086f 30       		.byte	0x30
 9524 0870 9F       		.byte	0x9f
 9525 0871 08000000 		.4byte	.LVL316
 9526 0875 B8000000 		.4byte	.LFE121
 9527 0879 0100     		.2byte	0x1
 9528 087b 57       		.byte	0x57
 9529 087c 00000000 		.4byte	0
 9530 0880 00000000 		.4byte	0
 9531              	.LLST45:
 9532 0884 42000000 		.4byte	.LVL323
 9533 0888 46000000 		.4byte	.LVL324
 9534 088c 0300     		.2byte	0x3
 9535 088e 08       		.byte	0x8
 9536 088f 28       		.byte	0x28
 9537 0890 9F       		.byte	0x9f
 9538 0891 46000000 		.4byte	.LVL324
 9539 0895 78000000 		.4byte	.LVL331
ARM GAS  C:\Users\samue\AppData\Local\Temp\ccm0rw4c.s 			page 198


 9540 0899 0100     		.2byte	0x1
 9541 089b 54       		.byte	0x54
 9542 089c 00000000 		.4byte	0
 9543 08a0 00000000 		.4byte	0
 9544              	.LLST46:
 9545 08a4 78000000 		.4byte	.LVL331
 9546 08a8 A6000000 		.4byte	.LVL339
 9547 08ac 0100     		.2byte	0x1
 9548 08ae 54       		.byte	0x54
 9549 08af 00000000 		.4byte	0
 9550 08b3 00000000 		.4byte	0
 9551              	.LLST47:
 9552 08b7 00000000 		.4byte	.LVL349
 9553 08bb 06000000 		.4byte	.LVL351
 9554 08bf 0100     		.2byte	0x1
 9555 08c1 50       		.byte	0x50
 9556 08c2 06000000 		.4byte	.LVL351
 9557 08c6 2A000000 		.4byte	.LFE123
 9558 08ca 0100     		.2byte	0x1
 9559 08cc 54       		.byte	0x54
 9560 08cd 00000000 		.4byte	0
 9561 08d1 00000000 		.4byte	0
 9562              	.LLST48:
 9563 08d5 0C000000 		.4byte	.LVL378
 9564 08d9 18000000 		.4byte	.LVL379
 9565 08dd 0400     		.2byte	0x4
 9566 08df 0A       		.byte	0xa
 9567 08e0 1027     		.2byte	0x2710
 9568 08e2 9F       		.byte	0x9f
 9569 08e3 18000000 		.4byte	.LVL379
 9570 08e7 00010000 		.4byte	.LFE102
 9571 08eb 0100     		.2byte	0x1
 9572 08ed 55       		.byte	0x55
 9573 08ee 00000000 		.4byte	0
 9574 08f2 00000000 		.4byte	0
 9575              	.LLST49:
 9576 08f6 0C000000 		.4byte	.LVL378
 9577 08fa 18000000 		.4byte	.LVL379
 9578 08fe 0200     		.2byte	0x2
 9579 0900 30       		.byte	0x30
 9580 0901 9F       		.byte	0x9f
 9581 0902 18000000 		.4byte	.LVL379
 9582 0906 00010000 		.4byte	.LFE102
 9583 090a 0100     		.2byte	0x1
 9584 090c 57       		.byte	0x57
 9585 090d 00000000 		.4byte	0
 9586 0911 00000000 		.4byte	0
 9587              	.LLST50:
 9588 0915 0C000000 		.4byte	.LVL378
 9589 0919 18000000 		.4byte	.LVL379
 9590 091d 0300     		.2byte	0x3
 9591 091f 09       		.byte	0x9
 9592 0920 FF       		.byte	0xff
 9593 0921 9F       		.byte	0x9f
 9594 0922 18000000 		.4byte	.LVL379
 9595 0926 00010000 		.4byte	.LFE102
 9596 092a 0100     		.2byte	0x1
ARM GAS  C:\Users\samue\AppData\Local\Temp\ccm0rw4c.s 			page 199


 9597 092c 56       		.byte	0x56
 9598 092d 00000000 		.4byte	0
 9599 0931 00000000 		.4byte	0
 9600              	.LLST51:
 9601 0935 0C000000 		.4byte	.LVL378
 9602 0939 18000000 		.4byte	.LVL379
 9603 093d 0400     		.2byte	0x4
 9604 093f 0A       		.byte	0xa
 9605 0940 1027     		.2byte	0x2710
 9606 0942 9F       		.byte	0x9f
 9607 0943 18000000 		.4byte	.LVL379
 9608 0947 00010000 		.4byte	.LFE102
 9609 094b 0100     		.2byte	0x1
 9610 094d 58       		.byte	0x58
 9611 094e 00000000 		.4byte	0
 9612 0952 00000000 		.4byte	0
 9613              	.LLST52:
 9614 0956 18000000 		.4byte	.LVL379
 9615 095a 1C000000 		.4byte	.LVL380
 9616 095e 0200     		.2byte	0x2
 9617 0960 30       		.byte	0x30
 9618 0961 9F       		.byte	0x9f
 9619 0962 1C000000 		.4byte	.LVL380
 9620 0966 00010000 		.4byte	.LFE102
 9621 096a 0100     		.2byte	0x1
 9622 096c 54       		.byte	0x54
 9623 096d 00000000 		.4byte	0
 9624 0971 00000000 		.4byte	0
 9625              	.LLST53:
 9626 0975 00000000 		.4byte	.LVL403
 9627 0979 12000000 		.4byte	.LVL406
 9628 097d 0100     		.2byte	0x1
 9629 097f 50       		.byte	0x50
 9630 0980 12000000 		.4byte	.LVL406
 9631 0984 84000000 		.4byte	.LVL415
 9632 0988 0100     		.2byte	0x1
 9633 098a 54       		.byte	0x54
 9634 098b 84000000 		.4byte	.LVL415
 9635 098f 8C000000 		.4byte	.LFE104
 9636 0993 0100     		.2byte	0x1
 9637 0995 50       		.byte	0x50
 9638 0996 00000000 		.4byte	0
 9639 099a 00000000 		.4byte	0
 9640              	.LLST54:
 9641 099e 00000000 		.4byte	.LVL403
 9642 09a2 0A000000 		.4byte	.LVL404
 9643 09a6 0100     		.2byte	0x1
 9644 09a8 51       		.byte	0x51
 9645 09a9 0A000000 		.4byte	.LVL404
 9646 09ad 84000000 		.4byte	.LVL415
 9647 09b1 0100     		.2byte	0x1
 9648 09b3 55       		.byte	0x55
 9649 09b4 84000000 		.4byte	.LVL415
 9650 09b8 8C000000 		.4byte	.LFE104
 9651 09bc 0400     		.2byte	0x4
 9652 09be F3       		.byte	0xf3
 9653 09bf 01       		.uleb128 0x1
ARM GAS  C:\Users\samue\AppData\Local\Temp\ccm0rw4c.s 			page 200


 9654 09c0 51       		.byte	0x51
 9655 09c1 9F       		.byte	0x9f
 9656 09c2 00000000 		.4byte	0
 9657 09c6 00000000 		.4byte	0
 9658              	.LLST55:
 9659 09ca 6A000000 		.4byte	.LVL411
 9660 09ce 74000000 		.4byte	.LVL412
 9661 09d2 0100     		.2byte	0x1
 9662 09d4 53       		.byte	0x53
 9663 09d5 78000000 		.4byte	.LVL413
 9664 09d9 7C000000 		.4byte	.LVL414
 9665 09dd 0100     		.2byte	0x1
 9666 09df 53       		.byte	0x53
 9667 09e0 00000000 		.4byte	0
 9668 09e4 00000000 		.4byte	0
 9669              	.LLST56:
 9670 09e8 0E000000 		.4byte	.LVL405
 9671 09ec 12000000 		.4byte	.LVL406
 9672 09f0 0200     		.2byte	0x2
 9673 09f2 30       		.byte	0x30
 9674 09f3 9F       		.byte	0x9f
 9675 09f4 12000000 		.4byte	.LVL406
 9676 09f8 84000000 		.4byte	.LVL415
 9677 09fc 0100     		.2byte	0x1
 9678 09fe 56       		.byte	0x56
 9679 09ff 00000000 		.4byte	0
 9680 0a03 00000000 		.4byte	0
 9681              	.LLST57:
 9682 0a07 00000000 		.4byte	.LVL416
 9683 0a0b 08000000 		.4byte	.LVL417
 9684 0a0f 0100     		.2byte	0x1
 9685 0a11 50       		.byte	0x50
 9686 0a12 08000000 		.4byte	.LVL417
 9687 0a16 18000000 		.4byte	.LVL420
 9688 0a1a 0100     		.2byte	0x1
 9689 0a1c 54       		.byte	0x54
 9690 0a1d 18000000 		.4byte	.LVL420
 9691 0a21 2E000000 		.4byte	.LFE124
 9692 0a25 0400     		.2byte	0x4
 9693 0a27 F3       		.byte	0xf3
 9694 0a28 01       		.uleb128 0x1
 9695 0a29 50       		.byte	0x50
 9696 0a2a 9F       		.byte	0x9f
 9697 0a2b 00000000 		.4byte	0
 9698 0a2f 00000000 		.4byte	0
 9699              	.LLST58:
 9700 0a33 00000000 		.4byte	.LVL416
 9701 0a37 0B000000 		.4byte	.LVL418-1
 9702 0a3b 0100     		.2byte	0x1
 9703 0a3d 51       		.byte	0x51
 9704 0a3e 0B000000 		.4byte	.LVL418-1
 9705 0a42 2E000000 		.4byte	.LFE124
 9706 0a46 0100     		.2byte	0x1
 9707 0a48 55       		.byte	0x55
 9708 0a49 00000000 		.4byte	0
 9709 0a4d 00000000 		.4byte	0
 9710              	.LLST59:
ARM GAS  C:\Users\samue\AppData\Local\Temp\ccm0rw4c.s 			page 201


 9711 0a51 1C000000 		.4byte	.LVL424
 9712 0a55 38000000 		.4byte	.LVL428
 9713 0a59 0200     		.2byte	0x2
 9714 0a5b 30       		.byte	0x30
 9715 0a5c 9F       		.byte	0x9f
 9716 0a5d 38000000 		.4byte	.LVL428
 9717 0a61 48000000 		.4byte	.LVL429
 9718 0a65 0100     		.2byte	0x1
 9719 0a67 50       		.byte	0x50
 9720 0a68 48000000 		.4byte	.LVL429
 9721 0a6c A2010000 		.4byte	.LVL478
 9722 0a70 0300     		.2byte	0x3
 9723 0a72 91       		.byte	0x91
 9724 0a73 B47F     		.sleb128 -76
 9725 0a75 A2010000 		.4byte	.LVL478
 9726 0a79 B8010000 		.4byte	.LFE86
 9727 0a7d 0300     		.2byte	0x3
 9728 0a7f 7D       		.byte	0x7d
 9729 0a80 B47F     		.sleb128 -76
 9730 0a82 00000000 		.4byte	0
 9731 0a86 00000000 		.4byte	0
 9732              	.LLST60:
 9733 0a8a 1C000000 		.4byte	.LVL424
 9734 0a8e 48000000 		.4byte	.LVL429
 9735 0a92 0200     		.2byte	0x2
 9736 0a94 30       		.byte	0x30
 9737 0a95 9F       		.byte	0x9f
 9738 0a96 48000000 		.4byte	.LVL429
 9739 0a9a A2010000 		.4byte	.LVL478
 9740 0a9e 0100     		.2byte	0x1
 9741 0aa0 56       		.byte	0x56
 9742 0aa1 00000000 		.4byte	0
 9743 0aa5 00000000 		.4byte	0
 9744              	.LLST61:
 9745 0aa9 1C000000 		.4byte	.LVL424
 9746 0aad 48000000 		.4byte	.LVL429
 9747 0ab1 0300     		.2byte	0x3
 9748 0ab3 09       		.byte	0x9
 9749 0ab4 FF       		.byte	0xff
 9750 0ab5 9F       		.byte	0x9f
 9751 0ab6 48000000 		.4byte	.LVL429
 9752 0aba BC000000 		.4byte	.LVL448
 9753 0abe 0100     		.2byte	0x1
 9754 0ac0 57       		.byte	0x57
 9755 0ac1 BE000000 		.4byte	.LVL449
 9756 0ac5 A2010000 		.4byte	.LVL478
 9757 0ac9 0100     		.2byte	0x1
 9758 0acb 57       		.byte	0x57
 9759 0acc 00000000 		.4byte	0
 9760 0ad0 00000000 		.4byte	0
 9761              	.LLST62:
 9762 0ad4 1C000000 		.4byte	.LVL424
 9763 0ad8 48000000 		.4byte	.LVL429
 9764 0adc 0300     		.2byte	0x3
 9765 0ade 09       		.byte	0x9
 9766 0adf FF       		.byte	0xff
 9767 0ae0 9F       		.byte	0x9f
ARM GAS  C:\Users\samue\AppData\Local\Temp\ccm0rw4c.s 			page 202


 9768 0ae1 48000000 		.4byte	.LVL429
 9769 0ae5 58010000 		.4byte	.LVL469
 9770 0ae9 0100     		.2byte	0x1
 9771 0aeb 58       		.byte	0x58
 9772 0aec 58010000 		.4byte	.LVL469
 9773 0af0 70010000 		.4byte	.LVL471
 9774 0af4 0300     		.2byte	0x3
 9775 0af6 09       		.byte	0x9
 9776 0af7 FF       		.byte	0xff
 9777 0af8 9F       		.byte	0x9f
 9778 0af9 70010000 		.4byte	.LVL471
 9779 0afd A2010000 		.4byte	.LVL478
 9780 0b01 0100     		.2byte	0x1
 9781 0b03 58       		.byte	0x58
 9782 0b04 00000000 		.4byte	0
 9783 0b08 00000000 		.4byte	0
 9784              	.LLST63:
 9785 0b0c 1C000000 		.4byte	.LVL424
 9786 0b10 48000000 		.4byte	.LVL429
 9787 0b14 0200     		.2byte	0x2
 9788 0b16 30       		.byte	0x30
 9789 0b17 9F       		.byte	0x9f
 9790 0b18 48000000 		.4byte	.LVL429
 9791 0b1c 76000000 		.4byte	.LVL435
 9792 0b20 0100     		.2byte	0x1
 9793 0b22 55       		.byte	0x55
 9794 0b23 76000000 		.4byte	.LVL435
 9795 0b27 84000000 		.4byte	.LVL437
 9796 0b2b 0200     		.2byte	0x2
 9797 0b2d 31       		.byte	0x31
 9798 0b2e 9F       		.byte	0x9f
 9799 0b2f 84000000 		.4byte	.LVL437
 9800 0b33 BE000000 		.4byte	.LVL449
 9801 0b37 0100     		.2byte	0x1
 9802 0b39 55       		.byte	0x55
 9803 0b3a BE000000 		.4byte	.LVL449
 9804 0b3e D0000000 		.4byte	.LVL451
 9805 0b42 0200     		.2byte	0x2
 9806 0b44 31       		.byte	0x31
 9807 0b45 9F       		.byte	0x9f
 9808 0b46 D0000000 		.4byte	.LVL451
 9809 0b4a F0000000 		.4byte	.LVL455
 9810 0b4e 0100     		.2byte	0x1
 9811 0b50 55       		.byte	0x55
 9812 0b51 F0000000 		.4byte	.LVL455
 9813 0b55 FC000000 		.4byte	.LVL457
 9814 0b59 0200     		.2byte	0x2
 9815 0b5b 31       		.byte	0x31
 9816 0b5c 9F       		.byte	0x9f
 9817 0b5d FC000000 		.4byte	.LVL457
 9818 0b61 38010000 		.4byte	.LVL463
 9819 0b65 0100     		.2byte	0x1
 9820 0b67 55       		.byte	0x55
 9821 0b68 38010000 		.4byte	.LVL463
 9822 0b6c 50010000 		.4byte	.LVL467
 9823 0b70 0200     		.2byte	0x2
 9824 0b72 30       		.byte	0x30
ARM GAS  C:\Users\samue\AppData\Local\Temp\ccm0rw4c.s 			page 203


 9825 0b73 9F       		.byte	0x9f
 9826 0b74 50010000 		.4byte	.LVL467
 9827 0b78 58010000 		.4byte	.LVL469
 9828 0b7c 0100     		.2byte	0x1
 9829 0b7e 55       		.byte	0x55
 9830 0b7f 58010000 		.4byte	.LVL469
 9831 0b83 70010000 		.4byte	.LVL471
 9832 0b87 0200     		.2byte	0x2
 9833 0b89 30       		.byte	0x30
 9834 0b8a 9F       		.byte	0x9f
 9835 0b8b 70010000 		.4byte	.LVL471
 9836 0b8f A2010000 		.4byte	.LVL478
 9837 0b93 0100     		.2byte	0x1
 9838 0b95 55       		.byte	0x55
 9839 0b96 00000000 		.4byte	0
 9840 0b9a 00000000 		.4byte	0
 9841              	.LLST64:
 9842 0b9e 1C000000 		.4byte	.LVL424
 9843 0ba2 48000000 		.4byte	.LVL429
 9844 0ba6 0200     		.2byte	0x2
 9845 0ba8 30       		.byte	0x30
 9846 0ba9 9F       		.byte	0x9f
 9847 0baa 48000000 		.4byte	.LVL429
 9848 0bae 76000000 		.4byte	.LVL435
 9849 0bb2 0100     		.2byte	0x1
 9850 0bb4 59       		.byte	0x59
 9851 0bb5 76000000 		.4byte	.LVL435
 9852 0bb9 84000000 		.4byte	.LVL437
 9853 0bbd 0200     		.2byte	0x2
 9854 0bbf 30       		.byte	0x30
 9855 0bc0 9F       		.byte	0x9f
 9856 0bc1 84000000 		.4byte	.LVL437
 9857 0bc5 38010000 		.4byte	.LVL463
 9858 0bc9 0100     		.2byte	0x1
 9859 0bcb 59       		.byte	0x59
 9860 0bcc 38010000 		.4byte	.LVL463
 9861 0bd0 50010000 		.4byte	.LVL467
 9862 0bd4 0200     		.2byte	0x2
 9863 0bd6 31       		.byte	0x31
 9864 0bd7 9F       		.byte	0x9f
 9865 0bd8 50010000 		.4byte	.LVL467
 9866 0bdc 58010000 		.4byte	.LVL469
 9867 0be0 0100     		.2byte	0x1
 9868 0be2 59       		.byte	0x59
 9869 0be3 58010000 		.4byte	.LVL469
 9870 0be7 70010000 		.4byte	.LVL471
 9871 0beb 0200     		.2byte	0x2
 9872 0bed 30       		.byte	0x30
 9873 0bee 9F       		.byte	0x9f
 9874 0bef 70010000 		.4byte	.LVL471
 9875 0bf3 A2010000 		.4byte	.LVL478
 9876 0bf7 0100     		.2byte	0x1
 9877 0bf9 59       		.byte	0x59
 9878 0bfa 00000000 		.4byte	0
 9879 0bfe 00000000 		.4byte	0
 9880              	.LLST65:
 9881 0c02 1C000000 		.4byte	.LVL424
ARM GAS  C:\Users\samue\AppData\Local\Temp\ccm0rw4c.s 			page 204


 9882 0c06 48000000 		.4byte	.LVL429
 9883 0c0a 0200     		.2byte	0x2
 9884 0c0c 30       		.byte	0x30
 9885 0c0d 9F       		.byte	0x9f
 9886 0c0e 48000000 		.4byte	.LVL429
 9887 0c12 A2000000 		.4byte	.LVL444
 9888 0c16 0100     		.2byte	0x1
 9889 0c18 5B       		.byte	0x5b
 9890 0c19 A2000000 		.4byte	.LVL444
 9891 0c1d D0000000 		.4byte	.LVL451
 9892 0c21 0200     		.2byte	0x2
 9893 0c23 30       		.byte	0x30
 9894 0c24 9F       		.byte	0x9f
 9895 0c25 D0000000 		.4byte	.LVL451
 9896 0c29 58010000 		.4byte	.LVL469
 9897 0c2d 0100     		.2byte	0x1
 9898 0c2f 5B       		.byte	0x5b
 9899 0c30 58010000 		.4byte	.LVL469
 9900 0c34 70010000 		.4byte	.LVL471
 9901 0c38 0200     		.2byte	0x2
 9902 0c3a 31       		.byte	0x31
 9903 0c3b 9F       		.byte	0x9f
 9904 0c3c 70010000 		.4byte	.LVL471
 9905 0c40 7E010000 		.4byte	.LVL473
 9906 0c44 0100     		.2byte	0x1
 9907 0c46 5B       		.byte	0x5b
 9908 0c47 7E010000 		.4byte	.LVL473
 9909 0c4b 8C010000 		.4byte	.LVL475
 9910 0c4f 0200     		.2byte	0x2
 9911 0c51 30       		.byte	0x30
 9912 0c52 9F       		.byte	0x9f
 9913 0c53 8C010000 		.4byte	.LVL475
 9914 0c57 A2010000 		.4byte	.LVL478
 9915 0c5b 0100     		.2byte	0x1
 9916 0c5d 5B       		.byte	0x5b
 9917 0c5e 00000000 		.4byte	0
 9918 0c62 00000000 		.4byte	0
 9919              	.LLST66:
 9920 0c66 1C000000 		.4byte	.LVL424
 9921 0c6a 48000000 		.4byte	.LVL429
 9922 0c6e 0200     		.2byte	0x2
 9923 0c70 30       		.byte	0x30
 9924 0c71 9F       		.byte	0x9f
 9925 0c72 48000000 		.4byte	.LVL429
 9926 0c76 AA000000 		.4byte	.LVL446
 9927 0c7a 0100     		.2byte	0x1
 9928 0c7c 54       		.byte	0x54
 9929 0c7d AA000000 		.4byte	.LVL446
 9930 0c81 BE000000 		.4byte	.LVL449
 9931 0c85 0200     		.2byte	0x2
 9932 0c87 31       		.byte	0x31
 9933 0c88 9F       		.byte	0x9f
 9934 0c89 BE000000 		.4byte	.LVL449
 9935 0c8d F0000000 		.4byte	.LVL455
 9936 0c91 0100     		.2byte	0x1
 9937 0c93 54       		.byte	0x54
 9938 0c94 F0000000 		.4byte	.LVL455
ARM GAS  C:\Users\samue\AppData\Local\Temp\ccm0rw4c.s 			page 205


 9939 0c98 FC000000 		.4byte	.LVL457
 9940 0c9c 0200     		.2byte	0x2
 9941 0c9e 30       		.byte	0x30
 9942 0c9f 9F       		.byte	0x9f
 9943 0ca0 FC000000 		.4byte	.LVL457
 9944 0ca4 7E010000 		.4byte	.LVL473
 9945 0ca8 0100     		.2byte	0x1
 9946 0caa 54       		.byte	0x54
 9947 0cab 7E010000 		.4byte	.LVL473
 9948 0caf 8C010000 		.4byte	.LVL475
 9949 0cb3 0200     		.2byte	0x2
 9950 0cb5 31       		.byte	0x31
 9951 0cb6 9F       		.byte	0x9f
 9952 0cb7 8C010000 		.4byte	.LVL475
 9953 0cbb A2010000 		.4byte	.LVL478
 9954 0cbf 0100     		.2byte	0x1
 9955 0cc1 54       		.byte	0x54
 9956 0cc2 00000000 		.4byte	0
 9957 0cc6 00000000 		.4byte	0
 9958              	.LLST67:
 9959 0cca 1C000000 		.4byte	.LVL424
 9960 0cce 48000000 		.4byte	.LVL429
 9961 0cd2 0400     		.2byte	0x4
 9962 0cd4 0A       		.byte	0xa
 9963 0cd5 6901     		.2byte	0x169
 9964 0cd7 9F       		.byte	0x9f
 9965 0cd8 54000000 		.4byte	.LVL431
 9966 0cdc 57000000 		.4byte	.LVL432-1
 9967 0ce0 0100     		.2byte	0x1
 9968 0ce2 50       		.byte	0x50
 9969 0ce3 57000000 		.4byte	.LVL432-1
 9970 0ce7 9A000000 		.4byte	.LVL442
 9971 0ceb 0100     		.2byte	0x1
 9972 0ced 5A       		.byte	0x5a
 9973 0cee 00000000 		.4byte	0
 9974 0cf2 00000000 		.4byte	0
 9975              	.LLST68:
 9976 0cf6 00000000 		.4byte	.LVL493
 9977 0cfa 36000000 		.4byte	.LVL494
 9978 0cfe 0100     		.2byte	0x1
 9979 0d00 50       		.byte	0x50
 9980 0d01 36000000 		.4byte	.LVL494
 9981 0d05 3C000000 		.4byte	.LFE125
 9982 0d09 0400     		.2byte	0x4
 9983 0d0b F3       		.byte	0xf3
 9984 0d0c 01       		.uleb128 0x1
 9985 0d0d 50       		.byte	0x50
 9986 0d0e 9F       		.byte	0x9f
 9987 0d0f 00000000 		.4byte	0
 9988 0d13 00000000 		.4byte	0
 9989              	.LLST69:
 9990 0d17 30000000 		.4byte	.LVL501
 9991 0d1b 3F000000 		.4byte	.LVL503-1
 9992 0d1f 0100     		.2byte	0x1
 9993 0d21 52       		.byte	0x52
 9994 0d22 00000000 		.4byte	0
 9995 0d26 00000000 		.4byte	0
ARM GAS  C:\Users\samue\AppData\Local\Temp\ccm0rw4c.s 			page 206


 9996              	.LLST70:
 9997 0d2a 30000000 		.4byte	.LVL501
 9998 0d2e 3A000000 		.4byte	.LVL502
 9999 0d32 0200     		.2byte	0x2
 10000 0d34 30       		.byte	0x30
 10001 0d35 9F       		.byte	0x9f
 10002 0d36 3A000000 		.4byte	.LVL502
 10003 0d3a 3F000000 		.4byte	.LVL503-1
 10004 0d3e 0100     		.2byte	0x1
 10005 0d40 51       		.byte	0x51
 10006 0d41 00000000 		.4byte	0
 10007 0d45 00000000 		.4byte	0
 10008              		.section	.debug_aranges,"",%progbits
 10009 0000 6C010000 		.4byte	0x16c
 10010 0004 0200     		.2byte	0x2
 10011 0006 00000000 		.4byte	.Ldebug_info0
 10012 000a 04       		.byte	0x4
 10013 000b 00       		.byte	0
 10014 000c 0000     		.2byte	0
 10015 000e 0000     		.2byte	0
 10016 0010 00000000 		.4byte	.LFB90
 10017 0014 F6000000 		.4byte	.LFE90-.LFB90
 10018 0018 00000000 		.4byte	.LFB92
 10019 001c D0000000 		.4byte	.LFE92-.LFB92
 10020 0020 00000000 		.4byte	.LFB93
 10021 0024 20000000 		.4byte	.LFE93-.LFB93
 10022 0028 00000000 		.4byte	.LFB94
 10023 002c 3C000000 		.4byte	.LFE94-.LFB94
 10024 0030 00000000 		.4byte	.LFB95
 10025 0034 58000000 		.4byte	.LFE95-.LFB95
 10026 0038 00000000 		.4byte	.LFB97
 10027 003c 44000000 		.4byte	.LFE97-.LFB97
 10028 0040 00000000 		.4byte	.LFB105
 10029 0044 20000000 		.4byte	.LFE105-.LFB105
 10030 0048 00000000 		.4byte	.LFB108
 10031 004c 9C010000 		.4byte	.LFE108-.LFB108
 10032 0050 00000000 		.4byte	.LFB109
 10033 0054 3C010000 		.4byte	.LFE109-.LFB109
 10034 0058 00000000 		.4byte	.LFB110
 10035 005c 0C010000 		.4byte	.LFE110-.LFB110
 10036 0060 00000000 		.4byte	.LFB111
 10037 0064 3E000000 		.4byte	.LFE111-.LFB111
 10038 0068 00000000 		.4byte	.LFB91
 10039 006c 4C000000 		.4byte	.LFE91-.LFB91
 10040 0070 00000000 		.4byte	.LFB98
 10041 0074 54000000 		.4byte	.LFE98-.LFB98
 10042 0078 00000000 		.4byte	.LFB99
 10043 007c 40000000 		.4byte	.LFE99-.LFB99
 10044 0080 00000000 		.4byte	.LFB100
 10045 0084 60000000 		.4byte	.LFE100-.LFB100
 10046 0088 00000000 		.4byte	.LFB96
 10047 008c 5C000000 		.4byte	.LFE96-.LFB96
 10048 0090 00000000 		.4byte	.LFB103
 10049 0094 78000000 		.4byte	.LFE103-.LFB103
 10050 0098 00000000 		.4byte	.LFB106
 10051 009c 28000000 		.4byte	.LFE106-.LFB106
 10052 00a0 00000000 		.4byte	.LFB107
ARM GAS  C:\Users\samue\AppData\Local\Temp\ccm0rw4c.s 			page 207


 10053 00a4 2C000000 		.4byte	.LFE107-.LFB107
 10054 00a8 00000000 		.4byte	.LFB112
 10055 00ac 3E000000 		.4byte	.LFE112-.LFB112
 10056 00b0 00000000 		.4byte	.LFB113
 10057 00b4 3E000000 		.4byte	.LFE113-.LFB113
 10058 00b8 00000000 		.4byte	.LFB114
 10059 00bc 38000000 		.4byte	.LFE114-.LFB114
 10060 00c0 00000000 		.4byte	.LFB115
 10061 00c4 30000000 		.4byte	.LFE115-.LFB115
 10062 00c8 00000000 		.4byte	.LFB116
 10063 00cc 18000000 		.4byte	.LFE116-.LFB116
 10064 00d0 00000000 		.4byte	.LFB117
 10065 00d4 74000000 		.4byte	.LFE117-.LFB117
 10066 00d8 00000000 		.4byte	.LFB118
 10067 00dc 3C000000 		.4byte	.LFE118-.LFB118
 10068 00e0 00000000 		.4byte	.LFB119
 10069 00e4 1C000000 		.4byte	.LFE119-.LFB119
 10070 00e8 00000000 		.4byte	.LFB120
 10071 00ec 54000000 		.4byte	.LFE120-.LFB120
 10072 00f0 00000000 		.4byte	.LFB121
 10073 00f4 B8000000 		.4byte	.LFE121-.LFB121
 10074 00f8 00000000 		.4byte	.LFB122
 10075 00fc 58000000 		.4byte	.LFE122-.LFB122
 10076 0100 00000000 		.4byte	.LFB123
 10077 0104 2A000000 		.4byte	.LFE123-.LFB123
 10078 0108 00000000 		.4byte	.LFB87
 10079 010c 6C000000 		.4byte	.LFE87-.LFB87
 10080 0110 00000000 		.4byte	.LFB89
 10081 0114 9C000000 		.4byte	.LFE89-.LFB89
 10082 0118 00000000 		.4byte	.LFB102
 10083 011c 00010000 		.4byte	.LFE102-.LFB102
 10084 0120 00000000 		.4byte	.LFB101
 10085 0124 20000000 		.4byte	.LFE101-.LFB101
 10086 0128 00000000 		.4byte	.LFB104
 10087 012c 8C000000 		.4byte	.LFE104-.LFB104
 10088 0130 00000000 		.4byte	.LFB124
 10089 0134 2E000000 		.4byte	.LFE124-.LFB124
 10090 0138 00000000 		.4byte	.LFB86
 10091 013c B8010000 		.4byte	.LFE86-.LFB86
 10092 0140 00000000 		.4byte	.LFB85
 10093 0144 0E000000 		.4byte	.LFE85-.LFB85
 10094 0148 00000000 		.4byte	.LFB88
 10095 014c 78000000 		.4byte	.LFE88-.LFB88
 10096 0150 00000000 		.4byte	.LFB125
 10097 0154 3C000000 		.4byte	.LFE125-.LFB125
 10098 0158 00000000 		.4byte	.LFB126
 10099 015c 50000000 		.4byte	.LFE126-.LFB126
 10100 0160 00000000 		.4byte	.LFB127
 10101 0164 02000000 		.4byte	.LFE127-.LFB127
 10102 0168 00000000 		.4byte	0
 10103 016c 00000000 		.4byte	0
 10104              		.section	.debug_ranges,"",%progbits
 10105              	.Ldebug_ranges0:
 10106 0000 00000000 		.4byte	.LFB90
 10107 0004 F6000000 		.4byte	.LFE90
 10108 0008 00000000 		.4byte	.LFB92
 10109 000c D0000000 		.4byte	.LFE92
ARM GAS  C:\Users\samue\AppData\Local\Temp\ccm0rw4c.s 			page 208


 10110 0010 00000000 		.4byte	.LFB93
 10111 0014 20000000 		.4byte	.LFE93
 10112 0018 00000000 		.4byte	.LFB94
 10113 001c 3C000000 		.4byte	.LFE94
 10114 0020 00000000 		.4byte	.LFB95
 10115 0024 58000000 		.4byte	.LFE95
 10116 0028 00000000 		.4byte	.LFB97
 10117 002c 44000000 		.4byte	.LFE97
 10118 0030 00000000 		.4byte	.LFB105
 10119 0034 20000000 		.4byte	.LFE105
 10120 0038 00000000 		.4byte	.LFB108
 10121 003c 9C010000 		.4byte	.LFE108
 10122 0040 00000000 		.4byte	.LFB109
 10123 0044 3C010000 		.4byte	.LFE109
 10124 0048 00000000 		.4byte	.LFB110
 10125 004c 0C010000 		.4byte	.LFE110
 10126 0050 00000000 		.4byte	.LFB111
 10127 0054 3E000000 		.4byte	.LFE111
 10128 0058 00000000 		.4byte	.LFB91
 10129 005c 4C000000 		.4byte	.LFE91
 10130 0060 00000000 		.4byte	.LFB98
 10131 0064 54000000 		.4byte	.LFE98
 10132 0068 00000000 		.4byte	.LFB99
 10133 006c 40000000 		.4byte	.LFE99
 10134 0070 00000000 		.4byte	.LFB100
 10135 0074 60000000 		.4byte	.LFE100
 10136 0078 00000000 		.4byte	.LFB96
 10137 007c 5C000000 		.4byte	.LFE96
 10138 0080 00000000 		.4byte	.LFB103
 10139 0084 78000000 		.4byte	.LFE103
 10140 0088 00000000 		.4byte	.LFB106
 10141 008c 28000000 		.4byte	.LFE106
 10142 0090 00000000 		.4byte	.LFB107
 10143 0094 2C000000 		.4byte	.LFE107
 10144 0098 00000000 		.4byte	.LFB112
 10145 009c 3E000000 		.4byte	.LFE112
 10146 00a0 00000000 		.4byte	.LFB113
 10147 00a4 3E000000 		.4byte	.LFE113
 10148 00a8 00000000 		.4byte	.LFB114
 10149 00ac 38000000 		.4byte	.LFE114
 10150 00b0 00000000 		.4byte	.LFB115
 10151 00b4 30000000 		.4byte	.LFE115
 10152 00b8 00000000 		.4byte	.LFB116
 10153 00bc 18000000 		.4byte	.LFE116
 10154 00c0 00000000 		.4byte	.LFB117
 10155 00c4 74000000 		.4byte	.LFE117
 10156 00c8 00000000 		.4byte	.LFB118
 10157 00cc 3C000000 		.4byte	.LFE118
 10158 00d0 00000000 		.4byte	.LFB119
 10159 00d4 1C000000 		.4byte	.LFE119
 10160 00d8 00000000 		.4byte	.LFB120
 10161 00dc 54000000 		.4byte	.LFE120
 10162 00e0 00000000 		.4byte	.LFB121
 10163 00e4 B8000000 		.4byte	.LFE121
 10164 00e8 00000000 		.4byte	.LFB122
 10165 00ec 58000000 		.4byte	.LFE122
 10166 00f0 00000000 		.4byte	.LFB123
ARM GAS  C:\Users\samue\AppData\Local\Temp\ccm0rw4c.s 			page 209


 10167 00f4 2A000000 		.4byte	.LFE123
 10168 00f8 00000000 		.4byte	.LFB87
 10169 00fc 6C000000 		.4byte	.LFE87
 10170 0100 00000000 		.4byte	.LFB89
 10171 0104 9C000000 		.4byte	.LFE89
 10172 0108 00000000 		.4byte	.LFB102
 10173 010c 00010000 		.4byte	.LFE102
 10174 0110 00000000 		.4byte	.LFB101
 10175 0114 20000000 		.4byte	.LFE101
 10176 0118 00000000 		.4byte	.LFB104
 10177 011c 8C000000 		.4byte	.LFE104
 10178 0120 00000000 		.4byte	.LFB124
 10179 0124 2E000000 		.4byte	.LFE124
 10180 0128 00000000 		.4byte	.LFB86
 10181 012c B8010000 		.4byte	.LFE86
 10182 0130 00000000 		.4byte	.LFB85
 10183 0134 0E000000 		.4byte	.LFE85
 10184 0138 00000000 		.4byte	.LFB88
 10185 013c 78000000 		.4byte	.LFE88
 10186 0140 00000000 		.4byte	.LFB125
 10187 0144 3C000000 		.4byte	.LFE125
 10188 0148 00000000 		.4byte	.LFB126
 10189 014c 50000000 		.4byte	.LFE126
 10190 0150 00000000 		.4byte	.LFB127
 10191 0154 02000000 		.4byte	.LFE127
 10192 0158 00000000 		.4byte	0
 10193 015c 00000000 		.4byte	0
 10194              		.section	.debug_line,"",%progbits
 10195              	.Ldebug_line0:
 10196 0000 B3080000 		.section	.debug_str,"MS",%progbits,1
 10196      0200FF02 
 10196      00000201 
 10196      FB0E0D00 
 10196      01010101 
 10197              	.LASF59:
 10198 0000 6D6F7665 		.ascii	"moveToFinishLine\000"
 10198      546F4669 
 10198      6E697368 
 10198      4C696E65 
 10198      00
 10199              	.LASF98:
 10200 0011 64656369 		.ascii	"decideMazeTurn\000"
 10200      64654D61 
 10200      7A655475 
 10200      726E00
 10201              	.LASF92:
 10202 0020 676F546F 		.ascii	"goToCenter\000"
 10202      43656E74 
 10202      657200
 10203              	.LASF87:
 10204 002b 78416363 		.ascii	"xAcc\000"
 10204      00
 10205              	.LASF136:
 10206 0030 7265666C 		.ascii	"reflectance_start\000"
 10206      65637461 
 10206      6E63655F 
 10206      73746172 
ARM GAS  C:\Users\samue\AppData\Local\Temp\ccm0rw4c.s 			page 210


 10206      7400
 10207              	.LASF71:
 10208 0042 72657369 		.ascii	"resistance\000"
 10208      7374616E 
 10208      636500
 10209              	.LASF119:
 10210 004d 6D6F746F 		.ascii	"motor_forward\000"
 10210      725F666F 
 10210      72776172 
 10210      6400
 10211              	.LASF95:
 10212 005b 64697265 		.ascii	"direction\000"
 10212      6374696F 
 10212      6E00
 10213              	.LASF49:
 10214 0065 70776D31 		.ascii	"pwm1\000"
 10214      00
 10215              	.LASF50:
 10216 006a 70776D32 		.ascii	"pwm2\000"
 10216      00
 10217              	.LASF117:
 10218 006f 6D6F746F 		.ascii	"motor_backward\000"
 10218      725F6261 
 10218      636B7761 
 10218      726400
 10219              	.LASF51:
 10220 007e 666F6C6C 		.ascii	"followLine2\000"
 10220      6F774C69 
 10220      6E653200 
 10221              	.LASF147:
 10222 008a 7072696E 		.ascii	"printf\000"
 10222      746600
 10223              	.LASF12:
 10224 0091 6C6F6E67 		.ascii	"long long unsigned int\000"
 10224      206C6F6E 
 10224      6720756E 
 10224      7369676E 
 10224      65642069 
 10225              	.LASF26:
 10226 00a8 61636358 		.ascii	"accX\000"
 10226      00
 10227              	.LASF27:
 10228 00ad 61636359 		.ascii	"accY\000"
 10228      00
 10229              	.LASF28:
 10230 00b2 6163635A 		.ascii	"accZ\000"
 10230      00
 10231              	.LASF32:
 10232 00b7 64657465 		.ascii	"detectZumoHit\000"
 10232      63745A75 
 10232      6D6F4869 
 10232      7400
 10233              	.LASF143:
 10234 00c5 5357315F 		.ascii	"SW1_Read\000"
 10234      52656164 
 10234      00
 10235              	.LASF159:
ARM GAS  C:\Users\samue\AppData\Local\Temp\ccm0rw4c.s 			page 211


 10236 00ce 49544D5F 		.ascii	"ITM_RxBuffer\000"
 10236      52784275 
 10236      66666572 
 10236      00
 10237              	.LASF146:
 10238 00db 42656570 		.ascii	"Beep\000"
 10238      00
 10239              	.LASF107:
 10240 00e0 656E656D 		.ascii	"enemyDetected\000"
 10240      79446574 
 10240      65637465 
 10240      6400
 10241              	.LASF14:
 10242 00ee 696E7431 		.ascii	"int16_t\000"
 10242      365F7400 
 10243              	.LASF141:
 10244 00f6 7265666C 		.ascii	"reflectance_read\000"
 10244      65637461 
 10244      6E63655F 
 10244      72656164 
 10244      00
 10245              	.LASF11:
 10246 0107 6C6F6E67 		.ascii	"long long int\000"
 10246      206C6F6E 
 10246      6720696E 
 10246      7400
 10247              	.LASF1:
 10248 0115 7369676E 		.ascii	"signed char\000"
 10248      65642063 
 10248      68617200 
 10249              	.LASF130:
 10250 0121 76546173 		.ascii	"vTaskDelay\000"
 10250      6B44656C 
 10250      617900
 10251              	.LASF158:
 10252 012c 433A5C55 		.ascii	"C:\\Users\\samue\\Desktop\\RobotRage2\\Zumo\\ZumoBo"
 10252      73657273 
 10252      5C73616D 
 10252      75655C44 
 10252      65736B74 
 10253 0159 742E6379 		.ascii	"t.cydsn\000"
 10253      64736E00 
 10254              	.LASF128:
 10255 0161 49525F66 		.ascii	"IR_flush\000"
 10255      6C757368 
 10255      00
 10256              	.LASF57:
 10257 016a 6D6F7665 		.ascii	"moveToStartLineAndWait\000"
 10257      546F5374 
 10257      6172744C 
 10257      696E6541 
 10257      6E645761 
 10258              	.LASF8:
 10259 0181 6C6F6E67 		.ascii	"long int\000"
 10259      20696E74 
 10259      00
 10260              	.LASF68:
ARM GAS  C:\Users\samue\AppData\Local\Temp\ccm0rw4c.s 			page 212


 10261 018a 41444374 		.ascii	"ADCtoBatteryRatio\000"
 10261      6F426174 
 10261      74657279 
 10261      52617469 
 10261      6F00
 10262              	.LASF45:
 10263 019c 746F7069 		.ascii	"topic\000"
 10263      6300
 10264              	.LASF150:
 10265 01a2 5F5F6275 		.ascii	"__builtin_puts\000"
 10265      696C7469 
 10265      6E5F7075 
 10265      747300
 10266              	.LASF67:
 10267 01b1 626C6163 		.ascii	"blackSensors\000"
 10267      6B53656E 
 10267      736F7273 
 10267      00
 10268              	.LASF149:
 10269 01be 70757463 		.ascii	"putchar\000"
 10269      68617200 
 10270              	.LASF15:
 10271 01c6 75696E74 		.ascii	"uint16_t\000"
 10271      31365F74 
 10271      00
 10272              	.LASF54:
 10273 01cf 6F766572 		.ascii	"overLine\000"
 10273      4C696E65 
 10273      00
 10274              	.LASF18:
 10275 01d8 646F7562 		.ascii	"double\000"
 10275      6C6500
 10276              	.LASF109:
 10277 01df 61746B53 		.ascii	"atkSpeed\000"
 10277      70656564 
 10277      00
 10278              	.LASF139:
 10279 01e8 4C534D33 		.ascii	"LSM303D_Start\000"
 10279      3033445F 
 10279      53746172 
 10279      7400
 10280              	.LASF35:
 10281 01f6 77726573 		.ascii	"wrestlingEnd\000"
 10281      746C696E 
 10281      67456E64 
 10281      00
 10282              	.LASF9:
 10283 0203 5F5F7569 		.ascii	"__uint32_t\000"
 10283      6E743332 
 10283      5F7400
 10284              	.LASF4:
 10285 020e 5F5F696E 		.ascii	"__int16_t\000"
 10285      7431365F 
 10285      7400
 10286              	.LASF25:
 10287 0218 61636344 		.ascii	"accData_\000"
 10287      6174615F 
ARM GAS  C:\Users\samue\AppData\Local\Temp\ccm0rw4c.s 			page 213


 10287      00
 10288              	.LASF74:
 10289 0221 64757261 		.ascii	"duration\000"
 10289      74696F6E 
 10289      00
 10290              	.LASF29:
 10291 022a 646F6467 		.ascii	"dodgeStart\000"
 10291      65537461 
 10291      727400
 10292              	.LASF106:
 10293 0235 61744365 		.ascii	"atCenter\000"
 10293      6E746572 
 10293      00
 10294              	.LASF43:
 10295 023e 73756274 		.ascii	"subtopic\000"
 10295      6F706963 
 10295      00
 10296              	.LASF13:
 10297 0247 756E7369 		.ascii	"unsigned int\000"
 10297      676E6564 
 10297      20696E74 
 10297      00
 10298              	.LASF105:
 10299 0254 68656164 		.ascii	"headedForCenter\000"
 10299      6564466F 
 10299      7243656E 
 10299      74657200 
 10300              	.LASF145:
 10301 0264 7374726C 		.ascii	"strlen\000"
 10301      656E00
 10302              	.LASF120:
 10303 026b 4C534D33 		.ascii	"LSM303D_Read_Acc\000"
 10303      3033445F 
 10303      52656164 
 10303      5F416363 
 10303      00
 10304              	.LASF104:
 10305 027c 72756E6E 		.ascii	"runningToEdge\000"
 10305      696E6754 
 10305      6F456467 
 10305      6500
 10306              	.LASF10:
 10307 028a 6C6F6E67 		.ascii	"long unsigned int\000"
 10307      20756E73 
 10307      69676E65 
 10307      6420696E 
 10307      7400
 10308              	.LASF154:
 10309 029c 72616E64 		.ascii	"rand\000"
 10309      00
 10310              	.LASF42:
 10311 02a1 7265706F 		.ascii	"reportMQTT\000"
 10311      72744D51 
 10311      545400
 10312              	.LASF79:
 10313 02ac 6D73674C 		.ascii	"msgLen\000"
 10313      656E00
ARM GAS  C:\Users\samue\AppData\Local\Temp\ccm0rw4c.s 			page 214


 10314              	.LASF151:
 10315 02b3 5F5F6275 		.ascii	"__builtin_putchar\000"
 10315      696C7469 
 10315      6E5F7075 
 10315      74636861 
 10315      7200
 10316              	.LASF133:
 10317 02c5 4D6F746F 		.ascii	"MotorDirRight_Write\000"
 10317      72446972 
 10317      52696768 
 10317      745F5772 
 10317      69746500 
 10318              	.LASF96:
 10319 02d9 77696474 		.ascii	"width\000"
 10319      6800
 10320              	.LASF75:
 10321 02df 626C696E 		.ascii	"blinkMorse\000"
 10321      6B4D6F72 
 10321      736500
 10322              	.LASF44:
 10323 02ea 64617461 		.ascii	"data\000"
 10323      00
 10324              	.LASF83:
 10325 02ef 73697A65 		.ascii	"size\000"
 10325      00
 10326              	.LASF6:
 10327 02f4 73686F72 		.ascii	"short unsigned int\000"
 10327      7420756E 
 10327      7369676E 
 10327      65642069 
 10327      6E7400
 10328              	.LASF73:
 10329 0307 6C65644F 		.ascii	"ledOnFor\000"
 10329      6E466F72 
 10329      00
 10330              	.LASF126:
 10331 0310 6D6F746F 		.ascii	"motor_start\000"
 10331      725F7374 
 10331      61727400 
 10332              	.LASF157:
 10333 031c 6D61696E 		.ascii	"main.c\000"
 10333      2E6300
 10334              	.LASF102:
 10335 0323 646F6467 		.ascii	"dodgeEndTime\000"
 10335      65456E64 
 10335      54696D65 
 10335      00
 10336              	.LASF103:
 10337 0330 61744365 		.ascii	"atCenterTime\000"
 10337      6E746572 
 10337      54696D65 
 10337      00
 10338              	.LASF116:
 10339 033d 78546173 		.ascii	"xTaskGetTickCount\000"
 10339      6B476574 
 10339      5469636B 
 10339      436F756E 
ARM GAS  C:\Users\samue\AppData\Local\Temp\ccm0rw4c.s 			page 215


 10339      7400
 10340              	.LASF3:
 10341 034f 73686F72 		.ascii	"short int\000"
 10341      7420696E 
 10341      7400
 10342              	.LASF140:
 10343 0359 73747263 		.ascii	"strcat\000"
 10343      617400
 10344              	.LASF91:
 10345 0360 73706565 		.ascii	"speed\000"
 10345      6400
 10346              	.LASF125:
 10347 0366 556C7472 		.ascii	"Ultra_Start\000"
 10347      615F5374 
 10347      61727400 
 10348              	.LASF69:
 10349 0372 565F7265 		.ascii	"V_ref\000"
 10349      6600
 10350              	.LASF101:
 10351 0378 6C617374 		.ascii	"lastHitTime\000"
 10351      48697454 
 10351      696D6500 
 10352              	.LASF148:
 10353 0384 70757473 		.ascii	"puts\000"
 10353      00
 10354              	.LASF142:
 10355 0389 7265666C 		.ascii	"reflectance_digital\000"
 10355      65637461 
 10355      6E63655F 
 10355      64696769 
 10355      74616C00 
 10356              	.LASF138:
 10357 039d 7374726E 		.ascii	"strncmp\000"
 10357      636D7000 
 10358              	.LASF21:
 10359 03a5 73697A65 		.ascii	"sizetype\000"
 10359      74797065 
 10359      00
 10360              	.LASF38:
 10361 03ae 63686173 		.ascii	"chaseObject\000"
 10361      654F626A 
 10361      65637400 
 10362              	.LASF124:
 10363 03ba 6D6F746F 		.ascii	"motor_stop\000"
 10363      725F7374 
 10363      6F7000
 10364              	.LASF23:
 10365 03c5 5469636B 		.ascii	"TickType_t\000"
 10365      54797065 
 10365      5F7400
 10366              	.LASF62:
 10367 03d0 72705F6C 		.ascii	"rp_lineFollower\000"
 10367      696E6546 
 10367      6F6C6C6F 
 10367      77657200 
 10368              	.LASF65:
 10369 03e0 616C6C53 		.ascii	"allSensorsBlack\000"
ARM GAS  C:\Users\samue\AppData\Local\Temp\ccm0rw4c.s 			page 216


 10369      656E736F 
 10369      7273426C 
 10369      61636B00 
 10370              	.LASF63:
 10371 03f0 6D6F7665 		.ascii	"moveToStartLine\000"
 10371      546F5374 
 10371      6172744C 
 10371      696E6500 
 10372              	.LASF85:
 10373 0400 72656654 		.ascii	"refTest\000"
 10373      65737400 
 10374              	.LASF112:
 10375 0408 66696C74 		.ascii	"filterSavitzkyGolay7\000"
 10375      65725361 
 10375      7669747A 
 10375      6B79476F 
 10375      6C617937 
 10376              	.LASF144:
 10377 041d 42617474 		.ascii	"BatteryLed_Write\000"
 10377      6572794C 
 10377      65645F57 
 10377      72697465 
 10377      00
 10378              	.LASF152:
 10379 042e 74696D65 		.ascii	"time\000"
 10379      00
 10380              	.LASF129:
 10381 0433 49525F77 		.ascii	"IR_wait\000"
 10381      61697400 
 10382              	.LASF88:
 10383 043b 6C6F6F70 		.ascii	"loopNum\000"
 10383      4E756D00 
 10384              	.LASF93:
 10385 0443 676F546F 		.ascii	"goToCenter2\000"
 10385      43656E74 
 10385      65723200 
 10386              	.LASF81:
 10387 044f 706C6179 		.ascii	"playMusic\000"
 10387      4D757369 
 10387      6300
 10388              	.LASF0:
 10389 0459 666C6F61 		.ascii	"float\000"
 10389      7400
 10390              	.LASF122:
 10391 045f 6174616E 		.ascii	"atan\000"
 10391      00
 10392              	.LASF137:
 10393 0464 7265666C 		.ascii	"reflectance_set_threshold\000"
 10393      65637461 
 10393      6E63655F 
 10393      7365745F 
 10393      74687265 
 10394              	.LASF47:
 10395 047e 6F66664C 		.ascii	"offLine\000"
 10395      696E6500 
 10396              	.LASF56:
 10397 0486 73746172 		.ascii	"startWrestling\000"
ARM GAS  C:\Users\samue\AppData\Local\Temp\ccm0rw4c.s 			page 217


 10397      74577265 
 10397      73746C69 
 10397      6E6700
 10398              	.LASF22:
 10399 0495 75696E74 		.ascii	"uint\000"
 10399      00
 10400              	.LASF153:
 10401 049a 7372616E 		.ascii	"srand\000"
 10401      6400
 10402              	.LASF97:
 10403 04a0 6D617A65 		.ascii	"mazeMain\000"
 10403      4D61696E 
 10403      00
 10404              	.LASF115:
 10405 04a9 73686966 		.ascii	"shiftArray\000"
 10405      74417272 
 10405      617900
 10406              	.LASF118:
 10407 04b4 6D6F746F 		.ascii	"motor_turn\000"
 10407      725F7475 
 10407      726E00
 10408              	.LASF111:
 10409 04bf 676F546F 		.ascii	"goToCenterTest\000"
 10409      43656E74 
 10409      65725465 
 10409      737400
 10410              	.LASF55:
 10411 04ce 5F426F6F 		.ascii	"_Bool\000"
 10411      6C00
 10412              	.LASF16:
 10413 04d4 696E7433 		.ascii	"int32_t\000"
 10413      325F7400 
 10414              	.LASF2:
 10415 04dc 756E7369 		.ascii	"unsigned char\000"
 10415      676E6564 
 10415      20636861 
 10415      7200
 10416              	.LASF30:
 10417 04ea 64656C61 		.ascii	"delay\000"
 10417      7900
 10418              	.LASF114:
 10419 04f0 49525F76 		.ascii	"IR_val\000"
 10419      616C00
 10420              	.LASF70:
 10421 04f7 4144435F 		.ascii	"ADC_res\000"
 10421      72657300 
 10422              	.LASF132:
 10423 04ff 4D6F746F 		.ascii	"MotorDirLeft_Write\000"
 10423      72446972 
 10423      4C656674 
 10423      5F577269 
 10423      746500
 10424              	.LASF86:
 10425 0512 61636354 		.ascii	"accTest\000"
 10425      65737400 
 10426              	.LASF156:
 10427 051a 474E5520 		.ascii	"GNU C11 5.4.1 20160609 (release) [ARM/embedded-5-br"
ARM GAS  C:\Users\samue\AppData\Local\Temp\ccm0rw4c.s 			page 218


 10427      43313120 
 10427      352E342E 
 10427      31203230 
 10427      31363036 
 10428 054d 616E6368 		.ascii	"anch revision 237715] -mcpu=cortex-m3 -mthumb -g -O"
 10428      20726576 
 10428      6973696F 
 10428      6E203233 
 10428      37373135 
 10429 0580 67202D66 		.ascii	"g -ffunction-sections -ffat-lto-objects\000"
 10429      66756E63 
 10429      74696F6E 
 10429      2D736563 
 10429      74696F6E 
 10430              	.LASF99:
 10431 05a8 74616E6B 		.ascii	"tankTurn\000"
 10431      5475726E 
 10431      00
 10432              	.LASF58:
 10433 05b1 73746172 		.ascii	"startLineFollowing\000"
 10433      744C696E 
 10433      65466F6C 
 10433      6C6F7769 
 10433      6E6700
 10434              	.LASF134:
 10435 05c4 50574D5F 		.ascii	"PWM_WriteCompare1\000"
 10435      57726974 
 10435      65436F6D 
 10435      70617265 
 10435      3100
 10436              	.LASF135:
 10437 05d6 50574D5F 		.ascii	"PWM_WriteCompare2\000"
 10437      57726974 
 10437      65436F6D 
 10437      70617265 
 10437      3200
 10438              	.LASF33:
 10439 05e8 68697444 		.ascii	"hitDir\000"
 10439      697200
 10440              	.LASF40:
 10441 05ef 73746172 		.ascii	"startComponents\000"
 10441      74436F6D 
 10441      706F6E65 
 10441      6E747300 
 10442              	.LASF72:
 10443 05ff 7265736F 		.ascii	"resolution\000"
 10443      6C757469 
 10443      6F6E00
 10444              	.LASF108:
 10445 060a 64656653 		.ascii	"defSpeed\000"
 10445      70656564 
 10445      00
 10446              	.LASF17:
 10447 0613 75696E74 		.ascii	"uint32_t\000"
 10447      33325F74 
 10447      00
 10448              	.LASF123:
ARM GAS  C:\Users\samue\AppData\Local\Temp\ccm0rw4c.s 			page 219


 10449 061c 7072696E 		.ascii	"print_mqtt\000"
 10449      745F6D71 
 10449      747400
 10450              	.LASF80:
 10451 0627 6C6F6361 		.ascii	"location\000"
 10451      74696F6E 
 10451      00
 10452              	.LASF20:
 10453 0630 6C6F6E67 		.ascii	"long double\000"
 10453      20646F75 
 10453      626C6500 
 10454              	.LASF19:
 10455 063c 63686172 		.ascii	"char\000"
 10455      00
 10456              	.LASF94:
 10457 0641 6D617A65 		.ascii	"mazeSolver2000\000"
 10457      536F6C76 
 10457      65723230 
 10457      303000
 10458              	.LASF24:
 10459 0650 73656E73 		.ascii	"sensors_\000"
 10459      6F72735F 
 10459      00
 10460              	.LASF5:
 10461 0659 5F5F7569 		.ascii	"__uint16_t\000"
 10461      6E743136 
 10461      5F7400
 10462              	.LASF90:
 10463 0664 7475726E 		.ascii	"turn90deg\000"
 10463      39306465 
 10463      6700
 10464              	.LASF53:
 10465 066e 72617469 		.ascii	"ratio\000"
 10465      6F00
 10466              	.LASF7:
 10467 0674 5F5F696E 		.ascii	"__int32_t\000"
 10467      7433325F 
 10467      7400
 10468              	.LASF41:
 10469 067e 70726F6A 		.ascii	"project\000"
 10469      65637400 
 10470              	.LASF52:
 10471 0686 7475726E 		.ascii	"turnToCenter\000"
 10471      546F4365 
 10471      6E746572 
 10471      00
 10472              	.LASF60:
 10473 0693 6C696E65 		.ascii	"line\000"
 10473      00
 10474              	.LASF84:
 10475 0698 69725465 		.ascii	"irTest\000"
 10475      737400
 10476              	.LASF160:
 10477 069f 6D656D63 		.ascii	"memcpy\000"
 10477      707900
 10478              	.LASF78:
 10479 06a6 72657065 		.ascii	"repeats\000"
ARM GAS  C:\Users\samue\AppData\Local\Temp\ccm0rw4c.s 			page 220


 10479      61747300 
 10480              	.LASF66:
 10481 06ae 616E7953 		.ascii	"anySensorBlack\000"
 10481      656E736F 
 10481      72426C61 
 10481      636B00
 10482              	.LASF100:
 10483 06bd 72705F73 		.ascii	"rp_sumoWrestling\000"
 10483      756D6F57 
 10483      72657374 
 10483      6C696E67 
 10483      00
 10484              	.LASF127:
 10485 06ce 49525F53 		.ascii	"IR_Start\000"
 10485      74617274 
 10485      00
 10486              	.LASF131:
 10487 06d7 556C7472 		.ascii	"Ultra_GetDistance\000"
 10487      615F4765 
 10487      74446973 
 10487      74616E63 
 10487      6500
 10488              	.LASF64:
 10489 06e9 6D6F7665 		.ascii	"moveToNextLine\000"
 10489      546F4E65 
 10489      78744C69 
 10489      6E6500
 10490              	.LASF82:
 10491 06f8 696E744E 		.ascii	"intNotes\000"
 10491      6F746573 
 10491      00
 10492              	.LASF89:
 10493 0701 6D717474 		.ascii	"mqttTest\000"
 10493      54657374 
 10493      00
 10494              	.LASF77:
 10495 070a 74696D65 		.ascii	"timeUnit\000"
 10495      556E6974 
 10495      00
 10496              	.LASF121:
 10497 0713 73717274 		.ascii	"sqrt\000"
 10497      00
 10498              	.LASF155:
 10499 0718 49525F67 		.ascii	"IR_get\000"
 10499      657400
 10500              	.LASF46:
 10501 071f 666F6C6C 		.ascii	"followLine\000"
 10501      6F774C69 
 10501      6E6500
 10502              	.LASF39:
 10503 072a 7475726E 		.ascii	"turnStart\000"
 10503      53746172 
 10503      7400
 10504              	.LASF110:
 10505 0734 7A6D6169 		.ascii	"zmain\000"
 10505      6E00
 10506              	.LASF61:
ARM GAS  C:\Users\samue\AppData\Local\Temp\ccm0rw4c.s 			page 221


 10507 073a 6D6F7665 		.ascii	"moveToNextIntersection\000"
 10507      546F4E65 
 10507      7874496E 
 10507      74657273 
 10507      65637469 
 10508              	.LASF113:
 10509 0751 69724D73 		.ascii	"irMsgTest\000"
 10509      67546573 
 10509      7400
 10510              	.LASF31:
 10511 075b 72657370 		.ascii	"respondToHit\000"
 10511      6F6E6454 
 10511      6F486974 
 10511      00
 10512              	.LASF36:
 10513 0768 73746172 		.ascii	"start\000"
 10513      7400
 10514              	.LASF76:
 10515 076e 6D657373 		.ascii	"message\000"
 10515      61676500 
 10516              	.LASF34:
 10517 0776 7265706F 		.ascii	"reportZumoHit\000"
 10517      72745A75 
 10517      6D6F4869 
 10517      7400
 10518              	.LASF37:
 10519 0784 73746F70 		.ascii	"stop\000"
 10519      00
 10520              	.LASF48:
 10521 0789 6D617853 		.ascii	"maxSpeed\000"
 10521      70656564 
 10521      00
 10522              		.ident	"GCC: (GNU Tools for ARM Embedded Processors) 5.4.1 20160609 (release) [ARM/embedded-5-bran
