ARM GAS  C:\Users\samue\AppData\Local\Temp\cch0szeP.s 			page 1


   1              		.syntax unified
   2              		.cpu cortex-m3
   3              		.fpu softvfp
   4              		.eabi_attribute 20, 1
   5              		.eabi_attribute 21, 1
   6              		.eabi_attribute 23, 3
   7              		.eabi_attribute 24, 1
   8              		.eabi_attribute 25, 1
   9              		.eabi_attribute 26, 1
  10              		.eabi_attribute 30, 1
  11              		.eabi_attribute 34, 1
  12              		.eabi_attribute 18, 4
  13              		.thumb
  14              		.syntax unified
  15              		.file	"MQTTDeserializePublish.c"
  16              		.text
  17              	.Ltext0:
  18              		.cfi_sections	.debug_frame
  19              		.section	.text.MQTTDeserialize_publish,"ax",%progbits
  20              		.align	2
  21              		.global	MQTTDeserialize_publish
  22              		.thumb
  23              		.thumb_func
  24              		.type	MQTTDeserialize_publish, %function
  25              	MQTTDeserialize_publish:
  26              	.LFB1:
  27              		.file 1 "..\\paho.mqtt.embedded-c\\MQTTPacket\\src\\MQTTDeserializePublish.c"
   1:..\paho.mqtt.embedded-c\MQTTPacket\src/MQTTDeserializePublish.c **** /*******************************************************************************
   2:..\paho.mqtt.embedded-c\MQTTPacket\src/MQTTDeserializePublish.c ****  * Copyright (c) 2014 IBM Corp.
   3:..\paho.mqtt.embedded-c\MQTTPacket\src/MQTTDeserializePublish.c ****  *
   4:..\paho.mqtt.embedded-c\MQTTPacket\src/MQTTDeserializePublish.c ****  * All rights reserved. This program and the accompanying materials
   5:..\paho.mqtt.embedded-c\MQTTPacket\src/MQTTDeserializePublish.c ****  * are made available under the terms of the Eclipse Public License v1.0
   6:..\paho.mqtt.embedded-c\MQTTPacket\src/MQTTDeserializePublish.c ****  * and Eclipse Distribution License v1.0 which accompany this distribution.
   7:..\paho.mqtt.embedded-c\MQTTPacket\src/MQTTDeserializePublish.c ****  *
   8:..\paho.mqtt.embedded-c\MQTTPacket\src/MQTTDeserializePublish.c ****  * The Eclipse Public License is available at
   9:..\paho.mqtt.embedded-c\MQTTPacket\src/MQTTDeserializePublish.c ****  *    http://www.eclipse.org/legal/epl-v10.html
  10:..\paho.mqtt.embedded-c\MQTTPacket\src/MQTTDeserializePublish.c ****  * and the Eclipse Distribution License is available at
  11:..\paho.mqtt.embedded-c\MQTTPacket\src/MQTTDeserializePublish.c ****  *   http://www.eclipse.org/org/documents/edl-v10.php.
  12:..\paho.mqtt.embedded-c\MQTTPacket\src/MQTTDeserializePublish.c ****  *
  13:..\paho.mqtt.embedded-c\MQTTPacket\src/MQTTDeserializePublish.c ****  * Contributors:
  14:..\paho.mqtt.embedded-c\MQTTPacket\src/MQTTDeserializePublish.c ****  *    Ian Craggs - initial API and implementation and/or initial documentation
  15:..\paho.mqtt.embedded-c\MQTTPacket\src/MQTTDeserializePublish.c ****  *******************************************************************************/
  16:..\paho.mqtt.embedded-c\MQTTPacket\src/MQTTDeserializePublish.c **** 
  17:..\paho.mqtt.embedded-c\MQTTPacket\src/MQTTDeserializePublish.c **** #include "StackTrace.h"
  18:..\paho.mqtt.embedded-c\MQTTPacket\src/MQTTDeserializePublish.c **** #include "MQTTPacket.h"
  19:..\paho.mqtt.embedded-c\MQTTPacket\src/MQTTDeserializePublish.c **** #include <string.h>
  20:..\paho.mqtt.embedded-c\MQTTPacket\src/MQTTDeserializePublish.c **** 
  21:..\paho.mqtt.embedded-c\MQTTPacket\src/MQTTDeserializePublish.c **** #define min(a, b) ((a < b) ? 1 : 0)
  22:..\paho.mqtt.embedded-c\MQTTPacket\src/MQTTDeserializePublish.c **** 
  23:..\paho.mqtt.embedded-c\MQTTPacket\src/MQTTDeserializePublish.c **** /**
  24:..\paho.mqtt.embedded-c\MQTTPacket\src/MQTTDeserializePublish.c ****   * Deserializes the supplied (wire) buffer into publish data
  25:..\paho.mqtt.embedded-c\MQTTPacket\src/MQTTDeserializePublish.c ****   * @param dup returned integer - the MQTT dup flag
  26:..\paho.mqtt.embedded-c\MQTTPacket\src/MQTTDeserializePublish.c ****   * @param qos returned integer - the MQTT QoS value
  27:..\paho.mqtt.embedded-c\MQTTPacket\src/MQTTDeserializePublish.c ****   * @param retained returned integer - the MQTT retained flag
  28:..\paho.mqtt.embedded-c\MQTTPacket\src/MQTTDeserializePublish.c ****   * @param packetid returned integer - the MQTT packet identifier
  29:..\paho.mqtt.embedded-c\MQTTPacket\src/MQTTDeserializePublish.c ****   * @param topicName returned MQTTString - the MQTT topic in the publish
  30:..\paho.mqtt.embedded-c\MQTTPacket\src/MQTTDeserializePublish.c ****   * @param payload returned byte buffer - the MQTT publish payload
ARM GAS  C:\Users\samue\AppData\Local\Temp\cch0szeP.s 			page 2


  31:..\paho.mqtt.embedded-c\MQTTPacket\src/MQTTDeserializePublish.c ****   * @param payloadlen returned integer - the length of the MQTT payload
  32:..\paho.mqtt.embedded-c\MQTTPacket\src/MQTTDeserializePublish.c ****   * @param buf the raw buffer data, of the correct length determined by the remaining length field
  33:..\paho.mqtt.embedded-c\MQTTPacket\src/MQTTDeserializePublish.c ****   * @param buflen the length in bytes of the data in the supplied buffer
  34:..\paho.mqtt.embedded-c\MQTTPacket\src/MQTTDeserializePublish.c ****   * @return error code.  1 is success
  35:..\paho.mqtt.embedded-c\MQTTPacket\src/MQTTDeserializePublish.c ****   */
  36:..\paho.mqtt.embedded-c\MQTTPacket\src/MQTTDeserializePublish.c **** int MQTTDeserialize_publish(unsigned char* dup, int* qos, unsigned char* retained, unsigned short* 
  37:..\paho.mqtt.embedded-c\MQTTPacket\src/MQTTDeserializePublish.c **** 		unsigned char** payload, int* payloadlen, unsigned char* buf, int buflen)
  38:..\paho.mqtt.embedded-c\MQTTPacket\src/MQTTDeserializePublish.c **** {
  28              		.loc 1 38 0
  29              		.cfi_startproc
  30              		@ args = 20, pretend = 0, frame = 8
  31              		@ frame_needed = 0, uses_anonymous_args = 0
  32              	.LVL0:
  33 0000 F0B5     		push	{r4, r5, r6, r7, lr}
  34              		.cfi_def_cfa_offset 20
  35              		.cfi_offset 4, -20
  36              		.cfi_offset 5, -16
  37              		.cfi_offset 6, -12
  38              		.cfi_offset 7, -8
  39              		.cfi_offset 14, -4
  40 0002 83B0     		sub	sp, sp, #12
  41              		.cfi_def_cfa_offset 32
  42 0004 0746     		mov	r7, r0
  43 0006 0D46     		mov	r5, r1
  44 0008 1446     		mov	r4, r2
  45 000a 1E46     		mov	r6, r3
  39:..\paho.mqtt.embedded-c\MQTTPacket\src/MQTTDeserializePublish.c **** 	MQTTHeader header = {0};
  40:..\paho.mqtt.embedded-c\MQTTPacket\src/MQTTDeserializePublish.c **** 	unsigned char* curdata = buf;
  46              		.loc 1 40 0
  47 000c 0B9B     		ldr	r3, [sp, #44]
  48              	.LVL1:
  49 000e 0193     		str	r3, [sp, #4]
  50              	.LVL2:
  41:..\paho.mqtt.embedded-c\MQTTPacket\src/MQTTDeserializePublish.c **** 	unsigned char* enddata = NULL;
  42:..\paho.mqtt.embedded-c\MQTTPacket\src/MQTTDeserializePublish.c **** 	int rc = 0;
  43:..\paho.mqtt.embedded-c\MQTTPacket\src/MQTTDeserializePublish.c **** 	int mylen = 0;
  51              		.loc 1 43 0
  52 0010 0023     		movs	r3, #0
  53 0012 0093     		str	r3, [sp]
  44:..\paho.mqtt.embedded-c\MQTTPacket\src/MQTTDeserializePublish.c **** 
  45:..\paho.mqtt.embedded-c\MQTTPacket\src/MQTTDeserializePublish.c **** 	FUNC_ENTRY;
  46:..\paho.mqtt.embedded-c\MQTTPacket\src/MQTTDeserializePublish.c **** 	header.byte = readChar(&curdata);
  54              		.loc 1 46 0
  55 0014 01A8     		add	r0, sp, #4
  56              	.LVL3:
  57 0016 FFF7FEFF 		bl	readChar
  58              	.LVL4:
  59 001a 0023     		movs	r3, #0
  60              	.LVL5:
  61 001c 60F30703 		bfi	r3, r0, #0, #8
  62              	.LVL6:
  47:..\paho.mqtt.embedded-c\MQTTPacket\src/MQTTDeserializePublish.c **** 	if (header.bits.type != PUBLISH)
  63              		.loc 1 47 0
  64 0020 03F0F002 		and	r2, r3, #240
  65 0024 302A     		cmp	r2, #48
  66 0026 2BD1     		bne	.L4
  48:..\paho.mqtt.embedded-c\MQTTPacket\src/MQTTDeserializePublish.c **** 		goto exit;
ARM GAS  C:\Users\samue\AppData\Local\Temp\cch0szeP.s 			page 3


  49:..\paho.mqtt.embedded-c\MQTTPacket\src/MQTTDeserializePublish.c **** 	*dup = header.bits.dup;
  67              		.loc 1 49 0
  68 0028 C3F3C002 		ubfx	r2, r3, #3, #1
  69 002c 3A70     		strb	r2, [r7]
  50:..\paho.mqtt.embedded-c\MQTTPacket\src/MQTTDeserializePublish.c **** 	*qos = header.bits.qos;
  70              		.loc 1 50 0
  71 002e C3F34102 		ubfx	r2, r3, #1, #2
  72 0032 2A60     		str	r2, [r5]
  51:..\paho.mqtt.embedded-c\MQTTPacket\src/MQTTDeserializePublish.c **** 	*retained = header.bits.retain;
  73              		.loc 1 51 0
  74 0034 C3F30003 		ubfx	r3, r3, #0, #1
  75              	.LVL7:
  76 0038 2370     		strb	r3, [r4]
  52:..\paho.mqtt.embedded-c\MQTTPacket\src/MQTTDeserializePublish.c **** 
  53:..\paho.mqtt.embedded-c\MQTTPacket\src/MQTTDeserializePublish.c **** 	curdata += (rc = MQTTPacket_decodeBuf(curdata, &mylen)); /* read remaining length */
  77              		.loc 1 53 0
  78 003a 6946     		mov	r1, sp
  79 003c 0198     		ldr	r0, [sp, #4]
  80 003e FFF7FEFF 		bl	MQTTPacket_decodeBuf
  81              	.LVL8:
  82 0042 0446     		mov	r4, r0
  83              	.LVL9:
  84 0044 019F     		ldr	r7, [sp, #4]
  85              	.LVL10:
  86 0046 0744     		add	r7, r7, r0
  87 0048 0197     		str	r7, [sp, #4]
  54:..\paho.mqtt.embedded-c\MQTTPacket\src/MQTTDeserializePublish.c **** 	enddata = curdata + mylen;
  88              		.loc 1 54 0
  89 004a 009B     		ldr	r3, [sp]
  90 004c 1F44     		add	r7, r7, r3
  91              	.LVL11:
  55:..\paho.mqtt.embedded-c\MQTTPacket\src/MQTTDeserializePublish.c **** 
  56:..\paho.mqtt.embedded-c\MQTTPacket\src/MQTTDeserializePublish.c **** 	if (!readMQTTLenString(topicName, &curdata, enddata) ||
  92              		.loc 1 56 0
  93 004e 3A46     		mov	r2, r7
  94 0050 01A9     		add	r1, sp, #4
  95 0052 0898     		ldr	r0, [sp, #32]
  96              	.LVL12:
  97 0054 FFF7FEFF 		bl	readMQTTLenString
  98              	.LVL13:
  99 0058 98B1     		cbz	r0, .L2
  57:..\paho.mqtt.embedded-c\MQTTPacket\src/MQTTDeserializePublish.c **** 		enddata - curdata < 0) /* do we have enough data to read the protocol version byte? */
 100              		.loc 1 57 0 discriminator 1
 101 005a 019B     		ldr	r3, [sp, #4]
 102 005c FB1A     		subs	r3, r7, r3
  56:..\paho.mqtt.embedded-c\MQTTPacket\src/MQTTDeserializePublish.c **** 		enddata - curdata < 0) /* do we have enough data to read the protocol version byte? */
 103              		.loc 1 56 0 discriminator 1
 104 005e 002B     		cmp	r3, #0
 105 0060 0FDB     		blt	.L2
  58:..\paho.mqtt.embedded-c\MQTTPacket\src/MQTTDeserializePublish.c **** 		goto exit;
  59:..\paho.mqtt.embedded-c\MQTTPacket\src/MQTTDeserializePublish.c **** 
  60:..\paho.mqtt.embedded-c\MQTTPacket\src/MQTTDeserializePublish.c **** 	if (*qos > 0)
 106              		.loc 1 60 0
 107 0062 2B68     		ldr	r3, [r5]
 108 0064 002B     		cmp	r3, #0
 109 0066 03DD     		ble	.L3
  61:..\paho.mqtt.embedded-c\MQTTPacket\src/MQTTDeserializePublish.c **** 		*packetid = readInt(&curdata);
ARM GAS  C:\Users\samue\AppData\Local\Temp\cch0szeP.s 			page 4


 110              		.loc 1 61 0
 111 0068 01A8     		add	r0, sp, #4
 112 006a FFF7FEFF 		bl	readInt
 113              	.LVL14:
 114 006e 3080     		strh	r0, [r6]	@ movhi
 115              	.L3:
  62:..\paho.mqtt.embedded-c\MQTTPacket\src/MQTTDeserializePublish.c **** 
  63:..\paho.mqtt.embedded-c\MQTTPacket\src/MQTTDeserializePublish.c **** 	*payloadlen = enddata - curdata;
 116              		.loc 1 63 0
 117 0070 019B     		ldr	r3, [sp, #4]
 118 0072 FF1A     		subs	r7, r7, r3
 119              	.LVL15:
 120 0074 0A9A     		ldr	r2, [sp, #40]
 121 0076 1760     		str	r7, [r2]
  64:..\paho.mqtt.embedded-c\MQTTPacket\src/MQTTDeserializePublish.c **** 	*payload = curdata;
 122              		.loc 1 64 0
 123 0078 099A     		ldr	r2, [sp, #36]
 124 007a 1360     		str	r3, [r2]
 125              	.LVL16:
  65:..\paho.mqtt.embedded-c\MQTTPacket\src/MQTTDeserializePublish.c **** 	rc = 1;
 126              		.loc 1 65 0
 127 007c 0124     		movs	r4, #1
 128 007e 00E0     		b	.L2
 129              	.LVL17:
 130              	.L4:
  42:..\paho.mqtt.embedded-c\MQTTPacket\src/MQTTDeserializePublish.c **** 	int mylen = 0;
 131              		.loc 1 42 0
 132 0080 0024     		movs	r4, #0
 133              	.LVL18:
 134              	.L2:
  66:..\paho.mqtt.embedded-c\MQTTPacket\src/MQTTDeserializePublish.c **** exit:
  67:..\paho.mqtt.embedded-c\MQTTPacket\src/MQTTDeserializePublish.c **** 	FUNC_EXIT_RC(rc);
  68:..\paho.mqtt.embedded-c\MQTTPacket\src/MQTTDeserializePublish.c **** 	return rc;
  69:..\paho.mqtt.embedded-c\MQTTPacket\src/MQTTDeserializePublish.c **** }
 135              		.loc 1 69 0
 136 0082 2046     		mov	r0, r4
 137 0084 03B0     		add	sp, sp, #12
 138              		.cfi_def_cfa_offset 20
 139              		@ sp needed
 140 0086 F0BD     		pop	{r4, r5, r6, r7, pc}
 141              		.cfi_endproc
 142              	.LFE1:
 143              		.size	MQTTDeserialize_publish, .-MQTTDeserialize_publish
 144              		.section	.text.MQTTDeserialize_ack,"ax",%progbits
 145              		.align	2
 146              		.global	MQTTDeserialize_ack
 147              		.thumb
 148              		.thumb_func
 149              		.type	MQTTDeserialize_ack, %function
 150              	MQTTDeserialize_ack:
 151              	.LFB2:
  70:..\paho.mqtt.embedded-c\MQTTPacket\src/MQTTDeserializePublish.c **** 
  71:..\paho.mqtt.embedded-c\MQTTPacket\src/MQTTDeserializePublish.c **** 
  72:..\paho.mqtt.embedded-c\MQTTPacket\src/MQTTDeserializePublish.c **** 
  73:..\paho.mqtt.embedded-c\MQTTPacket\src/MQTTDeserializePublish.c **** /**
  74:..\paho.mqtt.embedded-c\MQTTPacket\src/MQTTDeserializePublish.c ****   * Deserializes the supplied (wire) buffer into an ack
  75:..\paho.mqtt.embedded-c\MQTTPacket\src/MQTTDeserializePublish.c ****   * @param packettype returned integer - the MQTT packet type
ARM GAS  C:\Users\samue\AppData\Local\Temp\cch0szeP.s 			page 5


  76:..\paho.mqtt.embedded-c\MQTTPacket\src/MQTTDeserializePublish.c ****   * @param dup returned integer - the MQTT dup flag
  77:..\paho.mqtt.embedded-c\MQTTPacket\src/MQTTDeserializePublish.c ****   * @param packetid returned integer - the MQTT packet identifier
  78:..\paho.mqtt.embedded-c\MQTTPacket\src/MQTTDeserializePublish.c ****   * @param buf the raw buffer data, of the correct length determined by the remaining length field
  79:..\paho.mqtt.embedded-c\MQTTPacket\src/MQTTDeserializePublish.c ****   * @param buflen the length in bytes of the data in the supplied buffer
  80:..\paho.mqtt.embedded-c\MQTTPacket\src/MQTTDeserializePublish.c ****   * @return error code.  1 is success, 0 is failure
  81:..\paho.mqtt.embedded-c\MQTTPacket\src/MQTTDeserializePublish.c ****   */
  82:..\paho.mqtt.embedded-c\MQTTPacket\src/MQTTDeserializePublish.c **** int MQTTDeserialize_ack(unsigned char* packettype, unsigned char* dup, unsigned short* packetid, un
  83:..\paho.mqtt.embedded-c\MQTTPacket\src/MQTTDeserializePublish.c **** {
 152              		.loc 1 83 0
 153              		.cfi_startproc
 154              		@ args = 4, pretend = 0, frame = 8
 155              		@ frame_needed = 0, uses_anonymous_args = 0
 156              	.LVL19:
 157 0000 70B5     		push	{r4, r5, r6, lr}
 158              		.cfi_def_cfa_offset 16
 159              		.cfi_offset 4, -16
 160              		.cfi_offset 5, -12
 161              		.cfi_offset 6, -8
 162              		.cfi_offset 14, -4
 163 0002 82B0     		sub	sp, sp, #8
 164              		.cfi_def_cfa_offset 24
 165 0004 0546     		mov	r5, r0
 166 0006 0E46     		mov	r6, r1
 167 0008 1446     		mov	r4, r2
  84:..\paho.mqtt.embedded-c\MQTTPacket\src/MQTTDeserializePublish.c **** 	MQTTHeader header = {0};
  85:..\paho.mqtt.embedded-c\MQTTPacket\src/MQTTDeserializePublish.c **** 	unsigned char* curdata = buf;
 168              		.loc 1 85 0
 169 000a 02A8     		add	r0, sp, #8
 170              	.LVL20:
 171 000c 40F8043D 		str	r3, [r0, #-4]!
 172              	.LVL21:
  86:..\paho.mqtt.embedded-c\MQTTPacket\src/MQTTDeserializePublish.c **** 	unsigned char* enddata = NULL;
  87:..\paho.mqtt.embedded-c\MQTTPacket\src/MQTTDeserializePublish.c **** 	int rc = 0;
  88:..\paho.mqtt.embedded-c\MQTTPacket\src/MQTTDeserializePublish.c **** 	int mylen;
  89:..\paho.mqtt.embedded-c\MQTTPacket\src/MQTTDeserializePublish.c **** 
  90:..\paho.mqtt.embedded-c\MQTTPacket\src/MQTTDeserializePublish.c **** 	FUNC_ENTRY;
  91:..\paho.mqtt.embedded-c\MQTTPacket\src/MQTTDeserializePublish.c **** 	header.byte = readChar(&curdata);
 173              		.loc 1 91 0
 174 0010 FFF7FEFF 		bl	readChar
 175              	.LVL22:
 176 0014 0023     		movs	r3, #0
 177              	.LVL23:
 178 0016 60F30703 		bfi	r3, r0, #0, #8
 179              	.LVL24:
  92:..\paho.mqtt.embedded-c\MQTTPacket\src/MQTTDeserializePublish.c **** 	*dup = header.bits.dup;
 180              		.loc 1 92 0
 181 001a C3F3C002 		ubfx	r2, r3, #3, #1
 182 001e 3270     		strb	r2, [r6]
  93:..\paho.mqtt.embedded-c\MQTTPacket\src/MQTTDeserializePublish.c **** 	*packettype = header.bits.type;
 183              		.loc 1 93 0
 184 0020 C3F30313 		ubfx	r3, r3, #4, #4
 185              	.LVL25:
 186 0024 2B70     		strb	r3, [r5]
  94:..\paho.mqtt.embedded-c\MQTTPacket\src/MQTTDeserializePublish.c **** 
  95:..\paho.mqtt.embedded-c\MQTTPacket\src/MQTTDeserializePublish.c **** 	curdata += (rc = MQTTPacket_decodeBuf(curdata, &mylen)); /* read remaining length */
 187              		.loc 1 95 0
 188 0026 6946     		mov	r1, sp
ARM GAS  C:\Users\samue\AppData\Local\Temp\cch0szeP.s 			page 6


 189 0028 0198     		ldr	r0, [sp, #4]
 190 002a FFF7FEFF 		bl	MQTTPacket_decodeBuf
 191              	.LVL26:
 192 002e 019B     		ldr	r3, [sp, #4]
 193 0030 0344     		add	r3, r3, r0
 194 0032 0193     		str	r3, [sp, #4]
  96:..\paho.mqtt.embedded-c\MQTTPacket\src/MQTTDeserializePublish.c **** 	enddata = curdata + mylen;
 195              		.loc 1 96 0
 196 0034 009B     		ldr	r3, [sp]
 197              	.LVL27:
  97:..\paho.mqtt.embedded-c\MQTTPacket\src/MQTTDeserializePublish.c **** 
  98:..\paho.mqtt.embedded-c\MQTTPacket\src/MQTTDeserializePublish.c **** 	if (enddata - curdata < 2)
 198              		.loc 1 98 0
 199 0036 012B     		cmp	r3, #1
 200 0038 04DD     		ble	.L7
  99:..\paho.mqtt.embedded-c\MQTTPacket\src/MQTTDeserializePublish.c **** 		goto exit;
 100:..\paho.mqtt.embedded-c\MQTTPacket\src/MQTTDeserializePublish.c **** 	*packetid = readInt(&curdata);
 201              		.loc 1 100 0
 202 003a 01A8     		add	r0, sp, #4
 203              	.LVL28:
 204 003c FFF7FEFF 		bl	readInt
 205              	.LVL29:
 206 0040 2080     		strh	r0, [r4]	@ movhi
 207              	.LVL30:
 101:..\paho.mqtt.embedded-c\MQTTPacket\src/MQTTDeserializePublish.c **** 
 102:..\paho.mqtt.embedded-c\MQTTPacket\src/MQTTDeserializePublish.c **** 	rc = 1;
 208              		.loc 1 102 0
 209 0042 0120     		movs	r0, #1
 210              	.LVL31:
 211              	.L7:
 103:..\paho.mqtt.embedded-c\MQTTPacket\src/MQTTDeserializePublish.c **** exit:
 104:..\paho.mqtt.embedded-c\MQTTPacket\src/MQTTDeserializePublish.c **** 	FUNC_EXIT_RC(rc);
 105:..\paho.mqtt.embedded-c\MQTTPacket\src/MQTTDeserializePublish.c **** 	return rc;
 106:..\paho.mqtt.embedded-c\MQTTPacket\src/MQTTDeserializePublish.c **** }
 212              		.loc 1 106 0
 213 0044 02B0     		add	sp, sp, #8
 214              		.cfi_def_cfa_offset 16
 215              		@ sp needed
 216 0046 70BD     		pop	{r4, r5, r6, pc}
 217              		.cfi_endproc
 218              	.LFE2:
 219              		.size	MQTTDeserialize_ack, .-MQTTDeserialize_ack
 220              		.text
 221              	.Letext0:
 222              		.file 2 "..\\paho.mqtt.embedded-c\\MQTTPacket\\src\\MQTTPacket.h"