ARM GAS  C:\Users\samue\AppData\Local\Temp\ccKyRZuJ.s 			page 1


   1              		.syntax unified
   2              		.cpu cortex-m3
   3              		.fpu softvfp
   4              		.eabi_attribute 20, 1
   5              		.eabi_attribute 21, 1
   6              		.eabi_attribute 23, 3
   7              		.eabi_attribute 24, 1
   8              		.eabi_attribute 25, 1
   9              		.eabi_attribute 26, 1
  10              		.eabi_attribute 30, 1
  11              		.eabi_attribute 34, 1
  12              		.eabi_attribute 18, 4
  13              		.thumb
  14              		.syntax unified
  15              		.file	"MQTTSubscribeServer.c"
  16              		.text
  17              	.Ltext0:
  18              		.cfi_sections	.debug_frame
  19              		.section	.text.MQTTDeserialize_subscribe,"ax",%progbits
  20              		.align	2
  21              		.global	MQTTDeserialize_subscribe
  22              		.thumb
  23              		.thumb_func
  24              		.type	MQTTDeserialize_subscribe, %function
  25              	MQTTDeserialize_subscribe:
  26              	.LFB1:
  27              		.file 1 "..\\paho.mqtt.embedded-c\\MQTTPacket\\src\\MQTTSubscribeServer.c"
   1:..\paho.mqtt.embedded-c\MQTTPacket\src/MQTTSubscribeServer.c **** /*******************************************************************************
   2:..\paho.mqtt.embedded-c\MQTTPacket\src/MQTTSubscribeServer.c ****  * Copyright (c) 2014 IBM Corp.
   3:..\paho.mqtt.embedded-c\MQTTPacket\src/MQTTSubscribeServer.c ****  *
   4:..\paho.mqtt.embedded-c\MQTTPacket\src/MQTTSubscribeServer.c ****  * All rights reserved. This program and the accompanying materials
   5:..\paho.mqtt.embedded-c\MQTTPacket\src/MQTTSubscribeServer.c ****  * are made available under the terms of the Eclipse Public License v1.0
   6:..\paho.mqtt.embedded-c\MQTTPacket\src/MQTTSubscribeServer.c ****  * and Eclipse Distribution License v1.0 which accompany this distribution.
   7:..\paho.mqtt.embedded-c\MQTTPacket\src/MQTTSubscribeServer.c ****  *
   8:..\paho.mqtt.embedded-c\MQTTPacket\src/MQTTSubscribeServer.c ****  * The Eclipse Public License is available at
   9:..\paho.mqtt.embedded-c\MQTTPacket\src/MQTTSubscribeServer.c ****  *    http://www.eclipse.org/legal/epl-v10.html
  10:..\paho.mqtt.embedded-c\MQTTPacket\src/MQTTSubscribeServer.c ****  * and the Eclipse Distribution License is available at
  11:..\paho.mqtt.embedded-c\MQTTPacket\src/MQTTSubscribeServer.c ****  *   http://www.eclipse.org/org/documents/edl-v10.php.
  12:..\paho.mqtt.embedded-c\MQTTPacket\src/MQTTSubscribeServer.c ****  *
  13:..\paho.mqtt.embedded-c\MQTTPacket\src/MQTTSubscribeServer.c ****  * Contributors:
  14:..\paho.mqtt.embedded-c\MQTTPacket\src/MQTTSubscribeServer.c ****  *    Ian Craggs - initial API and implementation and/or initial documentation
  15:..\paho.mqtt.embedded-c\MQTTPacket\src/MQTTSubscribeServer.c ****  *******************************************************************************/
  16:..\paho.mqtt.embedded-c\MQTTPacket\src/MQTTSubscribeServer.c **** 
  17:..\paho.mqtt.embedded-c\MQTTPacket\src/MQTTSubscribeServer.c **** #include "MQTTPacket.h"
  18:..\paho.mqtt.embedded-c\MQTTPacket\src/MQTTSubscribeServer.c **** #include "StackTrace.h"
  19:..\paho.mqtt.embedded-c\MQTTPacket\src/MQTTSubscribeServer.c **** 
  20:..\paho.mqtt.embedded-c\MQTTPacket\src/MQTTSubscribeServer.c **** #include <string.h>
  21:..\paho.mqtt.embedded-c\MQTTPacket\src/MQTTSubscribeServer.c **** 
  22:..\paho.mqtt.embedded-c\MQTTPacket\src/MQTTSubscribeServer.c **** 
  23:..\paho.mqtt.embedded-c\MQTTPacket\src/MQTTSubscribeServer.c **** /**
  24:..\paho.mqtt.embedded-c\MQTTPacket\src/MQTTSubscribeServer.c ****   * Deserializes the supplied (wire) buffer into subscribe data
  25:..\paho.mqtt.embedded-c\MQTTPacket\src/MQTTSubscribeServer.c ****   * @param dup integer returned - the MQTT dup flag
  26:..\paho.mqtt.embedded-c\MQTTPacket\src/MQTTSubscribeServer.c ****   * @param packetid integer returned - the MQTT packet identifier
  27:..\paho.mqtt.embedded-c\MQTTPacket\src/MQTTSubscribeServer.c ****   * @param maxcount - the maximum number of members allowed in the topicFilters and requestedQoSs a
  28:..\paho.mqtt.embedded-c\MQTTPacket\src/MQTTSubscribeServer.c ****   * @param count - number of members in the topicFilters and requestedQoSs arrays
  29:..\paho.mqtt.embedded-c\MQTTPacket\src/MQTTSubscribeServer.c ****   * @param topicFilters - array of topic filter names
  30:..\paho.mqtt.embedded-c\MQTTPacket\src/MQTTSubscribeServer.c ****   * @param requestedQoSs - array of requested QoS
ARM GAS  C:\Users\samue\AppData\Local\Temp\ccKyRZuJ.s 			page 2


  31:..\paho.mqtt.embedded-c\MQTTPacket\src/MQTTSubscribeServer.c ****   * @param buf the raw buffer data, of the correct length determined by the remaining length field
  32:..\paho.mqtt.embedded-c\MQTTPacket\src/MQTTSubscribeServer.c ****   * @param buflen the length in bytes of the data in the supplied buffer
  33:..\paho.mqtt.embedded-c\MQTTPacket\src/MQTTSubscribeServer.c ****   * @return the length of the serialized data.  <= 0 indicates error
  34:..\paho.mqtt.embedded-c\MQTTPacket\src/MQTTSubscribeServer.c ****   */
  35:..\paho.mqtt.embedded-c\MQTTPacket\src/MQTTSubscribeServer.c **** int MQTTDeserialize_subscribe(unsigned char* dup, unsigned short* packetid, int maxcount, int* coun
  36:..\paho.mqtt.embedded-c\MQTTPacket\src/MQTTSubscribeServer.c **** 	int requestedQoSs[], unsigned char* buf, int buflen)
  37:..\paho.mqtt.embedded-c\MQTTPacket\src/MQTTSubscribeServer.c **** {
  28              		.loc 1 37 0
  29              		.cfi_startproc
  30              		@ args = 16, pretend = 0, frame = 8
  31              		@ frame_needed = 0, uses_anonymous_args = 0
  32              	.LVL0:
  33 0000 2DE9F043 		push	{r4, r5, r6, r7, r8, r9, lr}
  34              		.cfi_def_cfa_offset 28
  35              		.cfi_offset 4, -28
  36              		.cfi_offset 5, -24
  37              		.cfi_offset 6, -20
  38              		.cfi_offset 7, -16
  39              		.cfi_offset 8, -12
  40              		.cfi_offset 9, -8
  41              		.cfi_offset 14, -4
  42 0004 83B0     		sub	sp, sp, #12
  43              		.cfi_def_cfa_offset 40
  44 0006 0546     		mov	r5, r0
  45 0008 8946     		mov	r9, r1
  46 000a 1C46     		mov	r4, r3
  47 000c 0A9E     		ldr	r6, [sp, #40]
  48 000e 0B9F     		ldr	r7, [sp, #44]
  38:..\paho.mqtt.embedded-c\MQTTPacket\src/MQTTSubscribeServer.c **** 	MQTTHeader header = {0};
  39:..\paho.mqtt.embedded-c\MQTTPacket\src/MQTTSubscribeServer.c **** 	unsigned char* curdata = buf;
  49              		.loc 1 39 0
  50 0010 0C9B     		ldr	r3, [sp, #48]
  51              	.LVL1:
  52 0012 0193     		str	r3, [sp, #4]
  53              	.LVL2:
  40:..\paho.mqtt.embedded-c\MQTTPacket\src/MQTTSubscribeServer.c **** 	unsigned char* enddata = NULL;
  41:..\paho.mqtt.embedded-c\MQTTPacket\src/MQTTSubscribeServer.c **** 	int rc = -1;
  42:..\paho.mqtt.embedded-c\MQTTPacket\src/MQTTSubscribeServer.c **** 	int mylen = 0;
  54              		.loc 1 42 0
  55 0014 0023     		movs	r3, #0
  56 0016 0093     		str	r3, [sp]
  43:..\paho.mqtt.embedded-c\MQTTPacket\src/MQTTSubscribeServer.c **** 
  44:..\paho.mqtt.embedded-c\MQTTPacket\src/MQTTSubscribeServer.c **** 	FUNC_ENTRY;
  45:..\paho.mqtt.embedded-c\MQTTPacket\src/MQTTSubscribeServer.c **** 	header.byte = readChar(&curdata);
  57              		.loc 1 45 0
  58 0018 01A8     		add	r0, sp, #4
  59              	.LVL3:
  60 001a FFF7FEFF 		bl	readChar
  61              	.LVL4:
  62 001e 0023     		movs	r3, #0
  63              	.LVL5:
  64 0020 60F30703 		bfi	r3, r0, #0, #8
  65              	.LVL6:
  46:..\paho.mqtt.embedded-c\MQTTPacket\src/MQTTSubscribeServer.c **** 	if (header.bits.type != SUBSCRIBE)
  66              		.loc 1 46 0
  67 0024 03F0F002 		and	r2, r3, #240
  68 0028 802A     		cmp	r2, #128
ARM GAS  C:\Users\samue\AppData\Local\Temp\ccKyRZuJ.s 			page 3


  69 002a 31D1     		bne	.L5
  47:..\paho.mqtt.embedded-c\MQTTPacket\src/MQTTSubscribeServer.c **** 		goto exit;
  48:..\paho.mqtt.embedded-c\MQTTPacket\src/MQTTSubscribeServer.c **** 	*dup = header.bits.dup;
  70              		.loc 1 48 0
  71 002c C3F3C003 		ubfx	r3, r3, #3, #1
  72              	.LVL7:
  73 0030 2B70     		strb	r3, [r5]
  49:..\paho.mqtt.embedded-c\MQTTPacket\src/MQTTSubscribeServer.c **** 
  50:..\paho.mqtt.embedded-c\MQTTPacket\src/MQTTSubscribeServer.c **** 	curdata += (rc = MQTTPacket_decodeBuf(curdata, &mylen)); /* read remaining length */
  74              		.loc 1 50 0
  75 0032 6946     		mov	r1, sp
  76 0034 0198     		ldr	r0, [sp, #4]
  77 0036 FFF7FEFF 		bl	MQTTPacket_decodeBuf
  78              	.LVL8:
  79 003a 8046     		mov	r8, r0
  80              	.LVL9:
  81 003c 019D     		ldr	r5, [sp, #4]
  82              	.LVL10:
  83 003e 2B18     		adds	r3, r5, r0
  84 0040 0193     		str	r3, [sp, #4]
  51:..\paho.mqtt.embedded-c\MQTTPacket\src/MQTTSubscribeServer.c **** 	enddata = curdata + mylen;
  85              		.loc 1 51 0
  86 0042 009D     		ldr	r5, [sp]
  87 0044 1D44     		add	r5, r5, r3
  88              	.LVL11:
  52:..\paho.mqtt.embedded-c\MQTTPacket\src/MQTTSubscribeServer.c **** 
  53:..\paho.mqtt.embedded-c\MQTTPacket\src/MQTTSubscribeServer.c **** 	*packetid = readInt(&curdata);
  89              		.loc 1 53 0
  90 0046 01A8     		add	r0, sp, #4
  91              	.LVL12:
  92 0048 FFF7FEFF 		bl	readInt
  93              	.LVL13:
  94 004c A9F80000 		strh	r0, [r9]	@ movhi
  54:..\paho.mqtt.embedded-c\MQTTPacket\src/MQTTSubscribeServer.c **** 
  55:..\paho.mqtt.embedded-c\MQTTPacket\src/MQTTSubscribeServer.c **** 	*count = 0;
  95              		.loc 1 55 0
  96 0050 0023     		movs	r3, #0
  97 0052 2360     		str	r3, [r4]
  56:..\paho.mqtt.embedded-c\MQTTPacket\src/MQTTSubscribeServer.c **** 	while (curdata < enddata)
  98              		.loc 1 56 0
  99 0054 16E0     		b	.L3
 100              	.LVL14:
 101              	.L4:
  57:..\paho.mqtt.embedded-c\MQTTPacket\src/MQTTSubscribeServer.c **** 	{
  58:..\paho.mqtt.embedded-c\MQTTPacket\src/MQTTSubscribeServer.c **** 		if (!readMQTTLenString(&topicFilters[*count], &curdata, enddata))
 102              		.loc 1 58 0
 103 0056 2068     		ldr	r0, [r4]
 104 0058 00EB4000 		add	r0, r0, r0, lsl #1
 105 005c 2A46     		mov	r2, r5
 106 005e 01A9     		add	r1, sp, #4
 107 0060 06EB8000 		add	r0, r6, r0, lsl #2
 108 0064 FFF7FEFF 		bl	readMQTTLenString
 109              	.LVL15:
 110 0068 A0B1     		cbz	r0, .L2
  59:..\paho.mqtt.embedded-c\MQTTPacket\src/MQTTSubscribeServer.c **** 			goto exit;
  60:..\paho.mqtt.embedded-c\MQTTPacket\src/MQTTSubscribeServer.c **** 		if (curdata >= enddata) /* do we have enough data to read the req_qos version byte? */
 111              		.loc 1 60 0
ARM GAS  C:\Users\samue\AppData\Local\Temp\ccKyRZuJ.s 			page 4


 112 006a 019B     		ldr	r3, [sp, #4]
 113 006c 9D42     		cmp	r5, r3
 114 006e 11D9     		bls	.L2
  61:..\paho.mqtt.embedded-c\MQTTPacket\src/MQTTSubscribeServer.c **** 			goto exit;
  62:..\paho.mqtt.embedded-c\MQTTPacket\src/MQTTSubscribeServer.c **** 		requestedQoSs[*count] = readChar(&curdata);
 115              		.loc 1 62 0
 116 0070 D4F80090 		ldr	r9, [r4]
 117 0074 01A8     		add	r0, sp, #4
 118 0076 FFF7FEFF 		bl	readChar
 119              	.LVL16:
 120 007a 47F82900 		str	r0, [r7, r9, lsl #2]
  63:..\paho.mqtt.embedded-c\MQTTPacket\src/MQTTSubscribeServer.c **** 		(*count)++;
 121              		.loc 1 63 0
 122 007e 2368     		ldr	r3, [r4]
 123 0080 0133     		adds	r3, r3, #1
 124 0082 2360     		str	r3, [r4]
 125              	.L3:
  56:..\paho.mqtt.embedded-c\MQTTPacket\src/MQTTSubscribeServer.c **** 	{
 126              		.loc 1 56 0
 127 0084 019B     		ldr	r3, [sp, #4]
 128 0086 9D42     		cmp	r5, r3
 129 0088 E5D8     		bhi	.L4
  64:..\paho.mqtt.embedded-c\MQTTPacket\src/MQTTSubscribeServer.c **** 	}
  65:..\paho.mqtt.embedded-c\MQTTPacket\src/MQTTSubscribeServer.c **** 
  66:..\paho.mqtt.embedded-c\MQTTPacket\src/MQTTSubscribeServer.c **** 	rc = 1;
 130              		.loc 1 66 0
 131 008a 4FF00108 		mov	r8, #1
 132              	.LVL17:
 133 008e 01E0     		b	.L2
 134              	.LVL18:
 135              	.L5:
  41:..\paho.mqtt.embedded-c\MQTTPacket\src/MQTTSubscribeServer.c **** 	int mylen = 0;
 136              		.loc 1 41 0
 137 0090 4FF0FF38 		mov	r8, #-1
 138              	.LVL19:
 139              	.L2:
  67:..\paho.mqtt.embedded-c\MQTTPacket\src/MQTTSubscribeServer.c **** exit:
  68:..\paho.mqtt.embedded-c\MQTTPacket\src/MQTTSubscribeServer.c **** 	FUNC_EXIT_RC(rc);
  69:..\paho.mqtt.embedded-c\MQTTPacket\src/MQTTSubscribeServer.c **** 	return rc;
  70:..\paho.mqtt.embedded-c\MQTTPacket\src/MQTTSubscribeServer.c **** }
 140              		.loc 1 70 0
 141 0094 4046     		mov	r0, r8
 142 0096 03B0     		add	sp, sp, #12
 143              		.cfi_def_cfa_offset 28
 144              		@ sp needed
 145 0098 BDE8F083 		pop	{r4, r5, r6, r7, r8, r9, pc}
 146              		.cfi_endproc
 147              	.LFE1:
 148              		.size	MQTTDeserialize_subscribe, .-MQTTDeserialize_subscribe
 149              		.section	.text.MQTTSerialize_suback,"ax",%progbits
 150              		.align	2
 151              		.global	MQTTSerialize_suback
 152              		.thumb
 153              		.thumb_func
 154              		.type	MQTTSerialize_suback, %function
 155              	MQTTSerialize_suback:
 156              	.LFB2:
ARM GAS  C:\Users\samue\AppData\Local\Temp\ccKyRZuJ.s 			page 5


  71:..\paho.mqtt.embedded-c\MQTTPacket\src/MQTTSubscribeServer.c **** 
  72:..\paho.mqtt.embedded-c\MQTTPacket\src/MQTTSubscribeServer.c **** 
  73:..\paho.mqtt.embedded-c\MQTTPacket\src/MQTTSubscribeServer.c **** /**
  74:..\paho.mqtt.embedded-c\MQTTPacket\src/MQTTSubscribeServer.c ****   * Serializes the supplied suback data into the supplied buffer, ready for sending
  75:..\paho.mqtt.embedded-c\MQTTPacket\src/MQTTSubscribeServer.c ****   * @param buf the buffer into which the packet will be serialized
  76:..\paho.mqtt.embedded-c\MQTTPacket\src/MQTTSubscribeServer.c ****   * @param buflen the length in bytes of the supplied buffer
  77:..\paho.mqtt.embedded-c\MQTTPacket\src/MQTTSubscribeServer.c ****   * @param packetid integer - the MQTT packet identifier
  78:..\paho.mqtt.embedded-c\MQTTPacket\src/MQTTSubscribeServer.c ****   * @param count - number of members in the grantedQoSs array
  79:..\paho.mqtt.embedded-c\MQTTPacket\src/MQTTSubscribeServer.c ****   * @param grantedQoSs - array of granted QoS
  80:..\paho.mqtt.embedded-c\MQTTPacket\src/MQTTSubscribeServer.c ****   * @return the length of the serialized data.  <= 0 indicates error
  81:..\paho.mqtt.embedded-c\MQTTPacket\src/MQTTSubscribeServer.c ****   */
  82:..\paho.mqtt.embedded-c\MQTTPacket\src/MQTTSubscribeServer.c **** int MQTTSerialize_suback(unsigned char* buf, int buflen, unsigned short packetid, int count, int* g
  83:..\paho.mqtt.embedded-c\MQTTPacket\src/MQTTSubscribeServer.c **** {
 157              		.loc 1 83 0
 158              		.cfi_startproc
 159              		@ args = 4, pretend = 0, frame = 8
 160              		@ frame_needed = 0, uses_anonymous_args = 0
 161              	.LVL20:
 162 0000 2DE9F041 		push	{r4, r5, r6, r7, r8, lr}
 163              		.cfi_def_cfa_offset 24
 164              		.cfi_offset 4, -24
 165              		.cfi_offset 5, -20
 166              		.cfi_offset 6, -16
 167              		.cfi_offset 7, -12
 168              		.cfi_offset 8, -8
 169              		.cfi_offset 14, -4
 170 0004 82B0     		sub	sp, sp, #8
 171              		.cfi_def_cfa_offset 32
 172 0006 089E     		ldr	r6, [sp, #32]
 173              	.LVL21:
  84:..\paho.mqtt.embedded-c\MQTTPacket\src/MQTTSubscribeServer.c **** 	MQTTHeader header = {0};
  85:..\paho.mqtt.embedded-c\MQTTPacket\src/MQTTSubscribeServer.c **** 	int rc = -1;
  86:..\paho.mqtt.embedded-c\MQTTPacket\src/MQTTSubscribeServer.c **** 	unsigned char *ptr = buf;
 174              		.loc 1 86 0
 175 0008 0190     		str	r0, [sp, #4]
  87:..\paho.mqtt.embedded-c\MQTTPacket\src/MQTTSubscribeServer.c **** 	int i;
  88:..\paho.mqtt.embedded-c\MQTTPacket\src/MQTTSubscribeServer.c **** 
  89:..\paho.mqtt.embedded-c\MQTTPacket\src/MQTTSubscribeServer.c **** 	FUNC_ENTRY;
  90:..\paho.mqtt.embedded-c\MQTTPacket\src/MQTTSubscribeServer.c **** 	if (buflen < 2 + count)
 176              		.loc 1 90 0
 177 000a 03F10208 		add	r8, r3, #2
 178 000e 8845     		cmp	r8, r1
 179 0010 1EDC     		bgt	.L11
 180 0012 1D46     		mov	r5, r3
 181 0014 1446     		mov	r4, r2
 182 0016 0746     		mov	r7, r0
  91:..\paho.mqtt.embedded-c\MQTTPacket\src/MQTTSubscribeServer.c **** 	{
  92:..\paho.mqtt.embedded-c\MQTTPacket\src/MQTTSubscribeServer.c **** 		rc = MQTTPACKET_BUFFER_TOO_SHORT;
  93:..\paho.mqtt.embedded-c\MQTTPacket\src/MQTTSubscribeServer.c **** 		goto exit;
  94:..\paho.mqtt.embedded-c\MQTTPacket\src/MQTTSubscribeServer.c **** 	}
  95:..\paho.mqtt.embedded-c\MQTTPacket\src/MQTTSubscribeServer.c **** 	header.byte = 0;
  96:..\paho.mqtt.embedded-c\MQTTPacket\src/MQTTSubscribeServer.c **** 	header.bits.type = SUBACK;
  97:..\paho.mqtt.embedded-c\MQTTPacket\src/MQTTSubscribeServer.c **** 	writeChar(&ptr, header.byte); /* write header */
 183              		.loc 1 97 0
 184 0018 9021     		movs	r1, #144
 185              	.LVL22:
 186 001a 01A8     		add	r0, sp, #4
ARM GAS  C:\Users\samue\AppData\Local\Temp\ccKyRZuJ.s 			page 6


 187              	.LVL23:
 188 001c FFF7FEFF 		bl	writeChar
 189              	.LVL24:
  98:..\paho.mqtt.embedded-c\MQTTPacket\src/MQTTSubscribeServer.c **** 
  99:..\paho.mqtt.embedded-c\MQTTPacket\src/MQTTSubscribeServer.c **** 	ptr += MQTTPacket_encode(ptr, 2 + count); /* write remaining length */
 190              		.loc 1 99 0
 191 0020 4146     		mov	r1, r8
 192 0022 0198     		ldr	r0, [sp, #4]
 193 0024 FFF7FEFF 		bl	MQTTPacket_encode
 194              	.LVL25:
 195 0028 019B     		ldr	r3, [sp, #4]
 196 002a 1844     		add	r0, r0, r3
 197 002c 0190     		str	r0, [sp, #4]
 100:..\paho.mqtt.embedded-c\MQTTPacket\src/MQTTSubscribeServer.c **** 
 101:..\paho.mqtt.embedded-c\MQTTPacket\src/MQTTSubscribeServer.c **** 	writeInt(&ptr, packetid);
 198              		.loc 1 101 0
 199 002e 2146     		mov	r1, r4
 200 0030 01A8     		add	r0, sp, #4
 201 0032 FFF7FEFF 		bl	writeInt
 202              	.LVL26:
 102:..\paho.mqtt.embedded-c\MQTTPacket\src/MQTTSubscribeServer.c **** 
 103:..\paho.mqtt.embedded-c\MQTTPacket\src/MQTTSubscribeServer.c **** 	for (i = 0; i < count; ++i)
 203              		.loc 1 103 0
 204 0036 0024     		movs	r4, #0
 205 0038 05E0     		b	.L9
 206              	.LVL27:
 207              	.L10:
 104:..\paho.mqtt.embedded-c\MQTTPacket\src/MQTTSubscribeServer.c **** 		writeChar(&ptr, grantedQoSs[i]);
 208              		.loc 1 104 0 discriminator 3
 209 003a 16F82410 		ldrb	r1, [r6, r4, lsl #2]	@ zero_extendqisi2
 210 003e 01A8     		add	r0, sp, #4
 211 0040 FFF7FEFF 		bl	writeChar
 212              	.LVL28:
 103:..\paho.mqtt.embedded-c\MQTTPacket\src/MQTTSubscribeServer.c **** 		writeChar(&ptr, grantedQoSs[i]);
 213              		.loc 1 103 0 discriminator 3
 214 0044 0134     		adds	r4, r4, #1
 215              	.LVL29:
 216              	.L9:
 103:..\paho.mqtt.embedded-c\MQTTPacket\src/MQTTSubscribeServer.c **** 		writeChar(&ptr, grantedQoSs[i]);
 217              		.loc 1 103 0 is_stmt 0 discriminator 1
 218 0046 AC42     		cmp	r4, r5
 219 0048 F7DB     		blt	.L10
 105:..\paho.mqtt.embedded-c\MQTTPacket\src/MQTTSubscribeServer.c **** 
 106:..\paho.mqtt.embedded-c\MQTTPacket\src/MQTTSubscribeServer.c **** 	rc = ptr - buf;
 220              		.loc 1 106 0 is_stmt 1
 221 004a 0198     		ldr	r0, [sp, #4]
 222 004c C01B     		subs	r0, r0, r7
 223              	.LVL30:
 224 004e 01E0     		b	.L8
 225              	.LVL31:
 226              	.L11:
  92:..\paho.mqtt.embedded-c\MQTTPacket\src/MQTTSubscribeServer.c **** 		goto exit;
 227              		.loc 1 92 0
 228 0050 6FF00100 		mvn	r0, #1
 229              	.LVL32:
 230              	.L8:
 107:..\paho.mqtt.embedded-c\MQTTPacket\src/MQTTSubscribeServer.c **** exit:
ARM GAS  C:\Users\samue\AppData\Local\Temp\ccKyRZuJ.s 			page 7


 108:..\paho.mqtt.embedded-c\MQTTPacket\src/MQTTSubscribeServer.c **** 	FUNC_EXIT_RC(rc);
 109:..\paho.mqtt.embedded-c\MQTTPacket\src/MQTTSubscribeServer.c **** 	return rc;
 110:..\paho.mqtt.embedded-c\MQTTPacket\src/MQTTSubscribeServer.c **** }
 231              		.loc 1 110 0
 232 0054 02B0     		add	sp, sp, #8
 233              		.cfi_def_cfa_offset 24
 234              		@ sp needed
 235 0056 BDE8F081 		pop	{r4, r5, r6, r7, r8, pc}
 236              		.cfi_endproc
 237              	.LFE2:
 238              		.size	MQTTSerialize_suback, .-MQTTSerialize_suback
 239 005a 00BF     		.text
 240              	.Letext0:
 241              		.file 2 "..\\paho.mqtt.embedded-c\\MQTTPacket\\src\\MQTTPacket.h"