ARM GAS  C:\Users\samue\AppData\Local\Temp\ccE7tJzb.s 			page 1


   1              		.syntax unified
   2              		.cpu cortex-m3
   3              		.fpu softvfp
   4              		.eabi_attribute 20, 1
   5              		.eabi_attribute 21, 1
   6              		.eabi_attribute 23, 3
   7              		.eabi_attribute 24, 1
   8              		.eabi_attribute 25, 1
   9              		.eabi_attribute 26, 1
  10              		.eabi_attribute 30, 1
  11              		.eabi_attribute 34, 1
  12              		.eabi_attribute 18, 4
  13              		.thumb
  14              		.syntax unified
  15              		.file	"MQTTUnsubscribeServer.c"
  16              		.text
  17              	.Ltext0:
  18              		.cfi_sections	.debug_frame
  19              		.section	.text.MQTTDeserialize_unsubscribe,"ax",%progbits
  20              		.align	2
  21              		.global	MQTTDeserialize_unsubscribe
  22              		.thumb
  23              		.thumb_func
  24              		.type	MQTTDeserialize_unsubscribe, %function
  25              	MQTTDeserialize_unsubscribe:
  26              	.LFB1:
  27              		.file 1 "..\\paho.mqtt.embedded-c\\MQTTPacket\\src\\MQTTUnsubscribeServer.c"
   1:..\paho.mqtt.embedded-c\MQTTPacket\src/MQTTUnsubscribeServer.c **** /*******************************************************************************
   2:..\paho.mqtt.embedded-c\MQTTPacket\src/MQTTUnsubscribeServer.c ****  * Copyright (c) 2014 IBM Corp.
   3:..\paho.mqtt.embedded-c\MQTTPacket\src/MQTTUnsubscribeServer.c ****  *
   4:..\paho.mqtt.embedded-c\MQTTPacket\src/MQTTUnsubscribeServer.c ****  * All rights reserved. This program and the accompanying materials
   5:..\paho.mqtt.embedded-c\MQTTPacket\src/MQTTUnsubscribeServer.c ****  * are made available under the terms of the Eclipse Public License v1.0
   6:..\paho.mqtt.embedded-c\MQTTPacket\src/MQTTUnsubscribeServer.c ****  * and Eclipse Distribution License v1.0 which accompany this distribution.
   7:..\paho.mqtt.embedded-c\MQTTPacket\src/MQTTUnsubscribeServer.c ****  *
   8:..\paho.mqtt.embedded-c\MQTTPacket\src/MQTTUnsubscribeServer.c ****  * The Eclipse Public License is available at
   9:..\paho.mqtt.embedded-c\MQTTPacket\src/MQTTUnsubscribeServer.c ****  *    http://www.eclipse.org/legal/epl-v10.html
  10:..\paho.mqtt.embedded-c\MQTTPacket\src/MQTTUnsubscribeServer.c ****  * and the Eclipse Distribution License is available at
  11:..\paho.mqtt.embedded-c\MQTTPacket\src/MQTTUnsubscribeServer.c ****  *   http://www.eclipse.org/org/documents/edl-v10.php.
  12:..\paho.mqtt.embedded-c\MQTTPacket\src/MQTTUnsubscribeServer.c ****  *
  13:..\paho.mqtt.embedded-c\MQTTPacket\src/MQTTUnsubscribeServer.c ****  * Contributors:
  14:..\paho.mqtt.embedded-c\MQTTPacket\src/MQTTUnsubscribeServer.c ****  *    Ian Craggs - initial API and implementation and/or initial documentation
  15:..\paho.mqtt.embedded-c\MQTTPacket\src/MQTTUnsubscribeServer.c ****  *******************************************************************************/
  16:..\paho.mqtt.embedded-c\MQTTPacket\src/MQTTUnsubscribeServer.c **** 
  17:..\paho.mqtt.embedded-c\MQTTPacket\src/MQTTUnsubscribeServer.c **** #include "MQTTPacket.h"
  18:..\paho.mqtt.embedded-c\MQTTPacket\src/MQTTUnsubscribeServer.c **** #include "StackTrace.h"
  19:..\paho.mqtt.embedded-c\MQTTPacket\src/MQTTUnsubscribeServer.c **** 
  20:..\paho.mqtt.embedded-c\MQTTPacket\src/MQTTUnsubscribeServer.c **** #include <string.h>
  21:..\paho.mqtt.embedded-c\MQTTPacket\src/MQTTUnsubscribeServer.c **** 
  22:..\paho.mqtt.embedded-c\MQTTPacket\src/MQTTUnsubscribeServer.c **** 
  23:..\paho.mqtt.embedded-c\MQTTPacket\src/MQTTUnsubscribeServer.c **** /**
  24:..\paho.mqtt.embedded-c\MQTTPacket\src/MQTTUnsubscribeServer.c ****   * Deserializes the supplied (wire) buffer into unsubscribe data
  25:..\paho.mqtt.embedded-c\MQTTPacket\src/MQTTUnsubscribeServer.c ****   * @param dup integer returned - the MQTT dup flag
  26:..\paho.mqtt.embedded-c\MQTTPacket\src/MQTTUnsubscribeServer.c ****   * @param packetid integer returned - the MQTT packet identifier
  27:..\paho.mqtt.embedded-c\MQTTPacket\src/MQTTUnsubscribeServer.c ****   * @param maxcount - the maximum number of members allowed in the topicFilters and requestedQoSs a
  28:..\paho.mqtt.embedded-c\MQTTPacket\src/MQTTUnsubscribeServer.c ****   * @param count - number of members in the topicFilters and requestedQoSs arrays
  29:..\paho.mqtt.embedded-c\MQTTPacket\src/MQTTUnsubscribeServer.c ****   * @param topicFilters - array of topic filter names
  30:..\paho.mqtt.embedded-c\MQTTPacket\src/MQTTUnsubscribeServer.c ****   * @param buf the raw buffer data, of the correct length determined by the remaining length field
ARM GAS  C:\Users\samue\AppData\Local\Temp\ccE7tJzb.s 			page 2


  31:..\paho.mqtt.embedded-c\MQTTPacket\src/MQTTUnsubscribeServer.c ****   * @param buflen the length in bytes of the data in the supplied buffer
  32:..\paho.mqtt.embedded-c\MQTTPacket\src/MQTTUnsubscribeServer.c ****   * @return the length of the serialized data.  <= 0 indicates error
  33:..\paho.mqtt.embedded-c\MQTTPacket\src/MQTTUnsubscribeServer.c ****   */
  34:..\paho.mqtt.embedded-c\MQTTPacket\src/MQTTUnsubscribeServer.c **** int MQTTDeserialize_unsubscribe(unsigned char* dup, unsigned short* packetid, int maxcount, int* co
  35:..\paho.mqtt.embedded-c\MQTTPacket\src/MQTTUnsubscribeServer.c **** 		unsigned char* buf, int len)
  36:..\paho.mqtt.embedded-c\MQTTPacket\src/MQTTUnsubscribeServer.c **** {
  28              		.loc 1 36 0
  29              		.cfi_startproc
  30              		@ args = 12, pretend = 0, frame = 8
  31              		@ frame_needed = 0, uses_anonymous_args = 0
  32              	.LVL0:
  33 0000 2DE9F041 		push	{r4, r5, r6, r7, r8, lr}
  34              		.cfi_def_cfa_offset 24
  35              		.cfi_offset 4, -24
  36              		.cfi_offset 5, -20
  37              		.cfi_offset 6, -16
  38              		.cfi_offset 7, -12
  39              		.cfi_offset 8, -8
  40              		.cfi_offset 14, -4
  41 0004 82B0     		sub	sp, sp, #8
  42              		.cfi_def_cfa_offset 32
  43 0006 0546     		mov	r5, r0
  44 0008 8846     		mov	r8, r1
  45 000a 1C46     		mov	r4, r3
  46 000c 089E     		ldr	r6, [sp, #32]
  37:..\paho.mqtt.embedded-c\MQTTPacket\src/MQTTUnsubscribeServer.c **** 	MQTTHeader header = {0};
  38:..\paho.mqtt.embedded-c\MQTTPacket\src/MQTTUnsubscribeServer.c **** 	unsigned char* curdata = buf;
  47              		.loc 1 38 0
  48 000e 099B     		ldr	r3, [sp, #36]
  49              	.LVL1:
  50 0010 0193     		str	r3, [sp, #4]
  51              	.LVL2:
  39:..\paho.mqtt.embedded-c\MQTTPacket\src/MQTTUnsubscribeServer.c **** 	unsigned char* enddata = NULL;
  40:..\paho.mqtt.embedded-c\MQTTPacket\src/MQTTUnsubscribeServer.c **** 	int rc = 0;
  41:..\paho.mqtt.embedded-c\MQTTPacket\src/MQTTUnsubscribeServer.c **** 	int mylen = 0;
  52              		.loc 1 41 0
  53 0012 0023     		movs	r3, #0
  54 0014 0093     		str	r3, [sp]
  42:..\paho.mqtt.embedded-c\MQTTPacket\src/MQTTUnsubscribeServer.c **** 
  43:..\paho.mqtt.embedded-c\MQTTPacket\src/MQTTUnsubscribeServer.c **** 	FUNC_ENTRY;
  44:..\paho.mqtt.embedded-c\MQTTPacket\src/MQTTUnsubscribeServer.c **** 	header.byte = readChar(&curdata);
  55              		.loc 1 44 0
  56 0016 01A8     		add	r0, sp, #4
  57              	.LVL3:
  58 0018 FFF7FEFF 		bl	readChar
  59              	.LVL4:
  60 001c 0023     		movs	r3, #0
  61              	.LVL5:
  62 001e 60F30703 		bfi	r3, r0, #0, #8
  63              	.LVL6:
  45:..\paho.mqtt.embedded-c\MQTTPacket\src/MQTTUnsubscribeServer.c **** 	if (header.bits.type != UNSUBSCRIBE)
  64              		.loc 1 45 0
  65 0022 03F0F002 		and	r2, r3, #240
  66 0026 A02A     		cmp	r2, #160
  67 0028 26D1     		bne	.L5
  46:..\paho.mqtt.embedded-c\MQTTPacket\src/MQTTUnsubscribeServer.c **** 		goto exit;
  47:..\paho.mqtt.embedded-c\MQTTPacket\src/MQTTUnsubscribeServer.c **** 	*dup = header.bits.dup;
ARM GAS  C:\Users\samue\AppData\Local\Temp\ccE7tJzb.s 			page 3


  68              		.loc 1 47 0
  69 002a C3F3C003 		ubfx	r3, r3, #3, #1
  70              	.LVL7:
  71 002e 2B70     		strb	r3, [r5]
  48:..\paho.mqtt.embedded-c\MQTTPacket\src/MQTTUnsubscribeServer.c **** 
  49:..\paho.mqtt.embedded-c\MQTTPacket\src/MQTTUnsubscribeServer.c **** 	curdata += (rc = MQTTPacket_decodeBuf(curdata, &mylen)); /* read remaining length */
  72              		.loc 1 49 0
  73 0030 6946     		mov	r1, sp
  74 0032 0198     		ldr	r0, [sp, #4]
  75 0034 FFF7FEFF 		bl	MQTTPacket_decodeBuf
  76              	.LVL8:
  77 0038 0746     		mov	r7, r0
  78              	.LVL9:
  79 003a 019D     		ldr	r5, [sp, #4]
  80              	.LVL10:
  81 003c 2B18     		adds	r3, r5, r0
  82 003e 0193     		str	r3, [sp, #4]
  50:..\paho.mqtt.embedded-c\MQTTPacket\src/MQTTUnsubscribeServer.c **** 	enddata = curdata + mylen;
  83              		.loc 1 50 0
  84 0040 009D     		ldr	r5, [sp]
  85 0042 1D44     		add	r5, r5, r3
  86              	.LVL11:
  51:..\paho.mqtt.embedded-c\MQTTPacket\src/MQTTUnsubscribeServer.c **** 
  52:..\paho.mqtt.embedded-c\MQTTPacket\src/MQTTUnsubscribeServer.c **** 	*packetid = readInt(&curdata);
  87              		.loc 1 52 0
  88 0044 01A8     		add	r0, sp, #4
  89              	.LVL12:
  90 0046 FFF7FEFF 		bl	readInt
  91              	.LVL13:
  92 004a A8F80000 		strh	r0, [r8]	@ movhi
  53:..\paho.mqtt.embedded-c\MQTTPacket\src/MQTTUnsubscribeServer.c **** 
  54:..\paho.mqtt.embedded-c\MQTTPacket\src/MQTTUnsubscribeServer.c **** 	*count = 0;
  93              		.loc 1 54 0
  94 004e 0023     		movs	r3, #0
  95 0050 2360     		str	r3, [r4]
  55:..\paho.mqtt.embedded-c\MQTTPacket\src/MQTTUnsubscribeServer.c **** 	while (curdata < enddata)
  96              		.loc 1 55 0
  97 0052 0CE0     		b	.L3
  98              	.L4:
  56:..\paho.mqtt.embedded-c\MQTTPacket\src/MQTTUnsubscribeServer.c **** 	{
  57:..\paho.mqtt.embedded-c\MQTTPacket\src/MQTTUnsubscribeServer.c **** 		if (!readMQTTLenString(&topicFilters[*count], &curdata, enddata))
  99              		.loc 1 57 0
 100 0054 2068     		ldr	r0, [r4]
 101 0056 00EB4000 		add	r0, r0, r0, lsl #1
 102 005a 2A46     		mov	r2, r5
 103 005c 01A9     		add	r1, sp, #4
 104 005e 06EB8000 		add	r0, r6, r0, lsl #2
 105 0062 FFF7FEFF 		bl	readMQTTLenString
 106              	.LVL14:
 107 0066 40B1     		cbz	r0, .L2
  58:..\paho.mqtt.embedded-c\MQTTPacket\src/MQTTUnsubscribeServer.c **** 			goto exit;
  59:..\paho.mqtt.embedded-c\MQTTPacket\src/MQTTUnsubscribeServer.c **** 		(*count)++;
 108              		.loc 1 59 0
 109 0068 2368     		ldr	r3, [r4]
 110 006a 0133     		adds	r3, r3, #1
 111 006c 2360     		str	r3, [r4]
 112              	.L3:
ARM GAS  C:\Users\samue\AppData\Local\Temp\ccE7tJzb.s 			page 4


  55:..\paho.mqtt.embedded-c\MQTTPacket\src/MQTTUnsubscribeServer.c **** 	{
 113              		.loc 1 55 0
 114 006e 019B     		ldr	r3, [sp, #4]
 115 0070 9D42     		cmp	r5, r3
 116 0072 EFD8     		bhi	.L4
  60:..\paho.mqtt.embedded-c\MQTTPacket\src/MQTTUnsubscribeServer.c **** 	}
  61:..\paho.mqtt.embedded-c\MQTTPacket\src/MQTTUnsubscribeServer.c **** 
  62:..\paho.mqtt.embedded-c\MQTTPacket\src/MQTTUnsubscribeServer.c **** 	rc = 1;
 117              		.loc 1 62 0
 118 0074 0127     		movs	r7, #1
 119              	.LVL15:
 120 0076 00E0     		b	.L2
 121              	.LVL16:
 122              	.L5:
  40:..\paho.mqtt.embedded-c\MQTTPacket\src/MQTTUnsubscribeServer.c **** 	int mylen = 0;
 123              		.loc 1 40 0
 124 0078 0027     		movs	r7, #0
 125              	.LVL17:
 126              	.L2:
  63:..\paho.mqtt.embedded-c\MQTTPacket\src/MQTTUnsubscribeServer.c **** exit:
  64:..\paho.mqtt.embedded-c\MQTTPacket\src/MQTTUnsubscribeServer.c **** 	FUNC_EXIT_RC(rc);
  65:..\paho.mqtt.embedded-c\MQTTPacket\src/MQTTUnsubscribeServer.c **** 	return rc;
  66:..\paho.mqtt.embedded-c\MQTTPacket\src/MQTTUnsubscribeServer.c **** }
 127              		.loc 1 66 0
 128 007a 3846     		mov	r0, r7
 129 007c 02B0     		add	sp, sp, #8
 130              		.cfi_def_cfa_offset 24
 131              		@ sp needed
 132 007e BDE8F081 		pop	{r4, r5, r6, r7, r8, pc}
 133              		.cfi_endproc
 134              	.LFE1:
 135              		.size	MQTTDeserialize_unsubscribe, .-MQTTDeserialize_unsubscribe
 136 0082 00BF     		.section	.text.MQTTSerialize_unsuback,"ax",%progbits
 137              		.align	2
 138              		.global	MQTTSerialize_unsuback
 139              		.thumb
 140              		.thumb_func
 141              		.type	MQTTSerialize_unsuback, %function
 142              	MQTTSerialize_unsuback:
 143              	.LFB2:
  67:..\paho.mqtt.embedded-c\MQTTPacket\src/MQTTUnsubscribeServer.c **** 
  68:..\paho.mqtt.embedded-c\MQTTPacket\src/MQTTUnsubscribeServer.c **** 
  69:..\paho.mqtt.embedded-c\MQTTPacket\src/MQTTUnsubscribeServer.c **** /**
  70:..\paho.mqtt.embedded-c\MQTTPacket\src/MQTTUnsubscribeServer.c ****   * Serializes the supplied unsuback data into the supplied buffer, ready for sending
  71:..\paho.mqtt.embedded-c\MQTTPacket\src/MQTTUnsubscribeServer.c ****   * @param buf the buffer into which the packet will be serialized
  72:..\paho.mqtt.embedded-c\MQTTPacket\src/MQTTUnsubscribeServer.c ****   * @param buflen the length in bytes of the supplied buffer
  73:..\paho.mqtt.embedded-c\MQTTPacket\src/MQTTUnsubscribeServer.c ****   * @param packetid integer - the MQTT packet identifier
  74:..\paho.mqtt.embedded-c\MQTTPacket\src/MQTTUnsubscribeServer.c ****   * @return the length of the serialized data.  <= 0 indicates error
  75:..\paho.mqtt.embedded-c\MQTTPacket\src/MQTTUnsubscribeServer.c ****   */
  76:..\paho.mqtt.embedded-c\MQTTPacket\src/MQTTUnsubscribeServer.c **** int MQTTSerialize_unsuback(unsigned char* buf, int buflen, unsigned short packetid)
  77:..\paho.mqtt.embedded-c\MQTTPacket\src/MQTTUnsubscribeServer.c **** {
 144              		.loc 1 77 0
 145              		.cfi_startproc
 146              		@ args = 0, pretend = 0, frame = 8
 147              		@ frame_needed = 0, uses_anonymous_args = 0
 148              	.LVL18:
 149 0000 30B5     		push	{r4, r5, lr}
ARM GAS  C:\Users\samue\AppData\Local\Temp\ccE7tJzb.s 			page 5


 150              		.cfi_def_cfa_offset 12
 151              		.cfi_offset 4, -12
 152              		.cfi_offset 5, -8
 153              		.cfi_offset 14, -4
 154 0002 83B0     		sub	sp, sp, #12
 155              		.cfi_def_cfa_offset 24
 156              	.LVL19:
  78:..\paho.mqtt.embedded-c\MQTTPacket\src/MQTTUnsubscribeServer.c **** 	MQTTHeader header = {0};
  79:..\paho.mqtt.embedded-c\MQTTPacket\src/MQTTUnsubscribeServer.c **** 	int rc = 0;
  80:..\paho.mqtt.embedded-c\MQTTPacket\src/MQTTUnsubscribeServer.c **** 	unsigned char *ptr = buf;
 157              		.loc 1 80 0
 158 0004 0190     		str	r0, [sp, #4]
  81:..\paho.mqtt.embedded-c\MQTTPacket\src/MQTTUnsubscribeServer.c **** 
  82:..\paho.mqtt.embedded-c\MQTTPacket\src/MQTTUnsubscribeServer.c **** 	FUNC_ENTRY;
  83:..\paho.mqtt.embedded-c\MQTTPacket\src/MQTTUnsubscribeServer.c **** 	if (buflen < 2)
 159              		.loc 1 83 0
 160 0006 0129     		cmp	r1, #1
 161 0008 13DD     		ble	.L9
 162 000a 1546     		mov	r5, r2
 163 000c 0446     		mov	r4, r0
  84:..\paho.mqtt.embedded-c\MQTTPacket\src/MQTTUnsubscribeServer.c **** 	{
  85:..\paho.mqtt.embedded-c\MQTTPacket\src/MQTTUnsubscribeServer.c **** 		rc = MQTTPACKET_BUFFER_TOO_SHORT;
  86:..\paho.mqtt.embedded-c\MQTTPacket\src/MQTTUnsubscribeServer.c **** 		goto exit;
  87:..\paho.mqtt.embedded-c\MQTTPacket\src/MQTTUnsubscribeServer.c **** 	}
  88:..\paho.mqtt.embedded-c\MQTTPacket\src/MQTTUnsubscribeServer.c **** 	header.byte = 0;
  89:..\paho.mqtt.embedded-c\MQTTPacket\src/MQTTUnsubscribeServer.c **** 	header.bits.type = UNSUBACK;
  90:..\paho.mqtt.embedded-c\MQTTPacket\src/MQTTUnsubscribeServer.c **** 	writeChar(&ptr, header.byte); /* write header */
 164              		.loc 1 90 0
 165 000e B021     		movs	r1, #176
 166              	.LVL20:
 167 0010 01A8     		add	r0, sp, #4
 168              	.LVL21:
 169 0012 FFF7FEFF 		bl	writeChar
 170              	.LVL22:
  91:..\paho.mqtt.embedded-c\MQTTPacket\src/MQTTUnsubscribeServer.c **** 
  92:..\paho.mqtt.embedded-c\MQTTPacket\src/MQTTUnsubscribeServer.c **** 	ptr += MQTTPacket_encode(ptr, 2); /* write remaining length */
 171              		.loc 1 92 0
 172 0016 0221     		movs	r1, #2
 173 0018 0198     		ldr	r0, [sp, #4]
 174 001a FFF7FEFF 		bl	MQTTPacket_encode
 175              	.LVL23:
 176 001e 019B     		ldr	r3, [sp, #4]
 177 0020 1844     		add	r0, r0, r3
 178 0022 0190     		str	r0, [sp, #4]
  93:..\paho.mqtt.embedded-c\MQTTPacket\src/MQTTUnsubscribeServer.c **** 
  94:..\paho.mqtt.embedded-c\MQTTPacket\src/MQTTUnsubscribeServer.c **** 	writeInt(&ptr, packetid);
 179              		.loc 1 94 0
 180 0024 2946     		mov	r1, r5
 181 0026 01A8     		add	r0, sp, #4
 182 0028 FFF7FEFF 		bl	writeInt
 183              	.LVL24:
  95:..\paho.mqtt.embedded-c\MQTTPacket\src/MQTTUnsubscribeServer.c **** 
  96:..\paho.mqtt.embedded-c\MQTTPacket\src/MQTTUnsubscribeServer.c **** 	rc = ptr - buf;
 184              		.loc 1 96 0
 185 002c 0198     		ldr	r0, [sp, #4]
 186 002e 001B     		subs	r0, r0, r4
 187              	.LVL25:
ARM GAS  C:\Users\samue\AppData\Local\Temp\ccE7tJzb.s 			page 6


 188 0030 01E0     		b	.L8
 189              	.LVL26:
 190              	.L9:
  85:..\paho.mqtt.embedded-c\MQTTPacket\src/MQTTUnsubscribeServer.c **** 		goto exit;
 191              		.loc 1 85 0
 192 0032 6FF00100 		mvn	r0, #1
 193              	.LVL27:
 194              	.L8:
  97:..\paho.mqtt.embedded-c\MQTTPacket\src/MQTTUnsubscribeServer.c **** exit:
  98:..\paho.mqtt.embedded-c\MQTTPacket\src/MQTTUnsubscribeServer.c **** 	FUNC_EXIT_RC(rc);
  99:..\paho.mqtt.embedded-c\MQTTPacket\src/MQTTUnsubscribeServer.c **** 	return rc;
 100:..\paho.mqtt.embedded-c\MQTTPacket\src/MQTTUnsubscribeServer.c **** }
 195              		.loc 1 100 0
 196 0036 03B0     		add	sp, sp, #12
 197              		.cfi_def_cfa_offset 12
 198              		@ sp needed
 199 0038 30BD     		pop	{r4, r5, pc}
 200              		.cfi_endproc
 201              	.LFE2:
 202              		.size	MQTTSerialize_unsuback, .-MQTTSerialize_unsuback
 203 003a 00BF     		.text
 204              	.Letext0:
 205              		.file 2 "..\\paho.mqtt.embedded-c\\MQTTPacket\\src\\MQTTPacket.h"