ARM GAS  C:\Users\samue\AppData\Local\Temp\ccYWUiYX.s 			page 1


   1              		.syntax unified
   2              		.cpu cortex-m3
   3              		.fpu softvfp
   4              		.eabi_attribute 20, 1
   5              		.eabi_attribute 21, 1
   6              		.eabi_attribute 23, 3
   7              		.eabi_attribute 24, 1
   8              		.eabi_attribute 25, 1
   9              		.eabi_attribute 26, 1
  10              		.eabi_attribute 30, 1
  11              		.eabi_attribute 34, 1
  12              		.eabi_attribute 18, 4
  13              		.thumb
  14              		.syntax unified
  15              		.file	"MQTTClient.c"
  16              		.text
  17              	.Ltext0:
  18              		.cfi_sections	.debug_frame
  19              		.section	.text.NewMessageData,"ax",%progbits
  20              		.align	2
  21              		.thumb
  22              		.thumb_func
  23              		.type	NewMessageData, %function
  24              	NewMessageData:
  25              	.LFB69:
  26              		.file 1 "..\\paho.mqtt.embedded-c\\MQTTClient-C\\src\\MQTTClient.c"
   1:..\paho.mqtt.embedded-c\MQTTClient-C\src/MQTTClient.c **** /*******************************************************************************
   2:..\paho.mqtt.embedded-c\MQTTClient-C\src/MQTTClient.c ****  * Copyright (c) 2014, 2017 IBM Corp.
   3:..\paho.mqtt.embedded-c\MQTTClient-C\src/MQTTClient.c ****  *
   4:..\paho.mqtt.embedded-c\MQTTClient-C\src/MQTTClient.c ****  * All rights reserved. This program and the accompanying materials
   5:..\paho.mqtt.embedded-c\MQTTClient-C\src/MQTTClient.c ****  * are made available under the terms of the Eclipse Public License v1.0
   6:..\paho.mqtt.embedded-c\MQTTClient-C\src/MQTTClient.c ****  * and Eclipse Distribution License v1.0 which accompany this distribution.
   7:..\paho.mqtt.embedded-c\MQTTClient-C\src/MQTTClient.c ****  *
   8:..\paho.mqtt.embedded-c\MQTTClient-C\src/MQTTClient.c ****  * The Eclipse Public License is available at
   9:..\paho.mqtt.embedded-c\MQTTClient-C\src/MQTTClient.c ****  *    http://www.eclipse.org/legal/epl-v10.html
  10:..\paho.mqtt.embedded-c\MQTTClient-C\src/MQTTClient.c ****  * and the Eclipse Distribution License is available at
  11:..\paho.mqtt.embedded-c\MQTTClient-C\src/MQTTClient.c ****  *   http://www.eclipse.org/org/documents/edl-v10.php.
  12:..\paho.mqtt.embedded-c\MQTTClient-C\src/MQTTClient.c ****  *
  13:..\paho.mqtt.embedded-c\MQTTClient-C\src/MQTTClient.c ****  * Contributors:
  14:..\paho.mqtt.embedded-c\MQTTClient-C\src/MQTTClient.c ****  *   Allan Stockdill-Mander/Ian Craggs - initial API and implementation and/or initial documentatio
  15:..\paho.mqtt.embedded-c\MQTTClient-C\src/MQTTClient.c ****  *   Ian Craggs - fix for #96 - check rem_len in readPacket
  16:..\paho.mqtt.embedded-c\MQTTClient-C\src/MQTTClient.c ****  *   Ian Craggs - add ability to set message handler separately #6
  17:..\paho.mqtt.embedded-c\MQTTClient-C\src/MQTTClient.c ****  *******************************************************************************/
  18:..\paho.mqtt.embedded-c\MQTTClient-C\src/MQTTClient.c **** #include "MQTTClient.h"
  19:..\paho.mqtt.embedded-c\MQTTClient-C\src/MQTTClient.c **** 
  20:..\paho.mqtt.embedded-c\MQTTClient-C\src/MQTTClient.c **** #include <stdio.h>
  21:..\paho.mqtt.embedded-c\MQTTClient-C\src/MQTTClient.c **** #include <string.h>
  22:..\paho.mqtt.embedded-c\MQTTClient-C\src/MQTTClient.c **** 
  23:..\paho.mqtt.embedded-c\MQTTClient-C\src/MQTTClient.c **** static void NewMessageData(MessageData* md, MQTTString* aTopicName, MQTTMessage* aMessage) {
  27              		.loc 1 23 0
  28              		.cfi_startproc
  29              		@ args = 0, pretend = 0, frame = 0
  30              		@ frame_needed = 0, uses_anonymous_args = 0
  31              		@ link register save eliminated.
  32              	.LVL0:
  24:..\paho.mqtt.embedded-c\MQTTClient-C\src/MQTTClient.c ****     md->topicName = aTopicName;
  33              		.loc 1 24 0
ARM GAS  C:\Users\samue\AppData\Local\Temp\ccYWUiYX.s 			page 2


  34 0000 4160     		str	r1, [r0, #4]
  25:..\paho.mqtt.embedded-c\MQTTClient-C\src/MQTTClient.c ****     md->message = aMessage;
  35              		.loc 1 25 0
  36 0002 0260     		str	r2, [r0]
  37 0004 7047     		bx	lr
  38              		.cfi_endproc
  39              	.LFE69:
  40              		.size	NewMessageData, .-NewMessageData
  41 0006 00BF     		.section	.text.getNextPacketId,"ax",%progbits
  42              		.align	2
  43              		.thumb
  44              		.thumb_func
  45              		.type	getNextPacketId, %function
  46              	getNextPacketId:
  47              	.LFB70:
  26:..\paho.mqtt.embedded-c\MQTTClient-C\src/MQTTClient.c **** }
  27:..\paho.mqtt.embedded-c\MQTTClient-C\src/MQTTClient.c **** 
  28:..\paho.mqtt.embedded-c\MQTTClient-C\src/MQTTClient.c **** 
  29:..\paho.mqtt.embedded-c\MQTTClient-C\src/MQTTClient.c **** static int getNextPacketId(MQTTClient *c) {
  48              		.loc 1 29 0
  49              		.cfi_startproc
  50              		@ args = 0, pretend = 0, frame = 0
  51              		@ frame_needed = 0, uses_anonymous_args = 0
  52              		@ link register save eliminated.
  53              	.LVL1:
  30:..\paho.mqtt.embedded-c\MQTTClient-C\src/MQTTClient.c ****     return c->next_packetid = (c->next_packetid == MAX_PACKET_ID) ? 1 : c->next_packetid + 1;
  54              		.loc 1 30 0
  55 0000 0368     		ldr	r3, [r0]
  56 0002 4FF6FF72 		movw	r2, #65535
  57 0006 9342     		cmp	r3, r2
  58 0008 01D0     		beq	.L4
  59              		.loc 1 30 0 is_stmt 0 discriminator 1
  60 000a 0133     		adds	r3, r3, #1
  61 000c 00E0     		b	.L3
  62              	.L4:
  63              		.loc 1 30 0
  64 000e 0123     		movs	r3, #1
  65              	.L3:
  66              		.loc 1 30 0 discriminator 4
  67 0010 0360     		str	r3, [r0]
  31:..\paho.mqtt.embedded-c\MQTTClient-C\src/MQTTClient.c **** }
  68              		.loc 1 31 0 is_stmt 1 discriminator 4
  69 0012 1846     		mov	r0, r3
  70              	.LVL2:
  71 0014 7047     		bx	lr
  72              		.cfi_endproc
  73              	.LFE70:
  74              		.size	getNextPacketId, .-getNextPacketId
  75 0016 00BF     		.section	.text.decodePacket,"ax",%progbits
  76              		.align	2
  77              		.thumb
  78              		.thumb_func
  79              		.type	decodePacket, %function
  80              	decodePacket:
  81              	.LFB73:
  32:..\paho.mqtt.embedded-c\MQTTClient-C\src/MQTTClient.c **** 
  33:..\paho.mqtt.embedded-c\MQTTClient-C\src/MQTTClient.c **** 
ARM GAS  C:\Users\samue\AppData\Local\Temp\ccYWUiYX.s 			page 3


  34:..\paho.mqtt.embedded-c\MQTTClient-C\src/MQTTClient.c **** static int sendPacket(MQTTClient* c, int length, Timer* timer)
  35:..\paho.mqtt.embedded-c\MQTTClient-C\src/MQTTClient.c **** {
  36:..\paho.mqtt.embedded-c\MQTTClient-C\src/MQTTClient.c ****     int rc = FAILURE,
  37:..\paho.mqtt.embedded-c\MQTTClient-C\src/MQTTClient.c ****         sent = 0;
  38:..\paho.mqtt.embedded-c\MQTTClient-C\src/MQTTClient.c **** 
  39:..\paho.mqtt.embedded-c\MQTTClient-C\src/MQTTClient.c ****     while (sent < length && !TimerIsExpired(timer))
  40:..\paho.mqtt.embedded-c\MQTTClient-C\src/MQTTClient.c ****     {
  41:..\paho.mqtt.embedded-c\MQTTClient-C\src/MQTTClient.c ****         rc = c->ipstack->mqttwrite(c->ipstack, &c->buf[sent], length, TimerLeftMS(timer));
  42:..\paho.mqtt.embedded-c\MQTTClient-C\src/MQTTClient.c ****         if (rc < 0)  // there was an error writing the data
  43:..\paho.mqtt.embedded-c\MQTTClient-C\src/MQTTClient.c ****             break;
  44:..\paho.mqtt.embedded-c\MQTTClient-C\src/MQTTClient.c ****         sent += rc;
  45:..\paho.mqtt.embedded-c\MQTTClient-C\src/MQTTClient.c ****     }
  46:..\paho.mqtt.embedded-c\MQTTClient-C\src/MQTTClient.c ****     if (sent == length)
  47:..\paho.mqtt.embedded-c\MQTTClient-C\src/MQTTClient.c ****     {
  48:..\paho.mqtt.embedded-c\MQTTClient-C\src/MQTTClient.c ****         TimerCountdown(&c->last_sent, c->keepAliveInterval); // record the fact that we have succes
  49:..\paho.mqtt.embedded-c\MQTTClient-C\src/MQTTClient.c ****         rc = SUCCESS;
  50:..\paho.mqtt.embedded-c\MQTTClient-C\src/MQTTClient.c ****     }
  51:..\paho.mqtt.embedded-c\MQTTClient-C\src/MQTTClient.c ****     else
  52:..\paho.mqtt.embedded-c\MQTTClient-C\src/MQTTClient.c ****         rc = FAILURE;
  53:..\paho.mqtt.embedded-c\MQTTClient-C\src/MQTTClient.c ****     return rc;
  54:..\paho.mqtt.embedded-c\MQTTClient-C\src/MQTTClient.c **** }
  55:..\paho.mqtt.embedded-c\MQTTClient-C\src/MQTTClient.c **** 
  56:..\paho.mqtt.embedded-c\MQTTClient-C\src/MQTTClient.c **** 
  57:..\paho.mqtt.embedded-c\MQTTClient-C\src/MQTTClient.c **** void MQTTClientInit(MQTTClient* c, Network* network, unsigned int command_timeout_ms,
  58:..\paho.mqtt.embedded-c\MQTTClient-C\src/MQTTClient.c **** 		unsigned char* sendbuf, size_t sendbuf_size, unsigned char* readbuf, size_t readbuf_size)
  59:..\paho.mqtt.embedded-c\MQTTClient-C\src/MQTTClient.c **** {
  60:..\paho.mqtt.embedded-c\MQTTClient-C\src/MQTTClient.c ****     int i;
  61:..\paho.mqtt.embedded-c\MQTTClient-C\src/MQTTClient.c ****     c->ipstack = network;
  62:..\paho.mqtt.embedded-c\MQTTClient-C\src/MQTTClient.c **** 
  63:..\paho.mqtt.embedded-c\MQTTClient-C\src/MQTTClient.c ****     for (i = 0; i < MAX_MESSAGE_HANDLERS; ++i)
  64:..\paho.mqtt.embedded-c\MQTTClient-C\src/MQTTClient.c ****         c->messageHandlers[i].topicFilter = 0;
  65:..\paho.mqtt.embedded-c\MQTTClient-C\src/MQTTClient.c ****     c->command_timeout_ms = command_timeout_ms;
  66:..\paho.mqtt.embedded-c\MQTTClient-C\src/MQTTClient.c ****     c->buf = sendbuf;
  67:..\paho.mqtt.embedded-c\MQTTClient-C\src/MQTTClient.c ****     c->buf_size = sendbuf_size;
  68:..\paho.mqtt.embedded-c\MQTTClient-C\src/MQTTClient.c ****     c->readbuf = readbuf;
  69:..\paho.mqtt.embedded-c\MQTTClient-C\src/MQTTClient.c ****     c->readbuf_size = readbuf_size;
  70:..\paho.mqtt.embedded-c\MQTTClient-C\src/MQTTClient.c ****     c->isconnected = 0;
  71:..\paho.mqtt.embedded-c\MQTTClient-C\src/MQTTClient.c ****     c->cleansession = 0;
  72:..\paho.mqtt.embedded-c\MQTTClient-C\src/MQTTClient.c ****     c->ping_outstanding = 0;
  73:..\paho.mqtt.embedded-c\MQTTClient-C\src/MQTTClient.c ****     c->defaultMessageHandler = NULL;
  74:..\paho.mqtt.embedded-c\MQTTClient-C\src/MQTTClient.c **** 	  c->next_packetid = 1;
  75:..\paho.mqtt.embedded-c\MQTTClient-C\src/MQTTClient.c ****     TimerInit(&c->last_sent);
  76:..\paho.mqtt.embedded-c\MQTTClient-C\src/MQTTClient.c ****     TimerInit(&c->last_received);
  77:..\paho.mqtt.embedded-c\MQTTClient-C\src/MQTTClient.c **** #if defined(MQTT_TASK)
  78:..\paho.mqtt.embedded-c\MQTTClient-C\src/MQTTClient.c **** 	  MutexInit(&c->mutex);
  79:..\paho.mqtt.embedded-c\MQTTClient-C\src/MQTTClient.c **** #endif
  80:..\paho.mqtt.embedded-c\MQTTClient-C\src/MQTTClient.c **** }
  81:..\paho.mqtt.embedded-c\MQTTClient-C\src/MQTTClient.c **** 
  82:..\paho.mqtt.embedded-c\MQTTClient-C\src/MQTTClient.c **** 
  83:..\paho.mqtt.embedded-c\MQTTClient-C\src/MQTTClient.c **** static int decodePacket(MQTTClient* c, int* value, int timeout)
  84:..\paho.mqtt.embedded-c\MQTTClient-C\src/MQTTClient.c **** {
  82              		.loc 1 84 0
  83              		.cfi_startproc
  84              		@ args = 0, pretend = 0, frame = 8
  85              		@ frame_needed = 0, uses_anonymous_args = 0
  86              	.LVL3:
  87 0000 2DE9F043 		push	{r4, r5, r6, r7, r8, r9, lr}
ARM GAS  C:\Users\samue\AppData\Local\Temp\ccYWUiYX.s 			page 4


  88              		.cfi_def_cfa_offset 28
  89              		.cfi_offset 4, -28
  90              		.cfi_offset 5, -24
  91              		.cfi_offset 6, -20
  92              		.cfi_offset 7, -16
  93              		.cfi_offset 8, -12
  94              		.cfi_offset 9, -8
  95              		.cfi_offset 14, -4
  96 0004 83B0     		sub	sp, sp, #12
  97              		.cfi_def_cfa_offset 40
  98 0006 8046     		mov	r8, r0
  99 0008 0E46     		mov	r6, r1
 100 000a 9146     		mov	r9, r2
 101              	.LVL4:
  85:..\paho.mqtt.embedded-c\MQTTClient-C\src/MQTTClient.c ****     unsigned char i;
  86:..\paho.mqtt.embedded-c\MQTTClient-C\src/MQTTClient.c ****     int multiplier = 1;
  87:..\paho.mqtt.embedded-c\MQTTClient-C\src/MQTTClient.c ****     int len = 0;
  88:..\paho.mqtt.embedded-c\MQTTClient-C\src/MQTTClient.c ****     const int MAX_NO_OF_REMAINING_LENGTH_BYTES = 4;
  89:..\paho.mqtt.embedded-c\MQTTClient-C\src/MQTTClient.c **** 
  90:..\paho.mqtt.embedded-c\MQTTClient-C\src/MQTTClient.c ****     *value = 0;
 102              		.loc 1 90 0
 103 000c 0024     		movs	r4, #0
 104 000e 0C60     		str	r4, [r1]
  86:..\paho.mqtt.embedded-c\MQTTClient-C\src/MQTTClient.c ****     int len = 0;
 105              		.loc 1 86 0
 106 0010 0125     		movs	r5, #1
 107              	.LVL5:
 108              	.L7:
 109              	.LBB2:
  91:..\paho.mqtt.embedded-c\MQTTClient-C\src/MQTTClient.c ****     do
  92:..\paho.mqtt.embedded-c\MQTTClient-C\src/MQTTClient.c ****     {
  93:..\paho.mqtt.embedded-c\MQTTClient-C\src/MQTTClient.c ****         int rc = MQTTPACKET_READ_ERROR;
  94:..\paho.mqtt.embedded-c\MQTTClient-C\src/MQTTClient.c **** 
  95:..\paho.mqtt.embedded-c\MQTTClient-C\src/MQTTClient.c ****         if (++len > MAX_NO_OF_REMAINING_LENGTH_BYTES)
 110              		.loc 1 95 0
 111 0012 0134     		adds	r4, r4, #1
 112              	.LVL6:
 113 0014 042C     		cmp	r4, #4
 114 0016 16DC     		bgt	.L6
  96:..\paho.mqtt.embedded-c\MQTTClient-C\src/MQTTClient.c ****         {
  97:..\paho.mqtt.embedded-c\MQTTClient-C\src/MQTTClient.c ****             rc = MQTTPACKET_READ_ERROR; /* bad data */
  98:..\paho.mqtt.embedded-c\MQTTClient-C\src/MQTTClient.c ****             goto exit;
  99:..\paho.mqtt.embedded-c\MQTTClient-C\src/MQTTClient.c ****         }
 100:..\paho.mqtt.embedded-c\MQTTClient-C\src/MQTTClient.c ****         rc = c->ipstack->mqttread(c->ipstack, &i, 1, timeout);
 115              		.loc 1 100 0
 116 0018 D8F85400 		ldr	r0, [r8, #84]
 117 001c C768     		ldr	r7, [r0, #12]
 118 001e 4B46     		mov	r3, r9
 119 0020 0122     		movs	r2, #1
 120 0022 0DF10701 		add	r1, sp, #7
 121 0026 B847     		blx	r7
 122              	.LVL7:
 101:..\paho.mqtt.embedded-c\MQTTClient-C\src/MQTTClient.c ****         if (rc != 1)
 123              		.loc 1 101 0
 124 0028 0128     		cmp	r0, #1
 125 002a 0CD1     		bne	.L6
 102:..\paho.mqtt.embedded-c\MQTTClient-C\src/MQTTClient.c ****             goto exit;
ARM GAS  C:\Users\samue\AppData\Local\Temp\ccYWUiYX.s 			page 5


 103:..\paho.mqtt.embedded-c\MQTTClient-C\src/MQTTClient.c ****         *value += (i & 127) * multiplier;
 126              		.loc 1 103 0
 127 002c 9DF80730 		ldrb	r3, [sp, #7]	@ zero_extendqisi2
 128 0030 03F07F03 		and	r3, r3, #127
 129 0034 3268     		ldr	r2, [r6]
 130 0036 03FB0523 		mla	r3, r3, r5, r2
 131 003a 3360     		str	r3, [r6]
 104:..\paho.mqtt.embedded-c\MQTTClient-C\src/MQTTClient.c ****         multiplier *= 128;
 132              		.loc 1 104 0
 133 003c ED01     		lsls	r5, r5, #7
 134              	.LVL8:
 135              	.LBE2:
 105:..\paho.mqtt.embedded-c\MQTTClient-C\src/MQTTClient.c ****     } while ((i & 128) != 0);
 136              		.loc 1 105 0
 137 003e 9DF90730 		ldrsb	r3, [sp, #7]
 138 0042 002B     		cmp	r3, #0
 139 0044 E5DB     		blt	.L7
 140              	.LVL9:
 141              	.L6:
 106:..\paho.mqtt.embedded-c\MQTTClient-C\src/MQTTClient.c **** exit:
 107:..\paho.mqtt.embedded-c\MQTTClient-C\src/MQTTClient.c ****     return len;
 108:..\paho.mqtt.embedded-c\MQTTClient-C\src/MQTTClient.c **** }
 142              		.loc 1 108 0
 143 0046 2046     		mov	r0, r4
 144 0048 03B0     		add	sp, sp, #12
 145              		.cfi_def_cfa_offset 28
 146              		@ sp needed
 147 004a BDE8F083 		pop	{r4, r5, r6, r7, r8, r9, pc}
 148              		.cfi_endproc
 149              	.LFE73:
 150              		.size	decodePacket, .-decodePacket
 151 004e 00BF     		.section	.text.isTopicMatched,"ax",%progbits
 152              		.align	2
 153              		.thumb
 154              		.thumb_func
 155              		.type	isTopicMatched, %function
 156              	isTopicMatched:
 157              	.LFB75:
 109:..\paho.mqtt.embedded-c\MQTTClient-C\src/MQTTClient.c **** 
 110:..\paho.mqtt.embedded-c\MQTTClient-C\src/MQTTClient.c **** 
 111:..\paho.mqtt.embedded-c\MQTTClient-C\src/MQTTClient.c **** static int readPacket(MQTTClient* c, Timer* timer)
 112:..\paho.mqtt.embedded-c\MQTTClient-C\src/MQTTClient.c **** {
 113:..\paho.mqtt.embedded-c\MQTTClient-C\src/MQTTClient.c ****     MQTTHeader header = {0};
 114:..\paho.mqtt.embedded-c\MQTTClient-C\src/MQTTClient.c ****     int len = 0;
 115:..\paho.mqtt.embedded-c\MQTTClient-C\src/MQTTClient.c ****     int rem_len = 0;
 116:..\paho.mqtt.embedded-c\MQTTClient-C\src/MQTTClient.c **** 
 117:..\paho.mqtt.embedded-c\MQTTClient-C\src/MQTTClient.c ****     /* 1. read the header byte.  This has the packet type in it */
 118:..\paho.mqtt.embedded-c\MQTTClient-C\src/MQTTClient.c ****     int rc = c->ipstack->mqttread(c->ipstack, c->readbuf, 1, TimerLeftMS(timer));
 119:..\paho.mqtt.embedded-c\MQTTClient-C\src/MQTTClient.c ****     if (rc != 1)
 120:..\paho.mqtt.embedded-c\MQTTClient-C\src/MQTTClient.c ****         goto exit;
 121:..\paho.mqtt.embedded-c\MQTTClient-C\src/MQTTClient.c **** 
 122:..\paho.mqtt.embedded-c\MQTTClient-C\src/MQTTClient.c ****     len = 1;
 123:..\paho.mqtt.embedded-c\MQTTClient-C\src/MQTTClient.c ****     /* 2. read the remaining length.  This is variable in itself */
 124:..\paho.mqtt.embedded-c\MQTTClient-C\src/MQTTClient.c ****     decodePacket(c, &rem_len, TimerLeftMS(timer));
 125:..\paho.mqtt.embedded-c\MQTTClient-C\src/MQTTClient.c ****     len += MQTTPacket_encode(c->readbuf + 1, rem_len); /* put the original remaining length back in
 126:..\paho.mqtt.embedded-c\MQTTClient-C\src/MQTTClient.c **** 
 127:..\paho.mqtt.embedded-c\MQTTClient-C\src/MQTTClient.c ****     if (rem_len > (c->readbuf_size - len))
ARM GAS  C:\Users\samue\AppData\Local\Temp\ccYWUiYX.s 			page 6


 128:..\paho.mqtt.embedded-c\MQTTClient-C\src/MQTTClient.c ****     {
 129:..\paho.mqtt.embedded-c\MQTTClient-C\src/MQTTClient.c ****         rc = BUFFER_OVERFLOW;
 130:..\paho.mqtt.embedded-c\MQTTClient-C\src/MQTTClient.c ****         goto exit;
 131:..\paho.mqtt.embedded-c\MQTTClient-C\src/MQTTClient.c ****     }
 132:..\paho.mqtt.embedded-c\MQTTClient-C\src/MQTTClient.c **** 
 133:..\paho.mqtt.embedded-c\MQTTClient-C\src/MQTTClient.c ****     /* 3. read the rest of the buffer using a callback to supply the rest of the data */
 134:..\paho.mqtt.embedded-c\MQTTClient-C\src/MQTTClient.c ****     if (rem_len > 0 && (rc = c->ipstack->mqttread(c->ipstack, c->readbuf + len, rem_len, TimerLeftM
 135:..\paho.mqtt.embedded-c\MQTTClient-C\src/MQTTClient.c ****         rc = 0;
 136:..\paho.mqtt.embedded-c\MQTTClient-C\src/MQTTClient.c ****         goto exit;
 137:..\paho.mqtt.embedded-c\MQTTClient-C\src/MQTTClient.c ****     }
 138:..\paho.mqtt.embedded-c\MQTTClient-C\src/MQTTClient.c **** 
 139:..\paho.mqtt.embedded-c\MQTTClient-C\src/MQTTClient.c ****     header.byte = c->readbuf[0];
 140:..\paho.mqtt.embedded-c\MQTTClient-C\src/MQTTClient.c ****     rc = header.bits.type;
 141:..\paho.mqtt.embedded-c\MQTTClient-C\src/MQTTClient.c ****     if (c->keepAliveInterval > 0)
 142:..\paho.mqtt.embedded-c\MQTTClient-C\src/MQTTClient.c ****         TimerCountdown(&c->last_received, c->keepAliveInterval); // record the fact that we have su
 143:..\paho.mqtt.embedded-c\MQTTClient-C\src/MQTTClient.c **** exit:
 144:..\paho.mqtt.embedded-c\MQTTClient-C\src/MQTTClient.c ****     return rc;
 145:..\paho.mqtt.embedded-c\MQTTClient-C\src/MQTTClient.c **** }
 146:..\paho.mqtt.embedded-c\MQTTClient-C\src/MQTTClient.c **** 
 147:..\paho.mqtt.embedded-c\MQTTClient-C\src/MQTTClient.c **** 
 148:..\paho.mqtt.embedded-c\MQTTClient-C\src/MQTTClient.c **** // assume topic filter and name is in correct format
 149:..\paho.mqtt.embedded-c\MQTTClient-C\src/MQTTClient.c **** // # can only be at end
 150:..\paho.mqtt.embedded-c\MQTTClient-C\src/MQTTClient.c **** // + and # can only be next to separator
 151:..\paho.mqtt.embedded-c\MQTTClient-C\src/MQTTClient.c **** static char isTopicMatched(char* topicFilter, MQTTString* topicName)
 152:..\paho.mqtt.embedded-c\MQTTClient-C\src/MQTTClient.c **** {
 158              		.loc 1 152 0
 159              		.cfi_startproc
 160              		@ args = 0, pretend = 0, frame = 0
 161              		@ frame_needed = 0, uses_anonymous_args = 0
 162              		@ link register save eliminated.
 163              	.LVL10:
 164 0000 10B4     		push	{r4}
 165              		.cfi_def_cfa_offset 4
 166              		.cfi_offset 4, -4
 167              	.LVL11:
 153:..\paho.mqtt.embedded-c\MQTTClient-C\src/MQTTClient.c ****     char* curf = topicFilter;
 154:..\paho.mqtt.embedded-c\MQTTClient-C\src/MQTTClient.c ****     char* curn = topicName->lenstring.data;
 168              		.loc 1 154 0
 169 0002 8B68     		ldr	r3, [r1, #8]
 170              	.LVL12:
 155:..\paho.mqtt.embedded-c\MQTTClient-C\src/MQTTClient.c ****     char* curn_end = curn + topicName->lenstring.len;
 171              		.loc 1 155 0
 172 0004 4968     		ldr	r1, [r1, #4]
 173              	.LVL13:
 174 0006 1944     		add	r1, r1, r3
 175              	.LVL14:
 156:..\paho.mqtt.embedded-c\MQTTClient-C\src/MQTTClient.c **** 
 157:..\paho.mqtt.embedded-c\MQTTClient-C\src/MQTTClient.c ****     while (*curf && curn < curn_end)
 176              		.loc 1 157 0
 177 0008 1BE0     		b	.L10
 178              	.LVL15:
 179              	.L18:
 158:..\paho.mqtt.embedded-c\MQTTClient-C\src/MQTTClient.c ****     {
 159:..\paho.mqtt.embedded-c\MQTTClient-C\src/MQTTClient.c ****         if (*curn == '/' && *curf != '/')
 180              		.loc 1 159 0
 181 000a 1C78     		ldrb	r4, [r3]	@ zero_extendqisi2
 182 000c 2F2C     		cmp	r4, #47
ARM GAS  C:\Users\samue\AppData\Local\Temp\ccYWUiYX.s 			page 7


 183 000e 01D1     		bne	.L11
 184              		.loc 1 159 0 is_stmt 0 discriminator 1
 185 0010 2F2A     		cmp	r2, #47
 186 0012 1AD1     		bne	.L12
 187              	.L11:
 160:..\paho.mqtt.embedded-c\MQTTClient-C\src/MQTTClient.c ****             break;
 161:..\paho.mqtt.embedded-c\MQTTClient-C\src/MQTTClient.c ****         if (*curf != '+' && *curf != '#' && *curf != *curn)
 188              		.loc 1 161 0 is_stmt 1
 189 0014 2B2A     		cmp	r2, #43
 190 0016 03D0     		beq	.L13
 191              		.loc 1 161 0 is_stmt 0 discriminator 1
 192 0018 232A     		cmp	r2, #35
 193 001a 01D0     		beq	.L13
 194              		.loc 1 161 0 discriminator 2
 195 001c A242     		cmp	r2, r4
 196 001e 14D1     		bne	.L12
 197              	.L13:
 162:..\paho.mqtt.embedded-c\MQTTClient-C\src/MQTTClient.c ****             break;
 163:..\paho.mqtt.embedded-c\MQTTClient-C\src/MQTTClient.c ****         if (*curf == '+')
 198              		.loc 1 163 0 is_stmt 1
 199 0020 2B2A     		cmp	r2, #43
 200 0022 09D1     		bne	.L14
 201              	.LBB3:
 164:..\paho.mqtt.embedded-c\MQTTClient-C\src/MQTTClient.c ****         {   // skip until we meet the next separator, or end of string
 165:..\paho.mqtt.embedded-c\MQTTClient-C\src/MQTTClient.c ****             char* nextpos = curn + 1;
 202              		.loc 1 165 0
 203 0024 5A1C     		adds	r2, r3, #1
 204              	.LVL16:
 166:..\paho.mqtt.embedded-c\MQTTClient-C\src/MQTTClient.c ****             while (nextpos < curn_end && *nextpos != '/')
 205              		.loc 1 166 0
 206 0026 01E0     		b	.L15
 207              	.LVL17:
 208              	.L17:
 167:..\paho.mqtt.embedded-c\MQTTClient-C\src/MQTTClient.c ****                 nextpos = ++curn + 1;
 209              		.loc 1 167 0
 210 0028 0133     		adds	r3, r3, #1
 211              	.LVL18:
 212 002a 5A1C     		adds	r2, r3, #1
 213              	.LVL19:
 214              	.L15:
 166:..\paho.mqtt.embedded-c\MQTTClient-C\src/MQTTClient.c ****             while (nextpos < curn_end && *nextpos != '/')
 215              		.loc 1 166 0
 216 002c 8A42     		cmp	r2, r1
 217 002e 06D2     		bcs	.L16
 166:..\paho.mqtt.embedded-c\MQTTClient-C\src/MQTTClient.c ****             while (nextpos < curn_end && *nextpos != '/')
 218              		.loc 1 166 0 is_stmt 0 discriminator 1
 219 0030 1278     		ldrb	r2, [r2]	@ zero_extendqisi2
 220              	.LVL20:
 221 0032 2F2A     		cmp	r2, #47
 222 0034 F8D1     		bne	.L17
 223 0036 02E0     		b	.L16
 224              	.L14:
 225              	.LBE3:
 168:..\paho.mqtt.embedded-c\MQTTClient-C\src/MQTTClient.c ****         }
 169:..\paho.mqtt.embedded-c\MQTTClient-C\src/MQTTClient.c ****         else if (*curf == '#')
 226              		.loc 1 169 0 is_stmt 1
 227 0038 232A     		cmp	r2, #35
ARM GAS  C:\Users\samue\AppData\Local\Temp\ccYWUiYX.s 			page 8


 228 003a 00D1     		bne	.L16
 170:..\paho.mqtt.embedded-c\MQTTClient-C\src/MQTTClient.c ****             curn = curn_end - 1;    // skip until end of string
 229              		.loc 1 170 0
 230 003c 4B1E     		subs	r3, r1, #1
 231              	.LVL21:
 232              	.L16:
 171:..\paho.mqtt.embedded-c\MQTTClient-C\src/MQTTClient.c ****         curf++;
 233              		.loc 1 171 0
 234 003e 0130     		adds	r0, r0, #1
 235              	.LVL22:
 172:..\paho.mqtt.embedded-c\MQTTClient-C\src/MQTTClient.c ****         curn++;
 236              		.loc 1 172 0
 237 0040 0133     		adds	r3, r3, #1
 238              	.LVL23:
 239              	.L10:
 157:..\paho.mqtt.embedded-c\MQTTClient-C\src/MQTTClient.c ****     {
 240              		.loc 1 157 0
 241 0042 0278     		ldrb	r2, [r0]	@ zero_extendqisi2
 242 0044 0AB1     		cbz	r2, .L12
 157:..\paho.mqtt.embedded-c\MQTTClient-C\src/MQTTClient.c ****     {
 243              		.loc 1 157 0 is_stmt 0 discriminator 1
 244 0046 8B42     		cmp	r3, r1
 245 0048 DFD3     		bcc	.L18
 246              	.L12:
 173:..\paho.mqtt.embedded-c\MQTTClient-C\src/MQTTClient.c ****     };
 174:..\paho.mqtt.embedded-c\MQTTClient-C\src/MQTTClient.c **** 
 175:..\paho.mqtt.embedded-c\MQTTClient-C\src/MQTTClient.c ****     return (curn == curn_end) && (*curf == '\0');
 247              		.loc 1 175 0 is_stmt 1
 248 004a 8B42     		cmp	r3, r1
 249 004c 02D1     		bne	.L20
 250              		.loc 1 175 0 is_stmt 0 discriminator 1
 251 004e 1AB1     		cbz	r2, .L21
 252              		.loc 1 175 0
 253 0050 0020     		movs	r0, #0
 254              	.LVL24:
 255 0052 02E0     		b	.L19
 256              	.LVL25:
 257              	.L20:
 258 0054 0020     		movs	r0, #0
 259              	.LVL26:
 260 0056 00E0     		b	.L19
 261              	.LVL27:
 262              	.L21:
 263 0058 0120     		movs	r0, #1
 264              	.LVL28:
 265              	.L19:
 176:..\paho.mqtt.embedded-c\MQTTClient-C\src/MQTTClient.c **** }
 266              		.loc 1 176 0 is_stmt 1 discriminator 6
 267 005a 10BC     		pop	{r4}
 268              		.cfi_restore 4
 269              		.cfi_def_cfa_offset 0
 270 005c 7047     		bx	lr
 271              		.cfi_endproc
 272              	.LFE75:
 273              		.size	isTopicMatched, .-isTopicMatched
 274 005e 00BF     		.section	.text.sendPacket,"ax",%progbits
 275              		.align	2
ARM GAS  C:\Users\samue\AppData\Local\Temp\ccYWUiYX.s 			page 9


 276              		.thumb
 277              		.thumb_func
 278              		.type	sendPacket, %function
 279              	sendPacket:
 280              	.LFB71:
  35:..\paho.mqtt.embedded-c\MQTTClient-C\src/MQTTClient.c ****     int rc = FAILURE,
 281              		.loc 1 35 0
 282              		.cfi_startproc
 283              		@ args = 0, pretend = 0, frame = 0
 284              		@ frame_needed = 0, uses_anonymous_args = 0
 285              	.LVL29:
 286 0000 2DE9F047 		push	{r4, r5, r6, r7, r8, r9, r10, lr}
 287              		.cfi_def_cfa_offset 32
 288              		.cfi_offset 4, -32
 289              		.cfi_offset 5, -28
 290              		.cfi_offset 6, -24
 291              		.cfi_offset 7, -20
 292              		.cfi_offset 8, -16
 293              		.cfi_offset 9, -12
 294              		.cfi_offset 10, -8
 295              		.cfi_offset 14, -4
 296 0004 8046     		mov	r8, r0
 297 0006 0F46     		mov	r7, r1
 298 0008 9146     		mov	r9, r2
 299              	.LVL30:
  37:..\paho.mqtt.embedded-c\MQTTClient-C\src/MQTTClient.c **** 
 300              		.loc 1 37 0
 301 000a 0024     		movs	r4, #0
  39:..\paho.mqtt.embedded-c\MQTTClient-C\src/MQTTClient.c ****     {
 302              		.loc 1 39 0
 303 000c 11E0     		b	.L24
 304              	.LVL31:
 305              	.L26:
  41:..\paho.mqtt.embedded-c\MQTTClient-C\src/MQTTClient.c ****         if (rc < 0)  // there was an error writing the data
 306              		.loc 1 41 0
 307 000e D8F85460 		ldr	r6, [r8, #84]
 308 0012 D6F810A0 		ldr	r10, [r6, #16]
 309 0016 D8F81050 		ldr	r5, [r8, #16]
 310 001a 2544     		add	r5, r5, r4
 311 001c 4846     		mov	r0, r9
 312 001e FFF7FEFF 		bl	TimerLeftMS
 313              	.LVL32:
 314 0022 0346     		mov	r3, r0
 315 0024 3A46     		mov	r2, r7
 316 0026 2946     		mov	r1, r5
 317 0028 3046     		mov	r0, r6
 318 002a D047     		blx	r10
 319              	.LVL33:
  42:..\paho.mqtt.embedded-c\MQTTClient-C\src/MQTTClient.c ****             break;
 320              		.loc 1 42 0
 321 002c 0028     		cmp	r0, #0
 322 002e 07DB     		blt	.L25
  44:..\paho.mqtt.embedded-c\MQTTClient-C\src/MQTTClient.c ****     }
 323              		.loc 1 44 0
 324 0030 0444     		add	r4, r4, r0
 325              	.LVL34:
 326              	.L24:
ARM GAS  C:\Users\samue\AppData\Local\Temp\ccYWUiYX.s 			page 10


  39:..\paho.mqtt.embedded-c\MQTTClient-C\src/MQTTClient.c ****     {
 327              		.loc 1 39 0
 328 0032 BC42     		cmp	r4, r7
 329 0034 04DA     		bge	.L25
  39:..\paho.mqtt.embedded-c\MQTTClient-C\src/MQTTClient.c ****     {
 330              		.loc 1 39 0 is_stmt 0 discriminator 1
 331 0036 4846     		mov	r0, r9
 332 0038 FFF7FEFF 		bl	TimerIsExpired
 333              	.LVL35:
 334 003c 0028     		cmp	r0, #0
 335 003e E6D0     		beq	.L26
 336              	.L25:
  46:..\paho.mqtt.embedded-c\MQTTClient-C\src/MQTTClient.c ****     {
 337              		.loc 1 46 0 is_stmt 1
 338 0040 BC42     		cmp	r4, r7
 339 0042 08D1     		bne	.L28
  48:..\paho.mqtt.embedded-c\MQTTClient-C\src/MQTTClient.c ****         rc = SUCCESS;
 340              		.loc 1 48 0
 341 0044 D8F81810 		ldr	r1, [r8, #24]
 342 0048 08F15800 		add	r0, r8, #88
 343 004c FFF7FEFF 		bl	TimerCountdown
 344              	.LVL36:
  49:..\paho.mqtt.embedded-c\MQTTClient-C\src/MQTTClient.c ****     }
 345              		.loc 1 49 0
 346 0050 0020     		movs	r0, #0
 347 0052 BDE8F087 		pop	{r4, r5, r6, r7, r8, r9, r10, pc}
 348              	.LVL37:
 349              	.L28:
  52:..\paho.mqtt.embedded-c\MQTTClient-C\src/MQTTClient.c ****     return rc;
 350              		.loc 1 52 0
 351 0056 4FF0FF30 		mov	r0, #-1
 352              	.LVL38:
  54:..\paho.mqtt.embedded-c\MQTTClient-C\src/MQTTClient.c **** 
 353              		.loc 1 54 0
 354 005a BDE8F087 		pop	{r4, r5, r6, r7, r8, r9, r10, pc}
 355              		.cfi_endproc
 356              	.LFE71:
 357              		.size	sendPacket, .-sendPacket
 358 005e 00BF     		.section	.text.readPacket,"ax",%progbits
 359              		.align	2
 360              		.thumb
 361              		.thumb_func
 362              		.type	readPacket, %function
 363              	readPacket:
 364              	.LFB74:
 112:..\paho.mqtt.embedded-c\MQTTClient-C\src/MQTTClient.c ****     MQTTHeader header = {0};
 365              		.loc 1 112 0
 366              		.cfi_startproc
 367              		@ args = 0, pretend = 0, frame = 8
 368              		@ frame_needed = 0, uses_anonymous_args = 0
 369              	.LVL39:
 370 0000 2DE9F043 		push	{r4, r5, r6, r7, r8, r9, lr}
 371              		.cfi_def_cfa_offset 28
 372              		.cfi_offset 4, -28
 373              		.cfi_offset 5, -24
 374              		.cfi_offset 6, -20
 375              		.cfi_offset 7, -16
ARM GAS  C:\Users\samue\AppData\Local\Temp\ccYWUiYX.s 			page 11


 376              		.cfi_offset 8, -12
 377              		.cfi_offset 9, -8
 378              		.cfi_offset 14, -4
 379 0004 83B0     		sub	sp, sp, #12
 380              		.cfi_def_cfa_offset 40
 381 0006 0446     		mov	r4, r0
 382 0008 0E46     		mov	r6, r1
 383              	.LVL40:
 115:..\paho.mqtt.embedded-c\MQTTClient-C\src/MQTTClient.c **** 
 384              		.loc 1 115 0
 385 000a 0023     		movs	r3, #0
 386 000c 0193     		str	r3, [sp, #4]
 118:..\paho.mqtt.embedded-c\MQTTClient-C\src/MQTTClient.c ****     if (rc != 1)
 387              		.loc 1 118 0
 388 000e 456D     		ldr	r5, [r0, #84]
 389 0010 EF68     		ldr	r7, [r5, #12]
 390 0012 D0F81480 		ldr	r8, [r0, #20]
 391 0016 0846     		mov	r0, r1
 392              	.LVL41:
 393 0018 FFF7FEFF 		bl	TimerLeftMS
 394              	.LVL42:
 395 001c 0346     		mov	r3, r0
 396 001e 0122     		movs	r2, #1
 397 0020 4146     		mov	r1, r8
 398 0022 2846     		mov	r0, r5
 399 0024 B847     		blx	r7
 400              	.LVL43:
 401 0026 0546     		mov	r5, r0
 402              	.LVL44:
 119:..\paho.mqtt.embedded-c\MQTTClient-C\src/MQTTClient.c ****         goto exit;
 403              		.loc 1 119 0
 404 0028 0128     		cmp	r0, #1
 405 002a 33D1     		bne	.L31
 406              	.LVL45:
 124:..\paho.mqtt.embedded-c\MQTTClient-C\src/MQTTClient.c ****     len += MQTTPacket_encode(c->readbuf + 1, rem_len); /* put the original remaining length back in
 407              		.loc 1 124 0
 408 002c 3046     		mov	r0, r6
 409              	.LVL46:
 410 002e FFF7FEFF 		bl	TimerLeftMS
 411              	.LVL47:
 412 0032 0246     		mov	r2, r0
 413 0034 01A9     		add	r1, sp, #4
 414 0036 2046     		mov	r0, r4
 415 0038 FFF7FEFF 		bl	decodePacket
 416              	.LVL48:
 125:..\paho.mqtt.embedded-c\MQTTClient-C\src/MQTTClient.c **** 
 417              		.loc 1 125 0
 418 003c 6069     		ldr	r0, [r4, #20]
 419 003e 0199     		ldr	r1, [sp, #4]
 420 0040 0130     		adds	r0, r0, #1
 421 0042 FFF7FEFF 		bl	MQTTPacket_encode
 422              	.LVL49:
 423 0046 0130     		adds	r0, r0, #1
 424              	.LVL50:
 127:..\paho.mqtt.embedded-c\MQTTClient-C\src/MQTTClient.c ****     {
 425              		.loc 1 127 0
 426 0048 E368     		ldr	r3, [r4, #12]
ARM GAS  C:\Users\samue\AppData\Local\Temp\ccYWUiYX.s 			page 12


 427 004a 1B1A     		subs	r3, r3, r0
 428 004c 019F     		ldr	r7, [sp, #4]
 429 004e BB42     		cmp	r3, r7
 430 0050 1CD3     		bcc	.L33
 134:..\paho.mqtt.embedded-c\MQTTClient-C\src/MQTTClient.c ****         rc = 0;
 431              		.loc 1 134 0
 432 0052 002F     		cmp	r7, #0
 433 0054 10DD     		ble	.L32
 134:..\paho.mqtt.embedded-c\MQTTClient-C\src/MQTTClient.c ****         rc = 0;
 434              		.loc 1 134 0 is_stmt 0 discriminator 1
 435 0056 D4F85480 		ldr	r8, [r4, #84]
 436 005a D8F80C90 		ldr	r9, [r8, #12]
 437 005e 6569     		ldr	r5, [r4, #20]
 438              	.LVL51:
 439 0060 0544     		add	r5, r5, r0
 440 0062 3046     		mov	r0, r6
 441              	.LVL52:
 442 0064 FFF7FEFF 		bl	TimerLeftMS
 443              	.LVL53:
 444 0068 0346     		mov	r3, r0
 445 006a 3A46     		mov	r2, r7
 446 006c 2946     		mov	r1, r5
 447 006e 4046     		mov	r0, r8
 448 0070 C847     		blx	r9
 449              	.LVL54:
 450 0072 019B     		ldr	r3, [sp, #4]
 451              	.LVL55:
 452 0074 9842     		cmp	r0, r3
 453 0076 0CD1     		bne	.L34
 454              	.LVL56:
 455              	.L32:
 139:..\paho.mqtt.embedded-c\MQTTClient-C\src/MQTTClient.c ****     rc = header.bits.type;
 456              		.loc 1 139 0 is_stmt 1
 457 0078 6369     		ldr	r3, [r4, #20]
 458 007a 1D78     		ldrb	r5, [r3]	@ zero_extendqisi2
 140:..\paho.mqtt.embedded-c\MQTTClient-C\src/MQTTClient.c ****     if (c->keepAliveInterval > 0)
 459              		.loc 1 140 0
 460 007c 2D09     		lsrs	r5, r5, #4
 461              	.LVL57:
 141:..\paho.mqtt.embedded-c\MQTTClient-C\src/MQTTClient.c ****         TimerCountdown(&c->last_received, c->keepAliveInterval); // record the fact that we have su
 462              		.loc 1 141 0
 463 007e A169     		ldr	r1, [r4, #24]
 464 0080 41B1     		cbz	r1, .L31
 142:..\paho.mqtt.embedded-c\MQTTClient-C\src/MQTTClient.c **** exit:
 465              		.loc 1 142 0
 466 0082 04F16400 		add	r0, r4, #100
 467 0086 FFF7FEFF 		bl	TimerCountdown
 468              	.LVL58:
 469 008a 03E0     		b	.L31
 470              	.LVL59:
 471              	.L33:
 129:..\paho.mqtt.embedded-c\MQTTClient-C\src/MQTTClient.c ****         goto exit;
 472              		.loc 1 129 0
 473 008c 6FF00105 		mvn	r5, #1
 474              	.LVL60:
 475 0090 00E0     		b	.L31
 476              	.LVL61:
ARM GAS  C:\Users\samue\AppData\Local\Temp\ccYWUiYX.s 			page 13


 477              	.L34:
 135:..\paho.mqtt.embedded-c\MQTTClient-C\src/MQTTClient.c ****         goto exit;
 478              		.loc 1 135 0
 479 0092 0025     		movs	r5, #0
 480              	.LVL62:
 481              	.L31:
 145:..\paho.mqtt.embedded-c\MQTTClient-C\src/MQTTClient.c **** 
 482              		.loc 1 145 0
 483 0094 2846     		mov	r0, r5
 484 0096 03B0     		add	sp, sp, #12
 485              		.cfi_def_cfa_offset 28
 486              		@ sp needed
 487 0098 BDE8F083 		pop	{r4, r5, r6, r7, r8, r9, pc}
 488              		.cfi_endproc
 489              	.LFE74:
 490              		.size	readPacket, .-readPacket
 491              		.section	.text.MQTTClientInit,"ax",%progbits
 492              		.align	2
 493              		.global	MQTTClientInit
 494              		.thumb
 495              		.thumb_func
 496              		.type	MQTTClientInit, %function
 497              	MQTTClientInit:
 498              	.LFB72:
  59:..\paho.mqtt.embedded-c\MQTTClient-C\src/MQTTClient.c ****     int i;
 499              		.loc 1 59 0
 500              		.cfi_startproc
 501              		@ args = 12, pretend = 0, frame = 0
 502              		@ frame_needed = 0, uses_anonymous_args = 0
 503              	.LVL63:
 504 0000 38B5     		push	{r3, r4, r5, lr}
 505              		.cfi_def_cfa_offset 16
 506              		.cfi_offset 3, -16
 507              		.cfi_offset 4, -12
 508              		.cfi_offset 5, -8
 509              		.cfi_offset 14, -4
 510 0002 0446     		mov	r4, r0
  61:..\paho.mqtt.embedded-c\MQTTClient-C\src/MQTTClient.c **** 
 511              		.loc 1 61 0
 512 0004 4165     		str	r1, [r0, #84]
 513              	.LVL64:
  63:..\paho.mqtt.embedded-c\MQTTClient-C\src/MQTTClient.c ****         c->messageHandlers[i].topicFilter = 0;
 514              		.loc 1 63 0
 515 0006 0021     		movs	r1, #0
 516              	.LVL65:
 517 0008 04E0     		b	.L37
 518              	.LVL66:
 519              	.L38:
  64:..\paho.mqtt.embedded-c\MQTTClient-C\src/MQTTClient.c ****     c->command_timeout_ms = command_timeout_ms;
 520              		.loc 1 64 0 discriminator 3
 521 000a 481D     		adds	r0, r1, #5
 522 000c 0025     		movs	r5, #0
 523 000e 44F83050 		str	r5, [r4, r0, lsl #3]
  63:..\paho.mqtt.embedded-c\MQTTClient-C\src/MQTTClient.c ****         c->messageHandlers[i].topicFilter = 0;
 524              		.loc 1 63 0 discriminator 3
 525 0012 0131     		adds	r1, r1, #1
 526              	.LVL67:
ARM GAS  C:\Users\samue\AppData\Local\Temp\ccYWUiYX.s 			page 14


 527              	.L37:
  63:..\paho.mqtt.embedded-c\MQTTClient-C\src/MQTTClient.c ****         c->messageHandlers[i].topicFilter = 0;
 528              		.loc 1 63 0 is_stmt 0 discriminator 1
 529 0014 0429     		cmp	r1, #4
 530 0016 F8DD     		ble	.L38
  65:..\paho.mqtt.embedded-c\MQTTClient-C\src/MQTTClient.c ****     c->buf = sendbuf;
 531              		.loc 1 65 0 is_stmt 1
 532 0018 6260     		str	r2, [r4, #4]
  66:..\paho.mqtt.embedded-c\MQTTClient-C\src/MQTTClient.c ****     c->buf_size = sendbuf_size;
 533              		.loc 1 66 0
 534 001a 2361     		str	r3, [r4, #16]
  67:..\paho.mqtt.embedded-c\MQTTClient-C\src/MQTTClient.c ****     c->readbuf = readbuf;
 535              		.loc 1 67 0
 536 001c 049B     		ldr	r3, [sp, #16]
 537              	.LVL68:
 538 001e A360     		str	r3, [r4, #8]
  68:..\paho.mqtt.embedded-c\MQTTClient-C\src/MQTTClient.c ****     c->readbuf_size = readbuf_size;
 539              		.loc 1 68 0
 540 0020 059B     		ldr	r3, [sp, #20]
 541 0022 6361     		str	r3, [r4, #20]
  69:..\paho.mqtt.embedded-c\MQTTClient-C\src/MQTTClient.c ****     c->isconnected = 0;
 542              		.loc 1 69 0
 543 0024 069B     		ldr	r3, [sp, #24]
 544 0026 E360     		str	r3, [r4, #12]
  70:..\paho.mqtt.embedded-c\MQTTClient-C\src/MQTTClient.c ****     c->cleansession = 0;
 545              		.loc 1 70 0
 546 0028 0023     		movs	r3, #0
 547 002a 2362     		str	r3, [r4, #32]
  71:..\paho.mqtt.embedded-c\MQTTClient-C\src/MQTTClient.c ****     c->ping_outstanding = 0;
 548              		.loc 1 71 0
 549 002c 6362     		str	r3, [r4, #36]
  72:..\paho.mqtt.embedded-c\MQTTClient-C\src/MQTTClient.c ****     c->defaultMessageHandler = NULL;
 550              		.loc 1 72 0
 551 002e 2377     		strb	r3, [r4, #28]
  73:..\paho.mqtt.embedded-c\MQTTClient-C\src/MQTTClient.c **** 	  c->next_packetid = 1;
 552              		.loc 1 73 0
 553 0030 2365     		str	r3, [r4, #80]
  74:..\paho.mqtt.embedded-c\MQTTClient-C\src/MQTTClient.c ****     TimerInit(&c->last_sent);
 554              		.loc 1 74 0
 555 0032 2046     		mov	r0, r4
 556 0034 0123     		movs	r3, #1
 557 0036 40F8583B 		str	r3, [r0], #88
  75:..\paho.mqtt.embedded-c\MQTTClient-C\src/MQTTClient.c ****     TimerInit(&c->last_received);
 558              		.loc 1 75 0
 559 003a FFF7FEFF 		bl	TimerInit
 560              	.LVL69:
  76:..\paho.mqtt.embedded-c\MQTTClient-C\src/MQTTClient.c **** #if defined(MQTT_TASK)
 561              		.loc 1 76 0
 562 003e 04F16400 		add	r0, r4, #100
 563 0042 FFF7FEFF 		bl	TimerInit
 564              	.LVL70:
  78:..\paho.mqtt.embedded-c\MQTTClient-C\src/MQTTClient.c **** #endif
 565              		.loc 1 78 0
 566 0046 04F17000 		add	r0, r4, #112
 567 004a FFF7FEFF 		bl	MutexInit
 568              	.LVL71:
 569 004e 38BD     		pop	{r3, r4, r5, pc}
ARM GAS  C:\Users\samue\AppData\Local\Temp\ccYWUiYX.s 			page 15


 570              		.cfi_endproc
 571              	.LFE72:
 572              		.size	MQTTClientInit, .-MQTTClientInit
 573              		.section	.text.deliverMessage,"ax",%progbits
 574              		.align	2
 575              		.global	deliverMessage
 576              		.thumb
 577              		.thumb_func
 578              		.type	deliverMessage, %function
 579              	deliverMessage:
 580              	.LFB76:
 177:..\paho.mqtt.embedded-c\MQTTClient-C\src/MQTTClient.c **** 
 178:..\paho.mqtt.embedded-c\MQTTClient-C\src/MQTTClient.c **** 
 179:..\paho.mqtt.embedded-c\MQTTClient-C\src/MQTTClient.c **** int deliverMessage(MQTTClient* c, MQTTString* topicName, MQTTMessage* message)
 180:..\paho.mqtt.embedded-c\MQTTClient-C\src/MQTTClient.c **** {
 581              		.loc 1 180 0
 582              		.cfi_startproc
 583              		@ args = 0, pretend = 0, frame = 8
 584              		@ frame_needed = 0, uses_anonymous_args = 0
 585              	.LVL72:
 586 0000 2DE9F041 		push	{r4, r5, r6, r7, r8, lr}
 587              		.cfi_def_cfa_offset 24
 588              		.cfi_offset 4, -24
 589              		.cfi_offset 5, -20
 590              		.cfi_offset 6, -16
 591              		.cfi_offset 7, -12
 592              		.cfi_offset 8, -8
 593              		.cfi_offset 14, -4
 594 0004 82B0     		sub	sp, sp, #8
 595              		.cfi_def_cfa_offset 32
 596 0006 0546     		mov	r5, r0
 597 0008 0E46     		mov	r6, r1
 598 000a 9046     		mov	r8, r2
 599              	.LVL73:
 181:..\paho.mqtt.embedded-c\MQTTClient-C\src/MQTTClient.c ****     int i;
 182:..\paho.mqtt.embedded-c\MQTTClient-C\src/MQTTClient.c ****     int rc = FAILURE;
 600              		.loc 1 182 0
 601 000c 4FF0FF37 		mov	r7, #-1
 183:..\paho.mqtt.embedded-c\MQTTClient-C\src/MQTTClient.c **** 
 184:..\paho.mqtt.embedded-c\MQTTClient-C\src/MQTTClient.c ****     // we have to find the right message handler - indexed by topic
 185:..\paho.mqtt.embedded-c\MQTTClient-C\src/MQTTClient.c ****     for (i = 0; i < MAX_MESSAGE_HANDLERS; ++i)
 602              		.loc 1 185 0
 603 0010 0024     		movs	r4, #0
 604 0012 20E0     		b	.L41
 605              	.LVL74:
 606              	.L44:
 186:..\paho.mqtt.embedded-c\MQTTClient-C\src/MQTTClient.c ****     {
 187:..\paho.mqtt.embedded-c\MQTTClient-C\src/MQTTClient.c ****         if (c->messageHandlers[i].topicFilter != 0 && (MQTTPacket_equals(topicName, (char*)c->messa
 607              		.loc 1 187 0
 608 0014 631D     		adds	r3, r4, #5
 609 0016 55F83310 		ldr	r1, [r5, r3, lsl #3]
 610 001a D9B1     		cbz	r1, .L42
 611              		.loc 1 187 0 is_stmt 0 discriminator 1
 612 001c 3046     		mov	r0, r6
 613 001e FFF7FEFF 		bl	MQTTPacket_equals
 614              	.LVL75:
 615 0022 30B9     		cbnz	r0, .L43
ARM GAS  C:\Users\samue\AppData\Local\Temp\ccYWUiYX.s 			page 16


 188:..\paho.mqtt.embedded-c\MQTTClient-C\src/MQTTClient.c ****                 isTopicMatched((char*)c->messageHandlers[i].topicFilter, topicName)))
 616              		.loc 1 188 0 is_stmt 1 discriminator 2
 617 0024 631D     		adds	r3, r4, #5
 618 0026 3146     		mov	r1, r6
 619 0028 55F83300 		ldr	r0, [r5, r3, lsl #3]
 620 002c FFF7FEFF 		bl	isTopicMatched
 621              	.LVL76:
 187:..\paho.mqtt.embedded-c\MQTTClient-C\src/MQTTClient.c ****                 isTopicMatched((char*)c->messageHandlers[i].topicFilter, topicName)))
 622              		.loc 1 187 0 discriminator 2
 623 0030 80B1     		cbz	r0, .L42
 624              	.L43:
 189:..\paho.mqtt.embedded-c\MQTTClient-C\src/MQTTClient.c ****         {
 190:..\paho.mqtt.embedded-c\MQTTClient-C\src/MQTTClient.c ****             if (c->messageHandlers[i].fp != NULL)
 625              		.loc 1 190 0
 626 0032 631D     		adds	r3, r4, #5
 627 0034 05EBC303 		add	r3, r5, r3, lsl #3
 628 0038 5B68     		ldr	r3, [r3, #4]
 629 003a 5BB1     		cbz	r3, .L42
 630              	.LBB4:
 191:..\paho.mqtt.embedded-c\MQTTClient-C\src/MQTTClient.c ****             {
 192:..\paho.mqtt.embedded-c\MQTTClient-C\src/MQTTClient.c ****                 MessageData md;
 193:..\paho.mqtt.embedded-c\MQTTClient-C\src/MQTTClient.c ****                 NewMessageData(&md, topicName, message);
 631              		.loc 1 193 0
 632 003c 4246     		mov	r2, r8
 633 003e 3146     		mov	r1, r6
 634 0040 6846     		mov	r0, sp
 635 0042 FFF7FEFF 		bl	NewMessageData
 636              	.LVL77:
 194:..\paho.mqtt.embedded-c\MQTTClient-C\src/MQTTClient.c ****                 c->messageHandlers[i].fp(&md);
 637              		.loc 1 194 0
 638 0046 631D     		adds	r3, r4, #5
 639 0048 05EBC303 		add	r3, r5, r3, lsl #3
 640 004c 5B68     		ldr	r3, [r3, #4]
 641 004e 6846     		mov	r0, sp
 642 0050 9847     		blx	r3
 643              	.LVL78:
 195:..\paho.mqtt.embedded-c\MQTTClient-C\src/MQTTClient.c ****                 rc = SUCCESS;
 644              		.loc 1 195 0
 645 0052 0027     		movs	r7, #0
 646              	.LVL79:
 647              	.L42:
 648              	.LBE4:
 185:..\paho.mqtt.embedded-c\MQTTClient-C\src/MQTTClient.c ****     {
 649              		.loc 1 185 0 discriminator 2
 650 0054 0134     		adds	r4, r4, #1
 651              	.LVL80:
 652              	.L41:
 185:..\paho.mqtt.embedded-c\MQTTClient-C\src/MQTTClient.c ****     {
 653              		.loc 1 185 0 is_stmt 0 discriminator 1
 654 0056 042C     		cmp	r4, #4
 655 0058 DCDD     		ble	.L44
 196:..\paho.mqtt.embedded-c\MQTTClient-C\src/MQTTClient.c ****             }
 197:..\paho.mqtt.embedded-c\MQTTClient-C\src/MQTTClient.c ****         }
 198:..\paho.mqtt.embedded-c\MQTTClient-C\src/MQTTClient.c ****     }
 199:..\paho.mqtt.embedded-c\MQTTClient-C\src/MQTTClient.c **** 
 200:..\paho.mqtt.embedded-c\MQTTClient-C\src/MQTTClient.c ****     if (rc == FAILURE && c->defaultMessageHandler != NULL)
 656              		.loc 1 200 0 is_stmt 1
ARM GAS  C:\Users\samue\AppData\Local\Temp\ccYWUiYX.s 			page 17


 657 005a 57B1     		cbz	r7, .L45
 658              		.loc 1 200 0 is_stmt 0 discriminator 1
 659 005c 2B6D     		ldr	r3, [r5, #80]
 660 005e 43B1     		cbz	r3, .L45
 661              	.LBB5:
 201:..\paho.mqtt.embedded-c\MQTTClient-C\src/MQTTClient.c ****     {
 202:..\paho.mqtt.embedded-c\MQTTClient-C\src/MQTTClient.c ****         MessageData md;
 203:..\paho.mqtt.embedded-c\MQTTClient-C\src/MQTTClient.c ****         NewMessageData(&md, topicName, message);
 662              		.loc 1 203 0 is_stmt 1
 663 0060 4246     		mov	r2, r8
 664 0062 3146     		mov	r1, r6
 665 0064 6846     		mov	r0, sp
 666 0066 FFF7FEFF 		bl	NewMessageData
 667              	.LVL81:
 204:..\paho.mqtt.embedded-c\MQTTClient-C\src/MQTTClient.c ****         c->defaultMessageHandler(&md);
 668              		.loc 1 204 0
 669 006a 2B6D     		ldr	r3, [r5, #80]
 670 006c 6846     		mov	r0, sp
 671 006e 9847     		blx	r3
 672              	.LVL82:
 205:..\paho.mqtt.embedded-c\MQTTClient-C\src/MQTTClient.c ****         rc = SUCCESS;
 673              		.loc 1 205 0
 674 0070 0027     		movs	r7, #0
 675              	.LVL83:
 676              	.L45:
 677              	.LBE5:
 206:..\paho.mqtt.embedded-c\MQTTClient-C\src/MQTTClient.c ****     }
 207:..\paho.mqtt.embedded-c\MQTTClient-C\src/MQTTClient.c **** 
 208:..\paho.mqtt.embedded-c\MQTTClient-C\src/MQTTClient.c ****     return rc;
 209:..\paho.mqtt.embedded-c\MQTTClient-C\src/MQTTClient.c **** }
 678              		.loc 1 209 0
 679 0072 3846     		mov	r0, r7
 680 0074 02B0     		add	sp, sp, #8
 681              		.cfi_def_cfa_offset 24
 682              		@ sp needed
 683 0076 BDE8F081 		pop	{r4, r5, r6, r7, r8, pc}
 684              		.cfi_endproc
 685              	.LFE76:
 686              		.size	deliverMessage, .-deliverMessage
 687 007a 00BF     		.section	.text.keepalive,"ax",%progbits
 688              		.align	2
 689              		.global	keepalive
 690              		.thumb
 691              		.thumb_func
 692              		.type	keepalive, %function
 693              	keepalive:
 694              	.LFB77:
 210:..\paho.mqtt.embedded-c\MQTTClient-C\src/MQTTClient.c **** 
 211:..\paho.mqtt.embedded-c\MQTTClient-C\src/MQTTClient.c **** 
 212:..\paho.mqtt.embedded-c\MQTTClient-C\src/MQTTClient.c **** int keepalive(MQTTClient* c)
 213:..\paho.mqtt.embedded-c\MQTTClient-C\src/MQTTClient.c **** {
 695              		.loc 1 213 0
 696              		.cfi_startproc
 697              		@ args = 0, pretend = 0, frame = 16
 698              		@ frame_needed = 0, uses_anonymous_args = 0
 699              	.LVL84:
 214:..\paho.mqtt.embedded-c\MQTTClient-C\src/MQTTClient.c ****     int rc = SUCCESS;
ARM GAS  C:\Users\samue\AppData\Local\Temp\ccYWUiYX.s 			page 18


 215:..\paho.mqtt.embedded-c\MQTTClient-C\src/MQTTClient.c **** 
 216:..\paho.mqtt.embedded-c\MQTTClient-C\src/MQTTClient.c ****     if (c->keepAliveInterval == 0)
 700              		.loc 1 216 0
 701 0000 8369     		ldr	r3, [r0, #24]
 702 0002 33B3     		cbz	r3, .L51
 213:..\paho.mqtt.embedded-c\MQTTClient-C\src/MQTTClient.c ****     int rc = SUCCESS;
 703              		.loc 1 213 0
 704 0004 10B5     		push	{r4, lr}
 705              		.cfi_def_cfa_offset 8
 706              		.cfi_offset 4, -8
 707              		.cfi_offset 14, -4
 708 0006 84B0     		sub	sp, sp, #16
 709              		.cfi_def_cfa_offset 24
 710 0008 0446     		mov	r4, r0
 217:..\paho.mqtt.embedded-c\MQTTClient-C\src/MQTTClient.c ****         goto exit;
 218:..\paho.mqtt.embedded-c\MQTTClient-C\src/MQTTClient.c **** 
 219:..\paho.mqtt.embedded-c\MQTTClient-C\src/MQTTClient.c ****     if (TimerIsExpired(&c->last_sent) || TimerIsExpired(&c->last_received))
 711              		.loc 1 219 0
 712 000a 5830     		adds	r0, r0, #88
 713              	.LVL85:
 714 000c FFF7FEFF 		bl	TimerIsExpired
 715              	.LVL86:
 716 0010 20B9     		cbnz	r0, .L49
 717              		.loc 1 219 0 is_stmt 0 discriminator 1
 718 0012 04F16400 		add	r0, r4, #100
 719 0016 FFF7FEFF 		bl	TimerIsExpired
 720              	.LVL87:
 721 001a E8B1     		cbz	r0, .L52
 722              	.L49:
 220:..\paho.mqtt.embedded-c\MQTTClient-C\src/MQTTClient.c ****     {
 221:..\paho.mqtt.embedded-c\MQTTClient-C\src/MQTTClient.c ****         if (c->ping_outstanding)
 723              		.loc 1 221 0 is_stmt 1
 724 001c 237F     		ldrb	r3, [r4, #28]	@ zero_extendqisi2
 725 001e EBB9     		cbnz	r3, .L53
 726              	.LBB6:
 222:..\paho.mqtt.embedded-c\MQTTClient-C\src/MQTTClient.c ****             rc = FAILURE; /* PINGRESP not received in keepalive interval */
 223:..\paho.mqtt.embedded-c\MQTTClient-C\src/MQTTClient.c ****         else
 224:..\paho.mqtt.embedded-c\MQTTClient-C\src/MQTTClient.c ****         {
 225:..\paho.mqtt.embedded-c\MQTTClient-C\src/MQTTClient.c ****             Timer timer;
 226:..\paho.mqtt.embedded-c\MQTTClient-C\src/MQTTClient.c ****             TimerInit(&timer);
 727              		.loc 1 226 0
 728 0020 01A8     		add	r0, sp, #4
 729 0022 FFF7FEFF 		bl	TimerInit
 730              	.LVL88:
 227:..\paho.mqtt.embedded-c\MQTTClient-C\src/MQTTClient.c ****             TimerCountdownMS(&timer, 1000);
 731              		.loc 1 227 0
 732 0026 4FF47A71 		mov	r1, #1000
 733 002a 01A8     		add	r0, sp, #4
 734 002c FFF7FEFF 		bl	TimerCountdownMS
 735              	.LVL89:
 228:..\paho.mqtt.embedded-c\MQTTClient-C\src/MQTTClient.c ****             int len = MQTTSerialize_pingreq(c->buf, c->buf_size);
 736              		.loc 1 228 0
 737 0030 A168     		ldr	r1, [r4, #8]
 738 0032 2069     		ldr	r0, [r4, #16]
 739 0034 FFF7FEFF 		bl	MQTTSerialize_pingreq
 740              	.LVL90:
 229:..\paho.mqtt.embedded-c\MQTTClient-C\src/MQTTClient.c ****             if (len > 0 && (rc = sendPacket(c, len, &timer)) == SUCCESS) // send the ping packet
ARM GAS  C:\Users\samue\AppData\Local\Temp\ccYWUiYX.s 			page 19


 741              		.loc 1 229 0
 742 0038 011E     		subs	r1, r0, #0
 743 003a 08DD     		ble	.L54
 744              		.loc 1 229 0 is_stmt 0 discriminator 1
 745 003c 01AA     		add	r2, sp, #4
 746 003e 2046     		mov	r0, r4
 747              	.LVL91:
 748 0040 FFF7FEFF 		bl	sendPacket
 749              	.LVL92:
 750 0044 0346     		mov	r3, r0
 751 0046 58B9     		cbnz	r0, .L48
 230:..\paho.mqtt.embedded-c\MQTTClient-C\src/MQTTClient.c ****                 c->ping_outstanding = 1;
 752              		.loc 1 230 0 is_stmt 1
 753 0048 0122     		movs	r2, #1
 754 004a 2277     		strb	r2, [r4, #28]
 755 004c 08E0     		b	.L48
 756              	.LVL93:
 757              	.L54:
 758              	.LBE6:
 214:..\paho.mqtt.embedded-c\MQTTClient-C\src/MQTTClient.c **** 
 759              		.loc 1 214 0
 760 004e 0023     		movs	r3, #0
 761 0050 06E0     		b	.L48
 762              	.LVL94:
 763              	.L51:
 764              		.cfi_def_cfa_offset 0
 765              		.cfi_restore 4
 766              		.cfi_restore 14
 767 0052 0023     		movs	r3, #0
 768              	.LVL95:
 231:..\paho.mqtt.embedded-c\MQTTClient-C\src/MQTTClient.c ****         }
 232:..\paho.mqtt.embedded-c\MQTTClient-C\src/MQTTClient.c ****     }
 233:..\paho.mqtt.embedded-c\MQTTClient-C\src/MQTTClient.c **** 
 234:..\paho.mqtt.embedded-c\MQTTClient-C\src/MQTTClient.c **** exit:
 235:..\paho.mqtt.embedded-c\MQTTClient-C\src/MQTTClient.c ****     return rc;
 236:..\paho.mqtt.embedded-c\MQTTClient-C\src/MQTTClient.c **** }
 769              		.loc 1 236 0
 770 0054 1846     		mov	r0, r3
 771              	.LVL96:
 772 0056 7047     		bx	lr
 773              	.LVL97:
 774              	.L52:
 775              		.cfi_def_cfa_offset 24
 776              		.cfi_offset 4, -8
 777              		.cfi_offset 14, -4
 214:..\paho.mqtt.embedded-c\MQTTClient-C\src/MQTTClient.c **** 
 778              		.loc 1 214 0
 779 0058 0023     		movs	r3, #0
 780 005a 01E0     		b	.L48
 781              	.L53:
 222:..\paho.mqtt.embedded-c\MQTTClient-C\src/MQTTClient.c ****         else
 782              		.loc 1 222 0
 783 005c 4FF0FF33 		mov	r3, #-1
 784              	.LVL98:
 785              	.L48:
 786              		.loc 1 236 0
 787 0060 1846     		mov	r0, r3
ARM GAS  C:\Users\samue\AppData\Local\Temp\ccYWUiYX.s 			page 20


 788 0062 04B0     		add	sp, sp, #16
 789              		.cfi_def_cfa_offset 8
 790              		@ sp needed
 791 0064 10BD     		pop	{r4, pc}
 792              		.cfi_endproc
 793              	.LFE77:
 794              		.size	keepalive, .-keepalive
 795 0066 00BF     		.section	.text.MQTTCleanSession,"ax",%progbits
 796              		.align	2
 797              		.global	MQTTCleanSession
 798              		.thumb
 799              		.thumb_func
 800              		.type	MQTTCleanSession, %function
 801              	MQTTCleanSession:
 802              	.LFB78:
 237:..\paho.mqtt.embedded-c\MQTTClient-C\src/MQTTClient.c **** 
 238:..\paho.mqtt.embedded-c\MQTTClient-C\src/MQTTClient.c **** 
 239:..\paho.mqtt.embedded-c\MQTTClient-C\src/MQTTClient.c **** void MQTTCleanSession(MQTTClient* c)
 240:..\paho.mqtt.embedded-c\MQTTClient-C\src/MQTTClient.c **** {
 803              		.loc 1 240 0
 804              		.cfi_startproc
 805              		@ args = 0, pretend = 0, frame = 0
 806              		@ frame_needed = 0, uses_anonymous_args = 0
 807              		@ link register save eliminated.
 808              	.LVL99:
 241:..\paho.mqtt.embedded-c\MQTTClient-C\src/MQTTClient.c ****     int i = 0;
 242:..\paho.mqtt.embedded-c\MQTTClient-C\src/MQTTClient.c **** 
 243:..\paho.mqtt.embedded-c\MQTTClient-C\src/MQTTClient.c ****     for (i = 0; i < MAX_MESSAGE_HANDLERS; ++i)
 809              		.loc 1 243 0
 810 0000 0023     		movs	r3, #0
 811 0002 04E0     		b	.L57
 812              	.LVL100:
 813              	.L58:
 244:..\paho.mqtt.embedded-c\MQTTClient-C\src/MQTTClient.c ****         c->messageHandlers[i].topicFilter = NULL;
 814              		.loc 1 244 0 discriminator 3
 815 0004 5A1D     		adds	r2, r3, #5
 816 0006 0021     		movs	r1, #0
 817 0008 40F83210 		str	r1, [r0, r2, lsl #3]
 243:..\paho.mqtt.embedded-c\MQTTClient-C\src/MQTTClient.c ****         c->messageHandlers[i].topicFilter = NULL;
 818              		.loc 1 243 0 discriminator 3
 819 000c 0133     		adds	r3, r3, #1
 820              	.LVL101:
 821              	.L57:
 243:..\paho.mqtt.embedded-c\MQTTClient-C\src/MQTTClient.c ****         c->messageHandlers[i].topicFilter = NULL;
 822              		.loc 1 243 0 is_stmt 0 discriminator 1
 823 000e 042B     		cmp	r3, #4
 824 0010 F8DD     		ble	.L58
 245:..\paho.mqtt.embedded-c\MQTTClient-C\src/MQTTClient.c **** }
 825              		.loc 1 245 0 is_stmt 1
 826 0012 7047     		bx	lr
 827              		.cfi_endproc
 828              	.LFE78:
 829              		.size	MQTTCleanSession, .-MQTTCleanSession
 830              		.section	.text.MQTTCloseSession,"ax",%progbits
 831              		.align	2
 832              		.global	MQTTCloseSession
 833              		.thumb
ARM GAS  C:\Users\samue\AppData\Local\Temp\ccYWUiYX.s 			page 21


 834              		.thumb_func
 835              		.type	MQTTCloseSession, %function
 836              	MQTTCloseSession:
 837              	.LFB79:
 246:..\paho.mqtt.embedded-c\MQTTClient-C\src/MQTTClient.c **** 
 247:..\paho.mqtt.embedded-c\MQTTClient-C\src/MQTTClient.c **** 
 248:..\paho.mqtt.embedded-c\MQTTClient-C\src/MQTTClient.c **** void MQTTCloseSession(MQTTClient* c)
 249:..\paho.mqtt.embedded-c\MQTTClient-C\src/MQTTClient.c **** {
 838              		.loc 1 249 0
 839              		.cfi_startproc
 840              		@ args = 0, pretend = 0, frame = 0
 841              		@ frame_needed = 0, uses_anonymous_args = 0
 842              	.LVL102:
 843 0000 08B5     		push	{r3, lr}
 844              		.cfi_def_cfa_offset 8
 845              		.cfi_offset 3, -8
 846              		.cfi_offset 14, -4
 250:..\paho.mqtt.embedded-c\MQTTClient-C\src/MQTTClient.c ****     c->ping_outstanding = 0;
 847              		.loc 1 250 0
 848 0002 0023     		movs	r3, #0
 849 0004 0377     		strb	r3, [r0, #28]
 251:..\paho.mqtt.embedded-c\MQTTClient-C\src/MQTTClient.c ****     c->isconnected = 0;
 850              		.loc 1 251 0
 851 0006 0362     		str	r3, [r0, #32]
 252:..\paho.mqtt.embedded-c\MQTTClient-C\src/MQTTClient.c ****     if (c->cleansession)
 852              		.loc 1 252 0
 853 0008 436A     		ldr	r3, [r0, #36]
 854 000a 0BB1     		cbz	r3, .L59
 253:..\paho.mqtt.embedded-c\MQTTClient-C\src/MQTTClient.c ****         MQTTCleanSession(c);
 855              		.loc 1 253 0
 856 000c FFF7FEFF 		bl	MQTTCleanSession
 857              	.LVL103:
 858              	.L59:
 859 0010 08BD     		pop	{r3, pc}
 860              		.cfi_endproc
 861              	.LFE79:
 862              		.size	MQTTCloseSession, .-MQTTCloseSession
 863 0012 00BF     		.section	.text.cycle,"ax",%progbits
 864              		.align	2
 865              		.global	cycle
 866              		.thumb
 867              		.thumb_func
 868              		.type	cycle, %function
 869              	cycle:
 870              	.LFB80:
 254:..\paho.mqtt.embedded-c\MQTTClient-C\src/MQTTClient.c **** }
 255:..\paho.mqtt.embedded-c\MQTTClient-C\src/MQTTClient.c **** 
 256:..\paho.mqtt.embedded-c\MQTTClient-C\src/MQTTClient.c **** 
 257:..\paho.mqtt.embedded-c\MQTTClient-C\src/MQTTClient.c **** int cycle(MQTTClient* c, Timer* timer)
 258:..\paho.mqtt.embedded-c\MQTTClient-C\src/MQTTClient.c **** {
 871              		.loc 1 258 0
 872              		.cfi_startproc
 873              		@ args = 0, pretend = 0, frame = 32
 874              		@ frame_needed = 0, uses_anonymous_args = 0
 875              	.LVL104:
 876 0000 70B5     		push	{r4, r5, r6, lr}
 877              		.cfi_def_cfa_offset 16
ARM GAS  C:\Users\samue\AppData\Local\Temp\ccYWUiYX.s 			page 22


 878              		.cfi_offset 4, -16
 879              		.cfi_offset 5, -12
 880              		.cfi_offset 6, -8
 881              		.cfi_offset 14, -4
 882 0002 8EB0     		sub	sp, sp, #56
 883              		.cfi_def_cfa_offset 72
 884 0004 0546     		mov	r5, r0
 885 0006 0C46     		mov	r4, r1
 886              	.LVL105:
 259:..\paho.mqtt.embedded-c\MQTTClient-C\src/MQTTClient.c ****     int len = 0,
 260:..\paho.mqtt.embedded-c\MQTTClient-C\src/MQTTClient.c ****         rc = SUCCESS;
 261:..\paho.mqtt.embedded-c\MQTTClient-C\src/MQTTClient.c **** 
 262:..\paho.mqtt.embedded-c\MQTTClient-C\src/MQTTClient.c ****     int packet_type = readPacket(c, timer);     /* read the socket, see what work is due */
 887              		.loc 1 262 0
 888 0008 FFF7FEFF 		bl	readPacket
 889              	.LVL106:
 890 000c 0646     		mov	r6, r0
 891              	.LVL107:
 263:..\paho.mqtt.embedded-c\MQTTClient-C\src/MQTTClient.c **** 
 264:..\paho.mqtt.embedded-c\MQTTClient-C\src/MQTTClient.c ****     switch (packet_type)
 892              		.loc 1 264 0
 893 000e 0D28     		cmp	r0, #13
 894 0010 00F28D80 		bhi	.L78
 895 0014 DFE800F0 		tbb	[pc, r0]
 896              	.L65:
 897 0018 85       		.byte	(.L79-.L65)/2
 898 0019 8B       		.byte	(.L78-.L65)/2
 899 001a 85       		.byte	(.L79-.L65)/2
 900 001b 07       		.byte	(.L66-.L65)/2
 901 001c 85       		.byte	(.L79-.L65)/2
 902 001d 56       		.byte	(.L67-.L65)/2
 903 001e 56       		.byte	(.L67-.L65)/2
 904 001f 85       		.byte	(.L79-.L65)/2
 905 0020 8B       		.byte	(.L78-.L65)/2
 906 0021 85       		.byte	(.L79-.L65)/2
 907 0022 8B       		.byte	(.L78-.L65)/2
 908 0023 85       		.byte	(.L79-.L65)/2
 909 0024 8B       		.byte	(.L78-.L65)/2
 910 0025 82       		.byte	(.L68-.L65)/2
 911              		.p2align 1
 912              	.L66:
 913              	.LBB7:
 265:..\paho.mqtt.embedded-c\MQTTClient-C\src/MQTTClient.c ****     {
 266:..\paho.mqtt.embedded-c\MQTTClient-C\src/MQTTClient.c ****         default:
 267:..\paho.mqtt.embedded-c\MQTTClient-C\src/MQTTClient.c ****             /* no more data to read, unrecoverable. Or read packet fails due to unexpected network 
 268:..\paho.mqtt.embedded-c\MQTTClient-C\src/MQTTClient.c ****             rc = packet_type;
 269:..\paho.mqtt.embedded-c\MQTTClient-C\src/MQTTClient.c ****             goto exit;
 270:..\paho.mqtt.embedded-c\MQTTClient-C\src/MQTTClient.c ****         case 0: /* timed out reading packet */
 271:..\paho.mqtt.embedded-c\MQTTClient-C\src/MQTTClient.c ****             break;
 272:..\paho.mqtt.embedded-c\MQTTClient-C\src/MQTTClient.c ****         case CONNACK:
 273:..\paho.mqtt.embedded-c\MQTTClient-C\src/MQTTClient.c ****         case PUBACK:
 274:..\paho.mqtt.embedded-c\MQTTClient-C\src/MQTTClient.c ****         case SUBACK:
 275:..\paho.mqtt.embedded-c\MQTTClient-C\src/MQTTClient.c ****         case UNSUBACK:
 276:..\paho.mqtt.embedded-c\MQTTClient-C\src/MQTTClient.c ****             break;
 277:..\paho.mqtt.embedded-c\MQTTClient-C\src/MQTTClient.c ****         case PUBLISH:
 278:..\paho.mqtt.embedded-c\MQTTClient-C\src/MQTTClient.c ****         {
 279:..\paho.mqtt.embedded-c\MQTTClient-C\src/MQTTClient.c ****             MQTTString topicName;
ARM GAS  C:\Users\samue\AppData\Local\Temp\ccYWUiYX.s 			page 23


 280:..\paho.mqtt.embedded-c\MQTTClient-C\src/MQTTClient.c ****             MQTTMessage msg;
 281:..\paho.mqtt.embedded-c\MQTTClient-C\src/MQTTClient.c ****             int intQoS;
 282:..\paho.mqtt.embedded-c\MQTTClient-C\src/MQTTClient.c ****             msg.payloadlen = 0; /* this is a size_t, but deserialize publish sets this as int */
 914              		.loc 1 282 0
 915 0026 0023     		movs	r3, #0
 916 0028 0D93     		str	r3, [sp, #52]
 283:..\paho.mqtt.embedded-c\MQTTClient-C\src/MQTTClient.c ****             if (MQTTDeserialize_publish(&msg.dup, &intQoS, &msg.retained, &msg.id, &topicName,
 284:..\paho.mqtt.embedded-c\MQTTClient-C\src/MQTTClient.c ****                (unsigned char**)&msg.payload, (int*)&msg.payloadlen, c->readbuf, c->readbuf_size) !
 917              		.loc 1 284 0
 918 002a EB68     		ldr	r3, [r5, #12]
 283:..\paho.mqtt.embedded-c\MQTTClient-C\src/MQTTClient.c ****             if (MQTTDeserialize_publish(&msg.dup, &intQoS, &msg.retained, &msg.id, &topicName,
 919              		.loc 1 283 0
 920 002c 0493     		str	r3, [sp, #16]
 921 002e 6B69     		ldr	r3, [r5, #20]
 922 0030 0393     		str	r3, [sp, #12]
 923 0032 0DAB     		add	r3, sp, #52
 924 0034 0293     		str	r3, [sp, #8]
 925 0036 0CAB     		add	r3, sp, #48
 926 0038 0193     		str	r3, [sp, #4]
 927 003a 07AB     		add	r3, sp, #28
 928 003c 0093     		str	r3, [sp]
 929 003e 0BAB     		add	r3, sp, #44
 930 0040 0DF12902 		add	r2, sp, #41
 931 0044 06A9     		add	r1, sp, #24
 932 0046 0DF12A00 		add	r0, sp, #42
 933              	.LVL108:
 934 004a FFF7FEFF 		bl	MQTTDeserialize_publish
 935              	.LVL109:
 936 004e 0128     		cmp	r0, #1
 937 0050 34D1     		bne	.L80
 285:..\paho.mqtt.embedded-c\MQTTClient-C\src/MQTTClient.c ****                 goto exit;
 286:..\paho.mqtt.embedded-c\MQTTClient-C\src/MQTTClient.c ****             msg.qos = (enum QoS)intQoS;
 938              		.loc 1 286 0
 939 0052 9DF81830 		ldrb	r3, [sp, #24]	@ zero_extendqisi2
 940 0056 0EAA     		add	r2, sp, #56
 941 0058 02F8103D 		strb	r3, [r2, #-16]!
 287:..\paho.mqtt.embedded-c\MQTTClient-C\src/MQTTClient.c ****             deliverMessage(c, &topicName, &msg);
 942              		.loc 1 287 0
 943 005c 07A9     		add	r1, sp, #28
 944 005e 2846     		mov	r0, r5
 945 0060 FFF7FEFF 		bl	deliverMessage
 946              	.LVL110:
 288:..\paho.mqtt.embedded-c\MQTTClient-C\src/MQTTClient.c ****             if (msg.qos != QOS0)
 947              		.loc 1 288 0
 948 0064 9DF82830 		ldrb	r3, [sp, #40]	@ zero_extendqisi2
 949 0068 53B3     		cbz	r3, .L81
 289:..\paho.mqtt.embedded-c\MQTTClient-C\src/MQTTClient.c ****             {
 290:..\paho.mqtt.embedded-c\MQTTClient-C\src/MQTTClient.c ****                 if (msg.qos == QOS1)
 950              		.loc 1 290 0
 951 006a 012B     		cmp	r3, #1
 952 006c 0AD1     		bne	.L71
 291:..\paho.mqtt.embedded-c\MQTTClient-C\src/MQTTClient.c ****                     len = MQTTSerialize_ack(c->buf, c->buf_size, PUBACK, 0, msg.id);
 953              		.loc 1 291 0
 954 006e BDF82C30 		ldrh	r3, [sp, #44]
 955 0072 0093     		str	r3, [sp]
 956 0074 0023     		movs	r3, #0
 957 0076 0422     		movs	r2, #4
ARM GAS  C:\Users\samue\AppData\Local\Temp\ccYWUiYX.s 			page 24


 958 0078 A968     		ldr	r1, [r5, #8]
 959 007a 2869     		ldr	r0, [r5, #16]
 960 007c FFF7FEFF 		bl	MQTTSerialize_ack
 961              	.LVL111:
 962 0080 0146     		mov	r1, r0
 963              	.LVL112:
 964 0082 0DE0     		b	.L72
 965              	.LVL113:
 966              	.L71:
 292:..\paho.mqtt.embedded-c\MQTTClient-C\src/MQTTClient.c ****                 else if (msg.qos == QOS2)
 967              		.loc 1 292 0
 968 0084 022B     		cmp	r3, #2
 969 0086 0AD1     		bne	.L82
 293:..\paho.mqtt.embedded-c\MQTTClient-C\src/MQTTClient.c ****                     len = MQTTSerialize_ack(c->buf, c->buf_size, PUBREC, 0, msg.id);
 970              		.loc 1 293 0
 971 0088 BDF82C30 		ldrh	r3, [sp, #44]
 972 008c 0093     		str	r3, [sp]
 973 008e 0023     		movs	r3, #0
 974 0090 0522     		movs	r2, #5
 975 0092 A968     		ldr	r1, [r5, #8]
 976 0094 2869     		ldr	r0, [r5, #16]
 977 0096 FFF7FEFF 		bl	MQTTSerialize_ack
 978              	.LVL114:
 979 009a 0146     		mov	r1, r0
 980              	.LVL115:
 981 009c 00E0     		b	.L72
 982              	.LVL116:
 983              	.L82:
 984              	.LBE7:
 259:..\paho.mqtt.embedded-c\MQTTClient-C\src/MQTTClient.c ****         rc = SUCCESS;
 985              		.loc 1 259 0
 986 009e 0021     		movs	r1, #0
 987              	.LVL117:
 988              	.L72:
 989              	.LBB8:
 294:..\paho.mqtt.embedded-c\MQTTClient-C\src/MQTTClient.c ****                 if (len <= 0)
 990              		.loc 1 294 0
 991 00a0 0029     		cmp	r1, #0
 992 00a2 05DD     		ble	.L83
 295:..\paho.mqtt.embedded-c\MQTTClient-C\src/MQTTClient.c ****                     rc = FAILURE;
 296:..\paho.mqtt.embedded-c\MQTTClient-C\src/MQTTClient.c ****                 else
 297:..\paho.mqtt.embedded-c\MQTTClient-C\src/MQTTClient.c ****                     rc = sendPacket(c, len, timer);
 993              		.loc 1 297 0
 994 00a4 2246     		mov	r2, r4
 995 00a6 2846     		mov	r0, r5
 996 00a8 FFF7FEFF 		bl	sendPacket
 997              	.LVL118:
 998 00ac 0446     		mov	r4, r0
 999              	.LVL119:
 1000 00ae 01E0     		b	.L73
 1001              	.LVL120:
 1002              	.L83:
 295:..\paho.mqtt.embedded-c\MQTTClient-C\src/MQTTClient.c ****                     rc = FAILURE;
 1003              		.loc 1 295 0
 1004 00b0 4FF0FF34 		mov	r4, #-1
 1005              	.LVL121:
 1006              	.L73:
ARM GAS  C:\Users\samue\AppData\Local\Temp\ccYWUiYX.s 			page 25


 298:..\paho.mqtt.embedded-c\MQTTClient-C\src/MQTTClient.c ****                 if (rc == FAILURE)
 1007              		.loc 1 298 0
 1008 00b4 B4F1FF3F 		cmp	r4, #-1
 1009 00b8 34D1     		bne	.L64
 1010 00ba 3CE0     		b	.L63
 1011              	.LVL122:
 1012              	.L80:
 1013              	.LBE8:
 260:..\paho.mqtt.embedded-c\MQTTClient-C\src/MQTTClient.c **** 
 1014              		.loc 1 260 0
 1015 00bc 0024     		movs	r4, #0
 1016              	.LVL123:
 1017 00be 3AE0     		b	.L63
 1018              	.LVL124:
 1019              	.L81:
 1020 00c0 0024     		movs	r4, #0
 1021              	.LVL125:
 1022 00c2 2FE0     		b	.L64
 1023              	.LVL126:
 1024              	.L67:
 1025              	.LBB9:
 299:..\paho.mqtt.embedded-c\MQTTClient-C\src/MQTTClient.c ****                     goto exit; // there was a problem
 300:..\paho.mqtt.embedded-c\MQTTClient-C\src/MQTTClient.c ****             }
 301:..\paho.mqtt.embedded-c\MQTTClient-C\src/MQTTClient.c ****             break;
 302:..\paho.mqtt.embedded-c\MQTTClient-C\src/MQTTClient.c ****         }
 303:..\paho.mqtt.embedded-c\MQTTClient-C\src/MQTTClient.c ****         case PUBREC:
 304:..\paho.mqtt.embedded-c\MQTTClient-C\src/MQTTClient.c ****         case PUBREL:
 305:..\paho.mqtt.embedded-c\MQTTClient-C\src/MQTTClient.c ****         {
 306:..\paho.mqtt.embedded-c\MQTTClient-C\src/MQTTClient.c ****             unsigned short mypacketid;
 307:..\paho.mqtt.embedded-c\MQTTClient-C\src/MQTTClient.c ****             unsigned char dup, type;
 308:..\paho.mqtt.embedded-c\MQTTClient-C\src/MQTTClient.c ****             if (MQTTDeserialize_ack(&type, &dup, &mypacketid, c->readbuf, c->readbuf_size) != 1)
 1026              		.loc 1 308 0
 1027 00c4 EB68     		ldr	r3, [r5, #12]
 1028 00c6 0093     		str	r3, [sp]
 1029 00c8 6B69     		ldr	r3, [r5, #20]
 1030 00ca 0AAA     		add	r2, sp, #40
 1031 00cc 06A9     		add	r1, sp, #24
 1032 00ce 07A8     		add	r0, sp, #28
 1033              	.LVL127:
 1034 00d0 FFF7FEFF 		bl	MQTTDeserialize_ack
 1035              	.LVL128:
 1036 00d4 0128     		cmp	r0, #1
 1037 00d6 15D1     		bne	.L84
 309:..\paho.mqtt.embedded-c\MQTTClient-C\src/MQTTClient.c ****                 rc = FAILURE;
 310:..\paho.mqtt.embedded-c\MQTTClient-C\src/MQTTClient.c ****             else if ((len = MQTTSerialize_ack(c->buf, c->buf_size,
 1038              		.loc 1 310 0
 1039 00d8 2869     		ldr	r0, [r5, #16]
 1040 00da A968     		ldr	r1, [r5, #8]
 1041 00dc 052E     		cmp	r6, #5
 1042 00de 01D1     		bne	.L85
 1043 00e0 0622     		movs	r2, #6
 1044 00e2 00E0     		b	.L75
 1045              	.L85:
 1046 00e4 0722     		movs	r2, #7
 1047              	.L75:
 1048              		.loc 1 310 0 is_stmt 0 discriminator 4
 1049 00e6 BDF82830 		ldrh	r3, [sp, #40]
ARM GAS  C:\Users\samue\AppData\Local\Temp\ccYWUiYX.s 			page 26


 1050 00ea 0093     		str	r3, [sp]
 1051 00ec 0023     		movs	r3, #0
 1052 00ee FFF7FEFF 		bl	MQTTSerialize_ack
 1053              	.LVL129:
 1054 00f2 011E     		subs	r1, r0, #0
 1055 00f4 09DD     		ble	.L86
 311:..\paho.mqtt.embedded-c\MQTTClient-C\src/MQTTClient.c ****                 (packet_type == PUBREC) ? PUBREL : PUBCOMP, 0, mypacketid)) <= 0)
 312:..\paho.mqtt.embedded-c\MQTTClient-C\src/MQTTClient.c ****                 rc = FAILURE;
 313:..\paho.mqtt.embedded-c\MQTTClient-C\src/MQTTClient.c ****             else if ((rc = sendPacket(c, len, timer)) != SUCCESS) // send the PUBREL packet
 1056              		.loc 1 313 0 is_stmt 1
 1057 00f6 2246     		mov	r2, r4
 1058 00f8 2846     		mov	r0, r5
 1059              	.LVL130:
 1060 00fa FFF7FEFF 		bl	sendPacket
 1061              	.LVL131:
 1062 00fe 0446     		mov	r4, r0
 1063              	.LVL132:
 1064 0100 30B9     		cbnz	r0, .L87
 1065 0102 07E0     		b	.L74
 1066              	.LVL133:
 1067              	.L84:
 309:..\paho.mqtt.embedded-c\MQTTClient-C\src/MQTTClient.c ****                 rc = FAILURE;
 1068              		.loc 1 309 0
 1069 0104 4FF0FF34 		mov	r4, #-1
 1070              	.LVL134:
 1071 0108 04E0     		b	.L74
 1072              	.LVL135:
 1073              	.L86:
 312:..\paho.mqtt.embedded-c\MQTTClient-C\src/MQTTClient.c ****             else if ((rc = sendPacket(c, len, timer)) != SUCCESS) // send the PUBREL packet
 1074              		.loc 1 312 0
 1075 010a 4FF0FF34 		mov	r4, #-1
 1076              	.LVL136:
 1077 010e 01E0     		b	.L74
 1078              	.LVL137:
 1079              	.L87:
 314:..\paho.mqtt.embedded-c\MQTTClient-C\src/MQTTClient.c ****                 rc = FAILURE; // there was a problem
 1080              		.loc 1 314 0
 1081 0110 4FF0FF34 		mov	r4, #-1
 1082              	.LVL138:
 1083              	.L74:
 315:..\paho.mqtt.embedded-c\MQTTClient-C\src/MQTTClient.c ****             if (rc == FAILURE)
 1084              		.loc 1 315 0
 1085 0114 B4F1FF3F 		cmp	r4, #-1
 1086 0118 04D1     		bne	.L64
 1087 011a 0CE0     		b	.L63
 1088              	.LVL139:
 1089              	.L68:
 1090              	.LBE9:
 316:..\paho.mqtt.embedded-c\MQTTClient-C\src/MQTTClient.c ****                 goto exit; // there was a problem
 317:..\paho.mqtt.embedded-c\MQTTClient-C\src/MQTTClient.c ****             break;
 318:..\paho.mqtt.embedded-c\MQTTClient-C\src/MQTTClient.c ****         }
 319:..\paho.mqtt.embedded-c\MQTTClient-C\src/MQTTClient.c **** 
 320:..\paho.mqtt.embedded-c\MQTTClient-C\src/MQTTClient.c ****         case PUBCOMP:
 321:..\paho.mqtt.embedded-c\MQTTClient-C\src/MQTTClient.c ****             break;
 322:..\paho.mqtt.embedded-c\MQTTClient-C\src/MQTTClient.c ****         case PINGRESP:
 323:..\paho.mqtt.embedded-c\MQTTClient-C\src/MQTTClient.c ****             c->ping_outstanding = 0;
 1091              		.loc 1 323 0
ARM GAS  C:\Users\samue\AppData\Local\Temp\ccYWUiYX.s 			page 27


 1092 011c 0024     		movs	r4, #0
 1093              	.LVL140:
 1094 011e 2C77     		strb	r4, [r5, #28]
 324:..\paho.mqtt.embedded-c\MQTTClient-C\src/MQTTClient.c ****             break;
 1095              		.loc 1 324 0
 1096 0120 00E0     		b	.L64
 1097              	.LVL141:
 1098              	.L79:
 260:..\paho.mqtt.embedded-c\MQTTClient-C\src/MQTTClient.c **** 
 1099              		.loc 1 260 0
 1100 0122 0024     		movs	r4, #0
 1101              	.LVL142:
 1102              	.L64:
 325:..\paho.mqtt.embedded-c\MQTTClient-C\src/MQTTClient.c ****     }
 326:..\paho.mqtt.embedded-c\MQTTClient-C\src/MQTTClient.c **** 
 327:..\paho.mqtt.embedded-c\MQTTClient-C\src/MQTTClient.c ****     if (keepalive(c) != SUCCESS) {
 1103              		.loc 1 327 0
 1104 0124 2846     		mov	r0, r5
 1105 0126 FFF7FEFF 		bl	keepalive
 1106              	.LVL143:
 1107 012a 10B9     		cbnz	r0, .L88
 1108 012c 03E0     		b	.L63
 1109              	.LVL144:
 1110              	.L78:
 268:..\paho.mqtt.embedded-c\MQTTClient-C\src/MQTTClient.c ****             goto exit;
 1111              		.loc 1 268 0
 1112 012e 0446     		mov	r4, r0
 1113              	.LVL145:
 1114 0130 01E0     		b	.L63
 1115              	.LVL146:
 1116              	.L88:
 328:..\paho.mqtt.embedded-c\MQTTClient-C\src/MQTTClient.c ****         //check only keepalive FAILURE status so that previous FAILURE status can be considered as 
 329:..\paho.mqtt.embedded-c\MQTTClient-C\src/MQTTClient.c ****         rc = FAILURE;
 1117              		.loc 1 329 0
 1118 0132 4FF0FF34 		mov	r4, #-1
 1119              	.LVL147:
 1120              	.L63:
 330:..\paho.mqtt.embedded-c\MQTTClient-C\src/MQTTClient.c ****     }
 331:..\paho.mqtt.embedded-c\MQTTClient-C\src/MQTTClient.c **** 
 332:..\paho.mqtt.embedded-c\MQTTClient-C\src/MQTTClient.c **** exit:
 333:..\paho.mqtt.embedded-c\MQTTClient-C\src/MQTTClient.c ****     if (rc == SUCCESS)
 1121              		.loc 1 333 0
 1122 0136 2CB1     		cbz	r4, .L89
 334:..\paho.mqtt.embedded-c\MQTTClient-C\src/MQTTClient.c ****         rc = packet_type;
 335:..\paho.mqtt.embedded-c\MQTTClient-C\src/MQTTClient.c ****     else if (c->isconnected)
 1123              		.loc 1 335 0
 1124 0138 2B6A     		ldr	r3, [r5, #32]
 1125 013a 23B1     		cbz	r3, .L77
 336:..\paho.mqtt.embedded-c\MQTTClient-C\src/MQTTClient.c ****         MQTTCloseSession(c);
 1126              		.loc 1 336 0
 1127 013c 2846     		mov	r0, r5
 1128 013e FFF7FEFF 		bl	MQTTCloseSession
 1129              	.LVL148:
 1130 0142 00E0     		b	.L77
 1131              	.L89:
 334:..\paho.mqtt.embedded-c\MQTTClient-C\src/MQTTClient.c ****         rc = packet_type;
 1132              		.loc 1 334 0
ARM GAS  C:\Users\samue\AppData\Local\Temp\ccYWUiYX.s 			page 28


 1133 0144 3446     		mov	r4, r6
 1134              	.LVL149:
 1135              	.L77:
 337:..\paho.mqtt.embedded-c\MQTTClient-C\src/MQTTClient.c ****     return rc;
 338:..\paho.mqtt.embedded-c\MQTTClient-C\src/MQTTClient.c **** }
 1136              		.loc 1 338 0
 1137 0146 2046     		mov	r0, r4
 1138 0148 0EB0     		add	sp, sp, #56
 1139              		.cfi_def_cfa_offset 16
 1140              		@ sp needed
 1141 014a 70BD     		pop	{r4, r5, r6, pc}
 1142              		.cfi_endproc
 1143              	.LFE80:
 1144              		.size	cycle, .-cycle
 1145              		.section	.text.MQTTRun,"ax",%progbits
 1146              		.align	2
 1147              		.global	MQTTRun
 1148              		.thumb
 1149              		.thumb_func
 1150              		.type	MQTTRun, %function
 1151              	MQTTRun:
 1152              	.LFB83:
 339:..\paho.mqtt.embedded-c\MQTTClient-C\src/MQTTClient.c **** 
 340:..\paho.mqtt.embedded-c\MQTTClient-C\src/MQTTClient.c **** 
 341:..\paho.mqtt.embedded-c\MQTTClient-C\src/MQTTClient.c **** int MQTTYield(MQTTClient* c, int timeout_ms)
 342:..\paho.mqtt.embedded-c\MQTTClient-C\src/MQTTClient.c **** {
 343:..\paho.mqtt.embedded-c\MQTTClient-C\src/MQTTClient.c ****     int rc = SUCCESS;
 344:..\paho.mqtt.embedded-c\MQTTClient-C\src/MQTTClient.c ****     Timer timer;
 345:..\paho.mqtt.embedded-c\MQTTClient-C\src/MQTTClient.c **** 
 346:..\paho.mqtt.embedded-c\MQTTClient-C\src/MQTTClient.c ****     TimerInit(&timer);
 347:..\paho.mqtt.embedded-c\MQTTClient-C\src/MQTTClient.c ****     TimerCountdownMS(&timer, timeout_ms);
 348:..\paho.mqtt.embedded-c\MQTTClient-C\src/MQTTClient.c **** 
 349:..\paho.mqtt.embedded-c\MQTTClient-C\src/MQTTClient.c **** 	  do
 350:..\paho.mqtt.embedded-c\MQTTClient-C\src/MQTTClient.c ****     {
 351:..\paho.mqtt.embedded-c\MQTTClient-C\src/MQTTClient.c ****         if (cycle(c, &timer) < 0)
 352:..\paho.mqtt.embedded-c\MQTTClient-C\src/MQTTClient.c ****         {
 353:..\paho.mqtt.embedded-c\MQTTClient-C\src/MQTTClient.c ****             rc = FAILURE;
 354:..\paho.mqtt.embedded-c\MQTTClient-C\src/MQTTClient.c ****             break;
 355:..\paho.mqtt.embedded-c\MQTTClient-C\src/MQTTClient.c ****         }
 356:..\paho.mqtt.embedded-c\MQTTClient-C\src/MQTTClient.c ****   	} while (!TimerIsExpired(&timer));
 357:..\paho.mqtt.embedded-c\MQTTClient-C\src/MQTTClient.c **** 
 358:..\paho.mqtt.embedded-c\MQTTClient-C\src/MQTTClient.c ****     return rc;
 359:..\paho.mqtt.embedded-c\MQTTClient-C\src/MQTTClient.c **** }
 360:..\paho.mqtt.embedded-c\MQTTClient-C\src/MQTTClient.c **** 
 361:..\paho.mqtt.embedded-c\MQTTClient-C\src/MQTTClient.c **** int MQTTIsConnected(MQTTClient* client)
 362:..\paho.mqtt.embedded-c\MQTTClient-C\src/MQTTClient.c **** {
 363:..\paho.mqtt.embedded-c\MQTTClient-C\src/MQTTClient.c ****   return client->isconnected;
 364:..\paho.mqtt.embedded-c\MQTTClient-C\src/MQTTClient.c **** }
 365:..\paho.mqtt.embedded-c\MQTTClient-C\src/MQTTClient.c **** 
 366:..\paho.mqtt.embedded-c\MQTTClient-C\src/MQTTClient.c **** void MQTTRun(void* parm)
 367:..\paho.mqtt.embedded-c\MQTTClient-C\src/MQTTClient.c **** {
 1153              		.loc 1 367 0
 1154              		.cfi_startproc
 1155              		@ args = 0, pretend = 0, frame = 16
 1156              		@ frame_needed = 0, uses_anonymous_args = 0
 1157              	.LVL150:
 1158 0000 30B5     		push	{r4, r5, lr}
ARM GAS  C:\Users\samue\AppData\Local\Temp\ccYWUiYX.s 			page 29


 1159              		.cfi_def_cfa_offset 12
 1160              		.cfi_offset 4, -12
 1161              		.cfi_offset 5, -8
 1162              		.cfi_offset 14, -4
 1163 0002 85B0     		sub	sp, sp, #20
 1164              		.cfi_def_cfa_offset 32
 1165 0004 0546     		mov	r5, r0
 1166              	.LVL151:
 368:..\paho.mqtt.embedded-c\MQTTClient-C\src/MQTTClient.c **** 	Timer timer;
 369:..\paho.mqtt.embedded-c\MQTTClient-C\src/MQTTClient.c **** 	MQTTClient* c = (MQTTClient*)parm;
 370:..\paho.mqtt.embedded-c\MQTTClient-C\src/MQTTClient.c **** 
 371:..\paho.mqtt.embedded-c\MQTTClient-C\src/MQTTClient.c **** 	TimerInit(&timer);
 1167              		.loc 1 371 0
 1168 0006 01A8     		add	r0, sp, #4
 1169              	.LVL152:
 1170 0008 FFF7FEFF 		bl	TimerInit
 1171              	.LVL153:
 1172              	.L92:
 372:..\paho.mqtt.embedded-c\MQTTClient-C\src/MQTTClient.c **** 
 373:..\paho.mqtt.embedded-c\MQTTClient-C\src/MQTTClient.c **** 	while (1)
 374:..\paho.mqtt.embedded-c\MQTTClient-C\src/MQTTClient.c **** 	{
 375:..\paho.mqtt.embedded-c\MQTTClient-C\src/MQTTClient.c **** #if defined(MQTT_TASK)
 376:..\paho.mqtt.embedded-c\MQTTClient-C\src/MQTTClient.c **** 		MutexLock(&c->mutex);
 1173              		.loc 1 376 0 discriminator 1
 1174 000c 05F17004 		add	r4, r5, #112
 1175 0010 2046     		mov	r0, r4
 1176 0012 FFF7FEFF 		bl	MutexLock
 1177              	.LVL154:
 377:..\paho.mqtt.embedded-c\MQTTClient-C\src/MQTTClient.c **** #endif
 378:..\paho.mqtt.embedded-c\MQTTClient-C\src/MQTTClient.c **** 		TimerCountdownMS(&timer, 500); /* Don't wait too long if no traffic is incoming */
 1178              		.loc 1 378 0 discriminator 1
 1179 0016 4FF4FA71 		mov	r1, #500
 1180 001a 01A8     		add	r0, sp, #4
 1181 001c FFF7FEFF 		bl	TimerCountdownMS
 1182              	.LVL155:
 379:..\paho.mqtt.embedded-c\MQTTClient-C\src/MQTTClient.c **** 		cycle(c, &timer);
 1183              		.loc 1 379 0 discriminator 1
 1184 0020 01A9     		add	r1, sp, #4
 1185 0022 2846     		mov	r0, r5
 1186 0024 FFF7FEFF 		bl	cycle
 1187              	.LVL156:
 380:..\paho.mqtt.embedded-c\MQTTClient-C\src/MQTTClient.c **** #if defined(MQTT_TASK)
 381:..\paho.mqtt.embedded-c\MQTTClient-C\src/MQTTClient.c **** 		MutexUnlock(&c->mutex);
 1188              		.loc 1 381 0 discriminator 1
 1189 0028 2046     		mov	r0, r4
 1190 002a FFF7FEFF 		bl	MutexUnlock
 1191              	.LVL157:
 382:..\paho.mqtt.embedded-c\MQTTClient-C\src/MQTTClient.c ****         vTaskDelay(10); //KRL: sleep to allow other tasks to take the mutex
 1192              		.loc 1 382 0 discriminator 1
 1193 002e 0A20     		movs	r0, #10
 1194 0030 FFF7FEFF 		bl	vTaskDelay
 1195              	.LVL158:
 1196 0034 EAE7     		b	.L92
 1197              		.cfi_endproc
 1198              	.LFE83:
 1199              		.size	MQTTRun, .-MQTTRun
 1200 0036 00BF     		.section	.text.MQTTYield,"ax",%progbits
ARM GAS  C:\Users\samue\AppData\Local\Temp\ccYWUiYX.s 			page 30


 1201              		.align	2
 1202              		.global	MQTTYield
 1203              		.thumb
 1204              		.thumb_func
 1205              		.type	MQTTYield, %function
 1206              	MQTTYield:
 1207              	.LFB81:
 342:..\paho.mqtt.embedded-c\MQTTClient-C\src/MQTTClient.c ****     int rc = SUCCESS;
 1208              		.loc 1 342 0
 1209              		.cfi_startproc
 1210              		@ args = 0, pretend = 0, frame = 16
 1211              		@ frame_needed = 0, uses_anonymous_args = 0
 1212              	.LVL159:
 1213 0000 30B5     		push	{r4, r5, lr}
 1214              		.cfi_def_cfa_offset 12
 1215              		.cfi_offset 4, -12
 1216              		.cfi_offset 5, -8
 1217              		.cfi_offset 14, -4
 1218 0002 85B0     		sub	sp, sp, #20
 1219              		.cfi_def_cfa_offset 32
 1220 0004 0446     		mov	r4, r0
 1221 0006 0D46     		mov	r5, r1
 1222              	.LVL160:
 346:..\paho.mqtt.embedded-c\MQTTClient-C\src/MQTTClient.c ****     TimerCountdownMS(&timer, timeout_ms);
 1223              		.loc 1 346 0
 1224 0008 01A8     		add	r0, sp, #4
 1225              	.LVL161:
 1226 000a FFF7FEFF 		bl	TimerInit
 1227              	.LVL162:
 347:..\paho.mqtt.embedded-c\MQTTClient-C\src/MQTTClient.c **** 
 1228              		.loc 1 347 0
 1229 000e 2946     		mov	r1, r5
 1230 0010 01A8     		add	r0, sp, #4
 1231 0012 FFF7FEFF 		bl	TimerCountdownMS
 1232              	.LVL163:
 1233              	.L96:
 351:..\paho.mqtt.embedded-c\MQTTClient-C\src/MQTTClient.c ****         {
 1234              		.loc 1 351 0
 1235 0016 01A9     		add	r1, sp, #4
 1236 0018 2046     		mov	r0, r4
 1237 001a FFF7FEFF 		bl	cycle
 1238              	.LVL164:
 1239 001e 0028     		cmp	r0, #0
 1240 0020 06DB     		blt	.L97
 356:..\paho.mqtt.embedded-c\MQTTClient-C\src/MQTTClient.c **** 
 1241              		.loc 1 356 0
 1242 0022 01A8     		add	r0, sp, #4
 1243 0024 FFF7FEFF 		bl	TimerIsExpired
 1244              	.LVL165:
 1245 0028 0028     		cmp	r0, #0
 1246 002a F4D0     		beq	.L96
 343:..\paho.mqtt.embedded-c\MQTTClient-C\src/MQTTClient.c ****     Timer timer;
 1247              		.loc 1 343 0
 1248 002c 0020     		movs	r0, #0
 1249 002e 01E0     		b	.L95
 1250              	.L97:
 353:..\paho.mqtt.embedded-c\MQTTClient-C\src/MQTTClient.c ****             break;
ARM GAS  C:\Users\samue\AppData\Local\Temp\ccYWUiYX.s 			page 31


 1251              		.loc 1 353 0
 1252 0030 4FF0FF30 		mov	r0, #-1
 1253              	.L95:
 1254              	.LVL166:
 359:..\paho.mqtt.embedded-c\MQTTClient-C\src/MQTTClient.c **** 
 1255              		.loc 1 359 0
 1256 0034 05B0     		add	sp, sp, #20
 1257              		.cfi_def_cfa_offset 12
 1258              		@ sp needed
 1259 0036 30BD     		pop	{r4, r5, pc}
 1260              		.cfi_endproc
 1261              	.LFE81:
 1262              		.size	MQTTYield, .-MQTTYield
 1263              		.section	.text.MQTTIsConnected,"ax",%progbits
 1264              		.align	2
 1265              		.global	MQTTIsConnected
 1266              		.thumb
 1267              		.thumb_func
 1268              		.type	MQTTIsConnected, %function
 1269              	MQTTIsConnected:
 1270              	.LFB82:
 362:..\paho.mqtt.embedded-c\MQTTClient-C\src/MQTTClient.c ****   return client->isconnected;
 1271              		.loc 1 362 0
 1272              		.cfi_startproc
 1273              		@ args = 0, pretend = 0, frame = 0
 1274              		@ frame_needed = 0, uses_anonymous_args = 0
 1275              		@ link register save eliminated.
 1276              	.LVL167:
 364:..\paho.mqtt.embedded-c\MQTTClient-C\src/MQTTClient.c **** 
 1277              		.loc 1 364 0
 1278 0000 006A     		ldr	r0, [r0, #32]
 1279              	.LVL168:
 1280 0002 7047     		bx	lr
 1281              		.cfi_endproc
 1282              	.LFE82:
 1283              		.size	MQTTIsConnected, .-MQTTIsConnected
 1284              		.section	.text.MQTTStartTask,"ax",%progbits
 1285              		.align	2
 1286              		.global	MQTTStartTask
 1287              		.thumb
 1288              		.thumb_func
 1289              		.type	MQTTStartTask, %function
 1290              	MQTTStartTask:
 1291              	.LFB84:
 383:..\paho.mqtt.embedded-c\MQTTClient-C\src/MQTTClient.c **** #endif
 384:..\paho.mqtt.embedded-c\MQTTClient-C\src/MQTTClient.c **** 	}
 385:..\paho.mqtt.embedded-c\MQTTClient-C\src/MQTTClient.c **** }
 386:..\paho.mqtt.embedded-c\MQTTClient-C\src/MQTTClient.c **** 
 387:..\paho.mqtt.embedded-c\MQTTClient-C\src/MQTTClient.c **** 
 388:..\paho.mqtt.embedded-c\MQTTClient-C\src/MQTTClient.c **** #if defined(MQTT_TASK)
 389:..\paho.mqtt.embedded-c\MQTTClient-C\src/MQTTClient.c **** int MQTTStartTask(MQTTClient* client)
 390:..\paho.mqtt.embedded-c\MQTTClient-C\src/MQTTClient.c **** {
 1292              		.loc 1 390 0
 1293              		.cfi_startproc
 1294              		@ args = 0, pretend = 0, frame = 0
 1295              		@ frame_needed = 0, uses_anonymous_args = 0
 1296              	.LVL169:
ARM GAS  C:\Users\samue\AppData\Local\Temp\ccYWUiYX.s 			page 32


 1297 0000 08B5     		push	{r3, lr}
 1298              		.cfi_def_cfa_offset 8
 1299              		.cfi_offset 3, -8
 1300              		.cfi_offset 14, -4
 391:..\paho.mqtt.embedded-c\MQTTClient-C\src/MQTTClient.c **** 	return ThreadStart(&client->thread, &MQTTRun, client);
 1301              		.loc 1 391 0
 1302 0002 0246     		mov	r2, r0
 1303 0004 0249     		ldr	r1, .L102
 1304 0006 7430     		adds	r0, r0, #116
 1305              	.LVL170:
 1306 0008 FFF7FEFF 		bl	ThreadStart
 1307              	.LVL171:
 392:..\paho.mqtt.embedded-c\MQTTClient-C\src/MQTTClient.c **** }
 1308              		.loc 1 392 0
 1309 000c 08BD     		pop	{r3, pc}
 1310              	.L103:
 1311 000e 00BF     		.align	2
 1312              	.L102:
 1313 0010 00000000 		.word	MQTTRun
 1314              		.cfi_endproc
 1315              	.LFE84:
 1316              		.size	MQTTStartTask, .-MQTTStartTask
 1317              		.section	.text.waitfor,"ax",%progbits
 1318              		.align	2
 1319              		.global	waitfor
 1320              		.thumb
 1321              		.thumb_func
 1322              		.type	waitfor, %function
 1323              	waitfor:
 1324              	.LFB85:
 393:..\paho.mqtt.embedded-c\MQTTClient-C\src/MQTTClient.c **** #endif
 394:..\paho.mqtt.embedded-c\MQTTClient-C\src/MQTTClient.c **** 
 395:..\paho.mqtt.embedded-c\MQTTClient-C\src/MQTTClient.c **** 
 396:..\paho.mqtt.embedded-c\MQTTClient-C\src/MQTTClient.c **** int waitfor(MQTTClient* c, int packet_type, Timer* timer)
 397:..\paho.mqtt.embedded-c\MQTTClient-C\src/MQTTClient.c **** {
 1325              		.loc 1 397 0
 1326              		.cfi_startproc
 1327              		@ args = 0, pretend = 0, frame = 0
 1328              		@ frame_needed = 0, uses_anonymous_args = 0
 1329              	.LVL172:
 1330 0000 F8B5     		push	{r3, r4, r5, r6, r7, lr}
 1331              		.cfi_def_cfa_offset 24
 1332              		.cfi_offset 3, -24
 1333              		.cfi_offset 4, -20
 1334              		.cfi_offset 5, -16
 1335              		.cfi_offset 6, -12
 1336              		.cfi_offset 7, -8
 1337              		.cfi_offset 14, -4
 1338 0002 0746     		mov	r7, r0
 1339 0004 0E46     		mov	r6, r1
 1340 0006 1546     		mov	r5, r2
 1341              	.LVL173:
 398:..\paho.mqtt.embedded-c\MQTTClient-C\src/MQTTClient.c ****     int rc = FAILURE;
 1342              		.loc 1 398 0
 1343 0008 4FF0FF34 		mov	r4, #-1
 1344              	.LVL174:
 1345              	.L106:
ARM GAS  C:\Users\samue\AppData\Local\Temp\ccYWUiYX.s 			page 33


 399:..\paho.mqtt.embedded-c\MQTTClient-C\src/MQTTClient.c **** 
 400:..\paho.mqtt.embedded-c\MQTTClient-C\src/MQTTClient.c ****     do
 401:..\paho.mqtt.embedded-c\MQTTClient-C\src/MQTTClient.c ****     {
 402:..\paho.mqtt.embedded-c\MQTTClient-C\src/MQTTClient.c ****         if (TimerIsExpired(timer))
 1346              		.loc 1 402 0
 1347 000c 2846     		mov	r0, r5
 1348 000e FFF7FEFF 		bl	TimerIsExpired
 1349              	.LVL175:
 1350 0012 40B9     		cbnz	r0, .L105
 403:..\paho.mqtt.embedded-c\MQTTClient-C\src/MQTTClient.c ****             break; // we timed out
 404:..\paho.mqtt.embedded-c\MQTTClient-C\src/MQTTClient.c ****         rc = cycle(c, timer);
 1351              		.loc 1 404 0
 1352 0014 2946     		mov	r1, r5
 1353 0016 3846     		mov	r0, r7
 1354 0018 FFF7FEFF 		bl	cycle
 1355              	.LVL176:
 1356 001c 0446     		mov	r4, r0
 1357              	.LVL177:
 405:..\paho.mqtt.embedded-c\MQTTClient-C\src/MQTTClient.c ****     }
 406:..\paho.mqtt.embedded-c\MQTTClient-C\src/MQTTClient.c ****     while (rc != packet_type && rc >= 0);
 1358              		.loc 1 406 0
 1359 001e B042     		cmp	r0, r6
 1360 0020 01D0     		beq	.L105
 1361              		.loc 1 406 0 is_stmt 0 discriminator 1
 1362 0022 0028     		cmp	r0, #0
 1363 0024 F2DA     		bge	.L106
 1364              	.LVL178:
 1365              	.L105:
 407:..\paho.mqtt.embedded-c\MQTTClient-C\src/MQTTClient.c **** 
 408:..\paho.mqtt.embedded-c\MQTTClient-C\src/MQTTClient.c ****     return rc;
 409:..\paho.mqtt.embedded-c\MQTTClient-C\src/MQTTClient.c **** }
 1366              		.loc 1 409 0 is_stmt 1
 1367 0026 2046     		mov	r0, r4
 1368 0028 F8BD     		pop	{r3, r4, r5, r6, r7, pc}
 1369              		.cfi_endproc
 1370              	.LFE85:
 1371              		.size	waitfor, .-waitfor
 1372 002a 00BF     		.section	.text.MQTTConnectWithResults,"ax",%progbits
 1373              		.align	2
 1374              		.global	MQTTConnectWithResults
 1375              		.thumb
 1376              		.thumb_func
 1377              		.type	MQTTConnectWithResults, %function
 1378              	MQTTConnectWithResults:
 1379              	.LFB86:
 410:..\paho.mqtt.embedded-c\MQTTClient-C\src/MQTTClient.c **** 
 411:..\paho.mqtt.embedded-c\MQTTClient-C\src/MQTTClient.c **** 
 412:..\paho.mqtt.embedded-c\MQTTClient-C\src/MQTTClient.c **** 
 413:..\paho.mqtt.embedded-c\MQTTClient-C\src/MQTTClient.c **** 
 414:..\paho.mqtt.embedded-c\MQTTClient-C\src/MQTTClient.c **** int MQTTConnectWithResults(MQTTClient* c, MQTTPacket_connectData* options, MQTTConnackData* data)
 415:..\paho.mqtt.embedded-c\MQTTClient-C\src/MQTTClient.c **** {
 1380              		.loc 1 415 0
 1381              		.cfi_startproc
 1382              		@ args = 0, pretend = 0, frame = 104
 1383              		@ frame_needed = 0, uses_anonymous_args = 0
 1384              	.LVL179:
 1385 0000 F0B5     		push	{r4, r5, r6, r7, lr}
ARM GAS  C:\Users\samue\AppData\Local\Temp\ccYWUiYX.s 			page 34


 1386              		.cfi_def_cfa_offset 20
 1387              		.cfi_offset 4, -20
 1388              		.cfi_offset 5, -16
 1389              		.cfi_offset 6, -12
 1390              		.cfi_offset 7, -8
 1391              		.cfi_offset 14, -4
 1392 0002 9BB0     		sub	sp, sp, #108
 1393              		.cfi_def_cfa_offset 128
 1394 0004 0446     		mov	r4, r0
 1395 0006 0D46     		mov	r5, r1
 1396 0008 1746     		mov	r7, r2
 1397              	.LVL180:
 416:..\paho.mqtt.embedded-c\MQTTClient-C\src/MQTTClient.c ****     Timer connect_timer;
 417:..\paho.mqtt.embedded-c\MQTTClient-C\src/MQTTClient.c ****     int rc = FAILURE;
 418:..\paho.mqtt.embedded-c\MQTTClient-C\src/MQTTClient.c ****     MQTTPacket_connectData default_options = MQTTPacket_connectData_initializer;
 1398              		.loc 1 418 0
 1399 000a 5822     		movs	r2, #88
 1400              	.LVL181:
 1401 000c 2A49     		ldr	r1, .L118
 1402              	.LVL182:
 1403 000e 01A8     		add	r0, sp, #4
 1404              	.LVL183:
 1405 0010 FFF7FEFF 		bl	memcpy
 1406              	.LVL184:
 419:..\paho.mqtt.embedded-c\MQTTClient-C\src/MQTTClient.c ****     int len = 0;
 420:..\paho.mqtt.embedded-c\MQTTClient-C\src/MQTTClient.c **** 
 421:..\paho.mqtt.embedded-c\MQTTClient-C\src/MQTTClient.c **** #if defined(MQTT_TASK)
 422:..\paho.mqtt.embedded-c\MQTTClient-C\src/MQTTClient.c **** 	  MutexLock(&c->mutex);
 1407              		.loc 1 422 0
 1408 0014 04F17006 		add	r6, r4, #112
 1409 0018 3046     		mov	r0, r6
 1410 001a FFF7FEFF 		bl	MutexLock
 1411              	.LVL185:
 423:..\paho.mqtt.embedded-c\MQTTClient-C\src/MQTTClient.c **** #endif
 424:..\paho.mqtt.embedded-c\MQTTClient-C\src/MQTTClient.c **** 	  if (c->isconnected) /* don't send connect packet again if we are already connected */
 1412              		.loc 1 424 0
 1413 001e 236A     		ldr	r3, [r4, #32]
 1414 0020 002B     		cmp	r3, #0
 1415 0022 32D1     		bne	.L112
 425:..\paho.mqtt.embedded-c\MQTTClient-C\src/MQTTClient.c **** 		  goto exit;
 426:..\paho.mqtt.embedded-c\MQTTClient-C\src/MQTTClient.c **** 
 427:..\paho.mqtt.embedded-c\MQTTClient-C\src/MQTTClient.c ****     TimerInit(&connect_timer);
 1416              		.loc 1 427 0
 1417 0024 17A8     		add	r0, sp, #92
 1418 0026 FFF7FEFF 		bl	TimerInit
 1419              	.LVL186:
 428:..\paho.mqtt.embedded-c\MQTTClient-C\src/MQTTClient.c ****     TimerCountdownMS(&connect_timer, c->command_timeout_ms);
 1420              		.loc 1 428 0
 1421 002a 6168     		ldr	r1, [r4, #4]
 1422 002c 17A8     		add	r0, sp, #92
 1423 002e FFF7FEFF 		bl	TimerCountdownMS
 1424              	.LVL187:
 429:..\paho.mqtt.embedded-c\MQTTClient-C\src/MQTTClient.c **** 
 430:..\paho.mqtt.embedded-c\MQTTClient-C\src/MQTTClient.c ****     if (options == 0)
 1425              		.loc 1 430 0
 1426 0032 05B9     		cbnz	r5, .L110
 431:..\paho.mqtt.embedded-c\MQTTClient-C\src/MQTTClient.c ****         options = &default_options; /* set default options if none were supplied */
ARM GAS  C:\Users\samue\AppData\Local\Temp\ccYWUiYX.s 			page 35


 1427              		.loc 1 431 0
 1428 0034 01AD     		add	r5, sp, #4
 1429              	.LVL188:
 1430              	.L110:
 432:..\paho.mqtt.embedded-c\MQTTClient-C\src/MQTTClient.c **** 
 433:..\paho.mqtt.embedded-c\MQTTClient-C\src/MQTTClient.c ****     c->keepAliveInterval = options->keepAliveInterval;
 1431              		.loc 1 433 0
 1432 0036 298B     		ldrh	r1, [r5, #24]
 1433 0038 A161     		str	r1, [r4, #24]
 434:..\paho.mqtt.embedded-c\MQTTClient-C\src/MQTTClient.c ****     c->cleansession = options->cleansession;
 1434              		.loc 1 434 0
 1435 003a AB7E     		ldrb	r3, [r5, #26]	@ zero_extendqisi2
 1436 003c 6362     		str	r3, [r4, #36]
 435:..\paho.mqtt.embedded-c\MQTTClient-C\src/MQTTClient.c ****     TimerCountdown(&c->last_received, c->keepAliveInterval);
 1437              		.loc 1 435 0
 1438 003e 04F16400 		add	r0, r4, #100
 1439 0042 FFF7FEFF 		bl	TimerCountdown
 1440              	.LVL189:
 436:..\paho.mqtt.embedded-c\MQTTClient-C\src/MQTTClient.c ****     if ((len = MQTTSerialize_connect(c->buf, c->buf_size, options)) <= 0)
 1441              		.loc 1 436 0
 1442 0046 2A46     		mov	r2, r5
 1443 0048 A168     		ldr	r1, [r4, #8]
 1444 004a 2069     		ldr	r0, [r4, #16]
 1445 004c FFF7FEFF 		bl	MQTTSerialize_connect
 1446              	.LVL190:
 1447 0050 011E     		subs	r1, r0, #0
 1448 0052 1DDD     		ble	.L114
 437:..\paho.mqtt.embedded-c\MQTTClient-C\src/MQTTClient.c ****         goto exit;
 438:..\paho.mqtt.embedded-c\MQTTClient-C\src/MQTTClient.c ****     if ((rc = sendPacket(c, len, &connect_timer)) != SUCCESS)  // send the connect packet
 1449              		.loc 1 438 0
 1450 0054 17AA     		add	r2, sp, #92
 1451 0056 2046     		mov	r0, r4
 1452              	.LVL191:
 1453 0058 FFF7FEFF 		bl	sendPacket
 1454              	.LVL192:
 1455 005c 0546     		mov	r5, r0
 1456              	.LVL193:
 1457 005e F8B9     		cbnz	r0, .L109
 439:..\paho.mqtt.embedded-c\MQTTClient-C\src/MQTTClient.c ****         goto exit; // there was a problem
 440:..\paho.mqtt.embedded-c\MQTTClient-C\src/MQTTClient.c **** 
 441:..\paho.mqtt.embedded-c\MQTTClient-C\src/MQTTClient.c ****     // this will be a blocking call, wait for the connack
 442:..\paho.mqtt.embedded-c\MQTTClient-C\src/MQTTClient.c ****     if (waitfor(c, CONNACK, &connect_timer) == CONNACK)
 1458              		.loc 1 442 0
 1459 0060 17AA     		add	r2, sp, #92
 1460 0062 0221     		movs	r1, #2
 1461 0064 2046     		mov	r0, r4
 1462              	.LVL194:
 1463 0066 FFF7FEFF 		bl	waitfor
 1464              	.LVL195:
 1465 006a 0228     		cmp	r0, #2
 1466 006c 13D1     		bne	.L115
 443:..\paho.mqtt.embedded-c\MQTTClient-C\src/MQTTClient.c ****     {
 444:..\paho.mqtt.embedded-c\MQTTClient-C\src/MQTTClient.c ****         data->rc = 0;
 1467              		.loc 1 444 0
 1468 006e 0023     		movs	r3, #0
 1469 0070 3B70     		strb	r3, [r7]
 445:..\paho.mqtt.embedded-c\MQTTClient-C\src/MQTTClient.c ****         data->sessionPresent = 0;
ARM GAS  C:\Users\samue\AppData\Local\Temp\ccYWUiYX.s 			page 36


 1470              		.loc 1 445 0
 1471 0072 3846     		mov	r0, r7
 1472 0074 00F8013F 		strb	r3, [r0, #1]!
 446:..\paho.mqtt.embedded-c\MQTTClient-C\src/MQTTClient.c ****         if (MQTTDeserialize_connack(&data->sessionPresent, &data->rc, c->readbuf, c->readbuf_size) 
 1473              		.loc 1 446 0
 1474 0078 E368     		ldr	r3, [r4, #12]
 1475 007a 6269     		ldr	r2, [r4, #20]
 1476 007c 3946     		mov	r1, r7
 1477 007e FFF7FEFF 		bl	MQTTDeserialize_connack
 1478              	.LVL196:
 1479 0082 0128     		cmp	r0, #1
 1480 0084 0AD1     		bne	.L116
 447:..\paho.mqtt.embedded-c\MQTTClient-C\src/MQTTClient.c ****             rc = data->rc;
 1481              		.loc 1 447 0
 1482 0086 3D78     		ldrb	r5, [r7]	@ zero_extendqisi2
 1483              	.LVL197:
 1484 0088 0AE0     		b	.L109
 1485              	.LVL198:
 1486              	.L112:
 417:..\paho.mqtt.embedded-c\MQTTClient-C\src/MQTTClient.c ****     MQTTPacket_connectData default_options = MQTTPacket_connectData_initializer;
 1487              		.loc 1 417 0
 1488 008a 4FF0FF35 		mov	r5, #-1
 1489              	.LVL199:
 1490 008e 07E0     		b	.L109
 1491              	.LVL200:
 1492              	.L114:
 1493 0090 4FF0FF35 		mov	r5, #-1
 1494              	.LVL201:
 1495 0094 04E0     		b	.L109
 1496              	.LVL202:
 1497              	.L115:
 448:..\paho.mqtt.embedded-c\MQTTClient-C\src/MQTTClient.c ****         else
 449:..\paho.mqtt.embedded-c\MQTTClient-C\src/MQTTClient.c ****             rc = FAILURE;
 450:..\paho.mqtt.embedded-c\MQTTClient-C\src/MQTTClient.c ****     }
 451:..\paho.mqtt.embedded-c\MQTTClient-C\src/MQTTClient.c ****     else
 452:..\paho.mqtt.embedded-c\MQTTClient-C\src/MQTTClient.c ****         rc = FAILURE;
 1498              		.loc 1 452 0
 1499 0096 4FF0FF35 		mov	r5, #-1
 1500              	.LVL203:
 1501 009a 01E0     		b	.L109
 1502              	.LVL204:
 1503              	.L116:
 449:..\paho.mqtt.embedded-c\MQTTClient-C\src/MQTTClient.c ****     }
 1504              		.loc 1 449 0
 1505 009c 4FF0FF35 		mov	r5, #-1
 1506              	.LVL205:
 1507              	.L109:
 453:..\paho.mqtt.embedded-c\MQTTClient-C\src/MQTTClient.c **** 
 454:..\paho.mqtt.embedded-c\MQTTClient-C\src/MQTTClient.c **** exit:
 455:..\paho.mqtt.embedded-c\MQTTClient-C\src/MQTTClient.c ****     if (rc == SUCCESS)
 1508              		.loc 1 455 0
 1509 00a0 1DB9     		cbnz	r5, .L111
 456:..\paho.mqtt.embedded-c\MQTTClient-C\src/MQTTClient.c ****     {
 457:..\paho.mqtt.embedded-c\MQTTClient-C\src/MQTTClient.c ****         c->isconnected = 1;
 1510              		.loc 1 457 0
 1511 00a2 0123     		movs	r3, #1
 1512 00a4 2362     		str	r3, [r4, #32]
ARM GAS  C:\Users\samue\AppData\Local\Temp\ccYWUiYX.s 			page 37


 458:..\paho.mqtt.embedded-c\MQTTClient-C\src/MQTTClient.c ****         c->ping_outstanding = 0;
 1513              		.loc 1 458 0
 1514 00a6 0023     		movs	r3, #0
 1515 00a8 2377     		strb	r3, [r4, #28]
 1516              	.L111:
 459:..\paho.mqtt.embedded-c\MQTTClient-C\src/MQTTClient.c ****     }
 460:..\paho.mqtt.embedded-c\MQTTClient-C\src/MQTTClient.c **** 
 461:..\paho.mqtt.embedded-c\MQTTClient-C\src/MQTTClient.c **** #if defined(MQTT_TASK)
 462:..\paho.mqtt.embedded-c\MQTTClient-C\src/MQTTClient.c **** 	  MutexUnlock(&c->mutex);
 1517              		.loc 1 462 0
 1518 00aa 3046     		mov	r0, r6
 1519 00ac FFF7FEFF 		bl	MutexUnlock
 1520              	.LVL206:
 463:..\paho.mqtt.embedded-c\MQTTClient-C\src/MQTTClient.c **** #endif
 464:..\paho.mqtt.embedded-c\MQTTClient-C\src/MQTTClient.c **** 
 465:..\paho.mqtt.embedded-c\MQTTClient-C\src/MQTTClient.c ****     return rc;
 466:..\paho.mqtt.embedded-c\MQTTClient-C\src/MQTTClient.c **** }
 1521              		.loc 1 466 0
 1522 00b0 2846     		mov	r0, r5
 1523 00b2 1BB0     		add	sp, sp, #108
 1524              		.cfi_def_cfa_offset 20
 1525              		@ sp needed
 1526 00b4 F0BD     		pop	{r4, r5, r6, r7, pc}
 1527              	.LVL207:
 1528              	.L119:
 1529 00b6 00BF     		.align	2
 1530              	.L118:
 1531 00b8 00000000 		.word	.LANCHOR0
 1532              		.cfi_endproc
 1533              	.LFE86:
 1534              		.size	MQTTConnectWithResults, .-MQTTConnectWithResults
 1535              		.section	.text.MQTTConnect,"ax",%progbits
 1536              		.align	2
 1537              		.global	MQTTConnect
 1538              		.thumb
 1539              		.thumb_func
 1540              		.type	MQTTConnect, %function
 1541              	MQTTConnect:
 1542              	.LFB87:
 467:..\paho.mqtt.embedded-c\MQTTClient-C\src/MQTTClient.c **** 
 468:..\paho.mqtt.embedded-c\MQTTClient-C\src/MQTTClient.c **** 
 469:..\paho.mqtt.embedded-c\MQTTClient-C\src/MQTTClient.c **** int MQTTConnect(MQTTClient* c, MQTTPacket_connectData* options)
 470:..\paho.mqtt.embedded-c\MQTTClient-C\src/MQTTClient.c **** {
 1543              		.loc 1 470 0
 1544              		.cfi_startproc
 1545              		@ args = 0, pretend = 0, frame = 8
 1546              		@ frame_needed = 0, uses_anonymous_args = 0
 1547              	.LVL208:
 1548 0000 00B5     		push	{lr}
 1549              		.cfi_def_cfa_offset 4
 1550              		.cfi_offset 14, -4
 1551 0002 83B0     		sub	sp, sp, #12
 1552              		.cfi_def_cfa_offset 16
 471:..\paho.mqtt.embedded-c\MQTTClient-C\src/MQTTClient.c ****     MQTTConnackData data;
 472:..\paho.mqtt.embedded-c\MQTTClient-C\src/MQTTClient.c ****     return MQTTConnectWithResults(c, options, &data);
 1553              		.loc 1 472 0
 1554 0004 01AA     		add	r2, sp, #4
ARM GAS  C:\Users\samue\AppData\Local\Temp\ccYWUiYX.s 			page 38


 1555 0006 FFF7FEFF 		bl	MQTTConnectWithResults
 1556              	.LVL209:
 473:..\paho.mqtt.embedded-c\MQTTClient-C\src/MQTTClient.c **** }
 1557              		.loc 1 473 0
 1558 000a 03B0     		add	sp, sp, #12
 1559              		.cfi_def_cfa_offset 4
 1560              		@ sp needed
 1561 000c 5DF804FB 		ldr	pc, [sp], #4
 1562              		.cfi_endproc
 1563              	.LFE87:
 1564              		.size	MQTTConnect, .-MQTTConnect
 1565              		.section	.text.MQTTSetMessageHandler,"ax",%progbits
 1566              		.align	2
 1567              		.global	MQTTSetMessageHandler
 1568              		.thumb
 1569              		.thumb_func
 1570              		.type	MQTTSetMessageHandler, %function
 1571              	MQTTSetMessageHandler:
 1572              	.LFB88:
 474:..\paho.mqtt.embedded-c\MQTTClient-C\src/MQTTClient.c **** 
 475:..\paho.mqtt.embedded-c\MQTTClient-C\src/MQTTClient.c **** 
 476:..\paho.mqtt.embedded-c\MQTTClient-C\src/MQTTClient.c **** int MQTTSetMessageHandler(MQTTClient* c, const char* topicFilter, messageHandler messageHandler)
 477:..\paho.mqtt.embedded-c\MQTTClient-C\src/MQTTClient.c **** {
 1573              		.loc 1 477 0
 1574              		.cfi_startproc
 1575              		@ args = 0, pretend = 0, frame = 0
 1576              		@ frame_needed = 0, uses_anonymous_args = 0
 1577              	.LVL210:
 1578 0000 F8B5     		push	{r3, r4, r5, r6, r7, lr}
 1579              		.cfi_def_cfa_offset 24
 1580              		.cfi_offset 3, -24
 1581              		.cfi_offset 4, -20
 1582              		.cfi_offset 5, -16
 1583              		.cfi_offset 6, -12
 1584              		.cfi_offset 7, -8
 1585              		.cfi_offset 14, -4
 1586 0002 0546     		mov	r5, r0
 1587 0004 0E46     		mov	r6, r1
 1588 0006 1746     		mov	r7, r2
 1589              	.LVL211:
 478:..\paho.mqtt.embedded-c\MQTTClient-C\src/MQTTClient.c ****     int rc = FAILURE;
 479:..\paho.mqtt.embedded-c\MQTTClient-C\src/MQTTClient.c ****     int i = -1;
 480:..\paho.mqtt.embedded-c\MQTTClient-C\src/MQTTClient.c **** 
 481:..\paho.mqtt.embedded-c\MQTTClient-C\src/MQTTClient.c ****     /* first check for an existing matching slot */
 482:..\paho.mqtt.embedded-c\MQTTClient-C\src/MQTTClient.c ****     for (i = 0; i < MAX_MESSAGE_HANDLERS; ++i)
 1590              		.loc 1 482 0
 1591 0008 0024     		movs	r4, #0
 1592 000a 10E0     		b	.L123
 1593              	.LVL212:
 1594              	.L126:
 483:..\paho.mqtt.embedded-c\MQTTClient-C\src/MQTTClient.c ****     {
 484:..\paho.mqtt.embedded-c\MQTTClient-C\src/MQTTClient.c ****         if (c->messageHandlers[i].topicFilter != NULL && strcmp(c->messageHandlers[i].topicFilter, 
 1595              		.loc 1 484 0
 1596 000c 631D     		adds	r3, r4, #5
 1597 000e 55F83300 		ldr	r0, [r5, r3, lsl #3]
 1598 0012 58B1     		cbz	r0, .L124
 1599              		.loc 1 484 0 is_stmt 0 discriminator 1
ARM GAS  C:\Users\samue\AppData\Local\Temp\ccYWUiYX.s 			page 39


 1600 0014 3146     		mov	r1, r6
 1601 0016 FFF7FEFF 		bl	strcmp
 1602              	.LVL213:
 1603 001a 38B9     		cbnz	r0, .L124
 485:..\paho.mqtt.embedded-c\MQTTClient-C\src/MQTTClient.c ****         {
 486:..\paho.mqtt.embedded-c\MQTTClient-C\src/MQTTClient.c ****             if (messageHandler == NULL) /* remove existing */
 1604              		.loc 1 486 0 is_stmt 1
 1605 001c 67B9     		cbnz	r7, .L131
 487:..\paho.mqtt.embedded-c\MQTTClient-C\src/MQTTClient.c ****             {
 488:..\paho.mqtt.embedded-c\MQTTClient-C\src/MQTTClient.c ****                 c->messageHandlers[i].topicFilter = NULL;
 1606              		.loc 1 488 0
 1607 001e 631D     		adds	r3, r4, #5
 1608 0020 45F83300 		str	r0, [r5, r3, lsl #3]
 489:..\paho.mqtt.embedded-c\MQTTClient-C\src/MQTTClient.c ****                 c->messageHandlers[i].fp = NULL;
 1609              		.loc 1 489 0
 1610 0024 05EBC303 		add	r3, r5, r3, lsl #3
 1611 0028 5860     		str	r0, [r3, #4]
 1612 002a 06E0     		b	.L125
 1613              	.L124:
 482:..\paho.mqtt.embedded-c\MQTTClient-C\src/MQTTClient.c ****     {
 1614              		.loc 1 482 0 discriminator 2
 1615 002c 0134     		adds	r4, r4, #1
 1616              	.LVL214:
 1617              	.L123:
 482:..\paho.mqtt.embedded-c\MQTTClient-C\src/MQTTClient.c ****     {
 1618              		.loc 1 482 0 is_stmt 0 discriminator 1
 1619 002e 042C     		cmp	r4, #4
 1620 0030 ECDD     		ble	.L126
 478:..\paho.mqtt.embedded-c\MQTTClient-C\src/MQTTClient.c ****     int i = -1;
 1621              		.loc 1 478 0 is_stmt 1
 1622 0032 4FF0FF30 		mov	r0, #-1
 1623 0036 00E0     		b	.L125
 1624              	.L131:
 490:..\paho.mqtt.embedded-c\MQTTClient-C\src/MQTTClient.c ****             }
 491:..\paho.mqtt.embedded-c\MQTTClient-C\src/MQTTClient.c ****             rc = SUCCESS; /* return i when adding new subscription */
 1625              		.loc 1 491 0
 1626 0038 0020     		movs	r0, #0
 1627              	.L125:
 1628              	.LVL215:
 492:..\paho.mqtt.embedded-c\MQTTClient-C\src/MQTTClient.c ****             break;
 493:..\paho.mqtt.embedded-c\MQTTClient-C\src/MQTTClient.c ****         }
 494:..\paho.mqtt.embedded-c\MQTTClient-C\src/MQTTClient.c ****     }
 495:..\paho.mqtt.embedded-c\MQTTClient-C\src/MQTTClient.c ****     /* if no existing, look for empty slot (unless we are removing) */
 496:..\paho.mqtt.embedded-c\MQTTClient-C\src/MQTTClient.c ****     if (messageHandler != NULL) {
 1629              		.loc 1 496 0
 1630 003a A7B1     		cbz	r7, .L127
 497:..\paho.mqtt.embedded-c\MQTTClient-C\src/MQTTClient.c ****         if (rc == FAILURE)
 1631              		.loc 1 497 0
 1632 003c 58B1     		cbz	r0, .L129
 1633 003e 05E0     		b	.L132
 1634              	.L130:
 498:..\paho.mqtt.embedded-c\MQTTClient-C\src/MQTTClient.c ****         {
 499:..\paho.mqtt.embedded-c\MQTTClient-C\src/MQTTClient.c ****             for (i = 0; i < MAX_MESSAGE_HANDLERS; ++i)
 500:..\paho.mqtt.embedded-c\MQTTClient-C\src/MQTTClient.c ****             {
 501:..\paho.mqtt.embedded-c\MQTTClient-C\src/MQTTClient.c ****                 if (c->messageHandlers[i].topicFilter == NULL)
 1635              		.loc 1 501 0
 1636 0040 631D     		adds	r3, r4, #5
ARM GAS  C:\Users\samue\AppData\Local\Temp\ccYWUiYX.s 			page 40


 1637 0042 55F83330 		ldr	r3, [r5, r3, lsl #3]
 1638 0046 2BB1     		cbz	r3, .L133
 499:..\paho.mqtt.embedded-c\MQTTClient-C\src/MQTTClient.c ****             {
 1639              		.loc 1 499 0 discriminator 2
 1640 0048 0134     		adds	r4, r4, #1
 1641              	.LVL216:
 1642 004a 00E0     		b	.L128
 1643              	.L132:
 1644 004c 0024     		movs	r4, #0
 1645              	.LVL217:
 1646              	.L128:
 499:..\paho.mqtt.embedded-c\MQTTClient-C\src/MQTTClient.c ****             {
 1647              		.loc 1 499 0 is_stmt 0 discriminator 1
 1648 004e 042C     		cmp	r4, #4
 1649 0050 F6DD     		ble	.L130
 1650 0052 00E0     		b	.L129
 1651              	.L133:
 502:..\paho.mqtt.embedded-c\MQTTClient-C\src/MQTTClient.c ****                 {
 503:..\paho.mqtt.embedded-c\MQTTClient-C\src/MQTTClient.c ****                     rc = SUCCESS;
 1652              		.loc 1 503 0 is_stmt 1
 1653 0054 0020     		movs	r0, #0
 1654              	.LVL218:
 1655              	.L129:
 504:..\paho.mqtt.embedded-c\MQTTClient-C\src/MQTTClient.c ****                     break;
 505:..\paho.mqtt.embedded-c\MQTTClient-C\src/MQTTClient.c ****                 }
 506:..\paho.mqtt.embedded-c\MQTTClient-C\src/MQTTClient.c ****             }
 507:..\paho.mqtt.embedded-c\MQTTClient-C\src/MQTTClient.c ****         }
 508:..\paho.mqtt.embedded-c\MQTTClient-C\src/MQTTClient.c ****         if (i < MAX_MESSAGE_HANDLERS)
 1656              		.loc 1 508 0
 1657 0056 042C     		cmp	r4, #4
 1658 0058 05DC     		bgt	.L127
 509:..\paho.mqtt.embedded-c\MQTTClient-C\src/MQTTClient.c ****         {
 510:..\paho.mqtt.embedded-c\MQTTClient-C\src/MQTTClient.c ****             c->messageHandlers[i].topicFilter = topicFilter;
 1659              		.loc 1 510 0
 1660 005a 0534     		adds	r4, r4, #5
 1661              	.LVL219:
 1662 005c 45F83460 		str	r6, [r5, r4, lsl #3]
 511:..\paho.mqtt.embedded-c\MQTTClient-C\src/MQTTClient.c ****             c->messageHandlers[i].fp = messageHandler;
 1663              		.loc 1 511 0
 1664 0060 05EBC404 		add	r4, r5, r4, lsl #3
 1665              	.LVL220:
 1666 0064 6760     		str	r7, [r4, #4]
 1667              	.L127:
 512:..\paho.mqtt.embedded-c\MQTTClient-C\src/MQTTClient.c ****         }
 513:..\paho.mqtt.embedded-c\MQTTClient-C\src/MQTTClient.c ****     }
 514:..\paho.mqtt.embedded-c\MQTTClient-C\src/MQTTClient.c ****     return rc;
 515:..\paho.mqtt.embedded-c\MQTTClient-C\src/MQTTClient.c **** }
 1668              		.loc 1 515 0
 1669 0066 F8BD     		pop	{r3, r4, r5, r6, r7, pc}
 1670              		.cfi_endproc
 1671              	.LFE88:
 1672              		.size	MQTTSetMessageHandler, .-MQTTSetMessageHandler
 1673              		.section	.text.MQTTSubscribeWithResults,"ax",%progbits
 1674              		.align	2
 1675              		.global	MQTTSubscribeWithResults
 1676              		.thumb
 1677              		.thumb_func
ARM GAS  C:\Users\samue\AppData\Local\Temp\ccYWUiYX.s 			page 41


 1678              		.type	MQTTSubscribeWithResults, %function
 1679              	MQTTSubscribeWithResults:
 1680              	.LFB89:
 516:..\paho.mqtt.embedded-c\MQTTClient-C\src/MQTTClient.c **** 
 517:..\paho.mqtt.embedded-c\MQTTClient-C\src/MQTTClient.c **** 
 518:..\paho.mqtt.embedded-c\MQTTClient-C\src/MQTTClient.c **** int MQTTSubscribeWithResults(MQTTClient* c, const char* topicFilter, enum QoS qos,
 519:..\paho.mqtt.embedded-c\MQTTClient-C\src/MQTTClient.c ****        messageHandler messageHandler, MQTTSubackData* data)
 520:..\paho.mqtt.embedded-c\MQTTClient-C\src/MQTTClient.c **** {
 1681              		.loc 1 520 0
 1682              		.cfi_startproc
 1683              		@ args = 4, pretend = 0, frame = 40
 1684              		@ frame_needed = 0, uses_anonymous_args = 0
 1685              	.LVL221:
 1686 0000 2DE9F043 		push	{r4, r5, r6, r7, r8, r9, lr}
 1687              		.cfi_def_cfa_offset 28
 1688              		.cfi_offset 4, -28
 1689              		.cfi_offset 5, -24
 1690              		.cfi_offset 6, -20
 1691              		.cfi_offset 7, -16
 1692              		.cfi_offset 8, -12
 1693              		.cfi_offset 9, -8
 1694              		.cfi_offset 14, -4
 1695 0004 8FB0     		sub	sp, sp, #60
 1696              		.cfi_def_cfa_offset 88
 1697 0006 0446     		mov	r4, r0
 1698 0008 0F46     		mov	r7, r1
 1699 000a 9846     		mov	r8, r3
 1700 000c 8DF81720 		strb	r2, [sp, #23]
 1701              	.LVL222:
 521:..\paho.mqtt.embedded-c\MQTTClient-C\src/MQTTClient.c ****     int rc = FAILURE;
 522:..\paho.mqtt.embedded-c\MQTTClient-C\src/MQTTClient.c ****     Timer timer;
 523:..\paho.mqtt.embedded-c\MQTTClient-C\src/MQTTClient.c ****     int len = 0;
 524:..\paho.mqtt.embedded-c\MQTTClient-C\src/MQTTClient.c ****     MQTTString topic = MQTTString_initializer;
 1702              		.loc 1 524 0
 1703 0010 0023     		movs	r3, #0
 1704              	.LVL223:
 1705 0012 0993     		str	r3, [sp, #36]
 1706 0014 0A93     		str	r3, [sp, #40]
 525:..\paho.mqtt.embedded-c\MQTTClient-C\src/MQTTClient.c ****     topic.cstring = (char *)topicFilter;
 1707              		.loc 1 525 0
 1708 0016 0891     		str	r1, [sp, #32]
 526:..\paho.mqtt.embedded-c\MQTTClient-C\src/MQTTClient.c **** 
 527:..\paho.mqtt.embedded-c\MQTTClient-C\src/MQTTClient.c **** #if defined(MQTT_TASK)
 528:..\paho.mqtt.embedded-c\MQTTClient-C\src/MQTTClient.c **** 	  MutexLock(&c->mutex);
 1709              		.loc 1 528 0
 1710 0018 00F17006 		add	r6, r0, #112
 1711 001c 3046     		mov	r0, r6
 1712              	.LVL224:
 1713 001e FFF7FEFF 		bl	MutexLock
 1714              	.LVL225:
 529:..\paho.mqtt.embedded-c\MQTTClient-C\src/MQTTClient.c **** #endif
 530:..\paho.mqtt.embedded-c\MQTTClient-C\src/MQTTClient.c **** 	  if (!c->isconnected)
 1715              		.loc 1 530 0
 1716 0022 236A     		ldr	r3, [r4, #32]
 1717 0024 002B     		cmp	r3, #0
 1718 0026 45D0     		beq	.L139
 531:..\paho.mqtt.embedded-c\MQTTClient-C\src/MQTTClient.c **** 		    goto exit;
ARM GAS  C:\Users\samue\AppData\Local\Temp\ccYWUiYX.s 			page 42


 532:..\paho.mqtt.embedded-c\MQTTClient-C\src/MQTTClient.c **** 
 533:..\paho.mqtt.embedded-c\MQTTClient-C\src/MQTTClient.c ****     TimerInit(&timer);
 1719              		.loc 1 533 0
 1720 0028 0BA8     		add	r0, sp, #44
 1721 002a FFF7FEFF 		bl	TimerInit
 1722              	.LVL226:
 534:..\paho.mqtt.embedded-c\MQTTClient-C\src/MQTTClient.c ****     TimerCountdownMS(&timer, c->command_timeout_ms);
 1723              		.loc 1 534 0
 1724 002e 6168     		ldr	r1, [r4, #4]
 1725 0030 0BA8     		add	r0, sp, #44
 1726 0032 FFF7FEFF 		bl	TimerCountdownMS
 1727              	.LVL227:
 535:..\paho.mqtt.embedded-c\MQTTClient-C\src/MQTTClient.c **** 
 536:..\paho.mqtt.embedded-c\MQTTClient-C\src/MQTTClient.c ****     len = MQTTSerialize_subscribe(c->buf, c->buf_size, 0, getNextPacketId(c), 1, &topic, (int*)&qos
 1728              		.loc 1 536 0
 1729 0036 2569     		ldr	r5, [r4, #16]
 1730 0038 D4F80890 		ldr	r9, [r4, #8]
 1731 003c 2046     		mov	r0, r4
 1732 003e FFF7FEFF 		bl	getNextPacketId
 1733              	.LVL228:
 1734 0042 0DF11703 		add	r3, sp, #23
 1735              	.LVL229:
 1736 0046 0293     		str	r3, [sp, #8]
 1737 0048 08AB     		add	r3, sp, #32
 1738              	.LVL230:
 1739 004a 0193     		str	r3, [sp, #4]
 1740 004c 0123     		movs	r3, #1
 1741 004e 0093     		str	r3, [sp]
 1742 0050 83B2     		uxth	r3, r0
 1743 0052 0022     		movs	r2, #0
 1744 0054 4946     		mov	r1, r9
 1745 0056 2846     		mov	r0, r5
 1746 0058 FFF7FEFF 		bl	MQTTSerialize_subscribe
 1747              	.LVL231:
 537:..\paho.mqtt.embedded-c\MQTTClient-C\src/MQTTClient.c ****     if (len <= 0)
 1748              		.loc 1 537 0
 1749 005c 011E     		subs	r1, r0, #0
 1750 005e 2CDD     		ble	.L140
 538:..\paho.mqtt.embedded-c\MQTTClient-C\src/MQTTClient.c ****         goto exit;
 539:..\paho.mqtt.embedded-c\MQTTClient-C\src/MQTTClient.c ****     if ((rc = sendPacket(c, len, &timer)) != SUCCESS) // send the subscribe packet
 1751              		.loc 1 539 0
 1752 0060 0BAA     		add	r2, sp, #44
 1753 0062 2046     		mov	r0, r4
 1754              	.LVL232:
 1755 0064 FFF7FEFF 		bl	sendPacket
 1756              	.LVL233:
 1757 0068 0546     		mov	r5, r0
 1758 006a 58BB     		cbnz	r0, .L136
 540:..\paho.mqtt.embedded-c\MQTTClient-C\src/MQTTClient.c ****         goto exit;             // there was a problem
 541:..\paho.mqtt.embedded-c\MQTTClient-C\src/MQTTClient.c **** 
 542:..\paho.mqtt.embedded-c\MQTTClient-C\src/MQTTClient.c ****     if (waitfor(c, SUBACK, &timer) == SUBACK)      // wait for suback
 1759              		.loc 1 542 0
 1760 006c 0BAA     		add	r2, sp, #44
 1761 006e 0921     		movs	r1, #9
 1762 0070 2046     		mov	r0, r4
 1763              	.LVL234:
 1764 0072 FFF7FEFF 		bl	waitfor
ARM GAS  C:\Users\samue\AppData\Local\Temp\ccYWUiYX.s 			page 43


 1765              	.LVL235:
 1766 0076 0928     		cmp	r0, #9
 1767 0078 22D1     		bne	.L141
 1768              	.LBB10:
 543:..\paho.mqtt.embedded-c\MQTTClient-C\src/MQTTClient.c ****     {
 544:..\paho.mqtt.embedded-c\MQTTClient-C\src/MQTTClient.c ****         int count = 0;
 1769              		.loc 1 544 0
 1770 007a 0023     		movs	r3, #0
 1771 007c 0EAA     		add	r2, sp, #56
 1772 007e 42F81C3D 		str	r3, [r2, #-28]!
 545:..\paho.mqtt.embedded-c\MQTTClient-C\src/MQTTClient.c ****         unsigned short mypacketid;
 546:..\paho.mqtt.embedded-c\MQTTClient-C\src/MQTTClient.c ****         data->grantedQoS = QOS0;
 1773              		.loc 1 546 0
 1774 0082 1699     		ldr	r1, [sp, #88]
 1775 0084 0B70     		strb	r3, [r1]
 547:..\paho.mqtt.embedded-c\MQTTClient-C\src/MQTTClient.c ****         if (MQTTDeserialize_suback(&mypacketid, 1, &count, (int*)&data->grantedQoS, c->readbuf, c->
 1776              		.loc 1 547 0
 1777 0086 E368     		ldr	r3, [r4, #12]
 1778 0088 0193     		str	r3, [sp, #4]
 1779 008a 6369     		ldr	r3, [r4, #20]
 1780 008c 0093     		str	r3, [sp]
 1781 008e 0B46     		mov	r3, r1
 1782 0090 0121     		movs	r1, #1
 1783 0092 0DF11A00 		add	r0, sp, #26
 1784 0096 FFF7FEFF 		bl	MQTTDeserialize_suback
 1785              	.LVL236:
 1786 009a 0128     		cmp	r0, #1
 1787 009c 12D1     		bne	.L136
 548:..\paho.mqtt.embedded-c\MQTTClient-C\src/MQTTClient.c ****         {
 549:..\paho.mqtt.embedded-c\MQTTClient-C\src/MQTTClient.c ****             if (data->grantedQoS != 0x80)
 1788              		.loc 1 549 0
 1789 009e 169B     		ldr	r3, [sp, #88]
 1790 00a0 1B78     		ldrb	r3, [r3]	@ zero_extendqisi2
 1791 00a2 802B     		cmp	r3, #128
 1792 00a4 0ED0     		beq	.L136
 550:..\paho.mqtt.embedded-c\MQTTClient-C\src/MQTTClient.c ****                 rc = MQTTSetMessageHandler(c, topicFilter, messageHandler);
 1793              		.loc 1 550 0
 1794 00a6 4246     		mov	r2, r8
 1795 00a8 3946     		mov	r1, r7
 1796 00aa 2046     		mov	r0, r4
 1797 00ac FFF7FEFF 		bl	MQTTSetMessageHandler
 1798              	.LVL237:
 1799 00b0 0546     		mov	r5, r0
 1800              	.LVL238:
 1801 00b2 07E0     		b	.L136
 1802              	.LVL239:
 1803              	.L139:
 1804              	.LBE10:
 521:..\paho.mqtt.embedded-c\MQTTClient-C\src/MQTTClient.c ****     Timer timer;
 1805              		.loc 1 521 0
 1806 00b4 4FF0FF35 		mov	r5, #-1
 1807 00b8 04E0     		b	.L136
 1808              	.LVL240:
 1809              	.L140:
 1810 00ba 4FF0FF35 		mov	r5, #-1
 1811 00be 01E0     		b	.L136
 1812              	.LVL241:
ARM GAS  C:\Users\samue\AppData\Local\Temp\ccYWUiYX.s 			page 44


 1813              	.L141:
 551:..\paho.mqtt.embedded-c\MQTTClient-C\src/MQTTClient.c ****         }
 552:..\paho.mqtt.embedded-c\MQTTClient-C\src/MQTTClient.c ****     }
 553:..\paho.mqtt.embedded-c\MQTTClient-C\src/MQTTClient.c ****     else
 554:..\paho.mqtt.embedded-c\MQTTClient-C\src/MQTTClient.c ****         rc = FAILURE;
 1814              		.loc 1 554 0
 1815 00c0 4FF0FF35 		mov	r5, #-1
 1816              	.LVL242:
 1817              	.L136:
 555:..\paho.mqtt.embedded-c\MQTTClient-C\src/MQTTClient.c **** 
 556:..\paho.mqtt.embedded-c\MQTTClient-C\src/MQTTClient.c **** exit:
 557:..\paho.mqtt.embedded-c\MQTTClient-C\src/MQTTClient.c ****     if (rc == FAILURE)
 1818              		.loc 1 557 0
 1819 00c4 B5F1FF3F 		cmp	r5, #-1
 1820 00c8 02D1     		bne	.L138
 558:..\paho.mqtt.embedded-c\MQTTClient-C\src/MQTTClient.c ****         MQTTCloseSession(c);
 1821              		.loc 1 558 0
 1822 00ca 2046     		mov	r0, r4
 1823 00cc FFF7FEFF 		bl	MQTTCloseSession
 1824              	.LVL243:
 1825              	.L138:
 559:..\paho.mqtt.embedded-c\MQTTClient-C\src/MQTTClient.c **** #if defined(MQTT_TASK)
 560:..\paho.mqtt.embedded-c\MQTTClient-C\src/MQTTClient.c **** 	  MutexUnlock(&c->mutex);
 1826              		.loc 1 560 0
 1827 00d0 3046     		mov	r0, r6
 1828 00d2 FFF7FEFF 		bl	MutexUnlock
 1829              	.LVL244:
 561:..\paho.mqtt.embedded-c\MQTTClient-C\src/MQTTClient.c **** #endif
 562:..\paho.mqtt.embedded-c\MQTTClient-C\src/MQTTClient.c ****     return rc;
 563:..\paho.mqtt.embedded-c\MQTTClient-C\src/MQTTClient.c **** }
 1830              		.loc 1 563 0
 1831 00d6 2846     		mov	r0, r5
 1832 00d8 0FB0     		add	sp, sp, #60
 1833              		.cfi_def_cfa_offset 28
 1834              		@ sp needed
 1835 00da BDE8F083 		pop	{r4, r5, r6, r7, r8, r9, pc}
 1836              		.cfi_endproc
 1837              	.LFE89:
 1838              		.size	MQTTSubscribeWithResults, .-MQTTSubscribeWithResults
 1839 00de 00BF     		.section	.text.MQTTSubscribe,"ax",%progbits
 1840              		.align	2
 1841              		.global	MQTTSubscribe
 1842              		.thumb
 1843              		.thumb_func
 1844              		.type	MQTTSubscribe, %function
 1845              	MQTTSubscribe:
 1846              	.LFB90:
 564:..\paho.mqtt.embedded-c\MQTTClient-C\src/MQTTClient.c **** 
 565:..\paho.mqtt.embedded-c\MQTTClient-C\src/MQTTClient.c **** 
 566:..\paho.mqtt.embedded-c\MQTTClient-C\src/MQTTClient.c **** int MQTTSubscribe(MQTTClient* c, const char* topicFilter, enum QoS qos,
 567:..\paho.mqtt.embedded-c\MQTTClient-C\src/MQTTClient.c ****        messageHandler messageHandler)
 568:..\paho.mqtt.embedded-c\MQTTClient-C\src/MQTTClient.c **** {
 1847              		.loc 1 568 0
 1848              		.cfi_startproc
 1849              		@ args = 0, pretend = 0, frame = 8
 1850              		@ frame_needed = 0, uses_anonymous_args = 0
 1851              	.LVL245:
ARM GAS  C:\Users\samue\AppData\Local\Temp\ccYWUiYX.s 			page 45


 1852 0000 10B5     		push	{r4, lr}
 1853              		.cfi_def_cfa_offset 8
 1854              		.cfi_offset 4, -8
 1855              		.cfi_offset 14, -4
 1856 0002 84B0     		sub	sp, sp, #16
 1857              		.cfi_def_cfa_offset 24
 569:..\paho.mqtt.embedded-c\MQTTClient-C\src/MQTTClient.c ****     MQTTSubackData data;
 570:..\paho.mqtt.embedded-c\MQTTClient-C\src/MQTTClient.c ****     return MQTTSubscribeWithResults(c, topicFilter, qos, messageHandler, &data);
 1858              		.loc 1 570 0
 1859 0004 03AC     		add	r4, sp, #12
 1860 0006 0094     		str	r4, [sp]
 1861 0008 FFF7FEFF 		bl	MQTTSubscribeWithResults
 1862              	.LVL246:
 571:..\paho.mqtt.embedded-c\MQTTClient-C\src/MQTTClient.c **** }
 1863              		.loc 1 571 0
 1864 000c 04B0     		add	sp, sp, #16
 1865              		.cfi_def_cfa_offset 8
 1866              		@ sp needed
 1867 000e 10BD     		pop	{r4, pc}
 1868              		.cfi_endproc
 1869              	.LFE90:
 1870              		.size	MQTTSubscribe, .-MQTTSubscribe
 1871              		.section	.text.MQTTUnsubscribe,"ax",%progbits
 1872              		.align	2
 1873              		.global	MQTTUnsubscribe
 1874              		.thumb
 1875              		.thumb_func
 1876              		.type	MQTTUnsubscribe, %function
 1877              	MQTTUnsubscribe:
 1878              	.LFB91:
 572:..\paho.mqtt.embedded-c\MQTTClient-C\src/MQTTClient.c **** 
 573:..\paho.mqtt.embedded-c\MQTTClient-C\src/MQTTClient.c **** 
 574:..\paho.mqtt.embedded-c\MQTTClient-C\src/MQTTClient.c **** int MQTTUnsubscribe(MQTTClient* c, const char* topicFilter)
 575:..\paho.mqtt.embedded-c\MQTTClient-C\src/MQTTClient.c **** {
 1879              		.loc 1 575 0
 1880              		.cfi_startproc
 1881              		@ args = 0, pretend = 0, frame = 32
 1882              		@ frame_needed = 0, uses_anonymous_args = 0
 1883              	.LVL247:
 1884 0000 2DE9F041 		push	{r4, r5, r6, r7, r8, lr}
 1885              		.cfi_def_cfa_offset 24
 1886              		.cfi_offset 4, -24
 1887              		.cfi_offset 5, -20
 1888              		.cfi_offset 6, -16
 1889              		.cfi_offset 7, -12
 1890              		.cfi_offset 8, -8
 1891              		.cfi_offset 14, -4
 1892 0004 8AB0     		sub	sp, sp, #40
 1893              		.cfi_def_cfa_offset 64
 1894 0006 0446     		mov	r4, r0
 1895 0008 0F46     		mov	r7, r1
 1896              	.LVL248:
 576:..\paho.mqtt.embedded-c\MQTTClient-C\src/MQTTClient.c ****     int rc = FAILURE;
 577:..\paho.mqtt.embedded-c\MQTTClient-C\src/MQTTClient.c ****     Timer timer;
 578:..\paho.mqtt.embedded-c\MQTTClient-C\src/MQTTClient.c ****     MQTTString topic = MQTTString_initializer;
 1897              		.loc 1 578 0
 1898 000a 0023     		movs	r3, #0
ARM GAS  C:\Users\samue\AppData\Local\Temp\ccYWUiYX.s 			page 46


 1899 000c 0593     		str	r3, [sp, #20]
 1900 000e 0693     		str	r3, [sp, #24]
 579:..\paho.mqtt.embedded-c\MQTTClient-C\src/MQTTClient.c ****     topic.cstring = (char *)topicFilter;
 1901              		.loc 1 579 0
 1902 0010 0491     		str	r1, [sp, #16]
 1903              	.LVL249:
 580:..\paho.mqtt.embedded-c\MQTTClient-C\src/MQTTClient.c ****     int len = 0;
 581:..\paho.mqtt.embedded-c\MQTTClient-C\src/MQTTClient.c **** 
 582:..\paho.mqtt.embedded-c\MQTTClient-C\src/MQTTClient.c **** #if defined(MQTT_TASK)
 583:..\paho.mqtt.embedded-c\MQTTClient-C\src/MQTTClient.c **** 	  MutexLock(&c->mutex);
 1904              		.loc 1 583 0
 1905 0012 00F17006 		add	r6, r0, #112
 1906 0016 3046     		mov	r0, r6
 1907              	.LVL250:
 1908 0018 FFF7FEFF 		bl	MutexLock
 1909              	.LVL251:
 584:..\paho.mqtt.embedded-c\MQTTClient-C\src/MQTTClient.c **** #endif
 585:..\paho.mqtt.embedded-c\MQTTClient-C\src/MQTTClient.c **** 	  if (!c->isconnected)
 1910              		.loc 1 585 0
 1911 001c 236A     		ldr	r3, [r4, #32]
 1912 001e 002B     		cmp	r3, #0
 1913 0020 33D0     		beq	.L149
 586:..\paho.mqtt.embedded-c\MQTTClient-C\src/MQTTClient.c **** 		  goto exit;
 587:..\paho.mqtt.embedded-c\MQTTClient-C\src/MQTTClient.c **** 
 588:..\paho.mqtt.embedded-c\MQTTClient-C\src/MQTTClient.c ****     TimerInit(&timer);
 1914              		.loc 1 588 0
 1915 0022 07A8     		add	r0, sp, #28
 1916 0024 FFF7FEFF 		bl	TimerInit
 1917              	.LVL252:
 589:..\paho.mqtt.embedded-c\MQTTClient-C\src/MQTTClient.c ****     TimerCountdownMS(&timer, c->command_timeout_ms);
 1918              		.loc 1 589 0
 1919 0028 6168     		ldr	r1, [r4, #4]
 1920 002a 07A8     		add	r0, sp, #28
 1921 002c FFF7FEFF 		bl	TimerCountdownMS
 1922              	.LVL253:
 590:..\paho.mqtt.embedded-c\MQTTClient-C\src/MQTTClient.c **** 
 591:..\paho.mqtt.embedded-c\MQTTClient-C\src/MQTTClient.c ****     if ((len = MQTTSerialize_unsubscribe(c->buf, c->buf_size, 0, getNextPacketId(c), 1, &topic)) <=
 1923              		.loc 1 591 0
 1924 0030 2569     		ldr	r5, [r4, #16]
 1925 0032 D4F80880 		ldr	r8, [r4, #8]
 1926 0036 2046     		mov	r0, r4
 1927 0038 FFF7FEFF 		bl	getNextPacketId
 1928              	.LVL254:
 1929 003c 04AB     		add	r3, sp, #16
 1930 003e 0193     		str	r3, [sp, #4]
 1931 0040 0123     		movs	r3, #1
 1932 0042 0093     		str	r3, [sp]
 1933 0044 83B2     		uxth	r3, r0
 1934 0046 0022     		movs	r2, #0
 1935 0048 4146     		mov	r1, r8
 1936 004a 2846     		mov	r0, r5
 1937 004c FFF7FEFF 		bl	MQTTSerialize_unsubscribe
 1938              	.LVL255:
 1939 0050 011E     		subs	r1, r0, #0
 1940 0052 1DDD     		ble	.L150
 592:..\paho.mqtt.embedded-c\MQTTClient-C\src/MQTTClient.c ****         goto exit;
 593:..\paho.mqtt.embedded-c\MQTTClient-C\src/MQTTClient.c ****     if ((rc = sendPacket(c, len, &timer)) != SUCCESS) // send the subscribe packet
ARM GAS  C:\Users\samue\AppData\Local\Temp\ccYWUiYX.s 			page 47


 1941              		.loc 1 593 0
 1942 0054 07AA     		add	r2, sp, #28
 1943 0056 2046     		mov	r0, r4
 1944              	.LVL256:
 1945 0058 FFF7FEFF 		bl	sendPacket
 1946              	.LVL257:
 1947 005c 0546     		mov	r5, r0
 1948 005e E0B9     		cbnz	r0, .L146
 594:..\paho.mqtt.embedded-c\MQTTClient-C\src/MQTTClient.c ****         goto exit; // there was a problem
 595:..\paho.mqtt.embedded-c\MQTTClient-C\src/MQTTClient.c **** 
 596:..\paho.mqtt.embedded-c\MQTTClient-C\src/MQTTClient.c ****     if (waitfor(c, UNSUBACK, &timer) == UNSUBACK)
 1949              		.loc 1 596 0
 1950 0060 07AA     		add	r2, sp, #28
 1951 0062 0B21     		movs	r1, #11
 1952 0064 2046     		mov	r0, r4
 1953              	.LVL258:
 1954 0066 FFF7FEFF 		bl	waitfor
 1955              	.LVL259:
 1956 006a 0B28     		cmp	r0, #11
 1957 006c 13D1     		bne	.L151
 1958              	.LBB11:
 597:..\paho.mqtt.embedded-c\MQTTClient-C\src/MQTTClient.c ****     {
 598:..\paho.mqtt.embedded-c\MQTTClient-C\src/MQTTClient.c ****         unsigned short mypacketid;  // should be the same as the packetid above
 599:..\paho.mqtt.embedded-c\MQTTClient-C\src/MQTTClient.c ****         if (MQTTDeserialize_unsuback(&mypacketid, c->readbuf, c->readbuf_size) == 1)
 1959              		.loc 1 599 0
 1960 006e E268     		ldr	r2, [r4, #12]
 1961 0070 6169     		ldr	r1, [r4, #20]
 1962 0072 0DF10E00 		add	r0, sp, #14
 1963 0076 FFF7FEFF 		bl	MQTTDeserialize_unsuback
 1964              	.LVL260:
 1965 007a 0128     		cmp	r0, #1
 1966 007c 0DD1     		bne	.L146
 600:..\paho.mqtt.embedded-c\MQTTClient-C\src/MQTTClient.c ****         {
 601:..\paho.mqtt.embedded-c\MQTTClient-C\src/MQTTClient.c ****             /* remove the subscription message handler associated with this topic, if there is one 
 602:..\paho.mqtt.embedded-c\MQTTClient-C\src/MQTTClient.c ****             MQTTSetMessageHandler(c, topicFilter, NULL);
 1967              		.loc 1 602 0
 1968 007e 0022     		movs	r2, #0
 1969 0080 3946     		mov	r1, r7
 1970 0082 2046     		mov	r0, r4
 1971 0084 FFF7FEFF 		bl	MQTTSetMessageHandler
 1972              	.LVL261:
 1973 0088 07E0     		b	.L146
 1974              	.LVL262:
 1975              	.L149:
 1976              	.LBE11:
 576:..\paho.mqtt.embedded-c\MQTTClient-C\src/MQTTClient.c ****     Timer timer;
 1977              		.loc 1 576 0
 1978 008a 4FF0FF35 		mov	r5, #-1
 1979 008e 04E0     		b	.L146
 1980              	.LVL263:
 1981              	.L150:
 1982 0090 4FF0FF35 		mov	r5, #-1
 1983 0094 01E0     		b	.L146
 1984              	.LVL264:
 1985              	.L151:
 603:..\paho.mqtt.embedded-c\MQTTClient-C\src/MQTTClient.c ****         }
 604:..\paho.mqtt.embedded-c\MQTTClient-C\src/MQTTClient.c ****     }
ARM GAS  C:\Users\samue\AppData\Local\Temp\ccYWUiYX.s 			page 48


 605:..\paho.mqtt.embedded-c\MQTTClient-C\src/MQTTClient.c ****     else
 606:..\paho.mqtt.embedded-c\MQTTClient-C\src/MQTTClient.c ****         rc = FAILURE;
 1986              		.loc 1 606 0
 1987 0096 4FF0FF35 		mov	r5, #-1
 1988              	.LVL265:
 1989              	.L146:
 607:..\paho.mqtt.embedded-c\MQTTClient-C\src/MQTTClient.c **** 
 608:..\paho.mqtt.embedded-c\MQTTClient-C\src/MQTTClient.c **** exit:
 609:..\paho.mqtt.embedded-c\MQTTClient-C\src/MQTTClient.c ****     if (rc == FAILURE)
 1990              		.loc 1 609 0
 1991 009a B5F1FF3F 		cmp	r5, #-1
 1992 009e 02D1     		bne	.L148
 610:..\paho.mqtt.embedded-c\MQTTClient-C\src/MQTTClient.c ****         MQTTCloseSession(c);
 1993              		.loc 1 610 0
 1994 00a0 2046     		mov	r0, r4
 1995 00a2 FFF7FEFF 		bl	MQTTCloseSession
 1996              	.LVL266:
 1997              	.L148:
 611:..\paho.mqtt.embedded-c\MQTTClient-C\src/MQTTClient.c **** #if defined(MQTT_TASK)
 612:..\paho.mqtt.embedded-c\MQTTClient-C\src/MQTTClient.c **** 	  MutexUnlock(&c->mutex);
 1998              		.loc 1 612 0
 1999 00a6 3046     		mov	r0, r6
 2000 00a8 FFF7FEFF 		bl	MutexUnlock
 2001              	.LVL267:
 613:..\paho.mqtt.embedded-c\MQTTClient-C\src/MQTTClient.c **** #endif
 614:..\paho.mqtt.embedded-c\MQTTClient-C\src/MQTTClient.c ****     return rc;
 615:..\paho.mqtt.embedded-c\MQTTClient-C\src/MQTTClient.c **** }
 2002              		.loc 1 615 0
 2003 00ac 2846     		mov	r0, r5
 2004 00ae 0AB0     		add	sp, sp, #40
 2005              		.cfi_def_cfa_offset 24
 2006              		@ sp needed
 2007 00b0 BDE8F081 		pop	{r4, r5, r6, r7, r8, pc}
 2008              		.cfi_endproc
 2009              	.LFE91:
 2010              		.size	MQTTUnsubscribe, .-MQTTUnsubscribe
 2011              		.section	.text.MQTTPublish,"ax",%progbits
 2012              		.align	2
 2013              		.global	MQTTPublish
 2014              		.thumb
 2015              		.thumb_func
 2016              		.type	MQTTPublish, %function
 2017              	MQTTPublish:
 2018              	.LFB92:
 616:..\paho.mqtt.embedded-c\MQTTClient-C\src/MQTTClient.c **** 
 617:..\paho.mqtt.embedded-c\MQTTClient-C\src/MQTTClient.c **** 
 618:..\paho.mqtt.embedded-c\MQTTClient-C\src/MQTTClient.c **** int MQTTPublish(MQTTClient* c, const char* topicName, MQTTMessage* message)
 619:..\paho.mqtt.embedded-c\MQTTClient-C\src/MQTTClient.c **** {
 2019              		.loc 1 619 0
 2020              		.cfi_startproc
 2021              		@ args = 0, pretend = 0, frame = 32
 2022              		@ frame_needed = 0, uses_anonymous_args = 0
 2023              	.LVL268:
 2024 0000 F0B5     		push	{r4, r5, r6, r7, lr}
 2025              		.cfi_def_cfa_offset 20
 2026              		.cfi_offset 4, -20
 2027              		.cfi_offset 5, -16
ARM GAS  C:\Users\samue\AppData\Local\Temp\ccYWUiYX.s 			page 49


 2028              		.cfi_offset 6, -12
 2029              		.cfi_offset 7, -8
 2030              		.cfi_offset 14, -4
 2031 0002 91B0     		sub	sp, sp, #68
 2032              		.cfi_def_cfa_offset 88
 2033 0004 0446     		mov	r4, r0
 2034 0006 1546     		mov	r5, r2
 2035              	.LVL269:
 620:..\paho.mqtt.embedded-c\MQTTClient-C\src/MQTTClient.c ****     int rc = FAILURE;
 621:..\paho.mqtt.embedded-c\MQTTClient-C\src/MQTTClient.c ****     Timer timer;
 622:..\paho.mqtt.embedded-c\MQTTClient-C\src/MQTTClient.c ****     MQTTString topic = MQTTString_initializer;
 2036              		.loc 1 622 0
 2037 0008 0023     		movs	r3, #0
 2038 000a 0B93     		str	r3, [sp, #44]
 2039 000c 0C93     		str	r3, [sp, #48]
 623:..\paho.mqtt.embedded-c\MQTTClient-C\src/MQTTClient.c ****     topic.cstring = (char *)topicName;
 2040              		.loc 1 623 0
 2041 000e 0A91     		str	r1, [sp, #40]
 2042              	.LVL270:
 624:..\paho.mqtt.embedded-c\MQTTClient-C\src/MQTTClient.c ****     int len = 0;
 625:..\paho.mqtt.embedded-c\MQTTClient-C\src/MQTTClient.c **** 
 626:..\paho.mqtt.embedded-c\MQTTClient-C\src/MQTTClient.c **** #if defined(MQTT_TASK)
 627:..\paho.mqtt.embedded-c\MQTTClient-C\src/MQTTClient.c **** 	  MutexLock(&c->mutex);
 2043              		.loc 1 627 0
 2044 0010 00F17007 		add	r7, r0, #112
 2045 0014 3846     		mov	r0, r7
 2046              	.LVL271:
 2047 0016 FFF7FEFF 		bl	MutexLock
 2048              	.LVL272:
 628:..\paho.mqtt.embedded-c\MQTTClient-C\src/MQTTClient.c **** #endif
 629:..\paho.mqtt.embedded-c\MQTTClient-C\src/MQTTClient.c **** 	  if (!c->isconnected)
 2049              		.loc 1 629 0
 2050 001a 236A     		ldr	r3, [r4, #32]
 2051 001c 002B     		cmp	r3, #0
 2052 001e 60D0     		beq	.L160
 630:..\paho.mqtt.embedded-c\MQTTClient-C\src/MQTTClient.c **** 		    goto exit;
 631:..\paho.mqtt.embedded-c\MQTTClient-C\src/MQTTClient.c **** 
 632:..\paho.mqtt.embedded-c\MQTTClient-C\src/MQTTClient.c ****     TimerInit(&timer);
 2053              		.loc 1 632 0
 2054 0020 0DA8     		add	r0, sp, #52
 2055 0022 FFF7FEFF 		bl	TimerInit
 2056              	.LVL273:
 633:..\paho.mqtt.embedded-c\MQTTClient-C\src/MQTTClient.c ****     TimerCountdownMS(&timer, c->command_timeout_ms);
 2057              		.loc 1 633 0
 2058 0026 6168     		ldr	r1, [r4, #4]
 2059 0028 0DA8     		add	r0, sp, #52
 2060 002a FFF7FEFF 		bl	TimerCountdownMS
 2061              	.LVL274:
 634:..\paho.mqtt.embedded-c\MQTTClient-C\src/MQTTClient.c **** 
 635:..\paho.mqtt.embedded-c\MQTTClient-C\src/MQTTClient.c ****     if (message->qos == QOS1 || message->qos == QOS2)
 2062              		.loc 1 635 0
 2063 002e 2B78     		ldrb	r3, [r5]	@ zero_extendqisi2
 2064 0030 013B     		subs	r3, r3, #1
 2065 0032 DBB2     		uxtb	r3, r3
 2066 0034 012B     		cmp	r3, #1
 2067 0036 03D8     		bhi	.L155
 636:..\paho.mqtt.embedded-c\MQTTClient-C\src/MQTTClient.c ****         message->id = getNextPacketId(c);
ARM GAS  C:\Users\samue\AppData\Local\Temp\ccYWUiYX.s 			page 50


 2068              		.loc 1 636 0
 2069 0038 2046     		mov	r0, r4
 2070 003a FFF7FEFF 		bl	getNextPacketId
 2071              	.LVL275:
 2072 003e A880     		strh	r0, [r5, #4]	@ movhi
 2073              	.L155:
 637:..\paho.mqtt.embedded-c\MQTTClient-C\src/MQTTClient.c **** 
 638:..\paho.mqtt.embedded-c\MQTTClient-C\src/MQTTClient.c ****     len = MQTTSerialize_publish(c->buf, c->buf_size, 0, message->qos, message->retained, message->i
 2074              		.loc 1 638 0
 2075 0040 2B78     		ldrb	r3, [r5]	@ zero_extendqisi2
 2076 0042 95F801E0 		ldrb	lr, [r5, #1]	@ zero_extendqisi2
 2077 0046 B5F804C0 		ldrh	ip, [r5, #4]
 639:..\paho.mqtt.embedded-c\MQTTClient-C\src/MQTTClient.c ****               topic, (unsigned char*)message->payload, message->payloadlen);
 2078              		.loc 1 639 0
 2079 004a AA68     		ldr	r2, [r5, #8]
 2080 004c E968     		ldr	r1, [r5, #12]
 638:..\paho.mqtt.embedded-c\MQTTClient-C\src/MQTTClient.c ****               topic, (unsigned char*)message->payload, message->payloadlen);
 2081              		.loc 1 638 0
 2082 004e 0691     		str	r1, [sp, #24]
 2083 0050 0592     		str	r2, [sp, #20]
 2084 0052 02AE     		add	r6, sp, #8
 2085 0054 0AAA     		add	r2, sp, #40
 2086              	.LVL276:
 2087 0056 07CA     		ldmia	r2, {r0, r1, r2}
 2088              	.LVL277:
 2089 0058 86E80700 		stmia	r6, {r0, r1, r2}
 2090 005c CDF804C0 		str	ip, [sp, #4]
 2091 0060 CDF800E0 		str	lr, [sp]
 2092 0064 0022     		movs	r2, #0
 2093 0066 A168     		ldr	r1, [r4, #8]
 2094 0068 2069     		ldr	r0, [r4, #16]
 2095 006a FFF7FEFF 		bl	MQTTSerialize_publish
 2096              	.LVL278:
 640:..\paho.mqtt.embedded-c\MQTTClient-C\src/MQTTClient.c ****     if (len <= 0)
 2097              		.loc 1 640 0
 2098 006e 011E     		subs	r1, r0, #0
 2099 0070 3ADD     		ble	.L161
 641:..\paho.mqtt.embedded-c\MQTTClient-C\src/MQTTClient.c ****         goto exit;
 642:..\paho.mqtt.embedded-c\MQTTClient-C\src/MQTTClient.c ****     if ((rc = sendPacket(c, len, &timer)) != SUCCESS) // send the subscribe packet
 2100              		.loc 1 642 0
 2101 0072 0DAA     		add	r2, sp, #52
 2102 0074 2046     		mov	r0, r4
 2103              	.LVL279:
 2104 0076 FFF7FEFF 		bl	sendPacket
 2105              	.LVL280:
 2106 007a 0646     		mov	r6, r0
 2107 007c 0028     		cmp	r0, #0
 2108 007e 3BD1     		bne	.L154
 643:..\paho.mqtt.embedded-c\MQTTClient-C\src/MQTTClient.c ****         goto exit; // there was a problem
 644:..\paho.mqtt.embedded-c\MQTTClient-C\src/MQTTClient.c **** 
 645:..\paho.mqtt.embedded-c\MQTTClient-C\src/MQTTClient.c ****     if (message->qos == QOS1)
 2109              		.loc 1 645 0
 2110 0080 2B78     		ldrb	r3, [r5]	@ zero_extendqisi2
 2111 0082 012B     		cmp	r3, #1
 2112 0084 15D1     		bne	.L156
 646:..\paho.mqtt.embedded-c\MQTTClient-C\src/MQTTClient.c ****     {
 647:..\paho.mqtt.embedded-c\MQTTClient-C\src/MQTTClient.c ****         if (waitfor(c, PUBACK, &timer) == PUBACK)
ARM GAS  C:\Users\samue\AppData\Local\Temp\ccYWUiYX.s 			page 51


 2113              		.loc 1 647 0
 2114 0086 0DAA     		add	r2, sp, #52
 2115 0088 0421     		movs	r1, #4
 2116 008a 2046     		mov	r0, r4
 2117              	.LVL281:
 2118 008c FFF7FEFF 		bl	waitfor
 2119              	.LVL282:
 2120 0090 0428     		cmp	r0, #4
 2121 0092 2CD1     		bne	.L162
 2122              	.LBB12:
 648:..\paho.mqtt.embedded-c\MQTTClient-C\src/MQTTClient.c ****         {
 649:..\paho.mqtt.embedded-c\MQTTClient-C\src/MQTTClient.c ****             unsigned short mypacketid;
 650:..\paho.mqtt.embedded-c\MQTTClient-C\src/MQTTClient.c ****             unsigned char dup, type;
 651:..\paho.mqtt.embedded-c\MQTTClient-C\src/MQTTClient.c ****             if (MQTTDeserialize_ack(&type, &dup, &mypacketid, c->readbuf, c->readbuf_size) != 1)
 2123              		.loc 1 651 0
 2124 0094 E368     		ldr	r3, [r4, #12]
 2125 0096 0093     		str	r3, [sp]
 2126 0098 6369     		ldr	r3, [r4, #20]
 2127 009a 0DF12602 		add	r2, sp, #38
 2128 009e 09A9     		add	r1, sp, #36
 2129 00a0 0DF12500 		add	r0, sp, #37
 2130 00a4 FFF7FEFF 		bl	MQTTDeserialize_ack
 2131              	.LVL283:
 2132 00a8 0128     		cmp	r0, #1
 2133 00aa 25D0     		beq	.L154
 652:..\paho.mqtt.embedded-c\MQTTClient-C\src/MQTTClient.c ****                 rc = FAILURE;
 2134              		.loc 1 652 0
 2135 00ac 4FF0FF36 		mov	r6, #-1
 2136              	.LVL284:
 2137 00b0 22E0     		b	.L154
 2138              	.LVL285:
 2139              	.L156:
 2140              	.LBE12:
 653:..\paho.mqtt.embedded-c\MQTTClient-C\src/MQTTClient.c ****         }
 654:..\paho.mqtt.embedded-c\MQTTClient-C\src/MQTTClient.c ****         else
 655:..\paho.mqtt.embedded-c\MQTTClient-C\src/MQTTClient.c ****             rc = FAILURE;
 656:..\paho.mqtt.embedded-c\MQTTClient-C\src/MQTTClient.c ****     }
 657:..\paho.mqtt.embedded-c\MQTTClient-C\src/MQTTClient.c ****     else if (message->qos == QOS2)
 2141              		.loc 1 657 0
 2142 00b2 022B     		cmp	r3, #2
 2143 00b4 20D1     		bne	.L154
 658:..\paho.mqtt.embedded-c\MQTTClient-C\src/MQTTClient.c ****     {
 659:..\paho.mqtt.embedded-c\MQTTClient-C\src/MQTTClient.c ****         if (waitfor(c, PUBCOMP, &timer) == PUBCOMP)
 2144              		.loc 1 659 0
 2145 00b6 0DAA     		add	r2, sp, #52
 2146 00b8 0721     		movs	r1, #7
 2147 00ba 2046     		mov	r0, r4
 2148              	.LVL286:
 2149 00bc FFF7FEFF 		bl	waitfor
 2150              	.LVL287:
 2151 00c0 0728     		cmp	r0, #7
 2152 00c2 17D1     		bne	.L164
 2153              	.LBB13:
 660:..\paho.mqtt.embedded-c\MQTTClient-C\src/MQTTClient.c ****         {
 661:..\paho.mqtt.embedded-c\MQTTClient-C\src/MQTTClient.c ****             unsigned short mypacketid;
 662:..\paho.mqtt.embedded-c\MQTTClient-C\src/MQTTClient.c ****             unsigned char dup, type;
 663:..\paho.mqtt.embedded-c\MQTTClient-C\src/MQTTClient.c ****             if (MQTTDeserialize_ack(&type, &dup, &mypacketid, c->readbuf, c->readbuf_size) != 1)
ARM GAS  C:\Users\samue\AppData\Local\Temp\ccYWUiYX.s 			page 52


 2154              		.loc 1 663 0
 2155 00c4 E368     		ldr	r3, [r4, #12]
 2156 00c6 0093     		str	r3, [sp]
 2157 00c8 6369     		ldr	r3, [r4, #20]
 2158 00ca 0DF12602 		add	r2, sp, #38
 2159 00ce 09A9     		add	r1, sp, #36
 2160 00d0 0DF12500 		add	r0, sp, #37
 2161 00d4 FFF7FEFF 		bl	MQTTDeserialize_ack
 2162              	.LVL288:
 2163 00d8 0128     		cmp	r0, #1
 2164 00da 0DD0     		beq	.L154
 664:..\paho.mqtt.embedded-c\MQTTClient-C\src/MQTTClient.c ****                 rc = FAILURE;
 2165              		.loc 1 664 0
 2166 00dc 4FF0FF36 		mov	r6, #-1
 2167              	.LVL289:
 2168 00e0 0AE0     		b	.L154
 2169              	.LVL290:
 2170              	.L160:
 2171              	.LBE13:
 620:..\paho.mqtt.embedded-c\MQTTClient-C\src/MQTTClient.c ****     Timer timer;
 2172              		.loc 1 620 0
 2173 00e2 4FF0FF36 		mov	r6, #-1
 2174 00e6 07E0     		b	.L154
 2175              	.LVL291:
 2176              	.L161:
 2177 00e8 4FF0FF36 		mov	r6, #-1
 2178 00ec 04E0     		b	.L154
 2179              	.LVL292:
 2180              	.L162:
 655:..\paho.mqtt.embedded-c\MQTTClient-C\src/MQTTClient.c ****     }
 2181              		.loc 1 655 0
 2182 00ee 4FF0FF36 		mov	r6, #-1
 2183              	.LVL293:
 2184 00f2 01E0     		b	.L154
 2185              	.LVL294:
 2186              	.L164:
 665:..\paho.mqtt.embedded-c\MQTTClient-C\src/MQTTClient.c ****         }
 666:..\paho.mqtt.embedded-c\MQTTClient-C\src/MQTTClient.c ****         else
 667:..\paho.mqtt.embedded-c\MQTTClient-C\src/MQTTClient.c ****             rc = FAILURE;
 2187              		.loc 1 667 0
 2188 00f4 4FF0FF36 		mov	r6, #-1
 2189              	.LVL295:
 2190              	.L154:
 668:..\paho.mqtt.embedded-c\MQTTClient-C\src/MQTTClient.c ****     }
 669:..\paho.mqtt.embedded-c\MQTTClient-C\src/MQTTClient.c **** 
 670:..\paho.mqtt.embedded-c\MQTTClient-C\src/MQTTClient.c **** exit:
 671:..\paho.mqtt.embedded-c\MQTTClient-C\src/MQTTClient.c ****     if (rc == FAILURE)
 2191              		.loc 1 671 0
 2192 00f8 B6F1FF3F 		cmp	r6, #-1
 2193 00fc 02D1     		bne	.L159
 672:..\paho.mqtt.embedded-c\MQTTClient-C\src/MQTTClient.c ****         MQTTCloseSession(c);
 2194              		.loc 1 672 0
 2195 00fe 2046     		mov	r0, r4
 2196 0100 FFF7FEFF 		bl	MQTTCloseSession
 2197              	.LVL296:
 2198              	.L159:
 673:..\paho.mqtt.embedded-c\MQTTClient-C\src/MQTTClient.c **** #if defined(MQTT_TASK)
ARM GAS  C:\Users\samue\AppData\Local\Temp\ccYWUiYX.s 			page 53


 674:..\paho.mqtt.embedded-c\MQTTClient-C\src/MQTTClient.c **** 	  MutexUnlock(&c->mutex);
 2199              		.loc 1 674 0
 2200 0104 3846     		mov	r0, r7
 2201 0106 FFF7FEFF 		bl	MutexUnlock
 2202              	.LVL297:
 675:..\paho.mqtt.embedded-c\MQTTClient-C\src/MQTTClient.c **** #endif
 676:..\paho.mqtt.embedded-c\MQTTClient-C\src/MQTTClient.c ****     return rc;
 677:..\paho.mqtt.embedded-c\MQTTClient-C\src/MQTTClient.c **** }
 2203              		.loc 1 677 0
 2204 010a 3046     		mov	r0, r6
 2205 010c 11B0     		add	sp, sp, #68
 2206              		.cfi_def_cfa_offset 20
 2207              		@ sp needed
 2208 010e F0BD     		pop	{r4, r5, r6, r7, pc}
 2209              		.cfi_endproc
 2210              	.LFE92:
 2211              		.size	MQTTPublish, .-MQTTPublish
 2212              		.section	.text.MQTTDisconnect,"ax",%progbits
 2213              		.align	2
 2214              		.global	MQTTDisconnect
 2215              		.thumb
 2216              		.thumb_func
 2217              		.type	MQTTDisconnect, %function
 2218              	MQTTDisconnect:
 2219              	.LFB93:
 678:..\paho.mqtt.embedded-c\MQTTClient-C\src/MQTTClient.c **** 
 679:..\paho.mqtt.embedded-c\MQTTClient-C\src/MQTTClient.c **** 
 680:..\paho.mqtt.embedded-c\MQTTClient-C\src/MQTTClient.c **** int MQTTDisconnect(MQTTClient* c)
 681:..\paho.mqtt.embedded-c\MQTTClient-C\src/MQTTClient.c **** {
 2220              		.loc 1 681 0
 2221              		.cfi_startproc
 2222              		@ args = 0, pretend = 0, frame = 16
 2223              		@ frame_needed = 0, uses_anonymous_args = 0
 2224              	.LVL298:
 2225 0000 70B5     		push	{r4, r5, r6, lr}
 2226              		.cfi_def_cfa_offset 16
 2227              		.cfi_offset 4, -16
 2228              		.cfi_offset 5, -12
 2229              		.cfi_offset 6, -8
 2230              		.cfi_offset 14, -4
 2231 0002 84B0     		sub	sp, sp, #16
 2232              		.cfi_def_cfa_offset 32
 2233 0004 0446     		mov	r4, r0
 2234              	.LVL299:
 682:..\paho.mqtt.embedded-c\MQTTClient-C\src/MQTTClient.c ****     int rc = FAILURE;
 683:..\paho.mqtt.embedded-c\MQTTClient-C\src/MQTTClient.c ****     Timer timer;     // we might wait for incomplete incoming publishes to complete
 684:..\paho.mqtt.embedded-c\MQTTClient-C\src/MQTTClient.c ****     int len = 0;
 685:..\paho.mqtt.embedded-c\MQTTClient-C\src/MQTTClient.c **** 
 686:..\paho.mqtt.embedded-c\MQTTClient-C\src/MQTTClient.c **** #if defined(MQTT_TASK)
 687:..\paho.mqtt.embedded-c\MQTTClient-C\src/MQTTClient.c **** 	MutexLock(&c->mutex);
 2235              		.loc 1 687 0
 2236 0006 00F17005 		add	r5, r0, #112
 2237 000a 2846     		mov	r0, r5
 2238              	.LVL300:
 2239 000c FFF7FEFF 		bl	MutexLock
 2240              	.LVL301:
 688:..\paho.mqtt.embedded-c\MQTTClient-C\src/MQTTClient.c **** #endif
ARM GAS  C:\Users\samue\AppData\Local\Temp\ccYWUiYX.s 			page 54


 689:..\paho.mqtt.embedded-c\MQTTClient-C\src/MQTTClient.c ****     TimerInit(&timer);
 2241              		.loc 1 689 0
 2242 0010 01A8     		add	r0, sp, #4
 2243 0012 FFF7FEFF 		bl	TimerInit
 2244              	.LVL302:
 690:..\paho.mqtt.embedded-c\MQTTClient-C\src/MQTTClient.c ****     TimerCountdownMS(&timer, c->command_timeout_ms);
 2245              		.loc 1 690 0
 2246 0016 6168     		ldr	r1, [r4, #4]
 2247 0018 01A8     		add	r0, sp, #4
 2248 001a FFF7FEFF 		bl	TimerCountdownMS
 2249              	.LVL303:
 691:..\paho.mqtt.embedded-c\MQTTClient-C\src/MQTTClient.c **** 
 692:..\paho.mqtt.embedded-c\MQTTClient-C\src/MQTTClient.c **** 	  len = MQTTSerialize_disconnect(c->buf, c->buf_size);
 2250              		.loc 1 692 0
 2251 001e A168     		ldr	r1, [r4, #8]
 2252 0020 2069     		ldr	r0, [r4, #16]
 2253 0022 FFF7FEFF 		bl	MQTTSerialize_disconnect
 2254              	.LVL304:
 693:..\paho.mqtt.embedded-c\MQTTClient-C\src/MQTTClient.c ****     if (len > 0)
 2255              		.loc 1 693 0
 2256 0026 011E     		subs	r1, r0, #0
 2257 0028 05DD     		ble	.L169
 694:..\paho.mqtt.embedded-c\MQTTClient-C\src/MQTTClient.c ****         rc = sendPacket(c, len, &timer);            // send the disconnect packet
 2258              		.loc 1 694 0
 2259 002a 01AA     		add	r2, sp, #4
 2260 002c 2046     		mov	r0, r4
 2261              	.LVL305:
 2262 002e FFF7FEFF 		bl	sendPacket
 2263              	.LVL306:
 2264 0032 0646     		mov	r6, r0
 2265              	.LVL307:
 2266 0034 01E0     		b	.L168
 2267              	.LVL308:
 2268              	.L169:
 682:..\paho.mqtt.embedded-c\MQTTClient-C\src/MQTTClient.c ****     Timer timer;     // we might wait for incomplete incoming publishes to complete
 2269              		.loc 1 682 0
 2270 0036 4FF0FF36 		mov	r6, #-1
 2271              	.LVL309:
 2272              	.L168:
 695:..\paho.mqtt.embedded-c\MQTTClient-C\src/MQTTClient.c ****     MQTTCloseSession(c);
 2273              		.loc 1 695 0
 2274 003a 2046     		mov	r0, r4
 2275 003c FFF7FEFF 		bl	MQTTCloseSession
 2276              	.LVL310:
 696:..\paho.mqtt.embedded-c\MQTTClient-C\src/MQTTClient.c **** 
 697:..\paho.mqtt.embedded-c\MQTTClient-C\src/MQTTClient.c **** #if defined(MQTT_TASK)
 698:..\paho.mqtt.embedded-c\MQTTClient-C\src/MQTTClient.c **** 	  MutexUnlock(&c->mutex);
 2277              		.loc 1 698 0
 2278 0040 2846     		mov	r0, r5
 2279 0042 FFF7FEFF 		bl	MutexUnlock
 2280              	.LVL311:
 699:..\paho.mqtt.embedded-c\MQTTClient-C\src/MQTTClient.c **** #endif
 700:..\paho.mqtt.embedded-c\MQTTClient-C\src/MQTTClient.c ****     return rc;
 701:..\paho.mqtt.embedded-c\MQTTClient-C\src/MQTTClient.c **** }
 2281              		.loc 1 701 0
 2282 0046 3046     		mov	r0, r6
 2283 0048 04B0     		add	sp, sp, #16
ARM GAS  C:\Users\samue\AppData\Local\Temp\ccYWUiYX.s 			page 55


 2284              		.cfi_def_cfa_offset 16
 2285              		@ sp needed
 2286 004a 70BD     		pop	{r4, r5, r6, pc}
 2287              		.cfi_endproc
 2288              	.LFE93:
 2289              		.size	MQTTDisconnect, .-MQTTDisconnect
 2290              		.section	.rodata
 2291              		.align	2
 2292              		.set	.LANCHOR0,. + 0
 2293              	.LC0:
 2294 0000 4D       		.byte	77
 2295 0001 51       		.byte	81
 2296 0002 54       		.byte	84
 2297 0003 43       		.byte	67
 2298 0004 00000000 		.word	0
 2299 0008 04       		.byte	4
 2300 0009 000000   		.space	3
 2301 000c 00000000 		.word	0
 2302 0010 00000000 		.word	0
 2303 0014 00000000 		.word	0
 2304 0018 3C00     		.short	60
 2305 001a 01       		.byte	1
 2306 001b 00       		.byte	0
 2307 001c 4D       		.byte	77
 2308 001d 51       		.byte	81
 2309 001e 54       		.byte	84
 2310 001f 57       		.byte	87
 2311 0020 00000000 		.word	0
 2312 0024 00000000 		.word	0
 2313 0028 00000000 		.word	0
 2314 002c 00000000 		.word	0
 2315 0030 00000000 		.word	0
 2316 0034 00000000 		.word	0
 2317 0038 00000000 		.word	0
 2318 003c 00       		.byte	0
 2319 003d 00       		.byte	0
 2320 003e 0000     		.space	2
 2321 0040 00000000 		.word	0
 2322 0044 00000000 		.word	0
 2323 0048 00000000 		.word	0
 2324 004c 00000000 		.word	0
 2325 0050 00000000 		.word	0
 2326 0054 00000000 		.word	0
 2327              		.text
 2328              	.Letext0:
 2329              		.file 2 "..\\paho.mqtt.embedded-c\\MQTTPacket\\src/MQTTPacket.h"
 2330              		.file 3 "..\\paho.mqtt.embedded-c\\MQTTPacket\\src/MQTTConnect.h"
 2331              		.file 4 "c:\\program files (x86)\\cypress\\psoc creator\\4.2\\psoc creator\\import\\gnu\\arm\\5.4.
 2332              		.file 5 "c:\\program files (x86)\\cypress\\psoc creator\\4.2\\psoc creator\\import\\gnu\\arm\\5.4.
 2333              		.file 6 "c:\\program files (x86)\\cypress\\psoc creator\\4.2\\psoc creator\\import\\gnu\\arm\\5.4.
 2334              		.file 7 "..\\FreeRTOS\\Source\\portable\\GCC\\ARM_CM3/portmacro.h"
 2335              		.file 8 "..\\FreeRTOS\\Source\\include/queue.h"
 2336              		.file 9 "..\\FreeRTOS\\Source\\include/semphr.h"
 2337              		.file 10 "..\\FreeRTOS\\Source\\include/task.h"
 2338              		.file 11 "..\\paho.mqtt.embedded-c\\MQTTClient-C\\src\\FreeRTOS/MQTTFreeRTOS.h"
 2339              		.file 12 "..\\paho.mqtt.embedded-c\\MQTTClient-C\\src\\MQTTClient.h"
 2340              		.file 13 "..\\paho.mqtt.embedded-c\\MQTTPacket\\src/MQTTPublish.h"
ARM GAS  C:\Users\samue\AppData\Local\Temp\ccYWUiYX.s 			page 56


 2341              		.file 14 "c:\\program files (x86)\\cypress\\psoc creator\\4.2\\psoc creator\\import\\gnu\\arm\\5.4
 2342              		.file 15 "..\\paho.mqtt.embedded-c\\MQTTPacket\\src/MQTTSubscribe.h"
 2343              		.file 16 "..\\paho.mqtt.embedded-c\\MQTTPacket\\src/MQTTUnsubscribe.h"
 2344              		.file 17 "Generated_Source\\PSoC5/core_cm3.h"
 2345              		.section	.debug_info,"",%progbits
 2346              	.Ldebug_info0:
 2347 0000 F71C0000 		.4byte	0x1cf7
 2348 0004 0400     		.2byte	0x4
 2349 0006 00000000 		.4byte	.Ldebug_abbrev0
 2350 000a 04       		.byte	0x4
 2351 000b 01       		.uleb128 0x1
 2352 000c D9070000 		.4byte	.LASF196
 2353 0010 0C       		.byte	0xc
 2354 0011 0B060000 		.4byte	.LASF197
 2355 0015 D6010000 		.4byte	.LASF198
 2356 0019 18000000 		.4byte	.Ldebug_ranges0+0x18
 2357 001d 00000000 		.4byte	0
 2358 0021 00000000 		.4byte	.Ldebug_line0
 2359 0025 02       		.uleb128 0x2
 2360 0026 E2030000 		.4byte	.LASF3
 2361 002a 01       		.byte	0x1
 2362 002b 48000000 		.4byte	0x48
 2363 002f 02       		.byte	0x2
 2364 0030 24       		.byte	0x24
 2365 0031 48000000 		.4byte	0x48
 2366 0035 03       		.uleb128 0x3
 2367 0036 00000000 		.4byte	.LASF0
 2368 003a 7E       		.sleb128 -2
 2369 003b 03       		.uleb128 0x3
 2370 003c 9A010000 		.4byte	.LASF1
 2371 0040 7F       		.sleb128 -1
 2372 0041 04       		.uleb128 0x4
 2373 0042 6C040000 		.4byte	.LASF2
 2374 0046 00       		.byte	0
 2375 0047 00       		.byte	0
 2376 0048 05       		.uleb128 0x5
 2377 0049 01       		.byte	0x1
 2378 004a 06       		.byte	0x6
 2379 004b BE010000 		.4byte	.LASF19
 2380 004f 02       		.uleb128 0x2
 2381 0050 83030000 		.4byte	.LASF4
 2382 0054 01       		.byte	0x1
 2383 0055 B4000000 		.4byte	0xb4
 2384 0059 02       		.byte	0x2
 2385 005a 2B       		.byte	0x2b
 2386 005b B4000000 		.4byte	0xb4
 2387 005f 04       		.uleb128 0x4
 2388 0060 48070000 		.4byte	.LASF5
 2389 0064 01       		.byte	0x1
 2390 0065 04       		.uleb128 0x4
 2391 0066 8B090000 		.4byte	.LASF6
 2392 006a 02       		.byte	0x2
 2393 006b 04       		.uleb128 0x4
 2394 006c C6070000 		.4byte	.LASF7
 2395 0070 03       		.byte	0x3
 2396 0071 04       		.uleb128 0x4
 2397 0072 F5080000 		.4byte	.LASF8
ARM GAS  C:\Users\samue\AppData\Local\Temp\ccYWUiYX.s 			page 57


 2398 0076 04       		.byte	0x4
 2399 0077 04       		.uleb128 0x4
 2400 0078 F4090000 		.4byte	.LASF9
 2401 007c 05       		.byte	0x5
 2402 007d 04       		.uleb128 0x4
 2403 007e FB090000 		.4byte	.LASF10
 2404 0082 06       		.byte	0x6
 2405 0083 04       		.uleb128 0x4
 2406 0084 4F090000 		.4byte	.LASF11
 2407 0088 07       		.byte	0x7
 2408 0089 04       		.uleb128 0x4
 2409 008a C3080000 		.4byte	.LASF12
 2410 008e 08       		.byte	0x8
 2411 008f 04       		.uleb128 0x4
 2412 0090 BE040000 		.4byte	.LASF13
 2413 0094 09       		.byte	0x9
 2414 0095 04       		.uleb128 0x4
 2415 0096 E0020000 		.4byte	.LASF14
 2416 009a 0A       		.byte	0xa
 2417 009b 04       		.uleb128 0x4
 2418 009c FB000000 		.4byte	.LASF15
 2419 00a0 0B       		.byte	0xb
 2420 00a1 04       		.uleb128 0x4
 2421 00a2 020A0000 		.4byte	.LASF16
 2422 00a6 0C       		.byte	0xc
 2423 00a7 04       		.uleb128 0x4
 2424 00a8 3F070000 		.4byte	.LASF17
 2425 00ac 0D       		.byte	0xd
 2426 00ad 04       		.uleb128 0x4
 2427 00ae A2090000 		.4byte	.LASF18
 2428 00b2 0E       		.byte	0xe
 2429 00b3 00       		.byte	0
 2430 00b4 05       		.uleb128 0x5
 2431 00b5 01       		.byte	0x1
 2432 00b6 08       		.byte	0x8
 2433 00b7 63070000 		.4byte	.LASF20
 2434 00bb 06       		.uleb128 0x6
 2435 00bc 04       		.byte	0x4
 2436 00bd 02       		.byte	0x2
 2437 00be 41       		.byte	0x41
 2438 00bf 00010000 		.4byte	0x100
 2439 00c3 07       		.uleb128 0x7
 2440 00c4 04010000 		.4byte	.LASF21
 2441 00c8 02       		.byte	0x2
 2442 00c9 43       		.byte	0x43
 2443 00ca 00010000 		.4byte	0x100
 2444 00ce 04       		.byte	0x4
 2445 00cf 01       		.byte	0x1
 2446 00d0 1F       		.byte	0x1f
 2447 00d1 00       		.byte	0
 2448 00d2 08       		.uleb128 0x8
 2449 00d3 716F7300 		.ascii	"qos\000"
 2450 00d7 02       		.byte	0x2
 2451 00d8 44       		.byte	0x44
 2452 00d9 00010000 		.4byte	0x100
 2453 00dd 04       		.byte	0x4
 2454 00de 02       		.byte	0x2
ARM GAS  C:\Users\samue\AppData\Local\Temp\ccYWUiYX.s 			page 58


 2455 00df 1D       		.byte	0x1d
 2456 00e0 00       		.byte	0
 2457 00e1 08       		.uleb128 0x8
 2458 00e2 64757000 		.ascii	"dup\000"
 2459 00e6 02       		.byte	0x2
 2460 00e7 45       		.byte	0x45
 2461 00e8 00010000 		.4byte	0x100
 2462 00ec 04       		.byte	0x4
 2463 00ed 01       		.byte	0x1
 2464 00ee 1C       		.byte	0x1c
 2465 00ef 00       		.byte	0
 2466 00f0 07       		.uleb128 0x7
 2467 00f1 D7000000 		.4byte	.LASF22
 2468 00f5 02       		.byte	0x2
 2469 00f6 46       		.byte	0x46
 2470 00f7 00010000 		.4byte	0x100
 2471 00fb 04       		.byte	0x4
 2472 00fc 04       		.byte	0x4
 2473 00fd 18       		.byte	0x18
 2474 00fe 00       		.byte	0
 2475 00ff 00       		.byte	0
 2476 0100 05       		.uleb128 0x5
 2477 0101 04       		.byte	0x4
 2478 0102 07       		.byte	0x7
 2479 0103 A9030000 		.4byte	.LASF23
 2480 0107 09       		.uleb128 0x9
 2481 0108 04       		.byte	0x4
 2482 0109 02       		.byte	0x2
 2483 010a 35       		.byte	0x35
 2484 010b 26010000 		.4byte	0x126
 2485 010f 0A       		.uleb128 0xa
 2486 0110 21030000 		.4byte	.LASF24
 2487 0114 02       		.byte	0x2
 2488 0115 37       		.byte	0x37
 2489 0116 B4000000 		.4byte	0xb4
 2490 011a 0A       		.uleb128 0xa
 2491 011b 28020000 		.4byte	.LASF25
 2492 011f 02       		.byte	0x2
 2493 0120 47       		.byte	0x47
 2494 0121 BB000000 		.4byte	0xbb
 2495 0125 00       		.byte	0
 2496 0126 0B       		.uleb128 0xb
 2497 0127 A0080000 		.4byte	.LASF28
 2498 012b 02       		.byte	0x2
 2499 012c 49       		.byte	0x49
 2500 012d 07010000 		.4byte	0x107
 2501 0131 06       		.uleb128 0x6
 2502 0132 08       		.byte	0x8
 2503 0133 02       		.byte	0x2
 2504 0134 4B       		.byte	0x4b
 2505 0135 52010000 		.4byte	0x152
 2506 0139 0C       		.uleb128 0xc
 2507 013a 6C656E00 		.ascii	"len\000"
 2508 013e 02       		.byte	0x2
 2509 013f 4D       		.byte	0x4d
 2510 0140 52010000 		.4byte	0x152
 2511 0144 00       		.byte	0
ARM GAS  C:\Users\samue\AppData\Local\Temp\ccYWUiYX.s 			page 59


 2512 0145 0D       		.uleb128 0xd
 2513 0146 4E040000 		.4byte	.LASF26
 2514 014a 02       		.byte	0x2
 2515 014b 4E       		.byte	0x4e
 2516 014c 59010000 		.4byte	0x159
 2517 0150 04       		.byte	0x4
 2518 0151 00       		.byte	0
 2519 0152 0E       		.uleb128 0xe
 2520 0153 04       		.byte	0x4
 2521 0154 05       		.byte	0x5
 2522 0155 696E7400 		.ascii	"int\000"
 2523 0159 0F       		.uleb128 0xf
 2524 015a 04       		.byte	0x4
 2525 015b 5F010000 		.4byte	0x15f
 2526 015f 05       		.uleb128 0x5
 2527 0160 01       		.byte	0x1
 2528 0161 08       		.byte	0x8
 2529 0162 F0080000 		.4byte	.LASF27
 2530 0166 0B       		.uleb128 0xb
 2531 0167 B5080000 		.4byte	.LASF29
 2532 016b 02       		.byte	0x2
 2533 016c 4F       		.byte	0x4f
 2534 016d 31010000 		.4byte	0x131
 2535 0171 06       		.uleb128 0x6
 2536 0172 0C       		.byte	0xc
 2537 0173 02       		.byte	0x2
 2538 0174 51       		.byte	0x51
 2539 0175 92010000 		.4byte	0x192
 2540 0179 0D       		.uleb128 0xd
 2541 017a 63060000 		.4byte	.LASF30
 2542 017e 02       		.byte	0x2
 2543 017f 53       		.byte	0x53
 2544 0180 59010000 		.4byte	0x159
 2545 0184 00       		.byte	0
 2546 0185 0D       		.uleb128 0xd
 2547 0186 21010000 		.4byte	.LASF31
 2548 018a 02       		.byte	0x2
 2549 018b 54       		.byte	0x54
 2550 018c 66010000 		.4byte	0x166
 2551 0190 04       		.byte	0x4
 2552 0191 00       		.byte	0
 2553 0192 0B       		.uleb128 0xb
 2554 0193 06050000 		.4byte	.LASF32
 2555 0197 02       		.byte	0x2
 2556 0198 55       		.byte	0x55
 2557 0199 71010000 		.4byte	0x171
 2558 019d 06       		.uleb128 0x6
 2559 019e 24       		.byte	0x24
 2560 019f 03       		.byte	0x3
 2561 01a0 4B       		.byte	0x4b
 2562 01a1 EE010000 		.4byte	0x1ee
 2563 01a5 0D       		.uleb128 0xd
 2564 01a6 AB080000 		.4byte	.LASF33
 2565 01aa 03       		.byte	0x3
 2566 01ab 4E       		.byte	0x4e
 2567 01ac EE010000 		.4byte	0x1ee
 2568 01b0 00       		.byte	0
ARM GAS  C:\Users\samue\AppData\Local\Temp\ccYWUiYX.s 			page 60


 2569 01b1 0D       		.uleb128 0xd
 2570 01b2 2F000000 		.4byte	.LASF34
 2571 01b6 03       		.byte	0x3
 2572 01b7 50       		.byte	0x50
 2573 01b8 52010000 		.4byte	0x152
 2574 01bc 04       		.byte	0x4
 2575 01bd 0D       		.uleb128 0xd
 2576 01be A9000000 		.4byte	.LASF35
 2577 01c2 03       		.byte	0x3
 2578 01c3 52       		.byte	0x52
 2579 01c4 92010000 		.4byte	0x192
 2580 01c8 08       		.byte	0x8
 2581 01c9 0D       		.uleb128 0xd
 2582 01ca 97060000 		.4byte	.LASF36
 2583 01ce 03       		.byte	0x3
 2584 01cf 54       		.byte	0x54
 2585 01d0 92010000 		.4byte	0x192
 2586 01d4 14       		.byte	0x14
 2587 01d5 0D       		.uleb128 0xd
 2588 01d6 85070000 		.4byte	.LASF37
 2589 01da 03       		.byte	0x3
 2590 01db 58       		.byte	0x58
 2591 01dc B4000000 		.4byte	0xb4
 2592 01e0 20       		.byte	0x20
 2593 01e1 0C       		.uleb128 0xc
 2594 01e2 716F7300 		.ascii	"qos\000"
 2595 01e6 03       		.byte	0x3
 2596 01e7 5D       		.byte	0x5d
 2597 01e8 5F010000 		.4byte	0x15f
 2598 01ec 21       		.byte	0x21
 2599 01ed 00       		.byte	0
 2600 01ee 10       		.uleb128 0x10
 2601 01ef 5F010000 		.4byte	0x15f
 2602 01f3 FE010000 		.4byte	0x1fe
 2603 01f7 11       		.uleb128 0x11
 2604 01f8 FE010000 		.4byte	0x1fe
 2605 01fc 03       		.byte	0x3
 2606 01fd 00       		.byte	0
 2607 01fe 05       		.uleb128 0x5
 2608 01ff 04       		.byte	0x4
 2609 0200 07       		.byte	0x7
 2610 0201 CD050000 		.4byte	.LASF38
 2611 0205 0B       		.uleb128 0xb
 2612 0206 B6030000 		.4byte	.LASF39
 2613 020a 03       		.byte	0x3
 2614 020b 5E       		.byte	0x5e
 2615 020c 9D010000 		.4byte	0x19d
 2616 0210 06       		.uleb128 0x6
 2617 0211 58       		.byte	0x58
 2618 0212 03       		.byte	0x3
 2619 0213 64       		.byte	0x64
 2620 0214 91020000 		.4byte	0x291
 2621 0218 0D       		.uleb128 0xd
 2622 0219 AB080000 		.4byte	.LASF33
 2623 021d 03       		.byte	0x3
 2624 021e 67       		.byte	0x67
 2625 021f EE010000 		.4byte	0x1ee
ARM GAS  C:\Users\samue\AppData\Local\Temp\ccYWUiYX.s 			page 61


 2626 0223 00       		.byte	0
 2627 0224 0D       		.uleb128 0xd
 2628 0225 2F000000 		.4byte	.LASF34
 2629 0229 03       		.byte	0x3
 2630 022a 69       		.byte	0x69
 2631 022b 52010000 		.4byte	0x152
 2632 022f 04       		.byte	0x4
 2633 0230 0D       		.uleb128 0xd
 2634 0231 0A0A0000 		.4byte	.LASF40
 2635 0235 03       		.byte	0x3
 2636 0236 6C       		.byte	0x6c
 2637 0237 B4000000 		.4byte	0xb4
 2638 023b 08       		.byte	0x8
 2639 023c 0D       		.uleb128 0xd
 2640 023d CE000000 		.4byte	.LASF41
 2641 0241 03       		.byte	0x3
 2642 0242 6D       		.byte	0x6d
 2643 0243 92010000 		.4byte	0x192
 2644 0247 0C       		.byte	0xc
 2645 0248 0D       		.uleb128 0xd
 2646 0249 41060000 		.4byte	.LASF42
 2647 024d 03       		.byte	0x3
 2648 024e 6E       		.byte	0x6e
 2649 024f 91020000 		.4byte	0x291
 2650 0253 18       		.byte	0x18
 2651 0254 0D       		.uleb128 0xd
 2652 0255 6F030000 		.4byte	.LASF43
 2653 0259 03       		.byte	0x3
 2654 025a 6F       		.byte	0x6f
 2655 025b B4000000 		.4byte	0xb4
 2656 025f 1A       		.byte	0x1a
 2657 0260 0D       		.uleb128 0xd
 2658 0261 65020000 		.4byte	.LASF44
 2659 0265 03       		.byte	0x3
 2660 0266 70       		.byte	0x70
 2661 0267 B4000000 		.4byte	0xb4
 2662 026b 1B       		.byte	0x1b
 2663 026c 0D       		.uleb128 0xd
 2664 026d 8B010000 		.4byte	.LASF45
 2665 0271 03       		.byte	0x3
 2666 0272 71       		.byte	0x71
 2667 0273 05020000 		.4byte	0x205
 2668 0277 1C       		.byte	0x1c
 2669 0278 0D       		.uleb128 0xd
 2670 0279 FD040000 		.4byte	.LASF46
 2671 027d 03       		.byte	0x3
 2672 027e 72       		.byte	0x72
 2673 027f 92010000 		.4byte	0x192
 2674 0283 40       		.byte	0x40
 2675 0284 0D       		.uleb128 0xd
 2676 0285 F2000000 		.4byte	.LASF47
 2677 0289 03       		.byte	0x3
 2678 028a 73       		.byte	0x73
 2679 028b 92010000 		.4byte	0x192
 2680 028f 4C       		.byte	0x4c
 2681 0290 00       		.byte	0
 2682 0291 05       		.uleb128 0x5
ARM GAS  C:\Users\samue\AppData\Local\Temp\ccYWUiYX.s 			page 62


 2683 0292 02       		.byte	0x2
 2684 0293 07       		.byte	0x7
 2685 0294 3C090000 		.4byte	.LASF48
 2686 0298 0B       		.uleb128 0xb
 2687 0299 11050000 		.4byte	.LASF49
 2688 029d 03       		.byte	0x3
 2689 029e 74       		.byte	0x74
 2690 029f 10020000 		.4byte	0x210
 2691 02a3 05       		.uleb128 0x5
 2692 02a4 02       		.byte	0x2
 2693 02a5 05       		.byte	0x5
 2694 02a6 8E070000 		.4byte	.LASF50
 2695 02aa 0B       		.uleb128 0xb
 2696 02ab 0F090000 		.4byte	.LASF51
 2697 02af 04       		.byte	0x4
 2698 02b0 3F       		.byte	0x3f
 2699 02b1 B5020000 		.4byte	0x2b5
 2700 02b5 05       		.uleb128 0x5
 2701 02b6 04       		.byte	0x4
 2702 02b7 05       		.byte	0x5
 2703 02b8 2D020000 		.4byte	.LASF52
 2704 02bc 0B       		.uleb128 0xb
 2705 02bd 26030000 		.4byte	.LASF53
 2706 02c1 04       		.byte	0x4
 2707 02c2 41       		.byte	0x41
 2708 02c3 C7020000 		.4byte	0x2c7
 2709 02c7 05       		.uleb128 0x5
 2710 02c8 04       		.byte	0x4
 2711 02c9 07       		.byte	0x7
 2712 02ca E9030000 		.4byte	.LASF54
 2713 02ce 05       		.uleb128 0x5
 2714 02cf 08       		.byte	0x8
 2715 02d0 05       		.byte	0x5
 2716 02d1 B0010000 		.4byte	.LASF55
 2717 02d5 05       		.uleb128 0x5
 2718 02d6 08       		.byte	0x8
 2719 02d7 07       		.byte	0x7
 2720 02d8 2B010000 		.4byte	.LASF56
 2721 02dc 0B       		.uleb128 0xb
 2722 02dd 88000000 		.4byte	.LASF57
 2723 02e1 05       		.byte	0x5
 2724 02e2 D8       		.byte	0xd8
 2725 02e3 00010000 		.4byte	0x100
 2726 02e7 05       		.uleb128 0x5
 2727 02e8 08       		.byte	0x8
 2728 02e9 04       		.byte	0x4
 2729 02ea 15030000 		.4byte	.LASF58
 2730 02ee 12       		.uleb128 0x12
 2731 02ef 04       		.byte	0x4
 2732 02f0 0F       		.uleb128 0xf
 2733 02f1 04       		.byte	0x4
 2734 02f2 B4000000 		.4byte	0xb4
 2735 02f6 0F       		.uleb128 0xf
 2736 02f7 04       		.byte	0x4
 2737 02f8 FC020000 		.4byte	0x2fc
 2738 02fc 13       		.uleb128 0x13
 2739 02fd 5F010000 		.4byte	0x15f
ARM GAS  C:\Users\samue\AppData\Local\Temp\ccYWUiYX.s 			page 63


 2740 0301 0B       		.uleb128 0xb
 2741 0302 5B070000 		.4byte	.LASF59
 2742 0306 06       		.byte	0x6
 2743 0307 2C       		.byte	0x2c
 2744 0308 AA020000 		.4byte	0x2aa
 2745 030c 0B       		.uleb128 0xb
 2746 030d 97080000 		.4byte	.LASF60
 2747 0311 06       		.byte	0x6
 2748 0312 30       		.byte	0x30
 2749 0313 BC020000 		.4byte	0x2bc
 2750 0317 05       		.uleb128 0x5
 2751 0318 04       		.byte	0x4
 2752 0319 04       		.byte	0x4
 2753 031a EE060000 		.4byte	.LASF61
 2754 031e 05       		.uleb128 0x5
 2755 031f 08       		.byte	0x8
 2756 0320 04       		.byte	0x4
 2757 0321 3D0A0000 		.4byte	.LASF62
 2758 0325 0B       		.uleb128 0xb
 2759 0326 BA020000 		.4byte	.LASF63
 2760 032a 07       		.byte	0x7
 2761 032b 38       		.byte	0x38
 2762 032c B5020000 		.4byte	0x2b5
 2763 0330 0B       		.uleb128 0xb
 2764 0331 F8050000 		.4byte	.LASF64
 2765 0335 07       		.byte	0x7
 2766 0336 3F       		.byte	0x3f
 2767 0337 0C030000 		.4byte	0x30c
 2768 033b 0B       		.uleb128 0xb
 2769 033c 70010000 		.4byte	.LASF65
 2770 0340 08       		.byte	0x8
 2771 0341 2E       		.byte	0x2e
 2772 0342 EE020000 		.4byte	0x2ee
 2773 0346 0B       		.uleb128 0xb
 2774 0347 DE080000 		.4byte	.LASF66
 2775 034b 09       		.byte	0x9
 2776 034c 25       		.byte	0x25
 2777 034d 3B030000 		.4byte	0x33b
 2778 0351 0B       		.uleb128 0xb
 2779 0352 58020000 		.4byte	.LASF67
 2780 0356 0A       		.byte	0xa
 2781 0357 3D       		.byte	0x3d
 2782 0358 EE020000 		.4byte	0x2ee
 2783 035c 14       		.uleb128 0x14
 2784 035d 90010000 		.4byte	.LASF71
 2785 0361 08       		.byte	0x8
 2786 0362 0A       		.byte	0xa
 2787 0363 5D       		.byte	0x5d
 2788 0364 81030000 		.4byte	0x381
 2789 0368 0D       		.uleb128 0xd
 2790 0369 31030000 		.4byte	.LASF68
 2791 036d 0A       		.byte	0xa
 2792 036e 5F       		.byte	0x5f
 2793 036f 25030000 		.4byte	0x325
 2794 0373 00       		.byte	0
 2795 0374 0D       		.uleb128 0xd
 2796 0375 CD030000 		.4byte	.LASF69
ARM GAS  C:\Users\samue\AppData\Local\Temp\ccYWUiYX.s 			page 64


 2797 0379 0A       		.byte	0xa
 2798 037a 60       		.byte	0x60
 2799 037b 30030000 		.4byte	0x330
 2800 037f 04       		.byte	0x4
 2801 0380 00       		.byte	0
 2802 0381 0B       		.uleb128 0xb
 2803 0382 8F000000 		.4byte	.LASF70
 2804 0386 0A       		.byte	0xa
 2805 0387 61       		.byte	0x61
 2806 0388 5C030000 		.4byte	0x35c
 2807 038c 14       		.uleb128 0x14
 2808 038d 16020000 		.4byte	.LASF72
 2809 0391 0C       		.byte	0xc
 2810 0392 0B       		.byte	0xb
 2811 0393 19       		.byte	0x19
 2812 0394 B1030000 		.4byte	0x3b1
 2813 0398 0D       		.uleb128 0xd
 2814 0399 0B070000 		.4byte	.LASF73
 2815 039d 0B       		.byte	0xb
 2816 039e 1B       		.byte	0x1b
 2817 039f 30030000 		.4byte	0x330
 2818 03a3 00       		.byte	0
 2819 03a4 0D       		.uleb128 0xd
 2820 03a5 D7020000 		.4byte	.LASF74
 2821 03a9 0B       		.byte	0xb
 2822 03aa 1C       		.byte	0x1c
 2823 03ab 81030000 		.4byte	0x381
 2824 03af 04       		.byte	0x4
 2825 03b0 00       		.byte	0
 2826 03b1 0B       		.uleb128 0xb
 2827 03b2 16020000 		.4byte	.LASF72
 2828 03b6 0B       		.byte	0xb
 2829 03b7 1D       		.byte	0x1d
 2830 03b8 8C030000 		.4byte	0x38c
 2831 03bc 0B       		.uleb128 0xb
 2832 03bd 85040000 		.4byte	.LASF75
 2833 03c1 0B       		.byte	0xb
 2834 03c2 1F       		.byte	0x1f
 2835 03c3 C7030000 		.4byte	0x3c7
 2836 03c7 14       		.uleb128 0x14
 2837 03c8 85040000 		.4byte	.LASF75
 2838 03cc 18       		.byte	0x18
 2839 03cd 0B       		.byte	0xb
 2840 03ce 21       		.byte	0x21
 2841 03cf 1C040000 		.4byte	0x41c
 2842 03d3 0D       		.uleb128 0xd
 2843 03d4 CD080000 		.4byte	.LASF76
 2844 03d8 0B       		.byte	0xb
 2845 03d9 23       		.byte	0x23
 2846 03da 52010000 		.4byte	0x152
 2847 03de 00       		.byte	0
 2848 03df 0D       		.uleb128 0xd
 2849 03e0 DD030000 		.4byte	.LASF77
 2850 03e4 0B       		.byte	0xb
 2851 03e5 24       		.byte	0x24
 2852 03e6 F6020000 		.4byte	0x2f6
 2853 03ea 04       		.byte	0x4
ARM GAS  C:\Users\samue\AppData\Local\Temp\ccYWUiYX.s 			page 65


 2854 03eb 0D       		.uleb128 0xd
 2855 03ec F2000000 		.4byte	.LASF47
 2856 03f0 0B       		.byte	0xb
 2857 03f1 25       		.byte	0x25
 2858 03f2 F6020000 		.4byte	0x2f6
 2859 03f6 08       		.byte	0x8
 2860 03f7 0D       		.uleb128 0xd
 2861 03f8 5B040000 		.4byte	.LASF78
 2862 03fc 0B       		.byte	0xb
 2863 03fd 26       		.byte	0x26
 2864 03fe 40040000 		.4byte	0x440
 2865 0402 0C       		.byte	0xc
 2866 0403 0D       		.uleb128 0xd
 2867 0404 42010000 		.4byte	.LASF79
 2868 0408 0B       		.byte	0xb
 2869 0409 27       		.byte	0x27
 2870 040a 40040000 		.4byte	0x440
 2871 040e 10       		.byte	0x10
 2872 040f 0D       		.uleb128 0xd
 2873 0410 0B020000 		.4byte	.LASF80
 2874 0414 0B       		.byte	0xb
 2875 0415 28       		.byte	0x28
 2876 0416 51040000 		.4byte	0x451
 2877 041a 14       		.byte	0x14
 2878 041b 00       		.byte	0
 2879 041c 15       		.uleb128 0x15
 2880 041d 52010000 		.4byte	0x152
 2881 0421 3A040000 		.4byte	0x43a
 2882 0425 16       		.uleb128 0x16
 2883 0426 3A040000 		.4byte	0x43a
 2884 042a 16       		.uleb128 0x16
 2885 042b F0020000 		.4byte	0x2f0
 2886 042f 16       		.uleb128 0x16
 2887 0430 52010000 		.4byte	0x152
 2888 0434 16       		.uleb128 0x16
 2889 0435 52010000 		.4byte	0x152
 2890 0439 00       		.byte	0
 2891 043a 0F       		.uleb128 0xf
 2892 043b 04       		.byte	0x4
 2893 043c BC030000 		.4byte	0x3bc
 2894 0440 0F       		.uleb128 0xf
 2895 0441 04       		.byte	0x4
 2896 0442 1C040000 		.4byte	0x41c
 2897 0446 17       		.uleb128 0x17
 2898 0447 51040000 		.4byte	0x451
 2899 044b 16       		.uleb128 0x16
 2900 044c 3A040000 		.4byte	0x43a
 2901 0450 00       		.byte	0
 2902 0451 0F       		.uleb128 0xf
 2903 0452 04       		.byte	0x4
 2904 0453 46040000 		.4byte	0x446
 2905 0457 14       		.uleb128 0x14
 2906 0458 EA050000 		.4byte	.LASF81
 2907 045c 04       		.byte	0x4
 2908 045d 0B       		.byte	0xb
 2909 045e 31       		.byte	0x31
 2910 045f 70040000 		.4byte	0x470
ARM GAS  C:\Users\samue\AppData\Local\Temp\ccYWUiYX.s 			page 66


 2911 0463 0C       		.uleb128 0xc
 2912 0464 73656D00 		.ascii	"sem\000"
 2913 0468 0B       		.byte	0xb
 2914 0469 33       		.byte	0x33
 2915 046a 46030000 		.4byte	0x346
 2916 046e 00       		.byte	0
 2917 046f 00       		.byte	0
 2918 0470 0B       		.uleb128 0xb
 2919 0471 EA050000 		.4byte	.LASF81
 2920 0475 0B       		.byte	0xb
 2921 0476 34       		.byte	0x34
 2922 0477 57040000 		.4byte	0x457
 2923 047b 14       		.uleb128 0x14
 2924 047c 6C080000 		.4byte	.LASF82
 2925 0480 04       		.byte	0x4
 2926 0481 0B       		.byte	0xb
 2927 0482 3A       		.byte	0x3a
 2928 0483 94040000 		.4byte	0x494
 2929 0487 0D       		.uleb128 0xd
 2930 0488 20090000 		.4byte	.LASF83
 2931 048c 0B       		.byte	0xb
 2932 048d 3C       		.byte	0x3c
 2933 048e 51030000 		.4byte	0x351
 2934 0492 00       		.byte	0
 2935 0493 00       		.byte	0
 2936 0494 0B       		.uleb128 0xb
 2937 0495 6C080000 		.4byte	.LASF82
 2938 0499 0B       		.byte	0xb
 2939 049a 3D       		.byte	0x3d
 2940 049b 7B040000 		.4byte	0x47b
 2941 049f 18       		.uleb128 0x18
 2942 04a0 516F5300 		.ascii	"QoS\000"
 2943 04a4 01       		.byte	0x1
 2944 04a5 B4000000 		.4byte	0xb4
 2945 04a9 0C       		.byte	0xc
 2946 04aa 3D       		.byte	0x3d
 2947 04ab C8040000 		.4byte	0x4c8
 2948 04af 04       		.uleb128 0x4
 2949 04b0 160A0000 		.4byte	.LASF84
 2950 04b4 00       		.byte	0
 2951 04b5 04       		.uleb128 0x4
 2952 04b6 65030000 		.4byte	.LASF85
 2953 04ba 01       		.byte	0x1
 2954 04bb 04       		.uleb128 0x4
 2955 04bc 6A030000 		.4byte	.LASF86
 2956 04c0 02       		.byte	0x2
 2957 04c1 04       		.uleb128 0x4
 2958 04c2 F0050000 		.4byte	.LASF87
 2959 04c6 80       		.byte	0x80
 2960 04c7 00       		.byte	0
 2961 04c8 02       		.uleb128 0x2
 2962 04c9 5A030000 		.4byte	.LASF88
 2963 04cd 01       		.byte	0x1
 2964 04ce 48000000 		.4byte	0x48
 2965 04d2 0C       		.byte	0xc
 2966 04d3 40       		.byte	0x40
 2967 04d4 EB040000 		.4byte	0x4eb
ARM GAS  C:\Users\samue\AppData\Local\Temp\ccYWUiYX.s 			page 67


 2968 04d8 03       		.uleb128 0x3
 2969 04d9 B3000000 		.4byte	.LASF89
 2970 04dd 7E       		.sleb128 -2
 2971 04de 03       		.uleb128 0x3
 2972 04df 64040000 		.4byte	.LASF90
 2973 04e3 7F       		.sleb128 -1
 2974 04e4 04       		.uleb128 0x4
 2975 04e5 C6090000 		.4byte	.LASF91
 2976 04e9 00       		.byte	0
 2977 04ea 00       		.byte	0
 2978 04eb 14       		.uleb128 0x14
 2979 04ec 8B020000 		.4byte	.LASF92
 2980 04f0 10       		.byte	0x10
 2981 04f1 0C       		.byte	0xc
 2982 04f2 53       		.byte	0x53
 2983 04f3 3F050000 		.4byte	0x53f
 2984 04f7 0C       		.uleb128 0xc
 2985 04f8 716F7300 		.ascii	"qos\000"
 2986 04fc 0C       		.byte	0xc
 2987 04fd 55       		.byte	0x55
 2988 04fe 9F040000 		.4byte	0x49f
 2989 0502 00       		.byte	0
 2990 0503 0D       		.uleb128 0xd
 2991 0504 85070000 		.4byte	.LASF37
 2992 0508 0C       		.byte	0xc
 2993 0509 56       		.byte	0x56
 2994 050a B4000000 		.4byte	0xb4
 2995 050e 01       		.byte	0x1
 2996 050f 0C       		.uleb128 0xc
 2997 0510 64757000 		.ascii	"dup\000"
 2998 0514 0C       		.byte	0xc
 2999 0515 57       		.byte	0x57
 3000 0516 B4000000 		.4byte	0xb4
 3001 051a 02       		.byte	0x2
 3002 051b 0C       		.uleb128 0xc
 3003 051c 696400   		.ascii	"id\000"
 3004 051f 0C       		.byte	0xc
 3005 0520 58       		.byte	0x58
 3006 0521 91020000 		.4byte	0x291
 3007 0525 04       		.byte	0x4
 3008 0526 0D       		.uleb128 0xd
 3009 0527 03060000 		.4byte	.LASF93
 3010 052b 0C       		.byte	0xc
 3011 052c 59       		.byte	0x59
 3012 052d EE020000 		.4byte	0x2ee
 3013 0531 08       		.byte	0x8
 3014 0532 0D       		.uleb128 0xd
 3015 0533 C3000000 		.4byte	.LASF94
 3016 0537 0C       		.byte	0xc
 3017 0538 5A       		.byte	0x5a
 3018 0539 DC020000 		.4byte	0x2dc
 3019 053d 0C       		.byte	0xc
 3020 053e 00       		.byte	0
 3021 053f 0B       		.uleb128 0xb
 3022 0540 8B020000 		.4byte	.LASF92
 3023 0544 0C       		.byte	0xc
 3024 0545 5B       		.byte	0x5b
ARM GAS  C:\Users\samue\AppData\Local\Temp\ccYWUiYX.s 			page 68


 3025 0546 EB040000 		.4byte	0x4eb
 3026 054a 14       		.uleb128 0x14
 3027 054b 1C020000 		.4byte	.LASF95
 3028 054f 08       		.byte	0x8
 3029 0550 0C       		.byte	0xc
 3030 0551 5D       		.byte	0x5d
 3031 0552 6F050000 		.4byte	0x56f
 3032 0556 0D       		.uleb128 0xd
 3033 0557 97060000 		.4byte	.LASF36
 3034 055b 0C       		.byte	0xc
 3035 055c 5F       		.byte	0x5f
 3036 055d 6F050000 		.4byte	0x56f
 3037 0561 00       		.byte	0
 3038 0562 0D       		.uleb128 0xd
 3039 0563 A9000000 		.4byte	.LASF35
 3040 0567 0C       		.byte	0xc
 3041 0568 60       		.byte	0x60
 3042 0569 75050000 		.4byte	0x575
 3043 056d 04       		.byte	0x4
 3044 056e 00       		.byte	0
 3045 056f 0F       		.uleb128 0xf
 3046 0570 04       		.byte	0x4
 3047 0571 3F050000 		.4byte	0x53f
 3048 0575 0F       		.uleb128 0xf
 3049 0576 04       		.byte	0x4
 3050 0577 92010000 		.4byte	0x192
 3051 057b 0B       		.uleb128 0xb
 3052 057c 1C020000 		.4byte	.LASF95
 3053 0580 0C       		.byte	0xc
 3054 0581 61       		.byte	0x61
 3055 0582 4A050000 		.4byte	0x54a
 3056 0586 14       		.uleb128 0x14
 3057 0587 DE060000 		.4byte	.LASF96
 3058 058b 02       		.byte	0x2
 3059 058c 0C       		.byte	0xc
 3060 058d 63       		.byte	0x63
 3061 058e AA050000 		.4byte	0x5aa
 3062 0592 0C       		.uleb128 0xc
 3063 0593 726300   		.ascii	"rc\000"
 3064 0596 0C       		.byte	0xc
 3065 0597 65       		.byte	0x65
 3066 0598 B4000000 		.4byte	0xb4
 3067 059c 00       		.byte	0
 3068 059d 0D       		.uleb128 0xd
 3069 059e FC020000 		.4byte	.LASF97
 3070 05a2 0C       		.byte	0xc
 3071 05a3 66       		.byte	0x66
 3072 05a4 B4000000 		.4byte	0xb4
 3073 05a8 01       		.byte	0x1
 3074 05a9 00       		.byte	0
 3075 05aa 0B       		.uleb128 0xb
 3076 05ab DE060000 		.4byte	.LASF96
 3077 05af 0C       		.byte	0xc
 3078 05b0 67       		.byte	0x67
 3079 05b1 86050000 		.4byte	0x586
 3080 05b5 14       		.uleb128 0x14
 3081 05b6 93090000 		.4byte	.LASF98
ARM GAS  C:\Users\samue\AppData\Local\Temp\ccYWUiYX.s 			page 69


 3082 05ba 01       		.byte	0x1
 3083 05bb 0C       		.byte	0xc
 3084 05bc 69       		.byte	0x69
 3085 05bd CE050000 		.4byte	0x5ce
 3086 05c1 0D       		.uleb128 0xd
 3087 05c2 25090000 		.4byte	.LASF99
 3088 05c6 0C       		.byte	0xc
 3089 05c7 6B       		.byte	0x6b
 3090 05c8 9F040000 		.4byte	0x49f
 3091 05cc 00       		.byte	0
 3092 05cd 00       		.byte	0
 3093 05ce 0B       		.uleb128 0xb
 3094 05cf 93090000 		.4byte	.LASF98
 3095 05d3 0C       		.byte	0xc
 3096 05d4 6C       		.byte	0x6c
 3097 05d5 B5050000 		.4byte	0x5b5
 3098 05d9 0B       		.uleb128 0xb
 3099 05da 67090000 		.4byte	.LASF100
 3100 05de 0C       		.byte	0xc
 3101 05df 6E       		.byte	0x6e
 3102 05e0 E4050000 		.4byte	0x5e4
 3103 05e4 0F       		.uleb128 0xf
 3104 05e5 04       		.byte	0x4
 3105 05e6 EA050000 		.4byte	0x5ea
 3106 05ea 17       		.uleb128 0x17
 3107 05eb F5050000 		.4byte	0x5f5
 3108 05ef 16       		.uleb128 0x16
 3109 05f0 F5050000 		.4byte	0x5f5
 3110 05f4 00       		.byte	0
 3111 05f5 0F       		.uleb128 0xf
 3112 05f6 04       		.byte	0x4
 3113 05f7 7B050000 		.4byte	0x57b
 3114 05fb 14       		.uleb128 0x14
 3115 05fc 9D050000 		.4byte	.LASF101
 3116 0600 08       		.byte	0x8
 3117 0601 0C       		.byte	0xc
 3118 0602 7D       		.byte	0x7d
 3119 0603 1F060000 		.4byte	0x61f
 3120 0607 0D       		.uleb128 0xd
 3121 0608 7C000000 		.4byte	.LASF102
 3122 060c 0C       		.byte	0xc
 3123 060d 7F       		.byte	0x7f
 3124 060e F6020000 		.4byte	0x2f6
 3125 0612 00       		.byte	0
 3126 0613 0C       		.uleb128 0xc
 3127 0614 667000   		.ascii	"fp\000"
 3128 0617 0C       		.byte	0xc
 3129 0618 80       		.byte	0x80
 3130 0619 E4050000 		.4byte	0x5e4
 3131 061d 04       		.byte	0x4
 3132 061e 00       		.byte	0
 3133 061f 14       		.uleb128 0x14
 3134 0620 CE070000 		.4byte	.LASF103
 3135 0624 78       		.byte	0x78
 3136 0625 0C       		.byte	0xc
 3137 0626 70       		.byte	0x70
 3138 0627 F8060000 		.4byte	0x6f8
ARM GAS  C:\Users\samue\AppData\Local\Temp\ccYWUiYX.s 			page 70


 3139 062b 0D       		.uleb128 0xd
 3140 062c 73080000 		.4byte	.LASF104
 3141 0630 0C       		.byte	0xc
 3142 0631 72       		.byte	0x72
 3143 0632 00010000 		.4byte	0x100
 3144 0636 00       		.byte	0
 3145 0637 0D       		.uleb128 0xd
 3146 0638 EA040000 		.4byte	.LASF105
 3147 063c 0C       		.byte	0xc
 3148 063d 73       		.byte	0x73
 3149 063e 00010000 		.4byte	0x100
 3150 0642 04       		.byte	0x4
 3151 0643 0D       		.uleb128 0xd
 3152 0644 E1050000 		.4byte	.LASF106
 3153 0648 0C       		.byte	0xc
 3154 0649 74       		.byte	0x74
 3155 064a DC020000 		.4byte	0x2dc
 3156 064e 08       		.byte	0x8
 3157 064f 0D       		.uleb128 0xd
 3158 0650 AD090000 		.4byte	.LASF107
 3159 0654 0C       		.byte	0xc
 3160 0655 75       		.byte	0x75
 3161 0656 DC020000 		.4byte	0x2dc
 3162 065a 0C       		.byte	0xc
 3163 065b 0C       		.uleb128 0xc
 3164 065c 62756600 		.ascii	"buf\000"
 3165 0660 0C       		.byte	0xc
 3166 0661 76       		.byte	0x76
 3167 0662 F0020000 		.4byte	0x2f0
 3168 0666 10       		.byte	0x10
 3169 0667 0D       		.uleb128 0xd
 3170 0668 B6040000 		.4byte	.LASF108
 3171 066c 0C       		.byte	0xc
 3172 066d 77       		.byte	0x77
 3173 066e F0020000 		.4byte	0x2f0
 3174 0672 14       		.byte	0x14
 3175 0673 0D       		.uleb128 0xd
 3176 0674 41060000 		.4byte	.LASF42
 3177 0678 0C       		.byte	0xc
 3178 0679 78       		.byte	0x78
 3179 067a 00010000 		.4byte	0x100
 3180 067e 18       		.byte	0x18
 3181 067f 0D       		.uleb128 0xd
 3182 0680 2E040000 		.4byte	.LASF109
 3183 0684 0C       		.byte	0xc
 3184 0685 79       		.byte	0x79
 3185 0686 5F010000 		.4byte	0x15f
 3186 068a 1C       		.byte	0x1c
 3187 068b 0D       		.uleb128 0xd
 3188 068c 22040000 		.4byte	.LASF110
 3189 0690 0C       		.byte	0xc
 3190 0691 7A       		.byte	0x7a
 3191 0692 52010000 		.4byte	0x152
 3192 0696 20       		.byte	0x20
 3193 0697 0D       		.uleb128 0xd
 3194 0698 6F030000 		.4byte	.LASF43
 3195 069c 0C       		.byte	0xc
ARM GAS  C:\Users\samue\AppData\Local\Temp\ccYWUiYX.s 			page 71


 3196 069d 7B       		.byte	0x7b
 3197 069e 52010000 		.4byte	0x152
 3198 06a2 24       		.byte	0x24
 3199 06a3 0D       		.uleb128 0xd
 3200 06a4 53060000 		.4byte	.LASF111
 3201 06a8 0C       		.byte	0xc
 3202 06a9 81       		.byte	0x81
 3203 06aa F8060000 		.4byte	0x6f8
 3204 06ae 28       		.byte	0x28
 3205 06af 0D       		.uleb128 0xd
 3206 06b0 0B010000 		.4byte	.LASF112
 3207 06b4 0C       		.byte	0xc
 3208 06b5 83       		.byte	0x83
 3209 06b6 E4050000 		.4byte	0x5e4
 3210 06ba 50       		.byte	0x50
 3211 06bb 0D       		.uleb128 0xd
 3212 06bc 9C040000 		.4byte	.LASF113
 3213 06c0 0C       		.byte	0xc
 3214 06c1 85       		.byte	0x85
 3215 06c2 3A040000 		.4byte	0x43a
 3216 06c6 54       		.byte	0x54
 3217 06c7 0D       		.uleb128 0xd
 3218 06c8 8C030000 		.4byte	.LASF114
 3219 06cc 0C       		.byte	0xc
 3220 06cd 86       		.byte	0x86
 3221 06ce B1030000 		.4byte	0x3b1
 3222 06d2 58       		.byte	0x58
 3223 06d3 0D       		.uleb128 0xd
 3224 06d4 A4060000 		.4byte	.LASF115
 3225 06d8 0C       		.byte	0xc
 3226 06d9 86       		.byte	0x86
 3227 06da B1030000 		.4byte	0x3b1
 3228 06de 64       		.byte	0x64
 3229 06df 0D       		.uleb128 0xd
 3230 06e0 50070000 		.4byte	.LASF116
 3231 06e4 0C       		.byte	0xc
 3232 06e5 88       		.byte	0x88
 3233 06e6 70040000 		.4byte	0x470
 3234 06ea 70       		.byte	0x70
 3235 06eb 0D       		.uleb128 0xd
 3236 06ec 19090000 		.4byte	.LASF117
 3237 06f0 0C       		.byte	0xc
 3238 06f1 89       		.byte	0x89
 3239 06f2 94040000 		.4byte	0x494
 3240 06f6 74       		.byte	0x74
 3241 06f7 00       		.byte	0
 3242 06f8 10       		.uleb128 0x10
 3243 06f9 FB050000 		.4byte	0x5fb
 3244 06fd 08070000 		.4byte	0x708
 3245 0701 11       		.uleb128 0x11
 3246 0702 FE010000 		.4byte	0x1fe
 3247 0706 04       		.byte	0x4
 3248 0707 00       		.byte	0
 3249 0708 0B       		.uleb128 0xb
 3250 0709 CE070000 		.4byte	.LASF103
 3251 070d 0C       		.byte	0xc
 3252 070e 8B       		.byte	0x8b
ARM GAS  C:\Users\samue\AppData\Local\Temp\ccYWUiYX.s 			page 72


 3253 070f 1F060000 		.4byte	0x61f
 3254 0713 19       		.uleb128 0x19
 3255 0714 3F040000 		.4byte	.LASF199
 3256 0718 01       		.byte	0x1
 3257 0719 17       		.byte	0x17
 3258 071a 00000000 		.4byte	.LFB69
 3259 071e 06000000 		.4byte	.LFE69-.LFB69
 3260 0722 01       		.uleb128 0x1
 3261 0723 9C       		.byte	0x9c
 3262 0724 4F070000 		.4byte	0x74f
 3263 0728 1A       		.uleb128 0x1a
 3264 0729 6D6400   		.ascii	"md\000"
 3265 072c 01       		.byte	0x1
 3266 072d 17       		.byte	0x17
 3267 072e F5050000 		.4byte	0x5f5
 3268 0732 01       		.uleb128 0x1
 3269 0733 50       		.byte	0x50
 3270 0734 1B       		.uleb128 0x1b
 3271 0735 D6050000 		.4byte	.LASF118
 3272 0739 01       		.byte	0x1
 3273 073a 17       		.byte	0x17
 3274 073b 75050000 		.4byte	0x575
 3275 073f 01       		.uleb128 0x1
 3276 0740 51       		.byte	0x51
 3277 0741 1B       		.uleb128 0x1b
 3278 0742 6C000000 		.4byte	.LASF119
 3279 0746 01       		.byte	0x1
 3280 0747 17       		.byte	0x17
 3281 0748 6F050000 		.4byte	0x56f
 3282 074c 01       		.uleb128 0x1
 3283 074d 52       		.byte	0x52
 3284 074e 00       		.byte	0
 3285 074f 1C       		.uleb128 0x1c
 3286 0750 EC020000 		.4byte	.LASF120
 3287 0754 01       		.byte	0x1
 3288 0755 1D       		.byte	0x1d
 3289 0756 52010000 		.4byte	0x152
 3290 075a 00000000 		.4byte	.LFB70
 3291 075e 16000000 		.4byte	.LFE70-.LFB70
 3292 0762 01       		.uleb128 0x1
 3293 0763 9C       		.byte	0x9c
 3294 0764 76070000 		.4byte	0x776
 3295 0768 1D       		.uleb128 0x1d
 3296 0769 6300     		.ascii	"c\000"
 3297 076b 01       		.byte	0x1
 3298 076c 1D       		.byte	0x1d
 3299 076d 76070000 		.4byte	0x776
 3300 0771 00000000 		.4byte	.LLST0
 3301 0775 00       		.byte	0
 3302 0776 0F       		.uleb128 0xf
 3303 0777 04       		.byte	0x4
 3304 0778 08070000 		.4byte	0x708
 3305 077c 1C       		.uleb128 0x1c
 3306 077d 9C030000 		.4byte	.LASF121
 3307 0781 01       		.byte	0x1
 3308 0782 53       		.byte	0x53
 3309 0783 52010000 		.4byte	0x152
ARM GAS  C:\Users\samue\AppData\Local\Temp\ccYWUiYX.s 			page 73


 3310 0787 00000000 		.4byte	.LFB73
 3311 078b 4E000000 		.4byte	.LFE73-.LFB73
 3312 078f 01       		.uleb128 0x1
 3313 0790 9C       		.byte	0x9c
 3314 0791 34080000 		.4byte	0x834
 3315 0795 1D       		.uleb128 0x1d
 3316 0796 6300     		.ascii	"c\000"
 3317 0798 01       		.byte	0x1
 3318 0799 53       		.byte	0x53
 3319 079a 76070000 		.4byte	0x776
 3320 079e 21000000 		.4byte	.LLST1
 3321 07a2 1E       		.uleb128 0x1e
 3322 07a3 96030000 		.4byte	.LASF122
 3323 07a7 01       		.byte	0x1
 3324 07a8 53       		.byte	0x53
 3325 07a9 34080000 		.4byte	0x834
 3326 07ad 3F000000 		.4byte	.LLST2
 3327 07b1 1E       		.uleb128 0x1e
 3328 07b2 13040000 		.4byte	.LASF123
 3329 07b6 01       		.byte	0x1
 3330 07b7 53       		.byte	0x53
 3331 07b8 52010000 		.4byte	0x152
 3332 07bc 5D000000 		.4byte	.LLST3
 3333 07c0 1F       		.uleb128 0x1f
 3334 07c1 6900     		.ascii	"i\000"
 3335 07c3 01       		.byte	0x1
 3336 07c4 55       		.byte	0x55
 3337 07c5 B4000000 		.4byte	0xb4
 3338 07c9 02       		.uleb128 0x2
 3339 07ca 91       		.byte	0x91
 3340 07cb 5F       		.sleb128 -33
 3341 07cc 20       		.uleb128 0x20
 3342 07cd 6B060000 		.4byte	.LASF124
 3343 07d1 01       		.byte	0x1
 3344 07d2 56       		.byte	0x56
 3345 07d3 52010000 		.4byte	0x152
 3346 07d7 7B000000 		.4byte	.LLST4
 3347 07db 21       		.uleb128 0x21
 3348 07dc 6C656E00 		.ascii	"len\000"
 3349 07e0 01       		.byte	0x1
 3350 07e1 57       		.byte	0x57
 3351 07e2 52010000 		.4byte	0x152
 3352 07e6 9A000000 		.4byte	.LLST5
 3353 07ea 22       		.uleb128 0x22
 3354 07eb 76060000 		.4byte	.LASF125
 3355 07ef 01       		.byte	0x1
 3356 07f0 58       		.byte	0x58
 3357 07f1 3A080000 		.4byte	0x83a
 3358 07f5 04       		.byte	0x4
 3359 07f6 23       		.uleb128 0x23
 3360 07f7 67080000 		.4byte	.LASF137
 3361 07fb 01       		.byte	0x1
 3362 07fc 6A       		.byte	0x6a
 3363 07fd 46000000 		.4byte	.L6
 3364 0801 24       		.uleb128 0x24
 3365 0802 12000000 		.4byte	.LBB2
 3366 0806 2C000000 		.4byte	.LBE2-.LBB2
ARM GAS  C:\Users\samue\AppData\Local\Temp\ccYWUiYX.s 			page 74


 3367 080a 21       		.uleb128 0x21
 3368 080b 726300   		.ascii	"rc\000"
 3369 080e 01       		.byte	0x1
 3370 080f 5D       		.byte	0x5d
 3371 0810 52010000 		.4byte	0x152
 3372 0814 B9000000 		.4byte	.LLST6
 3373 0818 25       		.uleb128 0x25
 3374 0819 28000000 		.4byte	.LVL7
 3375 081d 02       		.uleb128 0x2
 3376 081e 77       		.byte	0x77
 3377 081f 00       		.sleb128 0
 3378 0820 26       		.uleb128 0x26
 3379 0821 01       		.uleb128 0x1
 3380 0822 51       		.byte	0x51
 3381 0823 02       		.uleb128 0x2
 3382 0824 91       		.byte	0x91
 3383 0825 5F       		.sleb128 -33
 3384 0826 26       		.uleb128 0x26
 3385 0827 01       		.uleb128 0x1
 3386 0828 52       		.byte	0x52
 3387 0829 01       		.uleb128 0x1
 3388 082a 31       		.byte	0x31
 3389 082b 26       		.uleb128 0x26
 3390 082c 01       		.uleb128 0x1
 3391 082d 53       		.byte	0x53
 3392 082e 02       		.uleb128 0x2
 3393 082f 79       		.byte	0x79
 3394 0830 00       		.sleb128 0
 3395 0831 00       		.byte	0
 3396 0832 00       		.byte	0
 3397 0833 00       		.byte	0
 3398 0834 0F       		.uleb128 0xf
 3399 0835 04       		.byte	0x4
 3400 0836 52010000 		.4byte	0x152
 3401 083a 13       		.uleb128 0x13
 3402 083b 52010000 		.4byte	0x152
 3403 083f 1C       		.uleb128 0x1c
 3404 0840 30070000 		.4byte	.LASF126
 3405 0844 01       		.byte	0x1
 3406 0845 97       		.byte	0x97
 3407 0846 5F010000 		.4byte	0x15f
 3408 084a 00000000 		.4byte	.LFB75
 3409 084e 5E000000 		.4byte	.LFE75-.LFB75
 3410 0852 01       		.uleb128 0x1
 3411 0853 9C       		.byte	0x9c
 3412 0854 B9080000 		.4byte	0x8b9
 3413 0858 1E       		.uleb128 0x1e
 3414 0859 7C000000 		.4byte	.LASF102
 3415 085d 01       		.byte	0x1
 3416 085e 97       		.byte	0x97
 3417 085f 59010000 		.4byte	0x159
 3418 0863 D9000000 		.4byte	.LLST7
 3419 0867 1E       		.uleb128 0x1e
 3420 0868 A9000000 		.4byte	.LASF35
 3421 086c 01       		.byte	0x1
 3422 086d 97       		.byte	0x97
 3423 086e 75050000 		.4byte	0x575
ARM GAS  C:\Users\samue\AppData\Local\Temp\ccYWUiYX.s 			page 75


 3424 0872 FA000000 		.4byte	.LLST8
 3425 0876 20       		.uleb128 0x20
 3426 0877 23070000 		.4byte	.LASF127
 3427 087b 01       		.byte	0x1
 3428 087c 99       		.byte	0x99
 3429 087d 59010000 		.4byte	0x159
 3430 0881 1B010000 		.4byte	.LLST9
 3431 0885 27       		.uleb128 0x27
 3432 0886 56070000 		.4byte	.LASF128
 3433 088a 01       		.byte	0x1
 3434 088b 9A       		.byte	0x9a
 3435 088c 59010000 		.4byte	0x159
 3436 0890 01       		.uleb128 0x1
 3437 0891 53       		.byte	0x53
 3438 0892 27       		.uleb128 0x27
 3439 0893 7C070000 		.4byte	.LASF129
 3440 0897 01       		.byte	0x1
 3441 0898 9B       		.byte	0x9b
 3442 0899 59010000 		.4byte	0x159
 3443 089d 01       		.uleb128 0x1
 3444 089e 51       		.byte	0x51
 3445 089f 24       		.uleb128 0x24
 3446 08a0 24000000 		.4byte	.LBB3
 3447 08a4 14000000 		.4byte	.LBE3-.LBB3
 3448 08a8 20       		.uleb128 0x20
 3449 08a9 07090000 		.4byte	.LASF130
 3450 08ad 01       		.byte	0x1
 3451 08ae A5       		.byte	0xa5
 3452 08af 59010000 		.4byte	0x159
 3453 08b3 44010000 		.4byte	.LLST10
 3454 08b7 00       		.byte	0
 3455 08b8 00       		.byte	0
 3456 08b9 1C       		.uleb128 0x1c
 3457 08ba FC080000 		.4byte	.LASF131
 3458 08be 01       		.byte	0x1
 3459 08bf 22       		.byte	0x22
 3460 08c0 52010000 		.4byte	0x152
 3461 08c4 00000000 		.4byte	.LFB71
 3462 08c8 5E000000 		.4byte	.LFE71-.LFB71
 3463 08cc 01       		.uleb128 0x1
 3464 08cd 9C       		.byte	0x9c
 3465 08ce 73090000 		.4byte	0x973
 3466 08d2 1D       		.uleb128 0x1d
 3467 08d3 6300     		.ascii	"c\000"
 3468 08d5 01       		.byte	0x1
 3469 08d6 22       		.byte	0x22
 3470 08d7 76070000 		.4byte	0x776
 3471 08db 62010000 		.4byte	.LLST11
 3472 08df 1E       		.uleb128 0x1e
 3473 08e0 D7080000 		.4byte	.LASF132
 3474 08e4 01       		.byte	0x1
 3475 08e5 22       		.byte	0x22
 3476 08e6 52010000 		.4byte	0x152
 3477 08ea 80010000 		.4byte	.LLST12
 3478 08ee 1E       		.uleb128 0x1e
 3479 08ef DF090000 		.4byte	.LASF133
 3480 08f3 01       		.byte	0x1
ARM GAS  C:\Users\samue\AppData\Local\Temp\ccYWUiYX.s 			page 76


 3481 08f4 22       		.byte	0x22
 3482 08f5 73090000 		.4byte	0x973
 3483 08f9 9E010000 		.4byte	.LLST13
 3484 08fd 21       		.uleb128 0x21
 3485 08fe 726300   		.ascii	"rc\000"
 3486 0901 01       		.byte	0x1
 3487 0902 24       		.byte	0x24
 3488 0903 52010000 		.4byte	0x152
 3489 0907 BC010000 		.4byte	.LLST14
 3490 090b 20       		.uleb128 0x20
 3491 090c 9F060000 		.4byte	.LASF134
 3492 0910 01       		.byte	0x1
 3493 0911 25       		.byte	0x25
 3494 0912 52010000 		.4byte	0x152
 3495 0916 F3010000 		.4byte	.LLST15
 3496 091a 28       		.uleb128 0x28
 3497 091b 22000000 		.4byte	.LVL32
 3498 091f DD1B0000 		.4byte	0x1bdd
 3499 0923 2E090000 		.4byte	0x92e
 3500 0927 26       		.uleb128 0x26
 3501 0928 01       		.uleb128 0x1
 3502 0929 50       		.byte	0x50
 3503 092a 02       		.uleb128 0x2
 3504 092b 79       		.byte	0x79
 3505 092c 00       		.sleb128 0
 3506 092d 00       		.byte	0
 3507 092e 29       		.uleb128 0x29
 3508 092f 2C000000 		.4byte	.LVL33
 3509 0933 02       		.uleb128 0x2
 3510 0934 7A       		.byte	0x7a
 3511 0935 00       		.sleb128 0
 3512 0936 4D090000 		.4byte	0x94d
 3513 093a 26       		.uleb128 0x26
 3514 093b 01       		.uleb128 0x1
 3515 093c 50       		.byte	0x50
 3516 093d 02       		.uleb128 0x2
 3517 093e 76       		.byte	0x76
 3518 093f 00       		.sleb128 0
 3519 0940 26       		.uleb128 0x26
 3520 0941 01       		.uleb128 0x1
 3521 0942 51       		.byte	0x51
 3522 0943 02       		.uleb128 0x2
 3523 0944 75       		.byte	0x75
 3524 0945 00       		.sleb128 0
 3525 0946 26       		.uleb128 0x26
 3526 0947 01       		.uleb128 0x1
 3527 0948 52       		.byte	0x52
 3528 0949 02       		.uleb128 0x2
 3529 094a 77       		.byte	0x77
 3530 094b 00       		.sleb128 0
 3531 094c 00       		.byte	0
 3532 094d 28       		.uleb128 0x28
 3533 094e 3C000000 		.4byte	.LVL35
 3534 0952 E81B0000 		.4byte	0x1be8
 3535 0956 61090000 		.4byte	0x961
 3536 095a 26       		.uleb128 0x26
 3537 095b 01       		.uleb128 0x1
ARM GAS  C:\Users\samue\AppData\Local\Temp\ccYWUiYX.s 			page 77


 3538 095c 50       		.byte	0x50
 3539 095d 02       		.uleb128 0x2
 3540 095e 79       		.byte	0x79
 3541 095f 00       		.sleb128 0
 3542 0960 00       		.byte	0
 3543 0961 2A       		.uleb128 0x2a
 3544 0962 50000000 		.4byte	.LVL36
 3545 0966 F31B0000 		.4byte	0x1bf3
 3546 096a 26       		.uleb128 0x26
 3547 096b 01       		.uleb128 0x1
 3548 096c 50       		.byte	0x50
 3549 096d 03       		.uleb128 0x3
 3550 096e 78       		.byte	0x78
 3551 096f D800     		.sleb128 88
 3552 0971 00       		.byte	0
 3553 0972 00       		.byte	0
 3554 0973 0F       		.uleb128 0xf
 3555 0974 04       		.byte	0x4
 3556 0975 B1030000 		.4byte	0x3b1
 3557 0979 1C       		.uleb128 0x1c
 3558 097a 4C010000 		.4byte	.LASF135
 3559 097e 01       		.byte	0x1
 3560 097f 6F       		.byte	0x6f
 3561 0980 52010000 		.4byte	0x152
 3562 0984 00000000 		.4byte	.LFB74
 3563 0988 9C000000 		.4byte	.LFE74-.LFB74
 3564 098c 01       		.uleb128 0x1
 3565 098d 9C       		.byte	0x9c
 3566 098e 9D0A0000 		.4byte	0xa9d
 3567 0992 1D       		.uleb128 0x1d
 3568 0993 6300     		.ascii	"c\000"
 3569 0995 01       		.byte	0x1
 3570 0996 6F       		.byte	0x6f
 3571 0997 76070000 		.4byte	0x776
 3572 099b 12020000 		.4byte	.LLST16
 3573 099f 1E       		.uleb128 0x1e
 3574 09a0 DF090000 		.4byte	.LASF133
 3575 09a4 01       		.byte	0x1
 3576 09a5 6F       		.byte	0x6f
 3577 09a6 73090000 		.4byte	0x973
 3578 09aa 30020000 		.4byte	.LLST17
 3579 09ae 2B       		.uleb128 0x2b
 3580 09af 440A0000 		.4byte	.LASF200
 3581 09b3 01       		.byte	0x1
 3582 09b4 71       		.byte	0x71
 3583 09b5 26010000 		.4byte	0x126
 3584 09b9 21       		.uleb128 0x21
 3585 09ba 6C656E00 		.ascii	"len\000"
 3586 09be 01       		.byte	0x1
 3587 09bf 72       		.byte	0x72
 3588 09c0 52010000 		.4byte	0x152
 3589 09c4 4E020000 		.4byte	.LLST18
 3590 09c8 27       		.uleb128 0x27
 3591 09c9 28070000 		.4byte	.LASF136
 3592 09cd 01       		.byte	0x1
 3593 09ce 73       		.byte	0x73
 3594 09cf 52010000 		.4byte	0x152
ARM GAS  C:\Users\samue\AppData\Local\Temp\ccYWUiYX.s 			page 78


 3595 09d3 02       		.uleb128 0x2
 3596 09d4 91       		.byte	0x91
 3597 09d5 5C       		.sleb128 -36
 3598 09d6 21       		.uleb128 0x21
 3599 09d7 726300   		.ascii	"rc\000"
 3600 09da 01       		.byte	0x1
 3601 09db 76       		.byte	0x76
 3602 09dc 52010000 		.4byte	0x152
 3603 09e0 84020000 		.4byte	.LLST19
 3604 09e4 23       		.uleb128 0x23
 3605 09e5 67080000 		.4byte	.LASF137
 3606 09e9 01       		.byte	0x1
 3607 09ea 8F       		.byte	0x8f
 3608 09eb 94000000 		.4byte	.L31
 3609 09ef 28       		.uleb128 0x28
 3610 09f0 1C000000 		.4byte	.LVL42
 3611 09f4 DD1B0000 		.4byte	0x1bdd
 3612 09f8 030A0000 		.4byte	0xa03
 3613 09fc 26       		.uleb128 0x26
 3614 09fd 01       		.uleb128 0x1
 3615 09fe 50       		.byte	0x50
 3616 09ff 02       		.uleb128 0x2
 3617 0a00 76       		.byte	0x76
 3618 0a01 00       		.sleb128 0
 3619 0a02 00       		.byte	0
 3620 0a03 29       		.uleb128 0x29
 3621 0a04 26000000 		.4byte	.LVL43
 3622 0a08 02       		.uleb128 0x2
 3623 0a09 77       		.byte	0x77
 3624 0a0a 00       		.sleb128 0
 3625 0a0b 210A0000 		.4byte	0xa21
 3626 0a0f 26       		.uleb128 0x26
 3627 0a10 01       		.uleb128 0x1
 3628 0a11 50       		.byte	0x50
 3629 0a12 02       		.uleb128 0x2
 3630 0a13 75       		.byte	0x75
 3631 0a14 00       		.sleb128 0
 3632 0a15 26       		.uleb128 0x26
 3633 0a16 01       		.uleb128 0x1
 3634 0a17 51       		.byte	0x51
 3635 0a18 02       		.uleb128 0x2
 3636 0a19 78       		.byte	0x78
 3637 0a1a 00       		.sleb128 0
 3638 0a1b 26       		.uleb128 0x26
 3639 0a1c 01       		.uleb128 0x1
 3640 0a1d 52       		.byte	0x52
 3641 0a1e 01       		.uleb128 0x1
 3642 0a1f 31       		.byte	0x31
 3643 0a20 00       		.byte	0
 3644 0a21 28       		.uleb128 0x28
 3645 0a22 32000000 		.4byte	.LVL47
 3646 0a26 DD1B0000 		.4byte	0x1bdd
 3647 0a2a 350A0000 		.4byte	0xa35
 3648 0a2e 26       		.uleb128 0x26
 3649 0a2f 01       		.uleb128 0x1
 3650 0a30 50       		.byte	0x50
 3651 0a31 02       		.uleb128 0x2
ARM GAS  C:\Users\samue\AppData\Local\Temp\ccYWUiYX.s 			page 79


 3652 0a32 76       		.byte	0x76
 3653 0a33 00       		.sleb128 0
 3654 0a34 00       		.byte	0
 3655 0a35 28       		.uleb128 0x28
 3656 0a36 3C000000 		.4byte	.LVL48
 3657 0a3a 7C070000 		.4byte	0x77c
 3658 0a3e 4F0A0000 		.4byte	0xa4f
 3659 0a42 26       		.uleb128 0x26
 3660 0a43 01       		.uleb128 0x1
 3661 0a44 50       		.byte	0x50
 3662 0a45 02       		.uleb128 0x2
 3663 0a46 74       		.byte	0x74
 3664 0a47 00       		.sleb128 0
 3665 0a48 26       		.uleb128 0x26
 3666 0a49 01       		.uleb128 0x1
 3667 0a4a 51       		.byte	0x51
 3668 0a4b 02       		.uleb128 0x2
 3669 0a4c 91       		.byte	0x91
 3670 0a4d 5C       		.sleb128 -36
 3671 0a4e 00       		.byte	0
 3672 0a4f 2C       		.uleb128 0x2c
 3673 0a50 46000000 		.4byte	.LVL49
 3674 0a54 FE1B0000 		.4byte	0x1bfe
 3675 0a58 28       		.uleb128 0x28
 3676 0a59 68000000 		.4byte	.LVL53
 3677 0a5d DD1B0000 		.4byte	0x1bdd
 3678 0a61 6C0A0000 		.4byte	0xa6c
 3679 0a65 26       		.uleb128 0x26
 3680 0a66 01       		.uleb128 0x1
 3681 0a67 50       		.byte	0x50
 3682 0a68 02       		.uleb128 0x2
 3683 0a69 76       		.byte	0x76
 3684 0a6a 00       		.sleb128 0
 3685 0a6b 00       		.byte	0
 3686 0a6c 29       		.uleb128 0x29
 3687 0a6d 72000000 		.4byte	.LVL54
 3688 0a71 02       		.uleb128 0x2
 3689 0a72 79       		.byte	0x79
 3690 0a73 00       		.sleb128 0
 3691 0a74 8B0A0000 		.4byte	0xa8b
 3692 0a78 26       		.uleb128 0x26
 3693 0a79 01       		.uleb128 0x1
 3694 0a7a 50       		.byte	0x50
 3695 0a7b 02       		.uleb128 0x2
 3696 0a7c 78       		.byte	0x78
 3697 0a7d 00       		.sleb128 0
 3698 0a7e 26       		.uleb128 0x26
 3699 0a7f 01       		.uleb128 0x1
 3700 0a80 51       		.byte	0x51
 3701 0a81 02       		.uleb128 0x2
 3702 0a82 75       		.byte	0x75
 3703 0a83 00       		.sleb128 0
 3704 0a84 26       		.uleb128 0x26
 3705 0a85 01       		.uleb128 0x1
 3706 0a86 52       		.byte	0x52
 3707 0a87 02       		.uleb128 0x2
 3708 0a88 77       		.byte	0x77
ARM GAS  C:\Users\samue\AppData\Local\Temp\ccYWUiYX.s 			page 80


 3709 0a89 00       		.sleb128 0
 3710 0a8a 00       		.byte	0
 3711 0a8b 2A       		.uleb128 0x2a
 3712 0a8c 8A000000 		.4byte	.LVL58
 3713 0a90 F31B0000 		.4byte	0x1bf3
 3714 0a94 26       		.uleb128 0x26
 3715 0a95 01       		.uleb128 0x1
 3716 0a96 50       		.byte	0x50
 3717 0a97 03       		.uleb128 0x3
 3718 0a98 74       		.byte	0x74
 3719 0a99 E400     		.sleb128 100
 3720 0a9b 00       		.byte	0
 3721 0a9c 00       		.byte	0
 3722 0a9d 2D       		.uleb128 0x2d
 3723 0a9e E5090000 		.4byte	.LASF143
 3724 0aa2 01       		.byte	0x1
 3725 0aa3 39       		.byte	0x39
 3726 0aa4 00000000 		.4byte	.LFB72
 3727 0aa8 50000000 		.4byte	.LFE72-.LFB72
 3728 0aac 01       		.uleb128 0x1
 3729 0aad 9C       		.byte	0x9c
 3730 0aae 5F0B0000 		.4byte	0xb5f
 3731 0ab2 1D       		.uleb128 0x1d
 3732 0ab3 6300     		.ascii	"c\000"
 3733 0ab5 01       		.byte	0x1
 3734 0ab6 39       		.byte	0x39
 3735 0ab7 76070000 		.4byte	0x776
 3736 0abb DE020000 		.4byte	.LLST20
 3737 0abf 1E       		.uleb128 0x1e
 3738 0ac0 C5050000 		.4byte	.LASF138
 3739 0ac4 01       		.byte	0x1
 3740 0ac5 39       		.byte	0x39
 3741 0ac6 3A040000 		.4byte	0x43a
 3742 0aca FC020000 		.4byte	.LLST21
 3743 0ace 1E       		.uleb128 0x1e
 3744 0acf EA040000 		.4byte	.LASF105
 3745 0ad3 01       		.byte	0x1
 3746 0ad4 39       		.byte	0x39
 3747 0ad5 00010000 		.4byte	0x100
 3748 0ad9 2A030000 		.4byte	.LLST22
 3749 0add 1E       		.uleb128 0x1e
 3750 0ade 53040000 		.4byte	.LASF139
 3751 0ae2 01       		.byte	0x1
 3752 0ae3 3A       		.byte	0x3a
 3753 0ae4 F0020000 		.4byte	0x2f0
 3754 0ae8 4B030000 		.4byte	.LLST23
 3755 0aec 1B       		.uleb128 0x1b
 3756 0aed 22000000 		.4byte	.LASF140
 3757 0af1 01       		.byte	0x1
 3758 0af2 3A       		.byte	0x3a
 3759 0af3 DC020000 		.4byte	0x2dc
 3760 0af7 02       		.uleb128 0x2
 3761 0af8 91       		.byte	0x91
 3762 0af9 00       		.sleb128 0
 3763 0afa 1B       		.uleb128 0x1b
 3764 0afb B6040000 		.4byte	.LASF108
 3765 0aff 01       		.byte	0x1
ARM GAS  C:\Users\samue\AppData\Local\Temp\ccYWUiYX.s 			page 81


 3766 0b00 3A       		.byte	0x3a
 3767 0b01 F0020000 		.4byte	0x2f0
 3768 0b05 02       		.uleb128 0x2
 3769 0b06 91       		.byte	0x91
 3770 0b07 04       		.sleb128 4
 3771 0b08 1B       		.uleb128 0x1b
 3772 0b09 AD090000 		.4byte	.LASF107
 3773 0b0d 01       		.byte	0x1
 3774 0b0e 3A       		.byte	0x3a
 3775 0b0f DC020000 		.4byte	0x2dc
 3776 0b13 02       		.uleb128 0x2
 3777 0b14 91       		.byte	0x91
 3778 0b15 08       		.sleb128 8
 3779 0b16 21       		.uleb128 0x21
 3780 0b17 6900     		.ascii	"i\000"
 3781 0b19 01       		.byte	0x1
 3782 0b1a 3C       		.byte	0x3c
 3783 0b1b 52010000 		.4byte	0x152
 3784 0b1f 78030000 		.4byte	.LLST24
 3785 0b23 28       		.uleb128 0x28
 3786 0b24 3E000000 		.4byte	.LVL69
 3787 0b28 091C0000 		.4byte	0x1c09
 3788 0b2c 380B0000 		.4byte	0xb38
 3789 0b30 26       		.uleb128 0x26
 3790 0b31 01       		.uleb128 0x1
 3791 0b32 50       		.byte	0x50
 3792 0b33 03       		.uleb128 0x3
 3793 0b34 74       		.byte	0x74
 3794 0b35 D800     		.sleb128 88
 3795 0b37 00       		.byte	0
 3796 0b38 28       		.uleb128 0x28
 3797 0b39 46000000 		.4byte	.LVL70
 3798 0b3d 091C0000 		.4byte	0x1c09
 3799 0b41 4D0B0000 		.4byte	0xb4d
 3800 0b45 26       		.uleb128 0x26
 3801 0b46 01       		.uleb128 0x1
 3802 0b47 50       		.byte	0x50
 3803 0b48 03       		.uleb128 0x3
 3804 0b49 74       		.byte	0x74
 3805 0b4a E400     		.sleb128 100
 3806 0b4c 00       		.byte	0
 3807 0b4d 2A       		.uleb128 0x2a
 3808 0b4e 4E000000 		.4byte	.LVL71
 3809 0b52 141C0000 		.4byte	0x1c14
 3810 0b56 26       		.uleb128 0x26
 3811 0b57 01       		.uleb128 0x1
 3812 0b58 50       		.byte	0x50
 3813 0b59 03       		.uleb128 0x3
 3814 0b5a 74       		.byte	0x74
 3815 0b5b F000     		.sleb128 112
 3816 0b5d 00       		.byte	0
 3817 0b5e 00       		.byte	0
 3818 0b5f 2E       		.uleb128 0x2e
 3819 0b60 61010000 		.4byte	.LASF141
 3820 0b64 01       		.byte	0x1
 3821 0b65 B3       		.byte	0xb3
 3822 0b66 52010000 		.4byte	0x152
ARM GAS  C:\Users\samue\AppData\Local\Temp\ccYWUiYX.s 			page 82


 3823 0b6a 00000000 		.4byte	.LFB76
 3824 0b6e 7A000000 		.4byte	.LFE76-.LFB76
 3825 0b72 01       		.uleb128 0x1
 3826 0b73 9C       		.byte	0x9c
 3827 0b74 710C0000 		.4byte	0xc71
 3828 0b78 1D       		.uleb128 0x1d
 3829 0b79 6300     		.ascii	"c\000"
 3830 0b7b 01       		.byte	0x1
 3831 0b7c B3       		.byte	0xb3
 3832 0b7d 76070000 		.4byte	0x776
 3833 0b81 97030000 		.4byte	.LLST25
 3834 0b85 1E       		.uleb128 0x1e
 3835 0b86 A9000000 		.4byte	.LASF35
 3836 0b8a 01       		.byte	0x1
 3837 0b8b B3       		.byte	0xb3
 3838 0b8c 75050000 		.4byte	0x575
 3839 0b90 B5030000 		.4byte	.LLST26
 3840 0b94 1E       		.uleb128 0x1e
 3841 0b95 97060000 		.4byte	.LASF36
 3842 0b99 01       		.byte	0x1
 3843 0b9a B3       		.byte	0xb3
 3844 0b9b 6F050000 		.4byte	0x56f
 3845 0b9f D3030000 		.4byte	.LLST27
 3846 0ba3 21       		.uleb128 0x21
 3847 0ba4 6900     		.ascii	"i\000"
 3848 0ba6 01       		.byte	0x1
 3849 0ba7 B5       		.byte	0xb5
 3850 0ba8 52010000 		.4byte	0x152
 3851 0bac F1030000 		.4byte	.LLST28
 3852 0bb0 21       		.uleb128 0x21
 3853 0bb1 726300   		.ascii	"rc\000"
 3854 0bb4 01       		.byte	0x1
 3855 0bb5 B6       		.byte	0xb6
 3856 0bb6 52010000 		.4byte	0x152
 3857 0bba 10040000 		.4byte	.LLST29
 3858 0bbe 2F       		.uleb128 0x2f
 3859 0bbf 3C000000 		.4byte	.LBB4
 3860 0bc3 18000000 		.4byte	.LBE4-.LBB4
 3861 0bc7 050C0000 		.4byte	0xc05
 3862 0bcb 1F       		.uleb128 0x1f
 3863 0bcc 6D6400   		.ascii	"md\000"
 3864 0bcf 01       		.byte	0x1
 3865 0bd0 C0       		.byte	0xc0
 3866 0bd1 7B050000 		.4byte	0x57b
 3867 0bd5 02       		.uleb128 0x2
 3868 0bd6 91       		.byte	0x91
 3869 0bd7 60       		.sleb128 -32
 3870 0bd8 28       		.uleb128 0x28
 3871 0bd9 46000000 		.4byte	.LVL77
 3872 0bdd 13070000 		.4byte	0x713
 3873 0be1 F80B0000 		.4byte	0xbf8
 3874 0be5 26       		.uleb128 0x26
 3875 0be6 01       		.uleb128 0x1
 3876 0be7 50       		.byte	0x50
 3877 0be8 02       		.uleb128 0x2
 3878 0be9 7D       		.byte	0x7d
 3879 0bea 00       		.sleb128 0
ARM GAS  C:\Users\samue\AppData\Local\Temp\ccYWUiYX.s 			page 83


 3880 0beb 26       		.uleb128 0x26
 3881 0bec 01       		.uleb128 0x1
 3882 0bed 51       		.byte	0x51
 3883 0bee 02       		.uleb128 0x2
 3884 0bef 76       		.byte	0x76
 3885 0bf0 00       		.sleb128 0
 3886 0bf1 26       		.uleb128 0x26
 3887 0bf2 01       		.uleb128 0x1
 3888 0bf3 52       		.byte	0x52
 3889 0bf4 02       		.uleb128 0x2
 3890 0bf5 78       		.byte	0x78
 3891 0bf6 00       		.sleb128 0
 3892 0bf7 00       		.byte	0
 3893 0bf8 30       		.uleb128 0x30
 3894 0bf9 52000000 		.4byte	.LVL78
 3895 0bfd 26       		.uleb128 0x26
 3896 0bfe 01       		.uleb128 0x1
 3897 0bff 50       		.byte	0x50
 3898 0c00 02       		.uleb128 0x2
 3899 0c01 7D       		.byte	0x7d
 3900 0c02 00       		.sleb128 0
 3901 0c03 00       		.byte	0
 3902 0c04 00       		.byte	0
 3903 0c05 2F       		.uleb128 0x2f
 3904 0c06 60000000 		.4byte	.LBB5
 3905 0c0a 12000000 		.4byte	.LBE5-.LBB5
 3906 0c0e 4C0C0000 		.4byte	0xc4c
 3907 0c12 1F       		.uleb128 0x1f
 3908 0c13 6D6400   		.ascii	"md\000"
 3909 0c16 01       		.byte	0x1
 3910 0c17 CA       		.byte	0xca
 3911 0c18 7B050000 		.4byte	0x57b
 3912 0c1c 02       		.uleb128 0x2
 3913 0c1d 91       		.byte	0x91
 3914 0c1e 60       		.sleb128 -32
 3915 0c1f 28       		.uleb128 0x28
 3916 0c20 6A000000 		.4byte	.LVL81
 3917 0c24 13070000 		.4byte	0x713
 3918 0c28 3F0C0000 		.4byte	0xc3f
 3919 0c2c 26       		.uleb128 0x26
 3920 0c2d 01       		.uleb128 0x1
 3921 0c2e 50       		.byte	0x50
 3922 0c2f 02       		.uleb128 0x2
 3923 0c30 7D       		.byte	0x7d
 3924 0c31 00       		.sleb128 0
 3925 0c32 26       		.uleb128 0x26
 3926 0c33 01       		.uleb128 0x1
 3927 0c34 51       		.byte	0x51
 3928 0c35 02       		.uleb128 0x2
 3929 0c36 76       		.byte	0x76
 3930 0c37 00       		.sleb128 0
 3931 0c38 26       		.uleb128 0x26
 3932 0c39 01       		.uleb128 0x1
 3933 0c3a 52       		.byte	0x52
 3934 0c3b 02       		.uleb128 0x2
 3935 0c3c 78       		.byte	0x78
 3936 0c3d 00       		.sleb128 0
ARM GAS  C:\Users\samue\AppData\Local\Temp\ccYWUiYX.s 			page 84


 3937 0c3e 00       		.byte	0
 3938 0c3f 30       		.uleb128 0x30
 3939 0c40 70000000 		.4byte	.LVL82
 3940 0c44 26       		.uleb128 0x26
 3941 0c45 01       		.uleb128 0x1
 3942 0c46 50       		.byte	0x50
 3943 0c47 02       		.uleb128 0x2
 3944 0c48 7D       		.byte	0x7d
 3945 0c49 00       		.sleb128 0
 3946 0c4a 00       		.byte	0
 3947 0c4b 00       		.byte	0
 3948 0c4c 28       		.uleb128 0x28
 3949 0c4d 22000000 		.4byte	.LVL75
 3950 0c51 1F1C0000 		.4byte	0x1c1f
 3951 0c55 600C0000 		.4byte	0xc60
 3952 0c59 26       		.uleb128 0x26
 3953 0c5a 01       		.uleb128 0x1
 3954 0c5b 50       		.byte	0x50
 3955 0c5c 02       		.uleb128 0x2
 3956 0c5d 76       		.byte	0x76
 3957 0c5e 00       		.sleb128 0
 3958 0c5f 00       		.byte	0
 3959 0c60 2A       		.uleb128 0x2a
 3960 0c61 30000000 		.4byte	.LVL76
 3961 0c65 3F080000 		.4byte	0x83f
 3962 0c69 26       		.uleb128 0x26
 3963 0c6a 01       		.uleb128 0x1
 3964 0c6b 51       		.byte	0x51
 3965 0c6c 02       		.uleb128 0x2
 3966 0c6d 76       		.byte	0x76
 3967 0c6e 00       		.sleb128 0
 3968 0c6f 00       		.byte	0
 3969 0c70 00       		.byte	0
 3970 0c71 2E       		.uleb128 0x2e
 3971 0c72 57010000 		.4byte	.LASF142
 3972 0c76 01       		.byte	0x1
 3973 0c77 D4       		.byte	0xd4
 3974 0c78 52010000 		.4byte	0x152
 3975 0c7c 00000000 		.4byte	.LFB77
 3976 0c80 66000000 		.4byte	.LFE77-.LFB77
 3977 0c84 01       		.uleb128 0x1
 3978 0c85 9C       		.byte	0x9c
 3979 0c86 500D0000 		.4byte	0xd50
 3980 0c8a 1D       		.uleb128 0x1d
 3981 0c8b 6300     		.ascii	"c\000"
 3982 0c8d 01       		.byte	0x1
 3983 0c8e D4       		.byte	0xd4
 3984 0c8f 76070000 		.4byte	0x776
 3985 0c93 5E040000 		.4byte	.LLST30
 3986 0c97 21       		.uleb128 0x21
 3987 0c98 726300   		.ascii	"rc\000"
 3988 0c9b 01       		.byte	0x1
 3989 0c9c D6       		.byte	0xd6
 3990 0c9d 52010000 		.4byte	0x152
 3991 0ca1 A0040000 		.4byte	.LLST31
 3992 0ca5 23       		.uleb128 0x23
 3993 0ca6 67080000 		.4byte	.LASF137
ARM GAS  C:\Users\samue\AppData\Local\Temp\ccYWUiYX.s 			page 85


 3994 0caa 01       		.byte	0x1
 3995 0cab EA       		.byte	0xea
 3996 0cac 60000000 		.4byte	.L48
 3997 0cb0 2F       		.uleb128 0x2f
 3998 0cb1 20000000 		.4byte	.LBB6
 3999 0cb5 2E000000 		.4byte	.LBE6-.LBB6
 4000 0cb9 290D0000 		.4byte	0xd29
 4001 0cbd 27       		.uleb128 0x27
 4002 0cbe DF090000 		.4byte	.LASF133
 4003 0cc2 01       		.byte	0x1
 4004 0cc3 E1       		.byte	0xe1
 4005 0cc4 B1030000 		.4byte	0x3b1
 4006 0cc8 02       		.uleb128 0x2
 4007 0cc9 91       		.byte	0x91
 4008 0cca 6C       		.sleb128 -20
 4009 0ccb 21       		.uleb128 0x21
 4010 0ccc 6C656E00 		.ascii	"len\000"
 4011 0cd0 01       		.byte	0x1
 4012 0cd1 E4       		.byte	0xe4
 4013 0cd2 52010000 		.4byte	0x152
 4014 0cd6 ED040000 		.4byte	.LLST32
 4015 0cda 28       		.uleb128 0x28
 4016 0cdb 26000000 		.4byte	.LVL88
 4017 0cdf 091C0000 		.4byte	0x1c09
 4018 0ce3 EE0C0000 		.4byte	0xcee
 4019 0ce7 26       		.uleb128 0x26
 4020 0ce8 01       		.uleb128 0x1
 4021 0ce9 50       		.byte	0x50
 4022 0cea 02       		.uleb128 0x2
 4023 0ceb 91       		.byte	0x91
 4024 0cec 6C       		.sleb128 -20
 4025 0ced 00       		.byte	0
 4026 0cee 28       		.uleb128 0x28
 4027 0cef 30000000 		.4byte	.LVL89
 4028 0cf3 2A1C0000 		.4byte	0x1c2a
 4029 0cf7 090D0000 		.4byte	0xd09
 4030 0cfb 26       		.uleb128 0x26
 4031 0cfc 01       		.uleb128 0x1
 4032 0cfd 50       		.byte	0x50
 4033 0cfe 02       		.uleb128 0x2
 4034 0cff 91       		.byte	0x91
 4035 0d00 6C       		.sleb128 -20
 4036 0d01 26       		.uleb128 0x26
 4037 0d02 01       		.uleb128 0x1
 4038 0d03 51       		.byte	0x51
 4039 0d04 03       		.uleb128 0x3
 4040 0d05 0A       		.byte	0xa
 4041 0d06 E803     		.2byte	0x3e8
 4042 0d08 00       		.byte	0
 4043 0d09 2C       		.uleb128 0x2c
 4044 0d0a 38000000 		.4byte	.LVL90
 4045 0d0e 351C0000 		.4byte	0x1c35
 4046 0d12 2A       		.uleb128 0x2a
 4047 0d13 44000000 		.4byte	.LVL92
 4048 0d17 B9080000 		.4byte	0x8b9
 4049 0d1b 26       		.uleb128 0x26
 4050 0d1c 01       		.uleb128 0x1
ARM GAS  C:\Users\samue\AppData\Local\Temp\ccYWUiYX.s 			page 86


 4051 0d1d 50       		.byte	0x50
 4052 0d1e 02       		.uleb128 0x2
 4053 0d1f 74       		.byte	0x74
 4054 0d20 00       		.sleb128 0
 4055 0d21 26       		.uleb128 0x26
 4056 0d22 01       		.uleb128 0x1
 4057 0d23 52       		.byte	0x52
 4058 0d24 02       		.uleb128 0x2
 4059 0d25 91       		.byte	0x91
 4060 0d26 6C       		.sleb128 -20
 4061 0d27 00       		.byte	0
 4062 0d28 00       		.byte	0
 4063 0d29 28       		.uleb128 0x28
 4064 0d2a 10000000 		.4byte	.LVL86
 4065 0d2e E81B0000 		.4byte	0x1be8
 4066 0d32 3E0D0000 		.4byte	0xd3e
 4067 0d36 26       		.uleb128 0x26
 4068 0d37 01       		.uleb128 0x1
 4069 0d38 50       		.byte	0x50
 4070 0d39 03       		.uleb128 0x3
 4071 0d3a 74       		.byte	0x74
 4072 0d3b D800     		.sleb128 88
 4073 0d3d 00       		.byte	0
 4074 0d3e 2A       		.uleb128 0x2a
 4075 0d3f 1A000000 		.4byte	.LVL87
 4076 0d43 E81B0000 		.4byte	0x1be8
 4077 0d47 26       		.uleb128 0x26
 4078 0d48 01       		.uleb128 0x1
 4079 0d49 50       		.byte	0x50
 4080 0d4a 03       		.uleb128 0x3
 4081 0d4b 74       		.byte	0x74
 4082 0d4c E400     		.sleb128 100
 4083 0d4e 00       		.byte	0
 4084 0d4f 00       		.byte	0
 4085 0d50 2D       		.uleb128 0x2d
 4086 0d51 C5040000 		.4byte	.LASF144
 4087 0d55 01       		.byte	0x1
 4088 0d56 EF       		.byte	0xef
 4089 0d57 00000000 		.4byte	.LFB78
 4090 0d5b 14000000 		.4byte	.LFE78-.LFB78
 4091 0d5f 01       		.uleb128 0x1
 4092 0d60 9C       		.byte	0x9c
 4093 0d61 7E0D0000 		.4byte	0xd7e
 4094 0d65 1A       		.uleb128 0x1a
 4095 0d66 6300     		.ascii	"c\000"
 4096 0d68 01       		.byte	0x1
 4097 0d69 EF       		.byte	0xef
 4098 0d6a 76070000 		.4byte	0x776
 4099 0d6e 01       		.uleb128 0x1
 4100 0d6f 50       		.byte	0x50
 4101 0d70 21       		.uleb128 0x21
 4102 0d71 6900     		.ascii	"i\000"
 4103 0d73 01       		.byte	0x1
 4104 0d74 F1       		.byte	0xf1
 4105 0d75 52010000 		.4byte	0x152
 4106 0d79 16050000 		.4byte	.LLST33
 4107 0d7d 00       		.byte	0
ARM GAS  C:\Users\samue\AppData\Local\Temp\ccYWUiYX.s 			page 87


 4108 0d7e 2D       		.uleb128 0x2d
 4109 0d7f CE090000 		.4byte	.LASF145
 4110 0d83 01       		.byte	0x1
 4111 0d84 F8       		.byte	0xf8
 4112 0d85 00000000 		.4byte	.LFB79
 4113 0d89 12000000 		.4byte	.LFE79-.LFB79
 4114 0d8d 01       		.uleb128 0x1
 4115 0d8e 9C       		.byte	0x9c
 4116 0d8f B20D0000 		.4byte	0xdb2
 4117 0d93 1D       		.uleb128 0x1d
 4118 0d94 6300     		.ascii	"c\000"
 4119 0d96 01       		.byte	0x1
 4120 0d97 F8       		.byte	0xf8
 4121 0d98 76070000 		.4byte	0x776
 4122 0d9c 35050000 		.4byte	.LLST34
 4123 0da0 2A       		.uleb128 0x2a
 4124 0da1 10000000 		.4byte	.LVL103
 4125 0da5 500D0000 		.4byte	0xd50
 4126 0da9 26       		.uleb128 0x26
 4127 0daa 01       		.uleb128 0x1
 4128 0dab 50       		.byte	0x50
 4129 0dac 03       		.uleb128 0x3
 4130 0dad F3       		.byte	0xf3
 4131 0dae 01       		.uleb128 0x1
 4132 0daf 50       		.byte	0x50
 4133 0db0 00       		.byte	0
 4134 0db1 00       		.byte	0
 4135 0db2 31       		.uleb128 0x31
 4136 0db3 85090000 		.4byte	.LASF146
 4137 0db7 01       		.byte	0x1
 4138 0db8 0101     		.2byte	0x101
 4139 0dba 52010000 		.4byte	0x152
 4140 0dbe 00000000 		.4byte	.LFB80
 4141 0dc2 4C010000 		.4byte	.LFE80-.LFB80
 4142 0dc6 01       		.uleb128 0x1
 4143 0dc7 9C       		.byte	0x9c
 4144 0dc8 C00F0000 		.4byte	0xfc0
 4145 0dcc 32       		.uleb128 0x32
 4146 0dcd 6300     		.ascii	"c\000"
 4147 0dcf 01       		.byte	0x1
 4148 0dd0 0101     		.2byte	0x101
 4149 0dd2 76070000 		.4byte	0x776
 4150 0dd6 56050000 		.4byte	.LLST35
 4151 0dda 33       		.uleb128 0x33
 4152 0ddb DF090000 		.4byte	.LASF133
 4153 0ddf 01       		.byte	0x1
 4154 0de0 0101     		.2byte	0x101
 4155 0de2 73090000 		.4byte	0x973
 4156 0de6 74050000 		.4byte	.LLST36
 4157 0dea 34       		.uleb128 0x34
 4158 0deb 6C656E00 		.ascii	"len\000"
 4159 0def 01       		.byte	0x1
 4160 0df0 0301     		.2byte	0x103
 4161 0df2 52010000 		.4byte	0x152
 4162 0df6 81060000 		.4byte	.LLST37
 4163 0dfa 34       		.uleb128 0x34
 4164 0dfb 726300   		.ascii	"rc\000"
ARM GAS  C:\Users\samue\AppData\Local\Temp\ccYWUiYX.s 			page 88


 4165 0dfe 01       		.byte	0x1
 4166 0dff 0401     		.2byte	0x104
 4167 0e01 52010000 		.4byte	0x152
 4168 0e05 2A070000 		.4byte	.LLST38
 4169 0e09 35       		.uleb128 0x35
 4170 0e0a CA010000 		.4byte	.LASF147
 4171 0e0e 01       		.byte	0x1
 4172 0e0f 0601     		.2byte	0x106
 4173 0e11 52010000 		.4byte	0x152
 4174 0e15 C7070000 		.4byte	.LLST39
 4175 0e19 36       		.uleb128 0x36
 4176 0e1a 67080000 		.4byte	.LASF137
 4177 0e1e 01       		.byte	0x1
 4178 0e1f 4C01     		.2byte	0x14c
 4179 0e21 36010000 		.4byte	.L63
 4180 0e25 37       		.uleb128 0x37
 4181 0e26 00000000 		.4byte	.Ldebug_ranges0+0
 4182 0e2a FD0E0000 		.4byte	0xefd
 4183 0e2e 38       		.uleb128 0x38
 4184 0e2f A9000000 		.4byte	.LASF35
 4185 0e33 01       		.byte	0x1
 4186 0e34 1701     		.2byte	0x117
 4187 0e36 92010000 		.4byte	0x192
 4188 0e3a 02       		.uleb128 0x2
 4189 0e3b 91       		.byte	0x91
 4190 0e3c 54       		.sleb128 -44
 4191 0e3d 39       		.uleb128 0x39
 4192 0e3e 6D736700 		.ascii	"msg\000"
 4193 0e42 01       		.byte	0x1
 4194 0e43 1801     		.2byte	0x118
 4195 0e45 3F050000 		.4byte	0x53f
 4196 0e49 02       		.uleb128 0x2
 4197 0e4a 91       		.byte	0x91
 4198 0e4b 60       		.sleb128 -32
 4199 0e4c 38       		.uleb128 0x38
 4200 0e4d 1B040000 		.4byte	.LASF148
 4201 0e51 01       		.byte	0x1
 4202 0e52 1901     		.2byte	0x119
 4203 0e54 52010000 		.4byte	0x152
 4204 0e58 02       		.uleb128 0x2
 4205 0e59 91       		.byte	0x91
 4206 0e5a 50       		.sleb128 -48
 4207 0e5b 28       		.uleb128 0x28
 4208 0e5c 4E000000 		.4byte	.LVL109
 4209 0e60 401C0000 		.4byte	0x1c40
 4210 0e64 960E0000 		.4byte	0xe96
 4211 0e68 26       		.uleb128 0x26
 4212 0e69 01       		.uleb128 0x1
 4213 0e6a 50       		.byte	0x50
 4214 0e6b 02       		.uleb128 0x2
 4215 0e6c 91       		.byte	0x91
 4216 0e6d 62       		.sleb128 -30
 4217 0e6e 26       		.uleb128 0x26
 4218 0e6f 01       		.uleb128 0x1
 4219 0e70 51       		.byte	0x51
 4220 0e71 02       		.uleb128 0x2
 4221 0e72 91       		.byte	0x91
ARM GAS  C:\Users\samue\AppData\Local\Temp\ccYWUiYX.s 			page 89


 4222 0e73 50       		.sleb128 -48
 4223 0e74 26       		.uleb128 0x26
 4224 0e75 01       		.uleb128 0x1
 4225 0e76 52       		.byte	0x52
 4226 0e77 02       		.uleb128 0x2
 4227 0e78 91       		.byte	0x91
 4228 0e79 61       		.sleb128 -31
 4229 0e7a 26       		.uleb128 0x26
 4230 0e7b 01       		.uleb128 0x1
 4231 0e7c 53       		.byte	0x53
 4232 0e7d 02       		.uleb128 0x2
 4233 0e7e 91       		.byte	0x91
 4234 0e7f 64       		.sleb128 -28
 4235 0e80 26       		.uleb128 0x26
 4236 0e81 02       		.uleb128 0x2
 4237 0e82 7D       		.byte	0x7d
 4238 0e83 00       		.sleb128 0
 4239 0e84 02       		.uleb128 0x2
 4240 0e85 91       		.byte	0x91
 4241 0e86 54       		.sleb128 -44
 4242 0e87 26       		.uleb128 0x26
 4243 0e88 02       		.uleb128 0x2
 4244 0e89 7D       		.byte	0x7d
 4245 0e8a 04       		.sleb128 4
 4246 0e8b 02       		.uleb128 0x2
 4247 0e8c 91       		.byte	0x91
 4248 0e8d 68       		.sleb128 -24
 4249 0e8e 26       		.uleb128 0x26
 4250 0e8f 02       		.uleb128 0x2
 4251 0e90 7D       		.byte	0x7d
 4252 0e91 08       		.sleb128 8
 4253 0e92 02       		.uleb128 0x2
 4254 0e93 91       		.byte	0x91
 4255 0e94 6C       		.sleb128 -20
 4256 0e95 00       		.byte	0
 4257 0e96 28       		.uleb128 0x28
 4258 0e97 64000000 		.4byte	.LVL110
 4259 0e9b 5F0B0000 		.4byte	0xb5f
 4260 0e9f B60E0000 		.4byte	0xeb6
 4261 0ea3 26       		.uleb128 0x26
 4262 0ea4 01       		.uleb128 0x1
 4263 0ea5 50       		.byte	0x50
 4264 0ea6 02       		.uleb128 0x2
 4265 0ea7 75       		.byte	0x75
 4266 0ea8 00       		.sleb128 0
 4267 0ea9 26       		.uleb128 0x26
 4268 0eaa 01       		.uleb128 0x1
 4269 0eab 51       		.byte	0x51
 4270 0eac 02       		.uleb128 0x2
 4271 0ead 91       		.byte	0x91
 4272 0eae 54       		.sleb128 -44
 4273 0eaf 26       		.uleb128 0x26
 4274 0eb0 01       		.uleb128 0x1
 4275 0eb1 52       		.byte	0x52
 4276 0eb2 02       		.uleb128 0x2
 4277 0eb3 91       		.byte	0x91
 4278 0eb4 60       		.sleb128 -32
ARM GAS  C:\Users\samue\AppData\Local\Temp\ccYWUiYX.s 			page 90


 4279 0eb5 00       		.byte	0
 4280 0eb6 28       		.uleb128 0x28
 4281 0eb7 80000000 		.4byte	.LVL111
 4282 0ebb 4B1C0000 		.4byte	0x1c4b
 4283 0ebf CE0E0000 		.4byte	0xece
 4284 0ec3 26       		.uleb128 0x26
 4285 0ec4 01       		.uleb128 0x1
 4286 0ec5 52       		.byte	0x52
 4287 0ec6 01       		.uleb128 0x1
 4288 0ec7 34       		.byte	0x34
 4289 0ec8 26       		.uleb128 0x26
 4290 0ec9 01       		.uleb128 0x1
 4291 0eca 53       		.byte	0x53
 4292 0ecb 01       		.uleb128 0x1
 4293 0ecc 30       		.byte	0x30
 4294 0ecd 00       		.byte	0
 4295 0ece 28       		.uleb128 0x28
 4296 0ecf 9A000000 		.4byte	.LVL114
 4297 0ed3 4B1C0000 		.4byte	0x1c4b
 4298 0ed7 E60E0000 		.4byte	0xee6
 4299 0edb 26       		.uleb128 0x26
 4300 0edc 01       		.uleb128 0x1
 4301 0edd 52       		.byte	0x52
 4302 0ede 01       		.uleb128 0x1
 4303 0edf 35       		.byte	0x35
 4304 0ee0 26       		.uleb128 0x26
 4305 0ee1 01       		.uleb128 0x1
 4306 0ee2 53       		.byte	0x53
 4307 0ee3 01       		.uleb128 0x1
 4308 0ee4 30       		.byte	0x30
 4309 0ee5 00       		.byte	0
 4310 0ee6 2A       		.uleb128 0x2a
 4311 0ee7 AC000000 		.4byte	.LVL118
 4312 0eeb B9080000 		.4byte	0x8b9
 4313 0eef 26       		.uleb128 0x26
 4314 0ef0 01       		.uleb128 0x1
 4315 0ef1 50       		.byte	0x50
 4316 0ef2 02       		.uleb128 0x2
 4317 0ef3 75       		.byte	0x75
 4318 0ef4 00       		.sleb128 0
 4319 0ef5 26       		.uleb128 0x26
 4320 0ef6 01       		.uleb128 0x1
 4321 0ef7 52       		.byte	0x52
 4322 0ef8 02       		.uleb128 0x2
 4323 0ef9 74       		.byte	0x74
 4324 0efa 00       		.sleb128 0
 4325 0efb 00       		.byte	0
 4326 0efc 00       		.byte	0
 4327 0efd 2F       		.uleb128 0x2f
 4328 0efe C4000000 		.4byte	.LBB9
 4329 0f02 58000000 		.4byte	.LBE9-.LBB9
 4330 0f06 810F0000 		.4byte	0xf81
 4331 0f0a 38       		.uleb128 0x38
 4332 0f0b 71070000 		.4byte	.LASF149
 4333 0f0f 01       		.byte	0x1
 4334 0f10 3201     		.2byte	0x132
 4335 0f12 91020000 		.4byte	0x291
ARM GAS  C:\Users\samue\AppData\Local\Temp\ccYWUiYX.s 			page 91


 4336 0f16 02       		.uleb128 0x2
 4337 0f17 91       		.byte	0x91
 4338 0f18 60       		.sleb128 -32
 4339 0f19 39       		.uleb128 0x39
 4340 0f1a 64757000 		.ascii	"dup\000"
 4341 0f1e 01       		.byte	0x1
 4342 0f1f 3301     		.2byte	0x133
 4343 0f21 B4000000 		.4byte	0xb4
 4344 0f25 02       		.uleb128 0x2
 4345 0f26 91       		.byte	0x91
 4346 0f27 50       		.sleb128 -48
 4347 0f28 38       		.uleb128 0x38
 4348 0f29 D7000000 		.4byte	.LASF22
 4349 0f2d 01       		.byte	0x1
 4350 0f2e 3301     		.2byte	0x133
 4351 0f30 B4000000 		.4byte	0xb4
 4352 0f34 02       		.uleb128 0x2
 4353 0f35 91       		.byte	0x91
 4354 0f36 54       		.sleb128 -44
 4355 0f37 28       		.uleb128 0x28
 4356 0f38 D4000000 		.4byte	.LVL128
 4357 0f3c 561C0000 		.4byte	0x1c56
 4358 0f40 570F0000 		.4byte	0xf57
 4359 0f44 26       		.uleb128 0x26
 4360 0f45 01       		.uleb128 0x1
 4361 0f46 50       		.byte	0x50
 4362 0f47 02       		.uleb128 0x2
 4363 0f48 91       		.byte	0x91
 4364 0f49 54       		.sleb128 -44
 4365 0f4a 26       		.uleb128 0x26
 4366 0f4b 01       		.uleb128 0x1
 4367 0f4c 51       		.byte	0x51
 4368 0f4d 02       		.uleb128 0x2
 4369 0f4e 91       		.byte	0x91
 4370 0f4f 50       		.sleb128 -48
 4371 0f50 26       		.uleb128 0x26
 4372 0f51 01       		.uleb128 0x1
 4373 0f52 52       		.byte	0x52
 4374 0f53 02       		.uleb128 0x2
 4375 0f54 91       		.byte	0x91
 4376 0f55 60       		.sleb128 -32
 4377 0f56 00       		.byte	0
 4378 0f57 28       		.uleb128 0x28
 4379 0f58 F2000000 		.4byte	.LVL129
 4380 0f5c 4B1C0000 		.4byte	0x1c4b
 4381 0f60 6A0F0000 		.4byte	0xf6a
 4382 0f64 26       		.uleb128 0x26
 4383 0f65 01       		.uleb128 0x1
 4384 0f66 53       		.byte	0x53
 4385 0f67 01       		.uleb128 0x1
 4386 0f68 30       		.byte	0x30
 4387 0f69 00       		.byte	0
 4388 0f6a 2A       		.uleb128 0x2a
 4389 0f6b FE000000 		.4byte	.LVL131
 4390 0f6f B9080000 		.4byte	0x8b9
 4391 0f73 26       		.uleb128 0x26
 4392 0f74 01       		.uleb128 0x1
ARM GAS  C:\Users\samue\AppData\Local\Temp\ccYWUiYX.s 			page 92


 4393 0f75 50       		.byte	0x50
 4394 0f76 02       		.uleb128 0x2
 4395 0f77 75       		.byte	0x75
 4396 0f78 00       		.sleb128 0
 4397 0f79 26       		.uleb128 0x26
 4398 0f7a 01       		.uleb128 0x1
 4399 0f7b 52       		.byte	0x52
 4400 0f7c 02       		.uleb128 0x2
 4401 0f7d 74       		.byte	0x74
 4402 0f7e 00       		.sleb128 0
 4403 0f7f 00       		.byte	0
 4404 0f80 00       		.byte	0
 4405 0f81 28       		.uleb128 0x28
 4406 0f82 0C000000 		.4byte	.LVL106
 4407 0f86 79090000 		.4byte	0x979
 4408 0f8a 9B0F0000 		.4byte	0xf9b
 4409 0f8e 26       		.uleb128 0x26
 4410 0f8f 01       		.uleb128 0x1
 4411 0f90 50       		.byte	0x50
 4412 0f91 02       		.uleb128 0x2
 4413 0f92 75       		.byte	0x75
 4414 0f93 00       		.sleb128 0
 4415 0f94 26       		.uleb128 0x26
 4416 0f95 01       		.uleb128 0x1
 4417 0f96 51       		.byte	0x51
 4418 0f97 02       		.uleb128 0x2
 4419 0f98 74       		.byte	0x74
 4420 0f99 00       		.sleb128 0
 4421 0f9a 00       		.byte	0
 4422 0f9b 28       		.uleb128 0x28
 4423 0f9c 2A010000 		.4byte	.LVL143
 4424 0fa0 710C0000 		.4byte	0xc71
 4425 0fa4 AF0F0000 		.4byte	0xfaf
 4426 0fa8 26       		.uleb128 0x26
 4427 0fa9 01       		.uleb128 0x1
 4428 0faa 50       		.byte	0x50
 4429 0fab 02       		.uleb128 0x2
 4430 0fac 75       		.byte	0x75
 4431 0fad 00       		.sleb128 0
 4432 0fae 00       		.byte	0
 4433 0faf 2A       		.uleb128 0x2a
 4434 0fb0 42010000 		.4byte	.LVL148
 4435 0fb4 7E0D0000 		.4byte	0xd7e
 4436 0fb8 26       		.uleb128 0x26
 4437 0fb9 01       		.uleb128 0x1
 4438 0fba 50       		.byte	0x50
 4439 0fbb 02       		.uleb128 0x2
 4440 0fbc 75       		.byte	0x75
 4441 0fbd 00       		.sleb128 0
 4442 0fbe 00       		.byte	0
 4443 0fbf 00       		.byte	0
 4444 0fc0 3A       		.uleb128 0x3a
 4445 0fc1 81080000 		.4byte	.LASF150
 4446 0fc5 01       		.byte	0x1
 4447 0fc6 6E01     		.2byte	0x16e
 4448 0fc8 00000000 		.4byte	.LFB83
 4449 0fcc 36000000 		.4byte	.LFE83-.LFB83
ARM GAS  C:\Users\samue\AppData\Local\Temp\ccYWUiYX.s 			page 93


 4450 0fd0 01       		.uleb128 0x1
 4451 0fd1 9C       		.byte	0x9c
 4452 0fd2 84100000 		.4byte	0x1084
 4453 0fd6 33       		.uleb128 0x33
 4454 0fd7 37090000 		.4byte	.LASF151
 4455 0fdb 01       		.byte	0x1
 4456 0fdc 6E01     		.2byte	0x16e
 4457 0fde EE020000 		.4byte	0x2ee
 4458 0fe2 27080000 		.4byte	.LLST40
 4459 0fe6 38       		.uleb128 0x38
 4460 0fe7 DF090000 		.4byte	.LASF133
 4461 0feb 01       		.byte	0x1
 4462 0fec 7001     		.2byte	0x170
 4463 0fee B1030000 		.4byte	0x3b1
 4464 0ff2 02       		.uleb128 0x2
 4465 0ff3 91       		.byte	0x91
 4466 0ff4 64       		.sleb128 -28
 4467 0ff5 34       		.uleb128 0x34
 4468 0ff6 6300     		.ascii	"c\000"
 4469 0ff8 01       		.byte	0x1
 4470 0ff9 7101     		.2byte	0x171
 4471 0ffb 76070000 		.4byte	0x776
 4472 0fff 45080000 		.4byte	.LLST41
 4473 1003 28       		.uleb128 0x28
 4474 1004 0C000000 		.4byte	.LVL153
 4475 1008 091C0000 		.4byte	0x1c09
 4476 100c 17100000 		.4byte	0x1017
 4477 1010 26       		.uleb128 0x26
 4478 1011 01       		.uleb128 0x1
 4479 1012 50       		.byte	0x50
 4480 1013 02       		.uleb128 0x2
 4481 1014 91       		.byte	0x91
 4482 1015 64       		.sleb128 -28
 4483 1016 00       		.byte	0
 4484 1017 28       		.uleb128 0x28
 4485 1018 16000000 		.4byte	.LVL154
 4486 101c 611C0000 		.4byte	0x1c61
 4487 1020 2B100000 		.4byte	0x102b
 4488 1024 26       		.uleb128 0x26
 4489 1025 01       		.uleb128 0x1
 4490 1026 50       		.byte	0x50
 4491 1027 02       		.uleb128 0x2
 4492 1028 74       		.byte	0x74
 4493 1029 00       		.sleb128 0
 4494 102a 00       		.byte	0
 4495 102b 28       		.uleb128 0x28
 4496 102c 20000000 		.4byte	.LVL155
 4497 1030 2A1C0000 		.4byte	0x1c2a
 4498 1034 46100000 		.4byte	0x1046
 4499 1038 26       		.uleb128 0x26
 4500 1039 01       		.uleb128 0x1
 4501 103a 50       		.byte	0x50
 4502 103b 02       		.uleb128 0x2
 4503 103c 91       		.byte	0x91
 4504 103d 64       		.sleb128 -28
 4505 103e 26       		.uleb128 0x26
 4506 103f 01       		.uleb128 0x1
ARM GAS  C:\Users\samue\AppData\Local\Temp\ccYWUiYX.s 			page 94


 4507 1040 51       		.byte	0x51
 4508 1041 03       		.uleb128 0x3
 4509 1042 0A       		.byte	0xa
 4510 1043 F401     		.2byte	0x1f4
 4511 1045 00       		.byte	0
 4512 1046 28       		.uleb128 0x28
 4513 1047 28000000 		.4byte	.LVL156
 4514 104b B20D0000 		.4byte	0xdb2
 4515 104f 60100000 		.4byte	0x1060
 4516 1053 26       		.uleb128 0x26
 4517 1054 01       		.uleb128 0x1
 4518 1055 50       		.byte	0x50
 4519 1056 02       		.uleb128 0x2
 4520 1057 75       		.byte	0x75
 4521 1058 00       		.sleb128 0
 4522 1059 26       		.uleb128 0x26
 4523 105a 01       		.uleb128 0x1
 4524 105b 51       		.byte	0x51
 4525 105c 02       		.uleb128 0x2
 4526 105d 91       		.byte	0x91
 4527 105e 64       		.sleb128 -28
 4528 105f 00       		.byte	0
 4529 1060 28       		.uleb128 0x28
 4530 1061 2E000000 		.4byte	.LVL157
 4531 1065 6C1C0000 		.4byte	0x1c6c
 4532 1069 74100000 		.4byte	0x1074
 4533 106d 26       		.uleb128 0x26
 4534 106e 01       		.uleb128 0x1
 4535 106f 50       		.byte	0x50
 4536 1070 02       		.uleb128 0x2
 4537 1071 74       		.byte	0x74
 4538 1072 00       		.sleb128 0
 4539 1073 00       		.byte	0
 4540 1074 2A       		.uleb128 0x2a
 4541 1075 34000000 		.4byte	.LVL158
 4542 1079 771C0000 		.4byte	0x1c77
 4543 107d 26       		.uleb128 0x26
 4544 107e 01       		.uleb128 0x1
 4545 107f 50       		.byte	0x50
 4546 1080 01       		.uleb128 0x1
 4547 1081 3A       		.byte	0x3a
 4548 1082 00       		.byte	0
 4549 1083 00       		.byte	0
 4550 1084 31       		.uleb128 0x31
 4551 1085 D4060000 		.4byte	.LASF152
 4552 1089 01       		.byte	0x1
 4553 108a 5501     		.2byte	0x155
 4554 108c 52010000 		.4byte	0x152
 4555 1090 00000000 		.4byte	.LFB81
 4556 1094 38000000 		.4byte	.LFE81-.LFB81
 4557 1098 01       		.uleb128 0x1
 4558 1099 9C       		.byte	0x9c
 4559 109a 33110000 		.4byte	0x1133
 4560 109e 32       		.uleb128 0x32
 4561 109f 6300     		.ascii	"c\000"
 4562 10a1 01       		.byte	0x1
 4563 10a2 5501     		.2byte	0x155
ARM GAS  C:\Users\samue\AppData\Local\Temp\ccYWUiYX.s 			page 95


 4564 10a4 76070000 		.4byte	0x776
 4565 10a8 63080000 		.4byte	.LLST42
 4566 10ac 33       		.uleb128 0x33
 4567 10ad 18070000 		.4byte	.LASF153
 4568 10b1 01       		.byte	0x1
 4569 10b2 5501     		.2byte	0x155
 4570 10b4 52010000 		.4byte	0x152
 4571 10b8 81080000 		.4byte	.LLST43
 4572 10bc 34       		.uleb128 0x34
 4573 10bd 726300   		.ascii	"rc\000"
 4574 10c0 01       		.byte	0x1
 4575 10c1 5701     		.2byte	0x157
 4576 10c3 52010000 		.4byte	0x152
 4577 10c7 9F080000 		.4byte	.LLST44
 4578 10cb 38       		.uleb128 0x38
 4579 10cc DF090000 		.4byte	.LASF133
 4580 10d0 01       		.byte	0x1
 4581 10d1 5801     		.2byte	0x158
 4582 10d3 B1030000 		.4byte	0x3b1
 4583 10d7 02       		.uleb128 0x2
 4584 10d8 91       		.byte	0x91
 4585 10d9 64       		.sleb128 -28
 4586 10da 28       		.uleb128 0x28
 4587 10db 0E000000 		.4byte	.LVL162
 4588 10df 091C0000 		.4byte	0x1c09
 4589 10e3 EE100000 		.4byte	0x10ee
 4590 10e7 26       		.uleb128 0x26
 4591 10e8 01       		.uleb128 0x1
 4592 10e9 50       		.byte	0x50
 4593 10ea 02       		.uleb128 0x2
 4594 10eb 91       		.byte	0x91
 4595 10ec 64       		.sleb128 -28
 4596 10ed 00       		.byte	0
 4597 10ee 28       		.uleb128 0x28
 4598 10ef 16000000 		.4byte	.LVL163
 4599 10f3 2A1C0000 		.4byte	0x1c2a
 4600 10f7 08110000 		.4byte	0x1108
 4601 10fb 26       		.uleb128 0x26
 4602 10fc 01       		.uleb128 0x1
 4603 10fd 50       		.byte	0x50
 4604 10fe 02       		.uleb128 0x2
 4605 10ff 91       		.byte	0x91
 4606 1100 64       		.sleb128 -28
 4607 1101 26       		.uleb128 0x26
 4608 1102 01       		.uleb128 0x1
 4609 1103 51       		.byte	0x51
 4610 1104 02       		.uleb128 0x2
 4611 1105 75       		.byte	0x75
 4612 1106 00       		.sleb128 0
 4613 1107 00       		.byte	0
 4614 1108 28       		.uleb128 0x28
 4615 1109 1E000000 		.4byte	.LVL164
 4616 110d B20D0000 		.4byte	0xdb2
 4617 1111 22110000 		.4byte	0x1122
 4618 1115 26       		.uleb128 0x26
 4619 1116 01       		.uleb128 0x1
 4620 1117 50       		.byte	0x50
ARM GAS  C:\Users\samue\AppData\Local\Temp\ccYWUiYX.s 			page 96


 4621 1118 02       		.uleb128 0x2
 4622 1119 74       		.byte	0x74
 4623 111a 00       		.sleb128 0
 4624 111b 26       		.uleb128 0x26
 4625 111c 01       		.uleb128 0x1
 4626 111d 51       		.byte	0x51
 4627 111e 02       		.uleb128 0x2
 4628 111f 91       		.byte	0x91
 4629 1120 64       		.sleb128 -28
 4630 1121 00       		.byte	0
 4631 1122 2A       		.uleb128 0x2a
 4632 1123 28000000 		.4byte	.LVL165
 4633 1127 E81B0000 		.4byte	0x1be8
 4634 112b 26       		.uleb128 0x26
 4635 112c 01       		.uleb128 0x1
 4636 112d 50       		.byte	0x50
 4637 112e 02       		.uleb128 0x2
 4638 112f 91       		.byte	0x91
 4639 1130 64       		.sleb128 -28
 4640 1131 00       		.byte	0
 4641 1132 00       		.byte	0
 4642 1133 31       		.uleb128 0x31
 4643 1134 57090000 		.4byte	.LASF154
 4644 1138 01       		.byte	0x1
 4645 1139 6901     		.2byte	0x169
 4646 113b 52010000 		.4byte	0x152
 4647 113f 00000000 		.4byte	.LFB82
 4648 1143 04000000 		.4byte	.LFE82-.LFB82
 4649 1147 01       		.uleb128 0x1
 4650 1148 9C       		.byte	0x9c
 4651 1149 5E110000 		.4byte	0x115e
 4652 114d 33       		.uleb128 0x33
 4653 114e 7C030000 		.4byte	.LASF155
 4654 1152 01       		.byte	0x1
 4655 1153 6901     		.2byte	0x169
 4656 1155 76070000 		.4byte	0x776
 4657 1159 BE080000 		.4byte	.LLST45
 4658 115d 00       		.byte	0
 4659 115e 31       		.uleb128 0x31
 4660 115f B2060000 		.4byte	.LASF156
 4661 1163 01       		.byte	0x1
 4662 1164 8501     		.2byte	0x185
 4663 1166 52010000 		.4byte	0x152
 4664 116a 00000000 		.4byte	.LFB84
 4665 116e 14000000 		.4byte	.LFE84-.LFB84
 4666 1172 01       		.uleb128 0x1
 4667 1173 9C       		.byte	0x9c
 4668 1174 AC110000 		.4byte	0x11ac
 4669 1178 33       		.uleb128 0x33
 4670 1179 7C030000 		.4byte	.LASF155
 4671 117d 01       		.byte	0x1
 4672 117e 8501     		.2byte	0x185
 4673 1180 76070000 		.4byte	0x776
 4674 1184 DF080000 		.4byte	.LLST46
 4675 1188 2A       		.uleb128 0x2a
 4676 1189 0C000000 		.4byte	.LVL171
 4677 118d 831C0000 		.4byte	0x1c83
ARM GAS  C:\Users\samue\AppData\Local\Temp\ccYWUiYX.s 			page 97


 4678 1191 26       		.uleb128 0x26
 4679 1192 01       		.uleb128 0x1
 4680 1193 50       		.byte	0x50
 4681 1194 05       		.uleb128 0x5
 4682 1195 F3       		.byte	0xf3
 4683 1196 01       		.uleb128 0x1
 4684 1197 50       		.byte	0x50
 4685 1198 23       		.byte	0x23
 4686 1199 74       		.uleb128 0x74
 4687 119a 26       		.uleb128 0x26
 4688 119b 01       		.uleb128 0x1
 4689 119c 51       		.byte	0x51
 4690 119d 05       		.uleb128 0x5
 4691 119e 03       		.byte	0x3
 4692 119f 00000000 		.4byte	MQTTRun
 4693 11a3 26       		.uleb128 0x26
 4694 11a4 01       		.uleb128 0x1
 4695 11a5 52       		.byte	0x52
 4696 11a6 03       		.uleb128 0x3
 4697 11a7 F3       		.byte	0xf3
 4698 11a8 01       		.uleb128 0x1
 4699 11a9 50       		.byte	0x50
 4700 11aa 00       		.byte	0
 4701 11ab 00       		.byte	0
 4702 11ac 31       		.uleb128 0x31
 4703 11ad 4B0A0000 		.4byte	.LASF157
 4704 11b1 01       		.byte	0x1
 4705 11b2 8C01     		.2byte	0x18c
 4706 11b4 52010000 		.4byte	0x152
 4707 11b8 00000000 		.4byte	.LFB85
 4708 11bc 2A000000 		.4byte	.LFE85-.LFB85
 4709 11c0 01       		.uleb128 0x1
 4710 11c1 9C       		.byte	0x9c
 4711 11c2 2E120000 		.4byte	0x122e
 4712 11c6 32       		.uleb128 0x32
 4713 11c7 6300     		.ascii	"c\000"
 4714 11c9 01       		.byte	0x1
 4715 11ca 8C01     		.2byte	0x18c
 4716 11cc 76070000 		.4byte	0x776
 4717 11d0 0B090000 		.4byte	.LLST47
 4718 11d4 33       		.uleb128 0x33
 4719 11d5 CA010000 		.4byte	.LASF147
 4720 11d9 01       		.byte	0x1
 4721 11da 8C01     		.2byte	0x18c
 4722 11dc 52010000 		.4byte	0x152
 4723 11e0 29090000 		.4byte	.LLST48
 4724 11e4 33       		.uleb128 0x33
 4725 11e5 DF090000 		.4byte	.LASF133
 4726 11e9 01       		.byte	0x1
 4727 11ea 8C01     		.2byte	0x18c
 4728 11ec 73090000 		.4byte	0x973
 4729 11f0 47090000 		.4byte	.LLST49
 4730 11f4 34       		.uleb128 0x34
 4731 11f5 726300   		.ascii	"rc\000"
 4732 11f8 01       		.byte	0x1
 4733 11f9 8E01     		.2byte	0x18e
 4734 11fb 52010000 		.4byte	0x152
ARM GAS  C:\Users\samue\AppData\Local\Temp\ccYWUiYX.s 			page 98


 4735 11ff 65090000 		.4byte	.LLST50
 4736 1203 28       		.uleb128 0x28
 4737 1204 12000000 		.4byte	.LVL175
 4738 1208 E81B0000 		.4byte	0x1be8
 4739 120c 17120000 		.4byte	0x1217
 4740 1210 26       		.uleb128 0x26
 4741 1211 01       		.uleb128 0x1
 4742 1212 50       		.byte	0x50
 4743 1213 02       		.uleb128 0x2
 4744 1214 75       		.byte	0x75
 4745 1215 00       		.sleb128 0
 4746 1216 00       		.byte	0
 4747 1217 2A       		.uleb128 0x2a
 4748 1218 1C000000 		.4byte	.LVL176
 4749 121c B20D0000 		.4byte	0xdb2
 4750 1220 26       		.uleb128 0x26
 4751 1221 01       		.uleb128 0x1
 4752 1222 50       		.byte	0x50
 4753 1223 02       		.uleb128 0x2
 4754 1224 77       		.byte	0x77
 4755 1225 00       		.sleb128 0
 4756 1226 26       		.uleb128 0x26
 4757 1227 01       		.uleb128 0x1
 4758 1228 51       		.byte	0x51
 4759 1229 02       		.uleb128 0x2
 4760 122a 75       		.byte	0x75
 4761 122b 00       		.sleb128 0
 4762 122c 00       		.byte	0
 4763 122d 00       		.byte	0
 4764 122e 31       		.uleb128 0x31
 4765 122f 260A0000 		.4byte	.LASF158
 4766 1233 01       		.byte	0x1
 4767 1234 9E01     		.2byte	0x19e
 4768 1236 52010000 		.4byte	0x152
 4769 123a 00000000 		.4byte	.LFB86
 4770 123e BC000000 		.4byte	.LFE86-.LFB86
 4771 1242 01       		.uleb128 0x1
 4772 1243 9C       		.byte	0x9c
 4773 1244 AD130000 		.4byte	0x13ad
 4774 1248 32       		.uleb128 0x32
 4775 1249 6300     		.ascii	"c\000"
 4776 124b 01       		.byte	0x1
 4777 124c 9E01     		.2byte	0x19e
 4778 124e 76070000 		.4byte	0x776
 4779 1252 9B090000 		.4byte	.LLST51
 4780 1256 33       		.uleb128 0x33
 4781 1257 40030000 		.4byte	.LASF159
 4782 125b 01       		.byte	0x1
 4783 125c 9E01     		.2byte	0x19e
 4784 125e AD130000 		.4byte	0x13ad
 4785 1262 C7090000 		.4byte	.LLST52
 4786 1266 33       		.uleb128 0x33
 4787 1267 4E040000 		.4byte	.LASF26
 4788 126b 01       		.byte	0x1
 4789 126c 9E01     		.2byte	0x19e
 4790 126e B3130000 		.4byte	0x13b3
 4791 1272 090A0000 		.4byte	.LLST53
ARM GAS  C:\Users\samue\AppData\Local\Temp\ccYWUiYX.s 			page 99


 4792 1276 38       		.uleb128 0x38
 4793 1277 7D020000 		.4byte	.LASF160
 4794 127b 01       		.byte	0x1
 4795 127c A001     		.2byte	0x1a0
 4796 127e B1030000 		.4byte	0x3b1
 4797 1282 02       		.uleb128 0x2
 4798 1283 91       		.byte	0x91
 4799 1284 5C       		.sleb128 -36
 4800 1285 34       		.uleb128 0x34
 4801 1286 726300   		.ascii	"rc\000"
 4802 1289 01       		.byte	0x1
 4803 128a A101     		.2byte	0x1a1
 4804 128c 52010000 		.4byte	0x152
 4805 1290 350A0000 		.4byte	.LLST54
 4806 1294 38       		.uleb128 0x38
 4807 1295 99000000 		.4byte	.LASF161
 4808 1299 01       		.byte	0x1
 4809 129a A201     		.2byte	0x1a2
 4810 129c 98020000 		.4byte	0x298
 4811 12a0 03       		.uleb128 0x3
 4812 12a1 91       		.byte	0x91
 4813 12a2 847F     		.sleb128 -124
 4814 12a4 34       		.uleb128 0x34
 4815 12a5 6C656E00 		.ascii	"len\000"
 4816 12a9 01       		.byte	0x1
 4817 12aa A301     		.2byte	0x1a3
 4818 12ac 52010000 		.4byte	0x152
 4819 12b0 8E0A0000 		.4byte	.LLST55
 4820 12b4 36       		.uleb128 0x36
 4821 12b5 67080000 		.4byte	.LASF137
 4822 12b9 01       		.byte	0x1
 4823 12ba C601     		.2byte	0x1c6
 4824 12bc A0000000 		.4byte	.L109
 4825 12c0 28       		.uleb128 0x28
 4826 12c1 14000000 		.4byte	.LVL184
 4827 12c5 8E1C0000 		.4byte	0x1c8e
 4828 12c9 E4120000 		.4byte	0x12e4
 4829 12cd 26       		.uleb128 0x26
 4830 12ce 01       		.uleb128 0x1
 4831 12cf 50       		.byte	0x50
 4832 12d0 03       		.uleb128 0x3
 4833 12d1 91       		.byte	0x91
 4834 12d2 847F     		.sleb128 -124
 4835 12d4 26       		.uleb128 0x26
 4836 12d5 01       		.uleb128 0x1
 4837 12d6 51       		.byte	0x51
 4838 12d7 05       		.uleb128 0x5
 4839 12d8 03       		.byte	0x3
 4840 12d9 00000000 		.4byte	.LANCHOR0
 4841 12dd 26       		.uleb128 0x26
 4842 12de 01       		.uleb128 0x1
 4843 12df 52       		.byte	0x52
 4844 12e0 02       		.uleb128 0x2
 4845 12e1 08       		.byte	0x8
 4846 12e2 58       		.byte	0x58
 4847 12e3 00       		.byte	0
 4848 12e4 28       		.uleb128 0x28
ARM GAS  C:\Users\samue\AppData\Local\Temp\ccYWUiYX.s 			page 100


 4849 12e5 1E000000 		.4byte	.LVL185
 4850 12e9 611C0000 		.4byte	0x1c61
 4851 12ed F8120000 		.4byte	0x12f8
 4852 12f1 26       		.uleb128 0x26
 4853 12f2 01       		.uleb128 0x1
 4854 12f3 50       		.byte	0x50
 4855 12f4 02       		.uleb128 0x2
 4856 12f5 76       		.byte	0x76
 4857 12f6 00       		.sleb128 0
 4858 12f7 00       		.byte	0
 4859 12f8 28       		.uleb128 0x28
 4860 12f9 2A000000 		.4byte	.LVL186
 4861 12fd 091C0000 		.4byte	0x1c09
 4862 1301 0C130000 		.4byte	0x130c
 4863 1305 26       		.uleb128 0x26
 4864 1306 01       		.uleb128 0x1
 4865 1307 50       		.byte	0x50
 4866 1308 02       		.uleb128 0x2
 4867 1309 91       		.byte	0x91
 4868 130a 5C       		.sleb128 -36
 4869 130b 00       		.byte	0
 4870 130c 28       		.uleb128 0x28
 4871 130d 32000000 		.4byte	.LVL187
 4872 1311 2A1C0000 		.4byte	0x1c2a
 4873 1315 20130000 		.4byte	0x1320
 4874 1319 26       		.uleb128 0x26
 4875 131a 01       		.uleb128 0x1
 4876 131b 50       		.byte	0x50
 4877 131c 02       		.uleb128 0x2
 4878 131d 91       		.byte	0x91
 4879 131e 5C       		.sleb128 -36
 4880 131f 00       		.byte	0
 4881 1320 28       		.uleb128 0x28
 4882 1321 46000000 		.4byte	.LVL189
 4883 1325 F31B0000 		.4byte	0x1bf3
 4884 1329 35130000 		.4byte	0x1335
 4885 132d 26       		.uleb128 0x26
 4886 132e 01       		.uleb128 0x1
 4887 132f 50       		.byte	0x50
 4888 1330 03       		.uleb128 0x3
 4889 1331 74       		.byte	0x74
 4890 1332 E400     		.sleb128 100
 4891 1334 00       		.byte	0
 4892 1335 28       		.uleb128 0x28
 4893 1336 50000000 		.4byte	.LVL190
 4894 133a 971C0000 		.4byte	0x1c97
 4895 133e 49130000 		.4byte	0x1349
 4896 1342 26       		.uleb128 0x26
 4897 1343 01       		.uleb128 0x1
 4898 1344 52       		.byte	0x52
 4899 1345 02       		.uleb128 0x2
 4900 1346 75       		.byte	0x75
 4901 1347 00       		.sleb128 0
 4902 1348 00       		.byte	0
 4903 1349 28       		.uleb128 0x28
 4904 134a 5C000000 		.4byte	.LVL192
 4905 134e B9080000 		.4byte	0x8b9
ARM GAS  C:\Users\samue\AppData\Local\Temp\ccYWUiYX.s 			page 101


 4906 1352 63130000 		.4byte	0x1363
 4907 1356 26       		.uleb128 0x26
 4908 1357 01       		.uleb128 0x1
 4909 1358 50       		.byte	0x50
 4910 1359 02       		.uleb128 0x2
 4911 135a 74       		.byte	0x74
 4912 135b 00       		.sleb128 0
 4913 135c 26       		.uleb128 0x26
 4914 135d 01       		.uleb128 0x1
 4915 135e 52       		.byte	0x52
 4916 135f 02       		.uleb128 0x2
 4917 1360 91       		.byte	0x91
 4918 1361 5C       		.sleb128 -36
 4919 1362 00       		.byte	0
 4920 1363 28       		.uleb128 0x28
 4921 1364 6A000000 		.4byte	.LVL195
 4922 1368 AC110000 		.4byte	0x11ac
 4923 136c 82130000 		.4byte	0x1382
 4924 1370 26       		.uleb128 0x26
 4925 1371 01       		.uleb128 0x1
 4926 1372 50       		.byte	0x50
 4927 1373 02       		.uleb128 0x2
 4928 1374 74       		.byte	0x74
 4929 1375 00       		.sleb128 0
 4930 1376 26       		.uleb128 0x26
 4931 1377 01       		.uleb128 0x1
 4932 1378 51       		.byte	0x51
 4933 1379 01       		.uleb128 0x1
 4934 137a 32       		.byte	0x32
 4935 137b 26       		.uleb128 0x26
 4936 137c 01       		.uleb128 0x1
 4937 137d 52       		.byte	0x52
 4938 137e 02       		.uleb128 0x2
 4939 137f 91       		.byte	0x91
 4940 1380 5C       		.sleb128 -36
 4941 1381 00       		.byte	0
 4942 1382 28       		.uleb128 0x28
 4943 1383 82000000 		.4byte	.LVL196
 4944 1387 A21C0000 		.4byte	0x1ca2
 4945 138b 9C130000 		.4byte	0x139c
 4946 138f 26       		.uleb128 0x26
 4947 1390 01       		.uleb128 0x1
 4948 1391 50       		.byte	0x50
 4949 1392 02       		.uleb128 0x2
 4950 1393 77       		.byte	0x77
 4951 1394 01       		.sleb128 1
 4952 1395 26       		.uleb128 0x26
 4953 1396 01       		.uleb128 0x1
 4954 1397 51       		.byte	0x51
 4955 1398 02       		.uleb128 0x2
 4956 1399 77       		.byte	0x77
 4957 139a 00       		.sleb128 0
 4958 139b 00       		.byte	0
 4959 139c 2A       		.uleb128 0x2a
 4960 139d B0000000 		.4byte	.LVL206
 4961 13a1 6C1C0000 		.4byte	0x1c6c
 4962 13a5 26       		.uleb128 0x26
ARM GAS  C:\Users\samue\AppData\Local\Temp\ccYWUiYX.s 			page 102


 4963 13a6 01       		.uleb128 0x1
 4964 13a7 50       		.byte	0x50
 4965 13a8 02       		.uleb128 0x2
 4966 13a9 76       		.byte	0x76
 4967 13aa 00       		.sleb128 0
 4968 13ab 00       		.byte	0
 4969 13ac 00       		.byte	0
 4970 13ad 0F       		.uleb128 0xf
 4971 13ae 04       		.byte	0x4
 4972 13af 98020000 		.4byte	0x298
 4973 13b3 0F       		.uleb128 0xf
 4974 13b4 04       		.byte	0x4
 4975 13b5 AA050000 		.4byte	0x5aa
 4976 13b9 31       		.uleb128 0x31
 4977 13ba 4C020000 		.4byte	.LASF162
 4978 13be 01       		.byte	0x1
 4979 13bf D501     		.2byte	0x1d5
 4980 13c1 52010000 		.4byte	0x152
 4981 13c5 00000000 		.4byte	.LFB87
 4982 13c9 10000000 		.4byte	.LFE87-.LFB87
 4983 13cd 01       		.uleb128 0x1
 4984 13ce 9C       		.byte	0x9c
 4985 13cf 1F140000 		.4byte	0x141f
 4986 13d3 32       		.uleb128 0x32
 4987 13d4 6300     		.ascii	"c\000"
 4988 13d6 01       		.byte	0x1
 4989 13d7 D501     		.2byte	0x1d5
 4990 13d9 76070000 		.4byte	0x776
 4991 13dd CF0A0000 		.4byte	.LLST56
 4992 13e1 33       		.uleb128 0x33
 4993 13e2 40030000 		.4byte	.LASF159
 4994 13e6 01       		.byte	0x1
 4995 13e7 D501     		.2byte	0x1d5
 4996 13e9 AD130000 		.4byte	0x13ad
 4997 13ed F00A0000 		.4byte	.LLST57
 4998 13f1 38       		.uleb128 0x38
 4999 13f2 4E040000 		.4byte	.LASF26
 5000 13f6 01       		.byte	0x1
 5001 13f7 D701     		.2byte	0x1d7
 5002 13f9 AA050000 		.4byte	0x5aa
 5003 13fd 02       		.uleb128 0x2
 5004 13fe 91       		.byte	0x91
 5005 13ff 74       		.sleb128 -12
 5006 1400 2A       		.uleb128 0x2a
 5007 1401 0A000000 		.4byte	.LVL209
 5008 1405 2E120000 		.4byte	0x122e
 5009 1409 26       		.uleb128 0x26
 5010 140a 01       		.uleb128 0x1
 5011 140b 50       		.byte	0x50
 5012 140c 03       		.uleb128 0x3
 5013 140d F3       		.byte	0xf3
 5014 140e 01       		.uleb128 0x1
 5015 140f 50       		.byte	0x50
 5016 1410 26       		.uleb128 0x26
 5017 1411 01       		.uleb128 0x1
 5018 1412 51       		.byte	0x51
 5019 1413 03       		.uleb128 0x3
ARM GAS  C:\Users\samue\AppData\Local\Temp\ccYWUiYX.s 			page 103


 5020 1414 F3       		.byte	0xf3
 5021 1415 01       		.uleb128 0x1
 5022 1416 51       		.byte	0x51
 5023 1417 26       		.uleb128 0x26
 5024 1418 01       		.uleb128 0x1
 5025 1419 52       		.byte	0x52
 5026 141a 02       		.uleb128 0x2
 5027 141b 91       		.byte	0x91
 5028 141c 74       		.sleb128 -12
 5029 141d 00       		.byte	0
 5030 141e 00       		.byte	0
 5031 141f 31       		.uleb128 0x31
 5032 1420 3E000000 		.4byte	.LASF163
 5033 1424 01       		.byte	0x1
 5034 1425 DC01     		.2byte	0x1dc
 5035 1427 52010000 		.4byte	0x152
 5036 142b 00000000 		.4byte	.LFB88
 5037 142f 68000000 		.4byte	.LFE88-.LFB88
 5038 1433 01       		.uleb128 0x1
 5039 1434 9C       		.byte	0x9c
 5040 1435 95140000 		.4byte	0x1495
 5041 1439 32       		.uleb128 0x32
 5042 143a 6300     		.ascii	"c\000"
 5043 143c 01       		.byte	0x1
 5044 143d DC01     		.2byte	0x1dc
 5045 143f 76070000 		.4byte	0x776
 5046 1443 110B0000 		.4byte	.LLST58
 5047 1447 33       		.uleb128 0x33
 5048 1448 7C000000 		.4byte	.LASF102
 5049 144c 01       		.byte	0x1
 5050 144d DC01     		.2byte	0x1dc
 5051 144f F6020000 		.4byte	0x2f6
 5052 1453 2F0B0000 		.4byte	.LLST59
 5053 1457 33       		.uleb128 0x33
 5054 1458 67090000 		.4byte	.LASF100
 5055 145c 01       		.byte	0x1
 5056 145d DC01     		.2byte	0x1dc
 5057 145f D9050000 		.4byte	0x5d9
 5058 1463 4D0B0000 		.4byte	.LLST60
 5059 1467 34       		.uleb128 0x34
 5060 1468 726300   		.ascii	"rc\000"
 5061 146b 01       		.byte	0x1
 5062 146c DE01     		.2byte	0x1de
 5063 146e 52010000 		.4byte	0x152
 5064 1472 6B0B0000 		.4byte	.LLST61
 5065 1476 34       		.uleb128 0x34
 5066 1477 6900     		.ascii	"i\000"
 5067 1479 01       		.byte	0x1
 5068 147a DF01     		.2byte	0x1df
 5069 147c 52010000 		.4byte	0x152
 5070 1480 8B0B0000 		.4byte	.LLST62
 5071 1484 2A       		.uleb128 0x2a
 5072 1485 1A000000 		.4byte	.LVL213
 5073 1489 AD1C0000 		.4byte	0x1cad
 5074 148d 26       		.uleb128 0x26
 5075 148e 01       		.uleb128 0x1
 5076 148f 51       		.byte	0x51
ARM GAS  C:\Users\samue\AppData\Local\Temp\ccYWUiYX.s 			page 104


 5077 1490 02       		.uleb128 0x2
 5078 1491 76       		.byte	0x76
 5079 1492 00       		.sleb128 0
 5080 1493 00       		.byte	0
 5081 1494 00       		.byte	0
 5082 1495 31       		.uleb128 0x31
 5083 1496 28050000 		.4byte	.LASF164
 5084 149a 01       		.byte	0x1
 5085 149b 0602     		.2byte	0x206
 5086 149d 52010000 		.4byte	0x152
 5087 14a1 00000000 		.4byte	.LFB89
 5088 14a5 DE000000 		.4byte	.LFE89-.LFB89
 5089 14a9 01       		.uleb128 0x1
 5090 14aa 9C       		.byte	0x9c
 5091 14ab 95160000 		.4byte	0x1695
 5092 14af 32       		.uleb128 0x32
 5093 14b0 6300     		.ascii	"c\000"
 5094 14b2 01       		.byte	0x1
 5095 14b3 0602     		.2byte	0x206
 5096 14b5 76070000 		.4byte	0x776
 5097 14b9 B70B0000 		.4byte	.LLST63
 5098 14bd 33       		.uleb128 0x33
 5099 14be 7C000000 		.4byte	.LASF102
 5100 14c2 01       		.byte	0x1
 5101 14c3 0602     		.2byte	0x206
 5102 14c5 F6020000 		.4byte	0x2f6
 5103 14c9 D50B0000 		.4byte	.LLST64
 5104 14cd 32       		.uleb128 0x32
 5105 14ce 716F7300 		.ascii	"qos\000"
 5106 14d2 01       		.byte	0x1
 5107 14d3 0602     		.2byte	0x206
 5108 14d5 9F040000 		.4byte	0x49f
 5109 14d9 F30B0000 		.4byte	.LLST65
 5110 14dd 33       		.uleb128 0x33
 5111 14de 67090000 		.4byte	.LASF100
 5112 14e2 01       		.byte	0x1
 5113 14e3 0702     		.2byte	0x207
 5114 14e5 D9050000 		.4byte	0x5d9
 5115 14e9 3A0C0000 		.4byte	.LLST66
 5116 14ed 3B       		.uleb128 0x3b
 5117 14ee 4E040000 		.4byte	.LASF26
 5118 14f2 01       		.byte	0x1
 5119 14f3 0702     		.2byte	0x207
 5120 14f5 95160000 		.4byte	0x1695
 5121 14f9 02       		.uleb128 0x2
 5122 14fa 91       		.byte	0x91
 5123 14fb 00       		.sleb128 0
 5124 14fc 34       		.uleb128 0x34
 5125 14fd 726300   		.ascii	"rc\000"
 5126 1500 01       		.byte	0x1
 5127 1501 0902     		.2byte	0x209
 5128 1503 52010000 		.4byte	0x152
 5129 1507 580C0000 		.4byte	.LLST67
 5130 150b 38       		.uleb128 0x38
 5131 150c DF090000 		.4byte	.LASF133
 5132 1510 01       		.byte	0x1
 5133 1511 0A02     		.2byte	0x20a
ARM GAS  C:\Users\samue\AppData\Local\Temp\ccYWUiYX.s 			page 105


 5134 1513 B1030000 		.4byte	0x3b1
 5135 1517 02       		.uleb128 0x2
 5136 1518 91       		.byte	0x91
 5137 1519 54       		.sleb128 -44
 5138 151a 34       		.uleb128 0x34
 5139 151b 6C656E00 		.ascii	"len\000"
 5140 151f 01       		.byte	0x1
 5141 1520 0B02     		.2byte	0x20b
 5142 1522 52010000 		.4byte	0x152
 5143 1526 A60C0000 		.4byte	.LLST68
 5144 152a 38       		.uleb128 0x38
 5145 152b 97020000 		.4byte	.LASF165
 5146 152f 01       		.byte	0x1
 5147 1530 0C02     		.2byte	0x20c
 5148 1532 92010000 		.4byte	0x192
 5149 1536 02       		.uleb128 0x2
 5150 1537 91       		.byte	0x91
 5151 1538 48       		.sleb128 -56
 5152 1539 36       		.uleb128 0x36
 5153 153a 67080000 		.4byte	.LASF137
 5154 153e 01       		.byte	0x1
 5155 153f 2C02     		.2byte	0x22c
 5156 1541 C4000000 		.4byte	.L136
 5157 1545 2F       		.uleb128 0x2f
 5158 1546 7A000000 		.4byte	.LBB10
 5159 154a 3A000000 		.4byte	.LBE10-.LBB10
 5160 154e B3150000 		.4byte	0x15b3
 5161 1552 38       		.uleb128 0x38
 5162 1553 1C000000 		.4byte	.LASF166
 5163 1557 01       		.byte	0x1
 5164 1558 2002     		.2byte	0x220
 5165 155a 52010000 		.4byte	0x152
 5166 155e 02       		.uleb128 0x2
 5167 155f 91       		.byte	0x91
 5168 1560 44       		.sleb128 -60
 5169 1561 38       		.uleb128 0x38
 5170 1562 71070000 		.4byte	.LASF149
 5171 1566 01       		.byte	0x1
 5172 1567 2102     		.2byte	0x221
 5173 1569 91020000 		.4byte	0x291
 5174 156d 02       		.uleb128 0x2
 5175 156e 91       		.byte	0x91
 5176 156f 42       		.sleb128 -62
 5177 1570 28       		.uleb128 0x28
 5178 1571 9A000000 		.4byte	.LVL236
 5179 1575 B81C0000 		.4byte	0x1cb8
 5180 1579 96150000 		.4byte	0x1596
 5181 157d 26       		.uleb128 0x26
 5182 157e 01       		.uleb128 0x1
 5183 157f 50       		.byte	0x50
 5184 1580 02       		.uleb128 0x2
 5185 1581 91       		.byte	0x91
 5186 1582 42       		.sleb128 -62
 5187 1583 26       		.uleb128 0x26
 5188 1584 01       		.uleb128 0x1
 5189 1585 51       		.byte	0x51
 5190 1586 01       		.uleb128 0x1
ARM GAS  C:\Users\samue\AppData\Local\Temp\ccYWUiYX.s 			page 106


 5191 1587 31       		.byte	0x31
 5192 1588 26       		.uleb128 0x26
 5193 1589 01       		.uleb128 0x1
 5194 158a 52       		.byte	0x52
 5195 158b 02       		.uleb128 0x2
 5196 158c 91       		.byte	0x91
 5197 158d 44       		.sleb128 -60
 5198 158e 26       		.uleb128 0x26
 5199 158f 01       		.uleb128 0x1
 5200 1590 53       		.byte	0x53
 5201 1591 03       		.uleb128 0x3
 5202 1592 91       		.byte	0x91
 5203 1593 00       		.sleb128 0
 5204 1594 06       		.byte	0x6
 5205 1595 00       		.byte	0
 5206 1596 2A       		.uleb128 0x2a
 5207 1597 B0000000 		.4byte	.LVL237
 5208 159b 1F140000 		.4byte	0x141f
 5209 159f 26       		.uleb128 0x26
 5210 15a0 01       		.uleb128 0x1
 5211 15a1 50       		.byte	0x50
 5212 15a2 02       		.uleb128 0x2
 5213 15a3 74       		.byte	0x74
 5214 15a4 00       		.sleb128 0
 5215 15a5 26       		.uleb128 0x26
 5216 15a6 01       		.uleb128 0x1
 5217 15a7 51       		.byte	0x51
 5218 15a8 02       		.uleb128 0x2
 5219 15a9 77       		.byte	0x77
 5220 15aa 00       		.sleb128 0
 5221 15ab 26       		.uleb128 0x26
 5222 15ac 01       		.uleb128 0x1
 5223 15ad 52       		.byte	0x52
 5224 15ae 02       		.uleb128 0x2
 5225 15af 78       		.byte	0x78
 5226 15b0 00       		.sleb128 0
 5227 15b1 00       		.byte	0
 5228 15b2 00       		.byte	0
 5229 15b3 28       		.uleb128 0x28
 5230 15b4 22000000 		.4byte	.LVL225
 5231 15b8 611C0000 		.4byte	0x1c61
 5232 15bc C7150000 		.4byte	0x15c7
 5233 15c0 26       		.uleb128 0x26
 5234 15c1 01       		.uleb128 0x1
 5235 15c2 50       		.byte	0x50
 5236 15c3 02       		.uleb128 0x2
 5237 15c4 76       		.byte	0x76
 5238 15c5 00       		.sleb128 0
 5239 15c6 00       		.byte	0
 5240 15c7 28       		.uleb128 0x28
 5241 15c8 2E000000 		.4byte	.LVL226
 5242 15cc 091C0000 		.4byte	0x1c09
 5243 15d0 DB150000 		.4byte	0x15db
 5244 15d4 26       		.uleb128 0x26
 5245 15d5 01       		.uleb128 0x1
 5246 15d6 50       		.byte	0x50
 5247 15d7 02       		.uleb128 0x2
ARM GAS  C:\Users\samue\AppData\Local\Temp\ccYWUiYX.s 			page 107


 5248 15d8 91       		.byte	0x91
 5249 15d9 54       		.sleb128 -44
 5250 15da 00       		.byte	0
 5251 15db 28       		.uleb128 0x28
 5252 15dc 36000000 		.4byte	.LVL227
 5253 15e0 2A1C0000 		.4byte	0x1c2a
 5254 15e4 EF150000 		.4byte	0x15ef
 5255 15e8 26       		.uleb128 0x26
 5256 15e9 01       		.uleb128 0x1
 5257 15ea 50       		.byte	0x50
 5258 15eb 02       		.uleb128 0x2
 5259 15ec 91       		.byte	0x91
 5260 15ed 54       		.sleb128 -44
 5261 15ee 00       		.byte	0
 5262 15ef 28       		.uleb128 0x28
 5263 15f0 42000000 		.4byte	.LVL228
 5264 15f4 4F070000 		.4byte	0x74f
 5265 15f8 03160000 		.4byte	0x1603
 5266 15fc 26       		.uleb128 0x26
 5267 15fd 01       		.uleb128 0x1
 5268 15fe 50       		.byte	0x50
 5269 15ff 02       		.uleb128 0x2
 5270 1600 74       		.byte	0x74
 5271 1601 00       		.sleb128 0
 5272 1602 00       		.byte	0
 5273 1603 28       		.uleb128 0x28
 5274 1604 5C000000 		.4byte	.LVL231
 5275 1608 C31C0000 		.4byte	0x1cc3
 5276 160c 37160000 		.4byte	0x1637
 5277 1610 26       		.uleb128 0x26
 5278 1611 01       		.uleb128 0x1
 5279 1612 50       		.byte	0x50
 5280 1613 02       		.uleb128 0x2
 5281 1614 75       		.byte	0x75
 5282 1615 00       		.sleb128 0
 5283 1616 26       		.uleb128 0x26
 5284 1617 01       		.uleb128 0x1
 5285 1618 51       		.byte	0x51
 5286 1619 02       		.uleb128 0x2
 5287 161a 79       		.byte	0x79
 5288 161b 00       		.sleb128 0
 5289 161c 26       		.uleb128 0x26
 5290 161d 01       		.uleb128 0x1
 5291 161e 52       		.byte	0x52
 5292 161f 01       		.uleb128 0x1
 5293 1620 30       		.byte	0x30
 5294 1621 26       		.uleb128 0x26
 5295 1622 02       		.uleb128 0x2
 5296 1623 7D       		.byte	0x7d
 5297 1624 00       		.sleb128 0
 5298 1625 01       		.uleb128 0x1
 5299 1626 31       		.byte	0x31
 5300 1627 26       		.uleb128 0x26
 5301 1628 02       		.uleb128 0x2
 5302 1629 7D       		.byte	0x7d
 5303 162a 04       		.sleb128 4
 5304 162b 02       		.uleb128 0x2
ARM GAS  C:\Users\samue\AppData\Local\Temp\ccYWUiYX.s 			page 108


 5305 162c 91       		.byte	0x91
 5306 162d 48       		.sleb128 -56
 5307 162e 26       		.uleb128 0x26
 5308 162f 02       		.uleb128 0x2
 5309 1630 7D       		.byte	0x7d
 5310 1631 08       		.sleb128 8
 5311 1632 03       		.uleb128 0x3
 5312 1633 91       		.byte	0x91
 5313 1634 BF7F     		.sleb128 -65
 5314 1636 00       		.byte	0
 5315 1637 28       		.uleb128 0x28
 5316 1638 68000000 		.4byte	.LVL233
 5317 163c B9080000 		.4byte	0x8b9
 5318 1640 51160000 		.4byte	0x1651
 5319 1644 26       		.uleb128 0x26
 5320 1645 01       		.uleb128 0x1
 5321 1646 50       		.byte	0x50
 5322 1647 02       		.uleb128 0x2
 5323 1648 74       		.byte	0x74
 5324 1649 00       		.sleb128 0
 5325 164a 26       		.uleb128 0x26
 5326 164b 01       		.uleb128 0x1
 5327 164c 52       		.byte	0x52
 5328 164d 02       		.uleb128 0x2
 5329 164e 91       		.byte	0x91
 5330 164f 54       		.sleb128 -44
 5331 1650 00       		.byte	0
 5332 1651 28       		.uleb128 0x28
 5333 1652 76000000 		.4byte	.LVL235
 5334 1656 AC110000 		.4byte	0x11ac
 5335 165a 70160000 		.4byte	0x1670
 5336 165e 26       		.uleb128 0x26
 5337 165f 01       		.uleb128 0x1
 5338 1660 50       		.byte	0x50
 5339 1661 02       		.uleb128 0x2
 5340 1662 74       		.byte	0x74
 5341 1663 00       		.sleb128 0
 5342 1664 26       		.uleb128 0x26
 5343 1665 01       		.uleb128 0x1
 5344 1666 51       		.byte	0x51
 5345 1667 01       		.uleb128 0x1
 5346 1668 39       		.byte	0x39
 5347 1669 26       		.uleb128 0x26
 5348 166a 01       		.uleb128 0x1
 5349 166b 52       		.byte	0x52
 5350 166c 02       		.uleb128 0x2
 5351 166d 91       		.byte	0x91
 5352 166e 54       		.sleb128 -44
 5353 166f 00       		.byte	0
 5354 1670 28       		.uleb128 0x28
 5355 1671 D0000000 		.4byte	.LVL243
 5356 1675 7E0D0000 		.4byte	0xd7e
 5357 1679 84160000 		.4byte	0x1684
 5358 167d 26       		.uleb128 0x26
 5359 167e 01       		.uleb128 0x1
 5360 167f 50       		.byte	0x50
 5361 1680 02       		.uleb128 0x2
ARM GAS  C:\Users\samue\AppData\Local\Temp\ccYWUiYX.s 			page 109


 5362 1681 74       		.byte	0x74
 5363 1682 00       		.sleb128 0
 5364 1683 00       		.byte	0
 5365 1684 2A       		.uleb128 0x2a
 5366 1685 D6000000 		.4byte	.LVL244
 5367 1689 6C1C0000 		.4byte	0x1c6c
 5368 168d 26       		.uleb128 0x26
 5369 168e 01       		.uleb128 0x1
 5370 168f 50       		.byte	0x50
 5371 1690 02       		.uleb128 0x2
 5372 1691 76       		.byte	0x76
 5373 1692 00       		.sleb128 0
 5374 1693 00       		.byte	0
 5375 1694 00       		.byte	0
 5376 1695 0F       		.uleb128 0xf
 5377 1696 04       		.byte	0x4
 5378 1697 CE050000 		.4byte	0x5ce
 5379 169b 31       		.uleb128 0x31
 5380 169c 89080000 		.4byte	.LASF167
 5381 16a0 01       		.byte	0x1
 5382 16a1 3602     		.2byte	0x236
 5383 16a3 52010000 		.4byte	0x152
 5384 16a7 00000000 		.4byte	.LFB90
 5385 16ab 10000000 		.4byte	.LFE90-.LFB90
 5386 16af 01       		.uleb128 0x1
 5387 16b0 9C       		.byte	0x9c
 5388 16b1 29170000 		.4byte	0x1729
 5389 16b5 32       		.uleb128 0x32
 5390 16b6 6300     		.ascii	"c\000"
 5391 16b8 01       		.byte	0x1
 5392 16b9 3602     		.2byte	0x236
 5393 16bb 76070000 		.4byte	0x776
 5394 16bf E70C0000 		.4byte	.LLST69
 5395 16c3 33       		.uleb128 0x33
 5396 16c4 7C000000 		.4byte	.LASF102
 5397 16c8 01       		.byte	0x1
 5398 16c9 3602     		.2byte	0x236
 5399 16cb F6020000 		.4byte	0x2f6
 5400 16cf 080D0000 		.4byte	.LLST70
 5401 16d3 32       		.uleb128 0x32
 5402 16d4 716F7300 		.ascii	"qos\000"
 5403 16d8 01       		.byte	0x1
 5404 16d9 3602     		.2byte	0x236
 5405 16db 9F040000 		.4byte	0x49f
 5406 16df 290D0000 		.4byte	.LLST71
 5407 16e3 33       		.uleb128 0x33
 5408 16e4 67090000 		.4byte	.LASF100
 5409 16e8 01       		.byte	0x1
 5410 16e9 3702     		.2byte	0x237
 5411 16eb D9050000 		.4byte	0x5d9
 5412 16ef 4A0D0000 		.4byte	.LLST72
 5413 16f3 38       		.uleb128 0x38
 5414 16f4 4E040000 		.4byte	.LASF26
 5415 16f8 01       		.byte	0x1
 5416 16f9 3902     		.2byte	0x239
 5417 16fb CE050000 		.4byte	0x5ce
 5418 16ff 02       		.uleb128 0x2
ARM GAS  C:\Users\samue\AppData\Local\Temp\ccYWUiYX.s 			page 110


 5419 1700 91       		.byte	0x91
 5420 1701 74       		.sleb128 -12
 5421 1702 2A       		.uleb128 0x2a
 5422 1703 0C000000 		.4byte	.LVL246
 5423 1707 95140000 		.4byte	0x1495
 5424 170b 26       		.uleb128 0x26
 5425 170c 01       		.uleb128 0x1
 5426 170d 50       		.byte	0x50
 5427 170e 03       		.uleb128 0x3
 5428 170f F3       		.byte	0xf3
 5429 1710 01       		.uleb128 0x1
 5430 1711 50       		.byte	0x50
 5431 1712 26       		.uleb128 0x26
 5432 1713 01       		.uleb128 0x1
 5433 1714 51       		.byte	0x51
 5434 1715 03       		.uleb128 0x3
 5435 1716 F3       		.byte	0xf3
 5436 1717 01       		.uleb128 0x1
 5437 1718 51       		.byte	0x51
 5438 1719 26       		.uleb128 0x26
 5439 171a 01       		.uleb128 0x1
 5440 171b 53       		.byte	0x53
 5441 171c 03       		.uleb128 0x3
 5442 171d F3       		.byte	0xf3
 5443 171e 01       		.uleb128 0x1
 5444 171f 53       		.byte	0x53
 5445 1720 26       		.uleb128 0x26
 5446 1721 02       		.uleb128 0x2
 5447 1722 7D       		.byte	0x7d
 5448 1723 00       		.sleb128 0
 5449 1724 02       		.uleb128 0x2
 5450 1725 74       		.byte	0x74
 5451 1726 00       		.sleb128 0
 5452 1727 00       		.byte	0
 5453 1728 00       		.byte	0
 5454 1729 31       		.uleb128 0x31
 5455 172a 5A050000 		.4byte	.LASF168
 5456 172e 01       		.byte	0x1
 5457 172f 3E02     		.2byte	0x23e
 5458 1731 52010000 		.4byte	0x152
 5459 1735 00000000 		.4byte	.LFB91
 5460 1739 B4000000 		.4byte	.LFE91-.LFB91
 5461 173d 01       		.uleb128 0x1
 5462 173e 9C       		.byte	0x9c
 5463 173f D0180000 		.4byte	0x18d0
 5464 1743 32       		.uleb128 0x32
 5465 1744 6300     		.ascii	"c\000"
 5466 1746 01       		.byte	0x1
 5467 1747 3E02     		.2byte	0x23e
 5468 1749 76070000 		.4byte	0x776
 5469 174d 6B0D0000 		.4byte	.LLST73
 5470 1751 33       		.uleb128 0x33
 5471 1752 7C000000 		.4byte	.LASF102
 5472 1756 01       		.byte	0x1
 5473 1757 3E02     		.2byte	0x23e
 5474 1759 F6020000 		.4byte	0x2f6
 5475 175d 890D0000 		.4byte	.LLST74
ARM GAS  C:\Users\samue\AppData\Local\Temp\ccYWUiYX.s 			page 111


 5476 1761 34       		.uleb128 0x34
 5477 1762 726300   		.ascii	"rc\000"
 5478 1765 01       		.byte	0x1
 5479 1766 4002     		.2byte	0x240
 5480 1768 52010000 		.4byte	0x152
 5481 176c A70D0000 		.4byte	.LLST75
 5482 1770 38       		.uleb128 0x38
 5483 1771 DF090000 		.4byte	.LASF133
 5484 1775 01       		.byte	0x1
 5485 1776 4102     		.2byte	0x241
 5486 1778 B1030000 		.4byte	0x3b1
 5487 177c 02       		.uleb128 0x2
 5488 177d 91       		.byte	0x91
 5489 177e 5C       		.sleb128 -36
 5490 177f 38       		.uleb128 0x38
 5491 1780 97020000 		.4byte	.LASF165
 5492 1784 01       		.byte	0x1
 5493 1785 4202     		.2byte	0x242
 5494 1787 92010000 		.4byte	0x192
 5495 178b 02       		.uleb128 0x2
 5496 178c 91       		.byte	0x91
 5497 178d 50       		.sleb128 -48
 5498 178e 34       		.uleb128 0x34
 5499 178f 6C656E00 		.ascii	"len\000"
 5500 1793 01       		.byte	0x1
 5501 1794 4402     		.2byte	0x244
 5502 1796 52010000 		.4byte	0x152
 5503 179a EA0D0000 		.4byte	.LLST76
 5504 179e 36       		.uleb128 0x36
 5505 179f 67080000 		.4byte	.LASF137
 5506 17a3 01       		.byte	0x1
 5507 17a4 6002     		.2byte	0x260
 5508 17a6 9A000000 		.4byte	.L146
 5509 17aa 2F       		.uleb128 0x2f
 5510 17ab 6E000000 		.4byte	.LBB11
 5511 17af 1C000000 		.4byte	.LBE11-.LBB11
 5512 17b3 F6170000 		.4byte	0x17f6
 5513 17b7 38       		.uleb128 0x38
 5514 17b8 71070000 		.4byte	.LASF149
 5515 17bc 01       		.byte	0x1
 5516 17bd 5602     		.2byte	0x256
 5517 17bf 91020000 		.4byte	0x291
 5518 17c3 02       		.uleb128 0x2
 5519 17c4 91       		.byte	0x91
 5520 17c5 4E       		.sleb128 -50
 5521 17c6 28       		.uleb128 0x28
 5522 17c7 7A000000 		.4byte	.LVL260
 5523 17cb CE1C0000 		.4byte	0x1cce
 5524 17cf DA170000 		.4byte	0x17da
 5525 17d3 26       		.uleb128 0x26
 5526 17d4 01       		.uleb128 0x1
 5527 17d5 50       		.byte	0x50
 5528 17d6 02       		.uleb128 0x2
 5529 17d7 91       		.byte	0x91
 5530 17d8 4E       		.sleb128 -50
 5531 17d9 00       		.byte	0
 5532 17da 2A       		.uleb128 0x2a
ARM GAS  C:\Users\samue\AppData\Local\Temp\ccYWUiYX.s 			page 112


 5533 17db 88000000 		.4byte	.LVL261
 5534 17df 1F140000 		.4byte	0x141f
 5535 17e3 26       		.uleb128 0x26
 5536 17e4 01       		.uleb128 0x1
 5537 17e5 50       		.byte	0x50
 5538 17e6 02       		.uleb128 0x2
 5539 17e7 74       		.byte	0x74
 5540 17e8 00       		.sleb128 0
 5541 17e9 26       		.uleb128 0x26
 5542 17ea 01       		.uleb128 0x1
 5543 17eb 51       		.byte	0x51
 5544 17ec 02       		.uleb128 0x2
 5545 17ed 77       		.byte	0x77
 5546 17ee 00       		.sleb128 0
 5547 17ef 26       		.uleb128 0x26
 5548 17f0 01       		.uleb128 0x1
 5549 17f1 52       		.byte	0x52
 5550 17f2 01       		.uleb128 0x1
 5551 17f3 30       		.byte	0x30
 5552 17f4 00       		.byte	0
 5553 17f5 00       		.byte	0
 5554 17f6 28       		.uleb128 0x28
 5555 17f7 1C000000 		.4byte	.LVL251
 5556 17fb 611C0000 		.4byte	0x1c61
 5557 17ff 0A180000 		.4byte	0x180a
 5558 1803 26       		.uleb128 0x26
 5559 1804 01       		.uleb128 0x1
 5560 1805 50       		.byte	0x50
 5561 1806 02       		.uleb128 0x2
 5562 1807 76       		.byte	0x76
 5563 1808 00       		.sleb128 0
 5564 1809 00       		.byte	0
 5565 180a 28       		.uleb128 0x28
 5566 180b 28000000 		.4byte	.LVL252
 5567 180f 091C0000 		.4byte	0x1c09
 5568 1813 1E180000 		.4byte	0x181e
 5569 1817 26       		.uleb128 0x26
 5570 1818 01       		.uleb128 0x1
 5571 1819 50       		.byte	0x50
 5572 181a 02       		.uleb128 0x2
 5573 181b 91       		.byte	0x91
 5574 181c 5C       		.sleb128 -36
 5575 181d 00       		.byte	0
 5576 181e 28       		.uleb128 0x28
 5577 181f 30000000 		.4byte	.LVL253
 5578 1823 2A1C0000 		.4byte	0x1c2a
 5579 1827 32180000 		.4byte	0x1832
 5580 182b 26       		.uleb128 0x26
 5581 182c 01       		.uleb128 0x1
 5582 182d 50       		.byte	0x50
 5583 182e 02       		.uleb128 0x2
 5584 182f 91       		.byte	0x91
 5585 1830 5C       		.sleb128 -36
 5586 1831 00       		.byte	0
 5587 1832 28       		.uleb128 0x28
 5588 1833 3C000000 		.4byte	.LVL254
 5589 1837 4F070000 		.4byte	0x74f
ARM GAS  C:\Users\samue\AppData\Local\Temp\ccYWUiYX.s 			page 113


 5590 183b 46180000 		.4byte	0x1846
 5591 183f 26       		.uleb128 0x26
 5592 1840 01       		.uleb128 0x1
 5593 1841 50       		.byte	0x50
 5594 1842 02       		.uleb128 0x2
 5595 1843 74       		.byte	0x74
 5596 1844 00       		.sleb128 0
 5597 1845 00       		.byte	0
 5598 1846 28       		.uleb128 0x28
 5599 1847 50000000 		.4byte	.LVL255
 5600 184b D91C0000 		.4byte	0x1cd9
 5601 184f 72180000 		.4byte	0x1872
 5602 1853 26       		.uleb128 0x26
 5603 1854 01       		.uleb128 0x1
 5604 1855 50       		.byte	0x50
 5605 1856 02       		.uleb128 0x2
 5606 1857 75       		.byte	0x75
 5607 1858 00       		.sleb128 0
 5608 1859 26       		.uleb128 0x26
 5609 185a 01       		.uleb128 0x1
 5610 185b 51       		.byte	0x51
 5611 185c 02       		.uleb128 0x2
 5612 185d 78       		.byte	0x78
 5613 185e 00       		.sleb128 0
 5614 185f 26       		.uleb128 0x26
 5615 1860 01       		.uleb128 0x1
 5616 1861 52       		.byte	0x52
 5617 1862 01       		.uleb128 0x1
 5618 1863 30       		.byte	0x30
 5619 1864 26       		.uleb128 0x26
 5620 1865 02       		.uleb128 0x2
 5621 1866 7D       		.byte	0x7d
 5622 1867 00       		.sleb128 0
 5623 1868 01       		.uleb128 0x1
 5624 1869 31       		.byte	0x31
 5625 186a 26       		.uleb128 0x26
 5626 186b 02       		.uleb128 0x2
 5627 186c 7D       		.byte	0x7d
 5628 186d 04       		.sleb128 4
 5629 186e 02       		.uleb128 0x2
 5630 186f 91       		.byte	0x91
 5631 1870 50       		.sleb128 -48
 5632 1871 00       		.byte	0
 5633 1872 28       		.uleb128 0x28
 5634 1873 5C000000 		.4byte	.LVL257
 5635 1877 B9080000 		.4byte	0x8b9
 5636 187b 8C180000 		.4byte	0x188c
 5637 187f 26       		.uleb128 0x26
 5638 1880 01       		.uleb128 0x1
 5639 1881 50       		.byte	0x50
 5640 1882 02       		.uleb128 0x2
 5641 1883 74       		.byte	0x74
 5642 1884 00       		.sleb128 0
 5643 1885 26       		.uleb128 0x26
 5644 1886 01       		.uleb128 0x1
 5645 1887 52       		.byte	0x52
 5646 1888 02       		.uleb128 0x2
ARM GAS  C:\Users\samue\AppData\Local\Temp\ccYWUiYX.s 			page 114


 5647 1889 91       		.byte	0x91
 5648 188a 5C       		.sleb128 -36
 5649 188b 00       		.byte	0
 5650 188c 28       		.uleb128 0x28
 5651 188d 6A000000 		.4byte	.LVL259
 5652 1891 AC110000 		.4byte	0x11ac
 5653 1895 AB180000 		.4byte	0x18ab
 5654 1899 26       		.uleb128 0x26
 5655 189a 01       		.uleb128 0x1
 5656 189b 50       		.byte	0x50
 5657 189c 02       		.uleb128 0x2
 5658 189d 74       		.byte	0x74
 5659 189e 00       		.sleb128 0
 5660 189f 26       		.uleb128 0x26
 5661 18a0 01       		.uleb128 0x1
 5662 18a1 51       		.byte	0x51
 5663 18a2 01       		.uleb128 0x1
 5664 18a3 3B       		.byte	0x3b
 5665 18a4 26       		.uleb128 0x26
 5666 18a5 01       		.uleb128 0x1
 5667 18a6 52       		.byte	0x52
 5668 18a7 02       		.uleb128 0x2
 5669 18a8 91       		.byte	0x91
 5670 18a9 5C       		.sleb128 -36
 5671 18aa 00       		.byte	0
 5672 18ab 28       		.uleb128 0x28
 5673 18ac A6000000 		.4byte	.LVL266
 5674 18b0 7E0D0000 		.4byte	0xd7e
 5675 18b4 BF180000 		.4byte	0x18bf
 5676 18b8 26       		.uleb128 0x26
 5677 18b9 01       		.uleb128 0x1
 5678 18ba 50       		.byte	0x50
 5679 18bb 02       		.uleb128 0x2
 5680 18bc 74       		.byte	0x74
 5681 18bd 00       		.sleb128 0
 5682 18be 00       		.byte	0
 5683 18bf 2A       		.uleb128 0x2a
 5684 18c0 AC000000 		.4byte	.LVL267
 5685 18c4 6C1C0000 		.4byte	0x1c6c
 5686 18c8 26       		.uleb128 0x26
 5687 18c9 01       		.uleb128 0x1
 5688 18ca 50       		.byte	0x50
 5689 18cb 02       		.uleb128 0x2
 5690 18cc 76       		.byte	0x76
 5691 18cd 00       		.sleb128 0
 5692 18ce 00       		.byte	0
 5693 18cf 00       		.byte	0
 5694 18d0 31       		.uleb128 0x31
 5695 18d1 BA090000 		.4byte	.LASF169
 5696 18d5 01       		.byte	0x1
 5697 18d6 6A02     		.2byte	0x26a
 5698 18d8 52010000 		.4byte	0x152
 5699 18dc 00000000 		.4byte	.LFB92
 5700 18e0 10010000 		.4byte	.LFE92-.LFB92
 5701 18e4 01       		.uleb128 0x1
 5702 18e5 9C       		.byte	0x9c
 5703 18e6 F21A0000 		.4byte	0x1af2
ARM GAS  C:\Users\samue\AppData\Local\Temp\ccYWUiYX.s 			page 115


 5704 18ea 32       		.uleb128 0x32
 5705 18eb 6300     		.ascii	"c\000"
 5706 18ed 01       		.byte	0x1
 5707 18ee 6A02     		.2byte	0x26a
 5708 18f0 76070000 		.4byte	0x776
 5709 18f4 2B0E0000 		.4byte	.LLST77
 5710 18f8 33       		.uleb128 0x33
 5711 18f9 A9000000 		.4byte	.LASF35
 5712 18fd 01       		.byte	0x1
 5713 18fe 6A02     		.2byte	0x26a
 5714 1900 F6020000 		.4byte	0x2f6
 5715 1904 490E0000 		.4byte	.LLST78
 5716 1908 33       		.uleb128 0x33
 5717 1909 97060000 		.4byte	.LASF36
 5718 190d 01       		.byte	0x1
 5719 190e 6A02     		.2byte	0x26a
 5720 1910 6F050000 		.4byte	0x56f
 5721 1914 800E0000 		.4byte	.LLST79
 5722 1918 34       		.uleb128 0x34
 5723 1919 726300   		.ascii	"rc\000"
 5724 191c 01       		.byte	0x1
 5725 191d 6C02     		.2byte	0x26c
 5726 191f 52010000 		.4byte	0x152
 5727 1923 9E0E0000 		.4byte	.LLST80
 5728 1927 38       		.uleb128 0x38
 5729 1928 DF090000 		.4byte	.LASF133
 5730 192c 01       		.byte	0x1
 5731 192d 6D02     		.2byte	0x26d
 5732 192f B1030000 		.4byte	0x3b1
 5733 1933 02       		.uleb128 0x2
 5734 1934 91       		.byte	0x91
 5735 1935 5C       		.sleb128 -36
 5736 1936 38       		.uleb128 0x38
 5737 1937 97020000 		.4byte	.LASF165
 5738 193b 01       		.byte	0x1
 5739 193c 6E02     		.2byte	0x26e
 5740 193e 92010000 		.4byte	0x192
 5741 1942 02       		.uleb128 0x2
 5742 1943 91       		.byte	0x91
 5743 1944 50       		.sleb128 -48
 5744 1945 34       		.uleb128 0x34
 5745 1946 6C656E00 		.ascii	"len\000"
 5746 194a 01       		.byte	0x1
 5747 194b 7002     		.2byte	0x270
 5748 194d 52010000 		.4byte	0x152
 5749 1951 0F0F0000 		.4byte	.LLST81
 5750 1955 36       		.uleb128 0x36
 5751 1956 67080000 		.4byte	.LASF137
 5752 195a 01       		.byte	0x1
 5753 195b 9E02     		.2byte	0x29e
 5754 195d F8000000 		.4byte	.L154
 5755 1961 2F       		.uleb128 0x2f
 5756 1962 94000000 		.4byte	.LBB12
 5757 1966 1E000000 		.4byte	.LBE12-.LBB12
 5758 196a B8190000 		.4byte	0x19b8
 5759 196e 38       		.uleb128 0x38
 5760 196f 71070000 		.4byte	.LASF149
ARM GAS  C:\Users\samue\AppData\Local\Temp\ccYWUiYX.s 			page 116


 5761 1973 01       		.byte	0x1
 5762 1974 8902     		.2byte	0x289
 5763 1976 91020000 		.4byte	0x291
 5764 197a 02       		.uleb128 0x2
 5765 197b 91       		.byte	0x91
 5766 197c 4E       		.sleb128 -50
 5767 197d 39       		.uleb128 0x39
 5768 197e 64757000 		.ascii	"dup\000"
 5769 1982 01       		.byte	0x1
 5770 1983 8A02     		.2byte	0x28a
 5771 1985 B4000000 		.4byte	0xb4
 5772 1989 02       		.uleb128 0x2
 5773 198a 91       		.byte	0x91
 5774 198b 4C       		.sleb128 -52
 5775 198c 38       		.uleb128 0x38
 5776 198d D7000000 		.4byte	.LASF22
 5777 1991 01       		.byte	0x1
 5778 1992 8A02     		.2byte	0x28a
 5779 1994 B4000000 		.4byte	0xb4
 5780 1998 02       		.uleb128 0x2
 5781 1999 91       		.byte	0x91
 5782 199a 4D       		.sleb128 -51
 5783 199b 2A       		.uleb128 0x2a
 5784 199c A8000000 		.4byte	.LVL283
 5785 19a0 561C0000 		.4byte	0x1c56
 5786 19a4 26       		.uleb128 0x26
 5787 19a5 01       		.uleb128 0x1
 5788 19a6 50       		.byte	0x50
 5789 19a7 02       		.uleb128 0x2
 5790 19a8 91       		.byte	0x91
 5791 19a9 4D       		.sleb128 -51
 5792 19aa 26       		.uleb128 0x26
 5793 19ab 01       		.uleb128 0x1
 5794 19ac 51       		.byte	0x51
 5795 19ad 02       		.uleb128 0x2
 5796 19ae 91       		.byte	0x91
 5797 19af 4C       		.sleb128 -52
 5798 19b0 26       		.uleb128 0x26
 5799 19b1 01       		.uleb128 0x1
 5800 19b2 52       		.byte	0x52
 5801 19b3 02       		.uleb128 0x2
 5802 19b4 91       		.byte	0x91
 5803 19b5 4E       		.sleb128 -50
 5804 19b6 00       		.byte	0
 5805 19b7 00       		.byte	0
 5806 19b8 2F       		.uleb128 0x2f
 5807 19b9 C4000000 		.4byte	.LBB13
 5808 19bd 1E000000 		.4byte	.LBE13-.LBB13
 5809 19c1 0F1A0000 		.4byte	0x1a0f
 5810 19c5 38       		.uleb128 0x38
 5811 19c6 71070000 		.4byte	.LASF149
 5812 19ca 01       		.byte	0x1
 5813 19cb 9502     		.2byte	0x295
 5814 19cd 91020000 		.4byte	0x291
 5815 19d1 02       		.uleb128 0x2
 5816 19d2 91       		.byte	0x91
 5817 19d3 4E       		.sleb128 -50
ARM GAS  C:\Users\samue\AppData\Local\Temp\ccYWUiYX.s 			page 117


 5818 19d4 39       		.uleb128 0x39
 5819 19d5 64757000 		.ascii	"dup\000"
 5820 19d9 01       		.byte	0x1
 5821 19da 9602     		.2byte	0x296
 5822 19dc B4000000 		.4byte	0xb4
 5823 19e0 02       		.uleb128 0x2
 5824 19e1 91       		.byte	0x91
 5825 19e2 4C       		.sleb128 -52
 5826 19e3 38       		.uleb128 0x38
 5827 19e4 D7000000 		.4byte	.LASF22
 5828 19e8 01       		.byte	0x1
 5829 19e9 9602     		.2byte	0x296
 5830 19eb B4000000 		.4byte	0xb4
 5831 19ef 02       		.uleb128 0x2
 5832 19f0 91       		.byte	0x91
 5833 19f1 4D       		.sleb128 -51
 5834 19f2 2A       		.uleb128 0x2a
 5835 19f3 D8000000 		.4byte	.LVL288
 5836 19f7 561C0000 		.4byte	0x1c56
 5837 19fb 26       		.uleb128 0x26
 5838 19fc 01       		.uleb128 0x1
 5839 19fd 50       		.byte	0x50
 5840 19fe 02       		.uleb128 0x2
 5841 19ff 91       		.byte	0x91
 5842 1a00 4D       		.sleb128 -51
 5843 1a01 26       		.uleb128 0x26
 5844 1a02 01       		.uleb128 0x1
 5845 1a03 51       		.byte	0x51
 5846 1a04 02       		.uleb128 0x2
 5847 1a05 91       		.byte	0x91
 5848 1a06 4C       		.sleb128 -52
 5849 1a07 26       		.uleb128 0x26
 5850 1a08 01       		.uleb128 0x1
 5851 1a09 52       		.byte	0x52
 5852 1a0a 02       		.uleb128 0x2
 5853 1a0b 91       		.byte	0x91
 5854 1a0c 4E       		.sleb128 -50
 5855 1a0d 00       		.byte	0
 5856 1a0e 00       		.byte	0
 5857 1a0f 28       		.uleb128 0x28
 5858 1a10 1A000000 		.4byte	.LVL272
 5859 1a14 611C0000 		.4byte	0x1c61
 5860 1a18 231A0000 		.4byte	0x1a23
 5861 1a1c 26       		.uleb128 0x26
 5862 1a1d 01       		.uleb128 0x1
 5863 1a1e 50       		.byte	0x50
 5864 1a1f 02       		.uleb128 0x2
 5865 1a20 77       		.byte	0x77
 5866 1a21 00       		.sleb128 0
 5867 1a22 00       		.byte	0
 5868 1a23 28       		.uleb128 0x28
 5869 1a24 26000000 		.4byte	.LVL273
 5870 1a28 091C0000 		.4byte	0x1c09
 5871 1a2c 371A0000 		.4byte	0x1a37
 5872 1a30 26       		.uleb128 0x26
 5873 1a31 01       		.uleb128 0x1
 5874 1a32 50       		.byte	0x50
ARM GAS  C:\Users\samue\AppData\Local\Temp\ccYWUiYX.s 			page 118


 5875 1a33 02       		.uleb128 0x2
 5876 1a34 91       		.byte	0x91
 5877 1a35 5C       		.sleb128 -36
 5878 1a36 00       		.byte	0
 5879 1a37 28       		.uleb128 0x28
 5880 1a38 2E000000 		.4byte	.LVL274
 5881 1a3c 2A1C0000 		.4byte	0x1c2a
 5882 1a40 4B1A0000 		.4byte	0x1a4b
 5883 1a44 26       		.uleb128 0x26
 5884 1a45 01       		.uleb128 0x1
 5885 1a46 50       		.byte	0x50
 5886 1a47 02       		.uleb128 0x2
 5887 1a48 91       		.byte	0x91
 5888 1a49 5C       		.sleb128 -36
 5889 1a4a 00       		.byte	0
 5890 1a4b 28       		.uleb128 0x28
 5891 1a4c 3E000000 		.4byte	.LVL275
 5892 1a50 4F070000 		.4byte	0x74f
 5893 1a54 5F1A0000 		.4byte	0x1a5f
 5894 1a58 26       		.uleb128 0x26
 5895 1a59 01       		.uleb128 0x1
 5896 1a5a 50       		.byte	0x50
 5897 1a5b 02       		.uleb128 0x2
 5898 1a5c 74       		.byte	0x74
 5899 1a5d 00       		.sleb128 0
 5900 1a5e 00       		.byte	0
 5901 1a5f 28       		.uleb128 0x28
 5902 1a60 6E000000 		.4byte	.LVL278
 5903 1a64 E41C0000 		.4byte	0x1ce4
 5904 1a68 751A0000 		.4byte	0x1a75
 5905 1a6c 26       		.uleb128 0x26
 5906 1a6d 01       		.uleb128 0x1
 5907 1a6e 52       		.byte	0x52
 5908 1a6f 04       		.uleb128 0x4
 5909 1a70 91       		.byte	0x91
 5910 1a71 54       		.sleb128 -44
 5911 1a72 94       		.byte	0x94
 5912 1a73 01       		.byte	0x1
 5913 1a74 00       		.byte	0
 5914 1a75 28       		.uleb128 0x28
 5915 1a76 7A000000 		.4byte	.LVL280
 5916 1a7a B9080000 		.4byte	0x8b9
 5917 1a7e 8F1A0000 		.4byte	0x1a8f
 5918 1a82 26       		.uleb128 0x26
 5919 1a83 01       		.uleb128 0x1
 5920 1a84 50       		.byte	0x50
 5921 1a85 02       		.uleb128 0x2
 5922 1a86 74       		.byte	0x74
 5923 1a87 00       		.sleb128 0
 5924 1a88 26       		.uleb128 0x26
 5925 1a89 01       		.uleb128 0x1
 5926 1a8a 52       		.byte	0x52
 5927 1a8b 02       		.uleb128 0x2
 5928 1a8c 91       		.byte	0x91
 5929 1a8d 5C       		.sleb128 -36
 5930 1a8e 00       		.byte	0
 5931 1a8f 28       		.uleb128 0x28
ARM GAS  C:\Users\samue\AppData\Local\Temp\ccYWUiYX.s 			page 119


 5932 1a90 90000000 		.4byte	.LVL282
 5933 1a94 AC110000 		.4byte	0x11ac
 5934 1a98 AE1A0000 		.4byte	0x1aae
 5935 1a9c 26       		.uleb128 0x26
 5936 1a9d 01       		.uleb128 0x1
 5937 1a9e 50       		.byte	0x50
 5938 1a9f 02       		.uleb128 0x2
 5939 1aa0 74       		.byte	0x74
 5940 1aa1 00       		.sleb128 0
 5941 1aa2 26       		.uleb128 0x26
 5942 1aa3 01       		.uleb128 0x1
 5943 1aa4 51       		.byte	0x51
 5944 1aa5 01       		.uleb128 0x1
 5945 1aa6 34       		.byte	0x34
 5946 1aa7 26       		.uleb128 0x26
 5947 1aa8 01       		.uleb128 0x1
 5948 1aa9 52       		.byte	0x52
 5949 1aaa 02       		.uleb128 0x2
 5950 1aab 91       		.byte	0x91
 5951 1aac 5C       		.sleb128 -36
 5952 1aad 00       		.byte	0
 5953 1aae 28       		.uleb128 0x28
 5954 1aaf C0000000 		.4byte	.LVL287
 5955 1ab3 AC110000 		.4byte	0x11ac
 5956 1ab7 CD1A0000 		.4byte	0x1acd
 5957 1abb 26       		.uleb128 0x26
 5958 1abc 01       		.uleb128 0x1
 5959 1abd 50       		.byte	0x50
 5960 1abe 02       		.uleb128 0x2
 5961 1abf 74       		.byte	0x74
 5962 1ac0 00       		.sleb128 0
 5963 1ac1 26       		.uleb128 0x26
 5964 1ac2 01       		.uleb128 0x1
 5965 1ac3 51       		.byte	0x51
 5966 1ac4 01       		.uleb128 0x1
 5967 1ac5 37       		.byte	0x37
 5968 1ac6 26       		.uleb128 0x26
 5969 1ac7 01       		.uleb128 0x1
 5970 1ac8 52       		.byte	0x52
 5971 1ac9 02       		.uleb128 0x2
 5972 1aca 91       		.byte	0x91
 5973 1acb 5C       		.sleb128 -36
 5974 1acc 00       		.byte	0
 5975 1acd 28       		.uleb128 0x28
 5976 1ace 04010000 		.4byte	.LVL296
 5977 1ad2 7E0D0000 		.4byte	0xd7e
 5978 1ad6 E11A0000 		.4byte	0x1ae1
 5979 1ada 26       		.uleb128 0x26
 5980 1adb 01       		.uleb128 0x1
 5981 1adc 50       		.byte	0x50
 5982 1add 02       		.uleb128 0x2
 5983 1ade 74       		.byte	0x74
 5984 1adf 00       		.sleb128 0
 5985 1ae0 00       		.byte	0
 5986 1ae1 2A       		.uleb128 0x2a
 5987 1ae2 0A010000 		.4byte	.LVL297
 5988 1ae6 6C1C0000 		.4byte	0x1c6c
ARM GAS  C:\Users\samue\AppData\Local\Temp\ccYWUiYX.s 			page 120


 5989 1aea 26       		.uleb128 0x26
 5990 1aeb 01       		.uleb128 0x1
 5991 1aec 50       		.byte	0x50
 5992 1aed 02       		.uleb128 0x2
 5993 1aee 77       		.byte	0x77
 5994 1aef 00       		.sleb128 0
 5995 1af0 00       		.byte	0
 5996 1af1 00       		.byte	0
 5997 1af2 31       		.uleb128 0x31
 5998 1af3 76090000 		.4byte	.LASF170
 5999 1af7 01       		.byte	0x1
 6000 1af8 A802     		.2byte	0x2a8
 6001 1afa 52010000 		.4byte	0x152
 6002 1afe 00000000 		.4byte	.LFB93
 6003 1b02 4C000000 		.4byte	.LFE93-.LFB93
 6004 1b06 01       		.uleb128 0x1
 6005 1b07 9C       		.byte	0x9c
 6006 1b08 CC1B0000 		.4byte	0x1bcc
 6007 1b0c 32       		.uleb128 0x32
 6008 1b0d 6300     		.ascii	"c\000"
 6009 1b0f 01       		.byte	0x1
 6010 1b10 A802     		.2byte	0x2a8
 6011 1b12 76070000 		.4byte	0x776
 6012 1b16 500F0000 		.4byte	.LLST82
 6013 1b1a 34       		.uleb128 0x34
 6014 1b1b 726300   		.ascii	"rc\000"
 6015 1b1e 01       		.byte	0x1
 6016 1b1f AA02     		.2byte	0x2aa
 6017 1b21 52010000 		.4byte	0x152
 6018 1b25 6E0F0000 		.4byte	.LLST83
 6019 1b29 38       		.uleb128 0x38
 6020 1b2a DF090000 		.4byte	.LASF133
 6021 1b2e 01       		.byte	0x1
 6022 1b2f AB02     		.2byte	0x2ab
 6023 1b31 B1030000 		.4byte	0x3b1
 6024 1b35 02       		.uleb128 0x2
 6025 1b36 91       		.byte	0x91
 6026 1b37 64       		.sleb128 -28
 6027 1b38 34       		.uleb128 0x34
 6028 1b39 6C656E00 		.ascii	"len\000"
 6029 1b3d 01       		.byte	0x1
 6030 1b3e AC02     		.2byte	0x2ac
 6031 1b40 52010000 		.4byte	0x152
 6032 1b44 A60F0000 		.4byte	.LLST84
 6033 1b48 28       		.uleb128 0x28
 6034 1b49 10000000 		.4byte	.LVL301
 6035 1b4d 611C0000 		.4byte	0x1c61
 6036 1b51 5C1B0000 		.4byte	0x1b5c
 6037 1b55 26       		.uleb128 0x26
 6038 1b56 01       		.uleb128 0x1
 6039 1b57 50       		.byte	0x50
 6040 1b58 02       		.uleb128 0x2
 6041 1b59 75       		.byte	0x75
 6042 1b5a 00       		.sleb128 0
 6043 1b5b 00       		.byte	0
 6044 1b5c 28       		.uleb128 0x28
 6045 1b5d 16000000 		.4byte	.LVL302
ARM GAS  C:\Users\samue\AppData\Local\Temp\ccYWUiYX.s 			page 121


 6046 1b61 091C0000 		.4byte	0x1c09
 6047 1b65 701B0000 		.4byte	0x1b70
 6048 1b69 26       		.uleb128 0x26
 6049 1b6a 01       		.uleb128 0x1
 6050 1b6b 50       		.byte	0x50
 6051 1b6c 02       		.uleb128 0x2
 6052 1b6d 91       		.byte	0x91
 6053 1b6e 64       		.sleb128 -28
 6054 1b6f 00       		.byte	0
 6055 1b70 28       		.uleb128 0x28
 6056 1b71 1E000000 		.4byte	.LVL303
 6057 1b75 2A1C0000 		.4byte	0x1c2a
 6058 1b79 841B0000 		.4byte	0x1b84
 6059 1b7d 26       		.uleb128 0x26
 6060 1b7e 01       		.uleb128 0x1
 6061 1b7f 50       		.byte	0x50
 6062 1b80 02       		.uleb128 0x2
 6063 1b81 91       		.byte	0x91
 6064 1b82 64       		.sleb128 -28
 6065 1b83 00       		.byte	0
 6066 1b84 2C       		.uleb128 0x2c
 6067 1b85 26000000 		.4byte	.LVL304
 6068 1b89 EF1C0000 		.4byte	0x1cef
 6069 1b8d 28       		.uleb128 0x28
 6070 1b8e 32000000 		.4byte	.LVL306
 6071 1b92 B9080000 		.4byte	0x8b9
 6072 1b96 A71B0000 		.4byte	0x1ba7
 6073 1b9a 26       		.uleb128 0x26
 6074 1b9b 01       		.uleb128 0x1
 6075 1b9c 50       		.byte	0x50
 6076 1b9d 02       		.uleb128 0x2
 6077 1b9e 74       		.byte	0x74
 6078 1b9f 00       		.sleb128 0
 6079 1ba0 26       		.uleb128 0x26
 6080 1ba1 01       		.uleb128 0x1
 6081 1ba2 52       		.byte	0x52
 6082 1ba3 02       		.uleb128 0x2
 6083 1ba4 91       		.byte	0x91
 6084 1ba5 64       		.sleb128 -28
 6085 1ba6 00       		.byte	0
 6086 1ba7 28       		.uleb128 0x28
 6087 1ba8 40000000 		.4byte	.LVL310
 6088 1bac 7E0D0000 		.4byte	0xd7e
 6089 1bb0 BB1B0000 		.4byte	0x1bbb
 6090 1bb4 26       		.uleb128 0x26
 6091 1bb5 01       		.uleb128 0x1
 6092 1bb6 50       		.byte	0x50
 6093 1bb7 02       		.uleb128 0x2
 6094 1bb8 74       		.byte	0x74
 6095 1bb9 00       		.sleb128 0
 6096 1bba 00       		.byte	0
 6097 1bbb 2A       		.uleb128 0x2a
 6098 1bbc 46000000 		.4byte	.LVL311
 6099 1bc0 6C1C0000 		.4byte	0x1c6c
 6100 1bc4 26       		.uleb128 0x26
 6101 1bc5 01       		.uleb128 0x1
 6102 1bc6 50       		.byte	0x50
ARM GAS  C:\Users\samue\AppData\Local\Temp\ccYWUiYX.s 			page 122


 6103 1bc7 02       		.uleb128 0x2
 6104 1bc8 75       		.byte	0x75
 6105 1bc9 00       		.sleb128 0
 6106 1bca 00       		.byte	0
 6107 1bcb 00       		.byte	0
 6108 1bcc 3C       		.uleb128 0x3c
 6109 1bcd 7E010000 		.4byte	.LASF201
 6110 1bd1 11       		.byte	0x11
 6111 1bd2 1207     		.2byte	0x712
 6112 1bd4 D81B0000 		.4byte	0x1bd8
 6113 1bd8 3D       		.uleb128 0x3d
 6114 1bd9 01030000 		.4byte	0x301
 6115 1bdd 3E       		.uleb128 0x3e
 6116 1bde A4070000 		.4byte	.LASF171
 6117 1be2 A4070000 		.4byte	.LASF171
 6118 1be6 0C       		.byte	0xc
 6119 1be7 51       		.byte	0x51
 6120 1be8 3E       		.uleb128 0x3e
 6121 1be9 8D040000 		.4byte	.LASF172
 6122 1bed 8D040000 		.4byte	.LASF172
 6123 1bf1 0C       		.byte	0xc
 6124 1bf2 4E       		.byte	0x4e
 6125 1bf3 3E       		.uleb128 0x3e
 6126 1bf4 6E020000 		.4byte	.LASF173
 6127 1bf8 6E020000 		.4byte	.LASF173
 6128 1bfc 0C       		.byte	0xc
 6129 1bfd 50       		.byte	0x50
 6130 1bfe 3E       		.uleb128 0x3e
 6131 1bff 48030000 		.4byte	.LASF174
 6132 1c03 48030000 		.4byte	.LASF174
 6133 1c07 02       		.byte	0x2
 6134 1c08 67       		.byte	0x67
 6135 1c09 3E       		.uleb128 0x3e
 6136 1c0a C0060000 		.4byte	.LASF175
 6137 1c0e C0060000 		.4byte	.LASF175
 6138 1c12 0C       		.byte	0xc
 6139 1c13 4D       		.byte	0x4d
 6140 1c14 3E       		.uleb128 0x3e
 6141 1c15 CA060000 		.4byte	.LASF176
 6142 1c19 CA060000 		.4byte	.LASF176
 6143 1c1d 0B       		.byte	0xb
 6144 1c1e 36       		.byte	0x36
 6145 1c1f 3E       		.uleb128 0x3e
 6146 1c20 A4040000 		.4byte	.LASF177
 6147 1c24 A4040000 		.4byte	.LASF177
 6148 1c28 02       		.byte	0x2
 6149 1c29 65       		.byte	0x65
 6150 1c2a 3E       		.uleb128 0x3e
 6151 1c2b A9020000 		.4byte	.LASF178
 6152 1c2f A9020000 		.4byte	.LASF178
 6153 1c33 0C       		.byte	0xc
 6154 1c34 4F       		.byte	0x4f
 6155 1c35 3E       		.uleb128 0x3e
 6156 1c36 36020000 		.4byte	.LASF179
 6157 1c3a 36020000 		.4byte	.LASF179
 6158 1c3e 03       		.byte	0x3
 6159 1c3f 92       		.byte	0x92
ARM GAS  C:\Users\samue\AppData\Local\Temp\ccYWUiYX.s 			page 123


 6160 1c40 3E       		.uleb128 0x3e
 6161 1c41 54000000 		.4byte	.LASF180
 6162 1c45 54000000 		.4byte	.LASF180
 6163 1c49 0D       		.byte	0xd
 6164 1c4a 1F       		.byte	0x1f
 6165 1c4b 3E       		.uleb128 0x3e
 6166 1c4c C5020000 		.4byte	.LASF181
 6167 1c50 C5020000 		.4byte	.LASF181
 6168 1c54 02       		.byte	0x2
 6169 1c55 61       		.byte	0x61
 6170 1c56 3E       		.uleb128 0x3e
 6171 1c57 D6040000 		.4byte	.LASF182
 6172 1c5b D6040000 		.4byte	.LASF182
 6173 1c5f 02       		.byte	0x2
 6174 1c60 62       		.byte	0x62
 6175 1c61 3E       		.uleb128 0x3e
 6176 1c62 0B030000 		.4byte	.LASF183
 6177 1c66 0B030000 		.4byte	.LASF183
 6178 1c6a 0B       		.byte	0xb
 6179 1c6b 37       		.byte	0x37
 6180 1c6c 3E       		.uleb128 0x3e
 6181 1c6d 98070000 		.4byte	.LASF184
 6182 1c71 98070000 		.4byte	.LASF184
 6183 1c75 0B       		.byte	0xb
 6184 1c76 38       		.byte	0x38
 6185 1c77 3F       		.uleb128 0x3f
 6186 1c78 1B0A0000 		.4byte	.LASF185
 6187 1c7c 1B0A0000 		.4byte	.LASF185
 6188 1c80 0A       		.byte	0xa
 6189 1c81 ED02     		.2byte	0x2ed
 6190 1c83 3E       		.uleb128 0x3e
 6191 1c84 9D020000 		.4byte	.LASF186
 6192 1c88 9D020000 		.4byte	.LASF186
 6193 1c8c 0B       		.byte	0xb
 6194 1c8d 3F       		.byte	0x3f
 6195 1c8e 40       		.uleb128 0x40
 6196 1c8f 30090000 		.4byte	.LASF202
 6197 1c93 30090000 		.4byte	.LASF202
 6198 1c97 3E       		.uleb128 0x3e
 6199 1c98 B0070000 		.4byte	.LASF187
 6200 1c9c B0070000 		.4byte	.LASF187
 6201 1ca0 03       		.byte	0x3
 6202 1ca1 8B       		.byte	0x8b
 6203 1ca2 3E       		.uleb128 0x3e
 6204 1ca3 FB030000 		.4byte	.LASF188
 6205 1ca7 FB030000 		.4byte	.LASF188
 6206 1cab 03       		.byte	0x3
 6207 1cac 8F       		.byte	0x8f
 6208 1cad 3E       		.uleb128 0x3e
 6209 1cae 75000000 		.4byte	.LASF189
 6210 1cb2 75000000 		.4byte	.LASF189
 6211 1cb6 0E       		.byte	0xe
 6212 1cb7 1C       		.byte	0x1c
 6213 1cb8 3E       		.uleb128 0x3e
 6214 1cb9 F4060000 		.4byte	.LASF190
 6215 1cbd F4060000 		.4byte	.LASF190
 6216 1cc1 0F       		.byte	0xf
ARM GAS  C:\Users\samue\AppData\Local\Temp\ccYWUiYX.s 			page 124


 6217 1cc2 24       		.byte	0x24
 6218 1cc3 3E       		.uleb128 0x3e
 6219 1cc4 AD050000 		.4byte	.LASF191
 6220 1cc8 AD050000 		.4byte	.LASF191
 6221 1ccc 0F       		.byte	0xf
 6222 1ccd 1C       		.byte	0x1c
 6223 1cce 3E       		.uleb128 0x3e
 6224 1ccf 6A050000 		.4byte	.LASF192
 6225 1cd3 6A050000 		.4byte	.LASF192
 6226 1cd7 10       		.byte	0x10
 6227 1cd8 24       		.byte	0x24
 6228 1cd9 3E       		.uleb128 0x3e
 6229 1cda 83050000 		.4byte	.LASF193
 6230 1cde 83050000 		.4byte	.LASF193
 6231 1ce2 10       		.byte	0x10
 6232 1ce3 1C       		.byte	0x1c
 6233 1ce4 3E       		.uleb128 0x3e
 6234 1ce5 DC000000 		.4byte	.LASF194
 6235 1ce9 DC000000 		.4byte	.LASF194
 6236 1ced 0D       		.byte	0xd
 6237 1cee 1C       		.byte	0x1c
 6238 1cef 3E       		.uleb128 0x3e
 6239 1cf0 41050000 		.4byte	.LASF195
 6240 1cf4 41050000 		.4byte	.LASF195
 6241 1cf8 03       		.byte	0x3
 6242 1cf9 91       		.byte	0x91
 6243 1cfa 00       		.byte	0
 6244              		.section	.debug_abbrev,"",%progbits
 6245              	.Ldebug_abbrev0:
 6246 0000 01       		.uleb128 0x1
 6247 0001 11       		.uleb128 0x11
 6248 0002 01       		.byte	0x1
 6249 0003 25       		.uleb128 0x25
 6250 0004 0E       		.uleb128 0xe
 6251 0005 13       		.uleb128 0x13
 6252 0006 0B       		.uleb128 0xb
 6253 0007 03       		.uleb128 0x3
 6254 0008 0E       		.uleb128 0xe
 6255 0009 1B       		.uleb128 0x1b
 6256 000a 0E       		.uleb128 0xe
 6257 000b 55       		.uleb128 0x55
 6258 000c 17       		.uleb128 0x17
 6259 000d 11       		.uleb128 0x11
 6260 000e 01       		.uleb128 0x1
 6261 000f 10       		.uleb128 0x10
 6262 0010 17       		.uleb128 0x17
 6263 0011 00       		.byte	0
 6264 0012 00       		.byte	0
 6265 0013 02       		.uleb128 0x2
 6266 0014 04       		.uleb128 0x4
 6267 0015 01       		.byte	0x1
 6268 0016 03       		.uleb128 0x3
 6269 0017 0E       		.uleb128 0xe
 6270 0018 0B       		.uleb128 0xb
 6271 0019 0B       		.uleb128 0xb
 6272 001a 49       		.uleb128 0x49
 6273 001b 13       		.uleb128 0x13
ARM GAS  C:\Users\samue\AppData\Local\Temp\ccYWUiYX.s 			page 125


 6274 001c 3A       		.uleb128 0x3a
 6275 001d 0B       		.uleb128 0xb
 6276 001e 3B       		.uleb128 0x3b
 6277 001f 0B       		.uleb128 0xb
 6278 0020 01       		.uleb128 0x1
 6279 0021 13       		.uleb128 0x13
 6280 0022 00       		.byte	0
 6281 0023 00       		.byte	0
 6282 0024 03       		.uleb128 0x3
 6283 0025 28       		.uleb128 0x28
 6284 0026 00       		.byte	0
 6285 0027 03       		.uleb128 0x3
 6286 0028 0E       		.uleb128 0xe
 6287 0029 1C       		.uleb128 0x1c
 6288 002a 0D       		.uleb128 0xd
 6289 002b 00       		.byte	0
 6290 002c 00       		.byte	0
 6291 002d 04       		.uleb128 0x4
 6292 002e 28       		.uleb128 0x28
 6293 002f 00       		.byte	0
 6294 0030 03       		.uleb128 0x3
 6295 0031 0E       		.uleb128 0xe
 6296 0032 1C       		.uleb128 0x1c
 6297 0033 0B       		.uleb128 0xb
 6298 0034 00       		.byte	0
 6299 0035 00       		.byte	0
 6300 0036 05       		.uleb128 0x5
 6301 0037 24       		.uleb128 0x24
 6302 0038 00       		.byte	0
 6303 0039 0B       		.uleb128 0xb
 6304 003a 0B       		.uleb128 0xb
 6305 003b 3E       		.uleb128 0x3e
 6306 003c 0B       		.uleb128 0xb
 6307 003d 03       		.uleb128 0x3
 6308 003e 0E       		.uleb128 0xe
 6309 003f 00       		.byte	0
 6310 0040 00       		.byte	0
 6311 0041 06       		.uleb128 0x6
 6312 0042 13       		.uleb128 0x13
 6313 0043 01       		.byte	0x1
 6314 0044 0B       		.uleb128 0xb
 6315 0045 0B       		.uleb128 0xb
 6316 0046 3A       		.uleb128 0x3a
 6317 0047 0B       		.uleb128 0xb
 6318 0048 3B       		.uleb128 0x3b
 6319 0049 0B       		.uleb128 0xb
 6320 004a 01       		.uleb128 0x1
 6321 004b 13       		.uleb128 0x13
 6322 004c 00       		.byte	0
 6323 004d 00       		.byte	0
 6324 004e 07       		.uleb128 0x7
 6325 004f 0D       		.uleb128 0xd
 6326 0050 00       		.byte	0
 6327 0051 03       		.uleb128 0x3
 6328 0052 0E       		.uleb128 0xe
 6329 0053 3A       		.uleb128 0x3a
 6330 0054 0B       		.uleb128 0xb
ARM GAS  C:\Users\samue\AppData\Local\Temp\ccYWUiYX.s 			page 126


 6331 0055 3B       		.uleb128 0x3b
 6332 0056 0B       		.uleb128 0xb
 6333 0057 49       		.uleb128 0x49
 6334 0058 13       		.uleb128 0x13
 6335 0059 0B       		.uleb128 0xb
 6336 005a 0B       		.uleb128 0xb
 6337 005b 0D       		.uleb128 0xd
 6338 005c 0B       		.uleb128 0xb
 6339 005d 0C       		.uleb128 0xc
 6340 005e 0B       		.uleb128 0xb
 6341 005f 38       		.uleb128 0x38
 6342 0060 0B       		.uleb128 0xb
 6343 0061 00       		.byte	0
 6344 0062 00       		.byte	0
 6345 0063 08       		.uleb128 0x8
 6346 0064 0D       		.uleb128 0xd
 6347 0065 00       		.byte	0
 6348 0066 03       		.uleb128 0x3
 6349 0067 08       		.uleb128 0x8
 6350 0068 3A       		.uleb128 0x3a
 6351 0069 0B       		.uleb128 0xb
 6352 006a 3B       		.uleb128 0x3b
 6353 006b 0B       		.uleb128 0xb
 6354 006c 49       		.uleb128 0x49
 6355 006d 13       		.uleb128 0x13
 6356 006e 0B       		.uleb128 0xb
 6357 006f 0B       		.uleb128 0xb
 6358 0070 0D       		.uleb128 0xd
 6359 0071 0B       		.uleb128 0xb
 6360 0072 0C       		.uleb128 0xc
 6361 0073 0B       		.uleb128 0xb
 6362 0074 38       		.uleb128 0x38
 6363 0075 0B       		.uleb128 0xb
 6364 0076 00       		.byte	0
 6365 0077 00       		.byte	0
 6366 0078 09       		.uleb128 0x9
 6367 0079 17       		.uleb128 0x17
 6368 007a 01       		.byte	0x1
 6369 007b 0B       		.uleb128 0xb
 6370 007c 0B       		.uleb128 0xb
 6371 007d 3A       		.uleb128 0x3a
 6372 007e 0B       		.uleb128 0xb
 6373 007f 3B       		.uleb128 0x3b
 6374 0080 0B       		.uleb128 0xb
 6375 0081 01       		.uleb128 0x1
 6376 0082 13       		.uleb128 0x13
 6377 0083 00       		.byte	0
 6378 0084 00       		.byte	0
 6379 0085 0A       		.uleb128 0xa
 6380 0086 0D       		.uleb128 0xd
 6381 0087 00       		.byte	0
 6382 0088 03       		.uleb128 0x3
 6383 0089 0E       		.uleb128 0xe
 6384 008a 3A       		.uleb128 0x3a
 6385 008b 0B       		.uleb128 0xb
 6386 008c 3B       		.uleb128 0x3b
 6387 008d 0B       		.uleb128 0xb
ARM GAS  C:\Users\samue\AppData\Local\Temp\ccYWUiYX.s 			page 127


 6388 008e 49       		.uleb128 0x49
 6389 008f 13       		.uleb128 0x13
 6390 0090 00       		.byte	0
 6391 0091 00       		.byte	0
 6392 0092 0B       		.uleb128 0xb
 6393 0093 16       		.uleb128 0x16
 6394 0094 00       		.byte	0
 6395 0095 03       		.uleb128 0x3
 6396 0096 0E       		.uleb128 0xe
 6397 0097 3A       		.uleb128 0x3a
 6398 0098 0B       		.uleb128 0xb
 6399 0099 3B       		.uleb128 0x3b
 6400 009a 0B       		.uleb128 0xb
 6401 009b 49       		.uleb128 0x49
 6402 009c 13       		.uleb128 0x13
 6403 009d 00       		.byte	0
 6404 009e 00       		.byte	0
 6405 009f 0C       		.uleb128 0xc
 6406 00a0 0D       		.uleb128 0xd
 6407 00a1 00       		.byte	0
 6408 00a2 03       		.uleb128 0x3
 6409 00a3 08       		.uleb128 0x8
 6410 00a4 3A       		.uleb128 0x3a
 6411 00a5 0B       		.uleb128 0xb
 6412 00a6 3B       		.uleb128 0x3b
 6413 00a7 0B       		.uleb128 0xb
 6414 00a8 49       		.uleb128 0x49
 6415 00a9 13       		.uleb128 0x13
 6416 00aa 38       		.uleb128 0x38
 6417 00ab 0B       		.uleb128 0xb
 6418 00ac 00       		.byte	0
 6419 00ad 00       		.byte	0
 6420 00ae 0D       		.uleb128 0xd
 6421 00af 0D       		.uleb128 0xd
 6422 00b0 00       		.byte	0
 6423 00b1 03       		.uleb128 0x3
 6424 00b2 0E       		.uleb128 0xe
 6425 00b3 3A       		.uleb128 0x3a
 6426 00b4 0B       		.uleb128 0xb
 6427 00b5 3B       		.uleb128 0x3b
 6428 00b6 0B       		.uleb128 0xb
 6429 00b7 49       		.uleb128 0x49
 6430 00b8 13       		.uleb128 0x13
 6431 00b9 38       		.uleb128 0x38
 6432 00ba 0B       		.uleb128 0xb
 6433 00bb 00       		.byte	0
 6434 00bc 00       		.byte	0
 6435 00bd 0E       		.uleb128 0xe
 6436 00be 24       		.uleb128 0x24
 6437 00bf 00       		.byte	0
 6438 00c0 0B       		.uleb128 0xb
 6439 00c1 0B       		.uleb128 0xb
 6440 00c2 3E       		.uleb128 0x3e
 6441 00c3 0B       		.uleb128 0xb
 6442 00c4 03       		.uleb128 0x3
 6443 00c5 08       		.uleb128 0x8
 6444 00c6 00       		.byte	0
ARM GAS  C:\Users\samue\AppData\Local\Temp\ccYWUiYX.s 			page 128


 6445 00c7 00       		.byte	0
 6446 00c8 0F       		.uleb128 0xf
 6447 00c9 0F       		.uleb128 0xf
 6448 00ca 00       		.byte	0
 6449 00cb 0B       		.uleb128 0xb
 6450 00cc 0B       		.uleb128 0xb
 6451 00cd 49       		.uleb128 0x49
 6452 00ce 13       		.uleb128 0x13
 6453 00cf 00       		.byte	0
 6454 00d0 00       		.byte	0
 6455 00d1 10       		.uleb128 0x10
 6456 00d2 01       		.uleb128 0x1
 6457 00d3 01       		.byte	0x1
 6458 00d4 49       		.uleb128 0x49
 6459 00d5 13       		.uleb128 0x13
 6460 00d6 01       		.uleb128 0x1
 6461 00d7 13       		.uleb128 0x13
 6462 00d8 00       		.byte	0
 6463 00d9 00       		.byte	0
 6464 00da 11       		.uleb128 0x11
 6465 00db 21       		.uleb128 0x21
 6466 00dc 00       		.byte	0
 6467 00dd 49       		.uleb128 0x49
 6468 00de 13       		.uleb128 0x13
 6469 00df 2F       		.uleb128 0x2f
 6470 00e0 0B       		.uleb128 0xb
 6471 00e1 00       		.byte	0
 6472 00e2 00       		.byte	0
 6473 00e3 12       		.uleb128 0x12
 6474 00e4 0F       		.uleb128 0xf
 6475 00e5 00       		.byte	0
 6476 00e6 0B       		.uleb128 0xb
 6477 00e7 0B       		.uleb128 0xb
 6478 00e8 00       		.byte	0
 6479 00e9 00       		.byte	0
 6480 00ea 13       		.uleb128 0x13
 6481 00eb 26       		.uleb128 0x26
 6482 00ec 00       		.byte	0
 6483 00ed 49       		.uleb128 0x49
 6484 00ee 13       		.uleb128 0x13
 6485 00ef 00       		.byte	0
 6486 00f0 00       		.byte	0
 6487 00f1 14       		.uleb128 0x14
 6488 00f2 13       		.uleb128 0x13
 6489 00f3 01       		.byte	0x1
 6490 00f4 03       		.uleb128 0x3
 6491 00f5 0E       		.uleb128 0xe
 6492 00f6 0B       		.uleb128 0xb
 6493 00f7 0B       		.uleb128 0xb
 6494 00f8 3A       		.uleb128 0x3a
 6495 00f9 0B       		.uleb128 0xb
 6496 00fa 3B       		.uleb128 0x3b
 6497 00fb 0B       		.uleb128 0xb
 6498 00fc 01       		.uleb128 0x1
 6499 00fd 13       		.uleb128 0x13
 6500 00fe 00       		.byte	0
 6501 00ff 00       		.byte	0
ARM GAS  C:\Users\samue\AppData\Local\Temp\ccYWUiYX.s 			page 129


 6502 0100 15       		.uleb128 0x15
 6503 0101 15       		.uleb128 0x15
 6504 0102 01       		.byte	0x1
 6505 0103 27       		.uleb128 0x27
 6506 0104 19       		.uleb128 0x19
 6507 0105 49       		.uleb128 0x49
 6508 0106 13       		.uleb128 0x13
 6509 0107 01       		.uleb128 0x1
 6510 0108 13       		.uleb128 0x13
 6511 0109 00       		.byte	0
 6512 010a 00       		.byte	0
 6513 010b 16       		.uleb128 0x16
 6514 010c 05       		.uleb128 0x5
 6515 010d 00       		.byte	0
 6516 010e 49       		.uleb128 0x49
 6517 010f 13       		.uleb128 0x13
 6518 0110 00       		.byte	0
 6519 0111 00       		.byte	0
 6520 0112 17       		.uleb128 0x17
 6521 0113 15       		.uleb128 0x15
 6522 0114 01       		.byte	0x1
 6523 0115 27       		.uleb128 0x27
 6524 0116 19       		.uleb128 0x19
 6525 0117 01       		.uleb128 0x1
 6526 0118 13       		.uleb128 0x13
 6527 0119 00       		.byte	0
 6528 011a 00       		.byte	0
 6529 011b 18       		.uleb128 0x18
 6530 011c 04       		.uleb128 0x4
 6531 011d 01       		.byte	0x1
 6532 011e 03       		.uleb128 0x3
 6533 011f 08       		.uleb128 0x8
 6534 0120 0B       		.uleb128 0xb
 6535 0121 0B       		.uleb128 0xb
 6536 0122 49       		.uleb128 0x49
 6537 0123 13       		.uleb128 0x13
 6538 0124 3A       		.uleb128 0x3a
 6539 0125 0B       		.uleb128 0xb
 6540 0126 3B       		.uleb128 0x3b
 6541 0127 0B       		.uleb128 0xb
 6542 0128 01       		.uleb128 0x1
 6543 0129 13       		.uleb128 0x13
 6544 012a 00       		.byte	0
 6545 012b 00       		.byte	0
 6546 012c 19       		.uleb128 0x19
 6547 012d 2E       		.uleb128 0x2e
 6548 012e 01       		.byte	0x1
 6549 012f 03       		.uleb128 0x3
 6550 0130 0E       		.uleb128 0xe
 6551 0131 3A       		.uleb128 0x3a
 6552 0132 0B       		.uleb128 0xb
 6553 0133 3B       		.uleb128 0x3b
 6554 0134 0B       		.uleb128 0xb
 6555 0135 27       		.uleb128 0x27
 6556 0136 19       		.uleb128 0x19
 6557 0137 11       		.uleb128 0x11
 6558 0138 01       		.uleb128 0x1
ARM GAS  C:\Users\samue\AppData\Local\Temp\ccYWUiYX.s 			page 130


 6559 0139 12       		.uleb128 0x12
 6560 013a 06       		.uleb128 0x6
 6561 013b 40       		.uleb128 0x40
 6562 013c 18       		.uleb128 0x18
 6563 013d 9742     		.uleb128 0x2117
 6564 013f 19       		.uleb128 0x19
 6565 0140 01       		.uleb128 0x1
 6566 0141 13       		.uleb128 0x13
 6567 0142 00       		.byte	0
 6568 0143 00       		.byte	0
 6569 0144 1A       		.uleb128 0x1a
 6570 0145 05       		.uleb128 0x5
 6571 0146 00       		.byte	0
 6572 0147 03       		.uleb128 0x3
 6573 0148 08       		.uleb128 0x8
 6574 0149 3A       		.uleb128 0x3a
 6575 014a 0B       		.uleb128 0xb
 6576 014b 3B       		.uleb128 0x3b
 6577 014c 0B       		.uleb128 0xb
 6578 014d 49       		.uleb128 0x49
 6579 014e 13       		.uleb128 0x13
 6580 014f 02       		.uleb128 0x2
 6581 0150 18       		.uleb128 0x18
 6582 0151 00       		.byte	0
 6583 0152 00       		.byte	0
 6584 0153 1B       		.uleb128 0x1b
 6585 0154 05       		.uleb128 0x5
 6586 0155 00       		.byte	0
 6587 0156 03       		.uleb128 0x3
 6588 0157 0E       		.uleb128 0xe
 6589 0158 3A       		.uleb128 0x3a
 6590 0159 0B       		.uleb128 0xb
 6591 015a 3B       		.uleb128 0x3b
 6592 015b 0B       		.uleb128 0xb
 6593 015c 49       		.uleb128 0x49
 6594 015d 13       		.uleb128 0x13
 6595 015e 02       		.uleb128 0x2
 6596 015f 18       		.uleb128 0x18
 6597 0160 00       		.byte	0
 6598 0161 00       		.byte	0
 6599 0162 1C       		.uleb128 0x1c
 6600 0163 2E       		.uleb128 0x2e
 6601 0164 01       		.byte	0x1
 6602 0165 03       		.uleb128 0x3
 6603 0166 0E       		.uleb128 0xe
 6604 0167 3A       		.uleb128 0x3a
 6605 0168 0B       		.uleb128 0xb
 6606 0169 3B       		.uleb128 0x3b
 6607 016a 0B       		.uleb128 0xb
 6608 016b 27       		.uleb128 0x27
 6609 016c 19       		.uleb128 0x19
 6610 016d 49       		.uleb128 0x49
 6611 016e 13       		.uleb128 0x13
 6612 016f 11       		.uleb128 0x11
 6613 0170 01       		.uleb128 0x1
 6614 0171 12       		.uleb128 0x12
 6615 0172 06       		.uleb128 0x6
ARM GAS  C:\Users\samue\AppData\Local\Temp\ccYWUiYX.s 			page 131


 6616 0173 40       		.uleb128 0x40
 6617 0174 18       		.uleb128 0x18
 6618 0175 9742     		.uleb128 0x2117
 6619 0177 19       		.uleb128 0x19
 6620 0178 01       		.uleb128 0x1
 6621 0179 13       		.uleb128 0x13
 6622 017a 00       		.byte	0
 6623 017b 00       		.byte	0
 6624 017c 1D       		.uleb128 0x1d
 6625 017d 05       		.uleb128 0x5
 6626 017e 00       		.byte	0
 6627 017f 03       		.uleb128 0x3
 6628 0180 08       		.uleb128 0x8
 6629 0181 3A       		.uleb128 0x3a
 6630 0182 0B       		.uleb128 0xb
 6631 0183 3B       		.uleb128 0x3b
 6632 0184 0B       		.uleb128 0xb
 6633 0185 49       		.uleb128 0x49
 6634 0186 13       		.uleb128 0x13
 6635 0187 02       		.uleb128 0x2
 6636 0188 17       		.uleb128 0x17
 6637 0189 00       		.byte	0
 6638 018a 00       		.byte	0
 6639 018b 1E       		.uleb128 0x1e
 6640 018c 05       		.uleb128 0x5
 6641 018d 00       		.byte	0
 6642 018e 03       		.uleb128 0x3
 6643 018f 0E       		.uleb128 0xe
 6644 0190 3A       		.uleb128 0x3a
 6645 0191 0B       		.uleb128 0xb
 6646 0192 3B       		.uleb128 0x3b
 6647 0193 0B       		.uleb128 0xb
 6648 0194 49       		.uleb128 0x49
 6649 0195 13       		.uleb128 0x13
 6650 0196 02       		.uleb128 0x2
 6651 0197 17       		.uleb128 0x17
 6652 0198 00       		.byte	0
 6653 0199 00       		.byte	0
 6654 019a 1F       		.uleb128 0x1f
 6655 019b 34       		.uleb128 0x34
 6656 019c 00       		.byte	0
 6657 019d 03       		.uleb128 0x3
 6658 019e 08       		.uleb128 0x8
 6659 019f 3A       		.uleb128 0x3a
 6660 01a0 0B       		.uleb128 0xb
 6661 01a1 3B       		.uleb128 0x3b
 6662 01a2 0B       		.uleb128 0xb
 6663 01a3 49       		.uleb128 0x49
 6664 01a4 13       		.uleb128 0x13
 6665 01a5 02       		.uleb128 0x2
 6666 01a6 18       		.uleb128 0x18
 6667 01a7 00       		.byte	0
 6668 01a8 00       		.byte	0
 6669 01a9 20       		.uleb128 0x20
 6670 01aa 34       		.uleb128 0x34
 6671 01ab 00       		.byte	0
 6672 01ac 03       		.uleb128 0x3
ARM GAS  C:\Users\samue\AppData\Local\Temp\ccYWUiYX.s 			page 132


 6673 01ad 0E       		.uleb128 0xe
 6674 01ae 3A       		.uleb128 0x3a
 6675 01af 0B       		.uleb128 0xb
 6676 01b0 3B       		.uleb128 0x3b
 6677 01b1 0B       		.uleb128 0xb
 6678 01b2 49       		.uleb128 0x49
 6679 01b3 13       		.uleb128 0x13
 6680 01b4 02       		.uleb128 0x2
 6681 01b5 17       		.uleb128 0x17
 6682 01b6 00       		.byte	0
 6683 01b7 00       		.byte	0
 6684 01b8 21       		.uleb128 0x21
 6685 01b9 34       		.uleb128 0x34
 6686 01ba 00       		.byte	0
 6687 01bb 03       		.uleb128 0x3
 6688 01bc 08       		.uleb128 0x8
 6689 01bd 3A       		.uleb128 0x3a
 6690 01be 0B       		.uleb128 0xb
 6691 01bf 3B       		.uleb128 0x3b
 6692 01c0 0B       		.uleb128 0xb
 6693 01c1 49       		.uleb128 0x49
 6694 01c2 13       		.uleb128 0x13
 6695 01c3 02       		.uleb128 0x2
 6696 01c4 17       		.uleb128 0x17
 6697 01c5 00       		.byte	0
 6698 01c6 00       		.byte	0
 6699 01c7 22       		.uleb128 0x22
 6700 01c8 34       		.uleb128 0x34
 6701 01c9 00       		.byte	0
 6702 01ca 03       		.uleb128 0x3
 6703 01cb 0E       		.uleb128 0xe
 6704 01cc 3A       		.uleb128 0x3a
 6705 01cd 0B       		.uleb128 0xb
 6706 01ce 3B       		.uleb128 0x3b
 6707 01cf 0B       		.uleb128 0xb
 6708 01d0 49       		.uleb128 0x49
 6709 01d1 13       		.uleb128 0x13
 6710 01d2 1C       		.uleb128 0x1c
 6711 01d3 0B       		.uleb128 0xb
 6712 01d4 00       		.byte	0
 6713 01d5 00       		.byte	0
 6714 01d6 23       		.uleb128 0x23
 6715 01d7 0A       		.uleb128 0xa
 6716 01d8 00       		.byte	0
 6717 01d9 03       		.uleb128 0x3
 6718 01da 0E       		.uleb128 0xe
 6719 01db 3A       		.uleb128 0x3a
 6720 01dc 0B       		.uleb128 0xb
 6721 01dd 3B       		.uleb128 0x3b
 6722 01de 0B       		.uleb128 0xb
 6723 01df 11       		.uleb128 0x11
 6724 01e0 01       		.uleb128 0x1
 6725 01e1 00       		.byte	0
 6726 01e2 00       		.byte	0
 6727 01e3 24       		.uleb128 0x24
 6728 01e4 0B       		.uleb128 0xb
 6729 01e5 01       		.byte	0x1
ARM GAS  C:\Users\samue\AppData\Local\Temp\ccYWUiYX.s 			page 133


 6730 01e6 11       		.uleb128 0x11
 6731 01e7 01       		.uleb128 0x1
 6732 01e8 12       		.uleb128 0x12
 6733 01e9 06       		.uleb128 0x6
 6734 01ea 00       		.byte	0
 6735 01eb 00       		.byte	0
 6736 01ec 25       		.uleb128 0x25
 6737 01ed 898201   		.uleb128 0x4109
 6738 01f0 01       		.byte	0x1
 6739 01f1 11       		.uleb128 0x11
 6740 01f2 01       		.uleb128 0x1
 6741 01f3 9342     		.uleb128 0x2113
 6742 01f5 18       		.uleb128 0x18
 6743 01f6 00       		.byte	0
 6744 01f7 00       		.byte	0
 6745 01f8 26       		.uleb128 0x26
 6746 01f9 8A8201   		.uleb128 0x410a
 6747 01fc 00       		.byte	0
 6748 01fd 02       		.uleb128 0x2
 6749 01fe 18       		.uleb128 0x18
 6750 01ff 9142     		.uleb128 0x2111
 6751 0201 18       		.uleb128 0x18
 6752 0202 00       		.byte	0
 6753 0203 00       		.byte	0
 6754 0204 27       		.uleb128 0x27
 6755 0205 34       		.uleb128 0x34
 6756 0206 00       		.byte	0
 6757 0207 03       		.uleb128 0x3
 6758 0208 0E       		.uleb128 0xe
 6759 0209 3A       		.uleb128 0x3a
 6760 020a 0B       		.uleb128 0xb
 6761 020b 3B       		.uleb128 0x3b
 6762 020c 0B       		.uleb128 0xb
 6763 020d 49       		.uleb128 0x49
 6764 020e 13       		.uleb128 0x13
 6765 020f 02       		.uleb128 0x2
 6766 0210 18       		.uleb128 0x18
 6767 0211 00       		.byte	0
 6768 0212 00       		.byte	0
 6769 0213 28       		.uleb128 0x28
 6770 0214 898201   		.uleb128 0x4109
 6771 0217 01       		.byte	0x1
 6772 0218 11       		.uleb128 0x11
 6773 0219 01       		.uleb128 0x1
 6774 021a 31       		.uleb128 0x31
 6775 021b 13       		.uleb128 0x13
 6776 021c 01       		.uleb128 0x1
 6777 021d 13       		.uleb128 0x13
 6778 021e 00       		.byte	0
 6779 021f 00       		.byte	0
 6780 0220 29       		.uleb128 0x29
 6781 0221 898201   		.uleb128 0x4109
 6782 0224 01       		.byte	0x1
 6783 0225 11       		.uleb128 0x11
 6784 0226 01       		.uleb128 0x1
 6785 0227 9342     		.uleb128 0x2113
 6786 0229 18       		.uleb128 0x18
ARM GAS  C:\Users\samue\AppData\Local\Temp\ccYWUiYX.s 			page 134


 6787 022a 01       		.uleb128 0x1
 6788 022b 13       		.uleb128 0x13
 6789 022c 00       		.byte	0
 6790 022d 00       		.byte	0
 6791 022e 2A       		.uleb128 0x2a
 6792 022f 898201   		.uleb128 0x4109
 6793 0232 01       		.byte	0x1
 6794 0233 11       		.uleb128 0x11
 6795 0234 01       		.uleb128 0x1
 6796 0235 31       		.uleb128 0x31
 6797 0236 13       		.uleb128 0x13
 6798 0237 00       		.byte	0
 6799 0238 00       		.byte	0
 6800 0239 2B       		.uleb128 0x2b
 6801 023a 34       		.uleb128 0x34
 6802 023b 00       		.byte	0
 6803 023c 03       		.uleb128 0x3
 6804 023d 0E       		.uleb128 0xe
 6805 023e 3A       		.uleb128 0x3a
 6806 023f 0B       		.uleb128 0xb
 6807 0240 3B       		.uleb128 0x3b
 6808 0241 0B       		.uleb128 0xb
 6809 0242 49       		.uleb128 0x49
 6810 0243 13       		.uleb128 0x13
 6811 0244 00       		.byte	0
 6812 0245 00       		.byte	0
 6813 0246 2C       		.uleb128 0x2c
 6814 0247 898201   		.uleb128 0x4109
 6815 024a 00       		.byte	0
 6816 024b 11       		.uleb128 0x11
 6817 024c 01       		.uleb128 0x1
 6818 024d 31       		.uleb128 0x31
 6819 024e 13       		.uleb128 0x13
 6820 024f 00       		.byte	0
 6821 0250 00       		.byte	0
 6822 0251 2D       		.uleb128 0x2d
 6823 0252 2E       		.uleb128 0x2e
 6824 0253 01       		.byte	0x1
 6825 0254 3F       		.uleb128 0x3f
 6826 0255 19       		.uleb128 0x19
 6827 0256 03       		.uleb128 0x3
 6828 0257 0E       		.uleb128 0xe
 6829 0258 3A       		.uleb128 0x3a
 6830 0259 0B       		.uleb128 0xb
 6831 025a 3B       		.uleb128 0x3b
 6832 025b 0B       		.uleb128 0xb
 6833 025c 27       		.uleb128 0x27
 6834 025d 19       		.uleb128 0x19
 6835 025e 11       		.uleb128 0x11
 6836 025f 01       		.uleb128 0x1
 6837 0260 12       		.uleb128 0x12
 6838 0261 06       		.uleb128 0x6
 6839 0262 40       		.uleb128 0x40
 6840 0263 18       		.uleb128 0x18
 6841 0264 9742     		.uleb128 0x2117
 6842 0266 19       		.uleb128 0x19
 6843 0267 01       		.uleb128 0x1
ARM GAS  C:\Users\samue\AppData\Local\Temp\ccYWUiYX.s 			page 135


 6844 0268 13       		.uleb128 0x13
 6845 0269 00       		.byte	0
 6846 026a 00       		.byte	0
 6847 026b 2E       		.uleb128 0x2e
 6848 026c 2E       		.uleb128 0x2e
 6849 026d 01       		.byte	0x1
 6850 026e 3F       		.uleb128 0x3f
 6851 026f 19       		.uleb128 0x19
 6852 0270 03       		.uleb128 0x3
 6853 0271 0E       		.uleb128 0xe
 6854 0272 3A       		.uleb128 0x3a
 6855 0273 0B       		.uleb128 0xb
 6856 0274 3B       		.uleb128 0x3b
 6857 0275 0B       		.uleb128 0xb
 6858 0276 27       		.uleb128 0x27
 6859 0277 19       		.uleb128 0x19
 6860 0278 49       		.uleb128 0x49
 6861 0279 13       		.uleb128 0x13
 6862 027a 11       		.uleb128 0x11
 6863 027b 01       		.uleb128 0x1
 6864 027c 12       		.uleb128 0x12
 6865 027d 06       		.uleb128 0x6
 6866 027e 40       		.uleb128 0x40
 6867 027f 18       		.uleb128 0x18
 6868 0280 9742     		.uleb128 0x2117
 6869 0282 19       		.uleb128 0x19
 6870 0283 01       		.uleb128 0x1
 6871 0284 13       		.uleb128 0x13
 6872 0285 00       		.byte	0
 6873 0286 00       		.byte	0
 6874 0287 2F       		.uleb128 0x2f
 6875 0288 0B       		.uleb128 0xb
 6876 0289 01       		.byte	0x1
 6877 028a 11       		.uleb128 0x11
 6878 028b 01       		.uleb128 0x1
 6879 028c 12       		.uleb128 0x12
 6880 028d 06       		.uleb128 0x6
 6881 028e 01       		.uleb128 0x1
 6882 028f 13       		.uleb128 0x13
 6883 0290 00       		.byte	0
 6884 0291 00       		.byte	0
 6885 0292 30       		.uleb128 0x30
 6886 0293 898201   		.uleb128 0x4109
 6887 0296 01       		.byte	0x1
 6888 0297 11       		.uleb128 0x11
 6889 0298 01       		.uleb128 0x1
 6890 0299 00       		.byte	0
 6891 029a 00       		.byte	0
 6892 029b 31       		.uleb128 0x31
 6893 029c 2E       		.uleb128 0x2e
 6894 029d 01       		.byte	0x1
 6895 029e 3F       		.uleb128 0x3f
 6896 029f 19       		.uleb128 0x19
 6897 02a0 03       		.uleb128 0x3
 6898 02a1 0E       		.uleb128 0xe
 6899 02a2 3A       		.uleb128 0x3a
 6900 02a3 0B       		.uleb128 0xb
ARM GAS  C:\Users\samue\AppData\Local\Temp\ccYWUiYX.s 			page 136


 6901 02a4 3B       		.uleb128 0x3b
 6902 02a5 05       		.uleb128 0x5
 6903 02a6 27       		.uleb128 0x27
 6904 02a7 19       		.uleb128 0x19
 6905 02a8 49       		.uleb128 0x49
 6906 02a9 13       		.uleb128 0x13
 6907 02aa 11       		.uleb128 0x11
 6908 02ab 01       		.uleb128 0x1
 6909 02ac 12       		.uleb128 0x12
 6910 02ad 06       		.uleb128 0x6
 6911 02ae 40       		.uleb128 0x40
 6912 02af 18       		.uleb128 0x18
 6913 02b0 9742     		.uleb128 0x2117
 6914 02b2 19       		.uleb128 0x19
 6915 02b3 01       		.uleb128 0x1
 6916 02b4 13       		.uleb128 0x13
 6917 02b5 00       		.byte	0
 6918 02b6 00       		.byte	0
 6919 02b7 32       		.uleb128 0x32
 6920 02b8 05       		.uleb128 0x5
 6921 02b9 00       		.byte	0
 6922 02ba 03       		.uleb128 0x3
 6923 02bb 08       		.uleb128 0x8
 6924 02bc 3A       		.uleb128 0x3a
 6925 02bd 0B       		.uleb128 0xb
 6926 02be 3B       		.uleb128 0x3b
 6927 02bf 05       		.uleb128 0x5
 6928 02c0 49       		.uleb128 0x49
 6929 02c1 13       		.uleb128 0x13
 6930 02c2 02       		.uleb128 0x2
 6931 02c3 17       		.uleb128 0x17
 6932 02c4 00       		.byte	0
 6933 02c5 00       		.byte	0
 6934 02c6 33       		.uleb128 0x33
 6935 02c7 05       		.uleb128 0x5
 6936 02c8 00       		.byte	0
 6937 02c9 03       		.uleb128 0x3
 6938 02ca 0E       		.uleb128 0xe
 6939 02cb 3A       		.uleb128 0x3a
 6940 02cc 0B       		.uleb128 0xb
 6941 02cd 3B       		.uleb128 0x3b
 6942 02ce 05       		.uleb128 0x5
 6943 02cf 49       		.uleb128 0x49
 6944 02d0 13       		.uleb128 0x13
 6945 02d1 02       		.uleb128 0x2
 6946 02d2 17       		.uleb128 0x17
 6947 02d3 00       		.byte	0
 6948 02d4 00       		.byte	0
 6949 02d5 34       		.uleb128 0x34
 6950 02d6 34       		.uleb128 0x34
 6951 02d7 00       		.byte	0
 6952 02d8 03       		.uleb128 0x3
 6953 02d9 08       		.uleb128 0x8
 6954 02da 3A       		.uleb128 0x3a
 6955 02db 0B       		.uleb128 0xb
 6956 02dc 3B       		.uleb128 0x3b
 6957 02dd 05       		.uleb128 0x5
ARM GAS  C:\Users\samue\AppData\Local\Temp\ccYWUiYX.s 			page 137


 6958 02de 49       		.uleb128 0x49
 6959 02df 13       		.uleb128 0x13
 6960 02e0 02       		.uleb128 0x2
 6961 02e1 17       		.uleb128 0x17
 6962 02e2 00       		.byte	0
 6963 02e3 00       		.byte	0
 6964 02e4 35       		.uleb128 0x35
 6965 02e5 34       		.uleb128 0x34
 6966 02e6 00       		.byte	0
 6967 02e7 03       		.uleb128 0x3
 6968 02e8 0E       		.uleb128 0xe
 6969 02e9 3A       		.uleb128 0x3a
 6970 02ea 0B       		.uleb128 0xb
 6971 02eb 3B       		.uleb128 0x3b
 6972 02ec 05       		.uleb128 0x5
 6973 02ed 49       		.uleb128 0x49
 6974 02ee 13       		.uleb128 0x13
 6975 02ef 02       		.uleb128 0x2
 6976 02f0 17       		.uleb128 0x17
 6977 02f1 00       		.byte	0
 6978 02f2 00       		.byte	0
 6979 02f3 36       		.uleb128 0x36
 6980 02f4 0A       		.uleb128 0xa
 6981 02f5 00       		.byte	0
 6982 02f6 03       		.uleb128 0x3
 6983 02f7 0E       		.uleb128 0xe
 6984 02f8 3A       		.uleb128 0x3a
 6985 02f9 0B       		.uleb128 0xb
 6986 02fa 3B       		.uleb128 0x3b
 6987 02fb 05       		.uleb128 0x5
 6988 02fc 11       		.uleb128 0x11
 6989 02fd 01       		.uleb128 0x1
 6990 02fe 00       		.byte	0
 6991 02ff 00       		.byte	0
 6992 0300 37       		.uleb128 0x37
 6993 0301 0B       		.uleb128 0xb
 6994 0302 01       		.byte	0x1
 6995 0303 55       		.uleb128 0x55
 6996 0304 17       		.uleb128 0x17
 6997 0305 01       		.uleb128 0x1
 6998 0306 13       		.uleb128 0x13
 6999 0307 00       		.byte	0
 7000 0308 00       		.byte	0
 7001 0309 38       		.uleb128 0x38
 7002 030a 34       		.uleb128 0x34
 7003 030b 00       		.byte	0
 7004 030c 03       		.uleb128 0x3
 7005 030d 0E       		.uleb128 0xe
 7006 030e 3A       		.uleb128 0x3a
 7007 030f 0B       		.uleb128 0xb
 7008 0310 3B       		.uleb128 0x3b
 7009 0311 05       		.uleb128 0x5
 7010 0312 49       		.uleb128 0x49
 7011 0313 13       		.uleb128 0x13
 7012 0314 02       		.uleb128 0x2
 7013 0315 18       		.uleb128 0x18
 7014 0316 00       		.byte	0
ARM GAS  C:\Users\samue\AppData\Local\Temp\ccYWUiYX.s 			page 138


 7015 0317 00       		.byte	0
 7016 0318 39       		.uleb128 0x39
 7017 0319 34       		.uleb128 0x34
 7018 031a 00       		.byte	0
 7019 031b 03       		.uleb128 0x3
 7020 031c 08       		.uleb128 0x8
 7021 031d 3A       		.uleb128 0x3a
 7022 031e 0B       		.uleb128 0xb
 7023 031f 3B       		.uleb128 0x3b
 7024 0320 05       		.uleb128 0x5
 7025 0321 49       		.uleb128 0x49
 7026 0322 13       		.uleb128 0x13
 7027 0323 02       		.uleb128 0x2
 7028 0324 18       		.uleb128 0x18
 7029 0325 00       		.byte	0
 7030 0326 00       		.byte	0
 7031 0327 3A       		.uleb128 0x3a
 7032 0328 2E       		.uleb128 0x2e
 7033 0329 01       		.byte	0x1
 7034 032a 3F       		.uleb128 0x3f
 7035 032b 19       		.uleb128 0x19
 7036 032c 03       		.uleb128 0x3
 7037 032d 0E       		.uleb128 0xe
 7038 032e 3A       		.uleb128 0x3a
 7039 032f 0B       		.uleb128 0xb
 7040 0330 3B       		.uleb128 0x3b
 7041 0331 05       		.uleb128 0x5
 7042 0332 27       		.uleb128 0x27
 7043 0333 19       		.uleb128 0x19
 7044 0334 8701     		.uleb128 0x87
 7045 0336 19       		.uleb128 0x19
 7046 0337 11       		.uleb128 0x11
 7047 0338 01       		.uleb128 0x1
 7048 0339 12       		.uleb128 0x12
 7049 033a 06       		.uleb128 0x6
 7050 033b 40       		.uleb128 0x40
 7051 033c 18       		.uleb128 0x18
 7052 033d 9742     		.uleb128 0x2117
 7053 033f 19       		.uleb128 0x19
 7054 0340 01       		.uleb128 0x1
 7055 0341 13       		.uleb128 0x13
 7056 0342 00       		.byte	0
 7057 0343 00       		.byte	0
 7058 0344 3B       		.uleb128 0x3b
 7059 0345 05       		.uleb128 0x5
 7060 0346 00       		.byte	0
 7061 0347 03       		.uleb128 0x3
 7062 0348 0E       		.uleb128 0xe
 7063 0349 3A       		.uleb128 0x3a
 7064 034a 0B       		.uleb128 0xb
 7065 034b 3B       		.uleb128 0x3b
 7066 034c 05       		.uleb128 0x5
 7067 034d 49       		.uleb128 0x49
 7068 034e 13       		.uleb128 0x13
 7069 034f 02       		.uleb128 0x2
 7070 0350 18       		.uleb128 0x18
 7071 0351 00       		.byte	0
ARM GAS  C:\Users\samue\AppData\Local\Temp\ccYWUiYX.s 			page 139


 7072 0352 00       		.byte	0
 7073 0353 3C       		.uleb128 0x3c
 7074 0354 34       		.uleb128 0x34
 7075 0355 00       		.byte	0
 7076 0356 03       		.uleb128 0x3
 7077 0357 0E       		.uleb128 0xe
 7078 0358 3A       		.uleb128 0x3a
 7079 0359 0B       		.uleb128 0xb
 7080 035a 3B       		.uleb128 0x3b
 7081 035b 05       		.uleb128 0x5
 7082 035c 49       		.uleb128 0x49
 7083 035d 13       		.uleb128 0x13
 7084 035e 3F       		.uleb128 0x3f
 7085 035f 19       		.uleb128 0x19
 7086 0360 3C       		.uleb128 0x3c
 7087 0361 19       		.uleb128 0x19
 7088 0362 00       		.byte	0
 7089 0363 00       		.byte	0
 7090 0364 3D       		.uleb128 0x3d
 7091 0365 35       		.uleb128 0x35
 7092 0366 00       		.byte	0
 7093 0367 49       		.uleb128 0x49
 7094 0368 13       		.uleb128 0x13
 7095 0369 00       		.byte	0
 7096 036a 00       		.byte	0
 7097 036b 3E       		.uleb128 0x3e
 7098 036c 2E       		.uleb128 0x2e
 7099 036d 00       		.byte	0
 7100 036e 3F       		.uleb128 0x3f
 7101 036f 19       		.uleb128 0x19
 7102 0370 3C       		.uleb128 0x3c
 7103 0371 19       		.uleb128 0x19
 7104 0372 6E       		.uleb128 0x6e
 7105 0373 0E       		.uleb128 0xe
 7106 0374 03       		.uleb128 0x3
 7107 0375 0E       		.uleb128 0xe
 7108 0376 3A       		.uleb128 0x3a
 7109 0377 0B       		.uleb128 0xb
 7110 0378 3B       		.uleb128 0x3b
 7111 0379 0B       		.uleb128 0xb
 7112 037a 00       		.byte	0
 7113 037b 00       		.byte	0
 7114 037c 3F       		.uleb128 0x3f
 7115 037d 2E       		.uleb128 0x2e
 7116 037e 00       		.byte	0
 7117 037f 3F       		.uleb128 0x3f
 7118 0380 19       		.uleb128 0x19
 7119 0381 3C       		.uleb128 0x3c
 7120 0382 19       		.uleb128 0x19
 7121 0383 6E       		.uleb128 0x6e
 7122 0384 0E       		.uleb128 0xe
 7123 0385 03       		.uleb128 0x3
 7124 0386 0E       		.uleb128 0xe
 7125 0387 3A       		.uleb128 0x3a
 7126 0388 0B       		.uleb128 0xb
 7127 0389 3B       		.uleb128 0x3b
 7128 038a 05       		.uleb128 0x5
ARM GAS  C:\Users\samue\AppData\Local\Temp\ccYWUiYX.s 			page 140


 7129 038b 00       		.byte	0
 7130 038c 00       		.byte	0
 7131 038d 40       		.uleb128 0x40
 7132 038e 2E       		.uleb128 0x2e
 7133 038f 00       		.byte	0
 7134 0390 3F       		.uleb128 0x3f
 7135 0391 19       		.uleb128 0x19
 7136 0392 3C       		.uleb128 0x3c
 7137 0393 19       		.uleb128 0x19
 7138 0394 6E       		.uleb128 0x6e
 7139 0395 0E       		.uleb128 0xe
 7140 0396 03       		.uleb128 0x3
 7141 0397 0E       		.uleb128 0xe
 7142 0398 00       		.byte	0
 7143 0399 00       		.byte	0
 7144 039a 00       		.byte	0
 7145              		.section	.debug_loc,"",%progbits
 7146              	.Ldebug_loc0:
 7147              	.LLST0:
 7148 0000 00000000 		.4byte	.LVL1
 7149 0004 14000000 		.4byte	.LVL2
 7150 0008 0100     		.2byte	0x1
 7151 000a 50       		.byte	0x50
 7152 000b 14000000 		.4byte	.LVL2
 7153 000f 16000000 		.4byte	.LFE70
 7154 0013 0400     		.2byte	0x4
 7155 0015 F3       		.byte	0xf3
 7156 0016 01       		.uleb128 0x1
 7157 0017 50       		.byte	0x50
 7158 0018 9F       		.byte	0x9f
 7159 0019 00000000 		.4byte	0
 7160 001d 00000000 		.4byte	0
 7161              	.LLST1:
 7162 0021 00000000 		.4byte	.LVL3
 7163 0025 12000000 		.4byte	.LVL5
 7164 0029 0100     		.2byte	0x1
 7165 002b 50       		.byte	0x50
 7166 002c 12000000 		.4byte	.LVL5
 7167 0030 4E000000 		.4byte	.LFE73
 7168 0034 0100     		.2byte	0x1
 7169 0036 58       		.byte	0x58
 7170 0037 00000000 		.4byte	0
 7171 003b 00000000 		.4byte	0
 7172              	.LLST2:
 7173 003f 00000000 		.4byte	.LVL3
 7174 0043 12000000 		.4byte	.LVL5
 7175 0047 0100     		.2byte	0x1
 7176 0049 51       		.byte	0x51
 7177 004a 12000000 		.4byte	.LVL5
 7178 004e 4E000000 		.4byte	.LFE73
 7179 0052 0100     		.2byte	0x1
 7180 0054 56       		.byte	0x56
 7181 0055 00000000 		.4byte	0
 7182 0059 00000000 		.4byte	0
 7183              	.LLST3:
 7184 005d 00000000 		.4byte	.LVL3
 7185 0061 12000000 		.4byte	.LVL5
ARM GAS  C:\Users\samue\AppData\Local\Temp\ccYWUiYX.s 			page 141


 7186 0065 0100     		.2byte	0x1
 7187 0067 52       		.byte	0x52
 7188 0068 12000000 		.4byte	.LVL5
 7189 006c 4E000000 		.4byte	.LFE73
 7190 0070 0100     		.2byte	0x1
 7191 0072 59       		.byte	0x59
 7192 0073 00000000 		.4byte	0
 7193 0077 00000000 		.4byte	0
 7194              	.LLST4:
 7195 007b 0C000000 		.4byte	.LVL4
 7196 007f 12000000 		.4byte	.LVL5
 7197 0083 0200     		.2byte	0x2
 7198 0085 31       		.byte	0x31
 7199 0086 9F       		.byte	0x9f
 7200 0087 12000000 		.4byte	.LVL5
 7201 008b 4E000000 		.4byte	.LFE73
 7202 008f 0100     		.2byte	0x1
 7203 0091 55       		.byte	0x55
 7204 0092 00000000 		.4byte	0
 7205 0096 00000000 		.4byte	0
 7206              	.LLST5:
 7207 009a 0C000000 		.4byte	.LVL4
 7208 009e 12000000 		.4byte	.LVL5
 7209 00a2 0200     		.2byte	0x2
 7210 00a4 30       		.byte	0x30
 7211 00a5 9F       		.byte	0x9f
 7212 00a6 12000000 		.4byte	.LVL5
 7213 00aa 4E000000 		.4byte	.LFE73
 7214 00ae 0100     		.2byte	0x1
 7215 00b0 54       		.byte	0x54
 7216 00b1 00000000 		.4byte	0
 7217 00b5 00000000 		.4byte	0
 7218              	.LLST6:
 7219 00b9 12000000 		.4byte	.LVL5
 7220 00bd 28000000 		.4byte	.LVL7
 7221 00c1 0300     		.2byte	0x3
 7222 00c3 09       		.byte	0x9
 7223 00c4 FF       		.byte	0xff
 7224 00c5 9F       		.byte	0x9f
 7225 00c6 28000000 		.4byte	.LVL7
 7226 00ca 46000000 		.4byte	.LVL9
 7227 00ce 0100     		.2byte	0x1
 7228 00d0 50       		.byte	0x50
 7229 00d1 00000000 		.4byte	0
 7230 00d5 00000000 		.4byte	0
 7231              	.LLST7:
 7232 00d9 00000000 		.4byte	.LVL10
 7233 00dd 0A000000 		.4byte	.LVL15
 7234 00e1 0100     		.2byte	0x1
 7235 00e3 50       		.byte	0x50
 7236 00e4 0A000000 		.4byte	.LVL15
 7237 00e8 5E000000 		.4byte	.LFE75
 7238 00ec 0400     		.2byte	0x4
 7239 00ee F3       		.byte	0xf3
 7240 00ef 01       		.uleb128 0x1
 7241 00f0 50       		.byte	0x50
 7242 00f1 9F       		.byte	0x9f
ARM GAS  C:\Users\samue\AppData\Local\Temp\ccYWUiYX.s 			page 142


 7243 00f2 00000000 		.4byte	0
 7244 00f6 00000000 		.4byte	0
 7245              	.LLST8:
 7246 00fa 00000000 		.4byte	.LVL10
 7247 00fe 06000000 		.4byte	.LVL13
 7248 0102 0100     		.2byte	0x1
 7249 0104 51       		.byte	0x51
 7250 0105 06000000 		.4byte	.LVL13
 7251 0109 5E000000 		.4byte	.LFE75
 7252 010d 0400     		.2byte	0x4
 7253 010f F3       		.byte	0xf3
 7254 0110 01       		.uleb128 0x1
 7255 0111 51       		.byte	0x51
 7256 0112 9F       		.byte	0x9f
 7257 0113 00000000 		.4byte	0
 7258 0117 00000000 		.4byte	0
 7259              	.LLST9:
 7260 011b 02000000 		.4byte	.LVL11
 7261 011f 52000000 		.4byte	.LVL24
 7262 0123 0100     		.2byte	0x1
 7263 0125 50       		.byte	0x50
 7264 0126 54000000 		.4byte	.LVL25
 7265 012a 56000000 		.4byte	.LVL26
 7266 012e 0100     		.2byte	0x1
 7267 0130 50       		.byte	0x50
 7268 0131 58000000 		.4byte	.LVL27
 7269 0135 5A000000 		.4byte	.LVL28
 7270 0139 0100     		.2byte	0x1
 7271 013b 50       		.byte	0x50
 7272 013c 00000000 		.4byte	0
 7273 0140 00000000 		.4byte	0
 7274              	.LLST10:
 7275 0144 26000000 		.4byte	.LVL16
 7276 0148 28000000 		.4byte	.LVL17
 7277 014c 0100     		.2byte	0x1
 7278 014e 52       		.byte	0x52
 7279 014f 2C000000 		.4byte	.LVL19
 7280 0153 32000000 		.4byte	.LVL20
 7281 0157 0100     		.2byte	0x1
 7282 0159 52       		.byte	0x52
 7283 015a 00000000 		.4byte	0
 7284 015e 00000000 		.4byte	0
 7285              	.LLST11:
 7286 0162 00000000 		.4byte	.LVL29
 7287 0166 0E000000 		.4byte	.LVL31
 7288 016a 0100     		.2byte	0x1
 7289 016c 50       		.byte	0x50
 7290 016d 0E000000 		.4byte	.LVL31
 7291 0171 5E000000 		.4byte	.LFE71
 7292 0175 0100     		.2byte	0x1
 7293 0177 58       		.byte	0x58
 7294 0178 00000000 		.4byte	0
 7295 017c 00000000 		.4byte	0
 7296              	.LLST12:
 7297 0180 00000000 		.4byte	.LVL29
 7298 0184 0E000000 		.4byte	.LVL31
 7299 0188 0100     		.2byte	0x1
ARM GAS  C:\Users\samue\AppData\Local\Temp\ccYWUiYX.s 			page 143


 7300 018a 51       		.byte	0x51
 7301 018b 0E000000 		.4byte	.LVL31
 7302 018f 5E000000 		.4byte	.LFE71
 7303 0193 0100     		.2byte	0x1
 7304 0195 57       		.byte	0x57
 7305 0196 00000000 		.4byte	0
 7306 019a 00000000 		.4byte	0
 7307              	.LLST13:
 7308 019e 00000000 		.4byte	.LVL29
 7309 01a2 0E000000 		.4byte	.LVL31
 7310 01a6 0100     		.2byte	0x1
 7311 01a8 52       		.byte	0x52
 7312 01a9 0E000000 		.4byte	.LVL31
 7313 01ad 5E000000 		.4byte	.LFE71
 7314 01b1 0100     		.2byte	0x1
 7315 01b3 59       		.byte	0x59
 7316 01b4 00000000 		.4byte	0
 7317 01b8 00000000 		.4byte	0
 7318              	.LLST14:
 7319 01bc 0A000000 		.4byte	.LVL30
 7320 01c0 0E000000 		.4byte	.LVL31
 7321 01c4 0300     		.2byte	0x3
 7322 01c6 09       		.byte	0x9
 7323 01c7 FF       		.byte	0xff
 7324 01c8 9F       		.byte	0x9f
 7325 01c9 2C000000 		.4byte	.LVL33
 7326 01cd 32000000 		.4byte	.LVL34
 7327 01d1 0100     		.2byte	0x1
 7328 01d3 50       		.byte	0x50
 7329 01d4 50000000 		.4byte	.LVL36
 7330 01d8 56000000 		.4byte	.LVL37
 7331 01dc 0200     		.2byte	0x2
 7332 01de 30       		.byte	0x30
 7333 01df 9F       		.byte	0x9f
 7334 01e0 5A000000 		.4byte	.LVL38
 7335 01e4 5E000000 		.4byte	.LFE71
 7336 01e8 0100     		.2byte	0x1
 7337 01ea 50       		.byte	0x50
 7338 01eb 00000000 		.4byte	0
 7339 01ef 00000000 		.4byte	0
 7340              	.LLST15:
 7341 01f3 0A000000 		.4byte	.LVL30
 7342 01f7 0E000000 		.4byte	.LVL31
 7343 01fb 0200     		.2byte	0x2
 7344 01fd 30       		.byte	0x30
 7345 01fe 9F       		.byte	0x9f
 7346 01ff 0E000000 		.4byte	.LVL31
 7347 0203 5E000000 		.4byte	.LFE71
 7348 0207 0100     		.2byte	0x1
 7349 0209 54       		.byte	0x54
 7350 020a 00000000 		.4byte	0
 7351 020e 00000000 		.4byte	0
 7352              	.LLST16:
 7353 0212 00000000 		.4byte	.LVL39
 7354 0216 18000000 		.4byte	.LVL41
 7355 021a 0100     		.2byte	0x1
 7356 021c 50       		.byte	0x50
ARM GAS  C:\Users\samue\AppData\Local\Temp\ccYWUiYX.s 			page 144


 7357 021d 18000000 		.4byte	.LVL41
 7358 0221 9C000000 		.4byte	.LFE74
 7359 0225 0100     		.2byte	0x1
 7360 0227 54       		.byte	0x54
 7361 0228 00000000 		.4byte	0
 7362 022c 00000000 		.4byte	0
 7363              	.LLST17:
 7364 0230 00000000 		.4byte	.LVL39
 7365 0234 1B000000 		.4byte	.LVL42-1
 7366 0238 0100     		.2byte	0x1
 7367 023a 51       		.byte	0x51
 7368 023b 1B000000 		.4byte	.LVL42-1
 7369 023f 9C000000 		.4byte	.LFE74
 7370 0243 0100     		.2byte	0x1
 7371 0245 56       		.byte	0x56
 7372 0246 00000000 		.4byte	0
 7373 024a 00000000 		.4byte	0
 7374              	.LLST18:
 7375 024e 0A000000 		.4byte	.LVL40
 7376 0252 2C000000 		.4byte	.LVL45
 7377 0256 0200     		.2byte	0x2
 7378 0258 30       		.byte	0x30
 7379 0259 9F       		.byte	0x9f
 7380 025a 2C000000 		.4byte	.LVL45
 7381 025e 48000000 		.4byte	.LVL50
 7382 0262 0200     		.2byte	0x2
 7383 0264 31       		.byte	0x31
 7384 0265 9F       		.byte	0x9f
 7385 0266 48000000 		.4byte	.LVL50
 7386 026a 64000000 		.4byte	.LVL52
 7387 026e 0100     		.2byte	0x1
 7388 0270 50       		.byte	0x50
 7389 0271 8C000000 		.4byte	.LVL59
 7390 0275 92000000 		.4byte	.LVL61
 7391 0279 0100     		.2byte	0x1
 7392 027b 50       		.byte	0x50
 7393 027c 00000000 		.4byte	0
 7394 0280 00000000 		.4byte	0
 7395              	.LLST19:
 7396 0284 28000000 		.4byte	.LVL44
 7397 0288 2E000000 		.4byte	.LVL46
 7398 028c 0100     		.2byte	0x1
 7399 028e 50       		.byte	0x50
 7400 028f 2E000000 		.4byte	.LVL46
 7401 0293 60000000 		.4byte	.LVL51
 7402 0297 0100     		.2byte	0x1
 7403 0299 55       		.byte	0x55
 7404 029a 74000000 		.4byte	.LVL55
 7405 029e 78000000 		.4byte	.LVL56
 7406 02a2 0900     		.2byte	0x9
 7407 02a4 70       		.byte	0x70
 7408 02a5 00       		.sleb128 0
 7409 02a6 73       		.byte	0x73
 7410 02a7 00       		.sleb128 0
 7411 02a8 2E       		.byte	0x2e
 7412 02a9 08       		.byte	0x8
 7413 02aa FF       		.byte	0xff
ARM GAS  C:\Users\samue\AppData\Local\Temp\ccYWUiYX.s 			page 145


 7414 02ab 1A       		.byte	0x1a
 7415 02ac 9F       		.byte	0x9f
 7416 02ad 7E000000 		.4byte	.LVL57
 7417 02b1 90000000 		.4byte	.LVL60
 7418 02b5 0100     		.2byte	0x1
 7419 02b7 55       		.byte	0x55
 7420 02b8 92000000 		.4byte	.LVL61
 7421 02bc 94000000 		.4byte	.LVL62
 7422 02c0 0900     		.2byte	0x9
 7423 02c2 70       		.byte	0x70
 7424 02c3 00       		.sleb128 0
 7425 02c4 73       		.byte	0x73
 7426 02c5 00       		.sleb128 0
 7427 02c6 2E       		.byte	0x2e
 7428 02c7 08       		.byte	0x8
 7429 02c8 FF       		.byte	0xff
 7430 02c9 1A       		.byte	0x1a
 7431 02ca 9F       		.byte	0x9f
 7432 02cb 94000000 		.4byte	.LVL62
 7433 02cf 9C000000 		.4byte	.LFE74
 7434 02d3 0100     		.2byte	0x1
 7435 02d5 55       		.byte	0x55
 7436 02d6 00000000 		.4byte	0
 7437 02da 00000000 		.4byte	0
 7438              	.LLST20:
 7439 02de 00000000 		.4byte	.LVL63
 7440 02e2 0A000000 		.4byte	.LVL66
 7441 02e6 0100     		.2byte	0x1
 7442 02e8 50       		.byte	0x50
 7443 02e9 0A000000 		.4byte	.LVL66
 7444 02ed 50000000 		.4byte	.LFE72
 7445 02f1 0100     		.2byte	0x1
 7446 02f3 54       		.byte	0x54
 7447 02f4 00000000 		.4byte	0
 7448 02f8 00000000 		.4byte	0
 7449              	.LLST21:
 7450 02fc 00000000 		.4byte	.LVL63
 7451 0300 08000000 		.4byte	.LVL65
 7452 0304 0100     		.2byte	0x1
 7453 0306 51       		.byte	0x51
 7454 0307 08000000 		.4byte	.LVL65
 7455 030b 0A000000 		.4byte	.LVL66
 7456 030f 0300     		.2byte	0x3
 7457 0311 70       		.byte	0x70
 7458 0312 D400     		.sleb128 84
 7459 0314 0A000000 		.4byte	.LVL66
 7460 0318 50000000 		.4byte	.LFE72
 7461 031c 0400     		.2byte	0x4
 7462 031e F3       		.byte	0xf3
 7463 031f 01       		.uleb128 0x1
 7464 0320 51       		.byte	0x51
 7465 0321 9F       		.byte	0x9f
 7466 0322 00000000 		.4byte	0
 7467 0326 00000000 		.4byte	0
 7468              	.LLST22:
 7469 032a 00000000 		.4byte	.LVL63
 7470 032e 3D000000 		.4byte	.LVL69-1
ARM GAS  C:\Users\samue\AppData\Local\Temp\ccYWUiYX.s 			page 146


 7471 0332 0100     		.2byte	0x1
 7472 0334 52       		.byte	0x52
 7473 0335 3D000000 		.4byte	.LVL69-1
 7474 0339 50000000 		.4byte	.LFE72
 7475 033d 0400     		.2byte	0x4
 7476 033f F3       		.byte	0xf3
 7477 0340 01       		.uleb128 0x1
 7478 0341 52       		.byte	0x52
 7479 0342 9F       		.byte	0x9f
 7480 0343 00000000 		.4byte	0
 7481 0347 00000000 		.4byte	0
 7482              	.LLST23:
 7483 034b 00000000 		.4byte	.LVL63
 7484 034f 1E000000 		.4byte	.LVL68
 7485 0353 0100     		.2byte	0x1
 7486 0355 53       		.byte	0x53
 7487 0356 1E000000 		.4byte	.LVL68
 7488 035a 3D000000 		.4byte	.LVL69-1
 7489 035e 0200     		.2byte	0x2
 7490 0360 74       		.byte	0x74
 7491 0361 10       		.sleb128 16
 7492 0362 3D000000 		.4byte	.LVL69-1
 7493 0366 50000000 		.4byte	.LFE72
 7494 036a 0400     		.2byte	0x4
 7495 036c F3       		.byte	0xf3
 7496 036d 01       		.uleb128 0x1
 7497 036e 53       		.byte	0x53
 7498 036f 9F       		.byte	0x9f
 7499 0370 00000000 		.4byte	0
 7500 0374 00000000 		.4byte	0
 7501              	.LLST24:
 7502 0378 06000000 		.4byte	.LVL64
 7503 037c 0A000000 		.4byte	.LVL66
 7504 0380 0200     		.2byte	0x2
 7505 0382 30       		.byte	0x30
 7506 0383 9F       		.byte	0x9f
 7507 0384 0A000000 		.4byte	.LVL66
 7508 0388 3D000000 		.4byte	.LVL69-1
 7509 038c 0100     		.2byte	0x1
 7510 038e 51       		.byte	0x51
 7511 038f 00000000 		.4byte	0
 7512 0393 00000000 		.4byte	0
 7513              	.LLST25:
 7514 0397 00000000 		.4byte	.LVL72
 7515 039b 14000000 		.4byte	.LVL74
 7516 039f 0100     		.2byte	0x1
 7517 03a1 50       		.byte	0x50
 7518 03a2 14000000 		.4byte	.LVL74
 7519 03a6 7A000000 		.4byte	.LFE76
 7520 03aa 0100     		.2byte	0x1
 7521 03ac 55       		.byte	0x55
 7522 03ad 00000000 		.4byte	0
 7523 03b1 00000000 		.4byte	0
 7524              	.LLST26:
 7525 03b5 00000000 		.4byte	.LVL72
 7526 03b9 14000000 		.4byte	.LVL74
 7527 03bd 0100     		.2byte	0x1
ARM GAS  C:\Users\samue\AppData\Local\Temp\ccYWUiYX.s 			page 147


 7528 03bf 51       		.byte	0x51
 7529 03c0 14000000 		.4byte	.LVL74
 7530 03c4 7A000000 		.4byte	.LFE76
 7531 03c8 0100     		.2byte	0x1
 7532 03ca 56       		.byte	0x56
 7533 03cb 00000000 		.4byte	0
 7534 03cf 00000000 		.4byte	0
 7535              	.LLST27:
 7536 03d3 00000000 		.4byte	.LVL72
 7537 03d7 14000000 		.4byte	.LVL74
 7538 03db 0100     		.2byte	0x1
 7539 03dd 52       		.byte	0x52
 7540 03de 14000000 		.4byte	.LVL74
 7541 03e2 7A000000 		.4byte	.LFE76
 7542 03e6 0100     		.2byte	0x1
 7543 03e8 58       		.byte	0x58
 7544 03e9 00000000 		.4byte	0
 7545 03ed 00000000 		.4byte	0
 7546              	.LLST28:
 7547 03f1 0C000000 		.4byte	.LVL73
 7548 03f5 14000000 		.4byte	.LVL74
 7549 03f9 0200     		.2byte	0x2
 7550 03fb 30       		.byte	0x30
 7551 03fc 9F       		.byte	0x9f
 7552 03fd 14000000 		.4byte	.LVL74
 7553 0401 7A000000 		.4byte	.LFE76
 7554 0405 0100     		.2byte	0x1
 7555 0407 54       		.byte	0x54
 7556 0408 00000000 		.4byte	0
 7557 040c 00000000 		.4byte	0
 7558              	.LLST29:
 7559 0410 0C000000 		.4byte	.LVL73
 7560 0414 14000000 		.4byte	.LVL74
 7561 0418 0300     		.2byte	0x3
 7562 041a 09       		.byte	0x9
 7563 041b FF       		.byte	0xff
 7564 041c 9F       		.byte	0x9f
 7565 041d 14000000 		.4byte	.LVL74
 7566 0421 52000000 		.4byte	.LVL78
 7567 0425 0100     		.2byte	0x1
 7568 0427 57       		.byte	0x57
 7569 0428 52000000 		.4byte	.LVL78
 7570 042c 54000000 		.4byte	.LVL79
 7571 0430 0200     		.2byte	0x2
 7572 0432 30       		.byte	0x30
 7573 0433 9F       		.byte	0x9f
 7574 0434 54000000 		.4byte	.LVL79
 7575 0438 70000000 		.4byte	.LVL82
 7576 043c 0100     		.2byte	0x1
 7577 043e 57       		.byte	0x57
 7578 043f 70000000 		.4byte	.LVL82
 7579 0443 72000000 		.4byte	.LVL83
 7580 0447 0200     		.2byte	0x2
 7581 0449 30       		.byte	0x30
 7582 044a 9F       		.byte	0x9f
 7583 044b 72000000 		.4byte	.LVL83
 7584 044f 7A000000 		.4byte	.LFE76
ARM GAS  C:\Users\samue\AppData\Local\Temp\ccYWUiYX.s 			page 148


 7585 0453 0100     		.2byte	0x1
 7586 0455 57       		.byte	0x57
 7587 0456 00000000 		.4byte	0
 7588 045a 00000000 		.4byte	0
 7589              	.LLST30:
 7590 045e 00000000 		.4byte	.LVL84
 7591 0462 0C000000 		.4byte	.LVL85
 7592 0466 0100     		.2byte	0x1
 7593 0468 50       		.byte	0x50
 7594 0469 0C000000 		.4byte	.LVL85
 7595 046d 52000000 		.4byte	.LVL94
 7596 0471 0100     		.2byte	0x1
 7597 0473 54       		.byte	0x54
 7598 0474 52000000 		.4byte	.LVL94
 7599 0478 56000000 		.4byte	.LVL96
 7600 047c 0100     		.2byte	0x1
 7601 047e 50       		.byte	0x50
 7602 047f 56000000 		.4byte	.LVL96
 7603 0483 58000000 		.4byte	.LVL97
 7604 0487 0400     		.2byte	0x4
 7605 0489 F3       		.byte	0xf3
 7606 048a 01       		.uleb128 0x1
 7607 048b 50       		.byte	0x50
 7608 048c 9F       		.byte	0x9f
 7609 048d 58000000 		.4byte	.LVL97
 7610 0491 66000000 		.4byte	.LFE77
 7611 0495 0100     		.2byte	0x1
 7612 0497 54       		.byte	0x54
 7613 0498 00000000 		.4byte	0
 7614 049c 00000000 		.4byte	0
 7615              	.LLST31:
 7616 04a0 00000000 		.4byte	.LVL84
 7617 04a4 44000000 		.4byte	.LVL92
 7618 04a8 0200     		.2byte	0x2
 7619 04aa 30       		.byte	0x30
 7620 04ab 9F       		.byte	0x9f
 7621 04ac 44000000 		.4byte	.LVL92
 7622 04b0 4E000000 		.4byte	.LVL93
 7623 04b4 0100     		.2byte	0x1
 7624 04b6 50       		.byte	0x50
 7625 04b7 4E000000 		.4byte	.LVL93
 7626 04bb 54000000 		.4byte	.LVL95
 7627 04bf 0200     		.2byte	0x2
 7628 04c1 30       		.byte	0x30
 7629 04c2 9F       		.byte	0x9f
 7630 04c3 54000000 		.4byte	.LVL95
 7631 04c7 58000000 		.4byte	.LVL97
 7632 04cb 0100     		.2byte	0x1
 7633 04cd 53       		.byte	0x53
 7634 04ce 58000000 		.4byte	.LVL97
 7635 04d2 60000000 		.4byte	.LVL98
 7636 04d6 0200     		.2byte	0x2
 7637 04d8 30       		.byte	0x30
 7638 04d9 9F       		.byte	0x9f
 7639 04da 60000000 		.4byte	.LVL98
 7640 04de 66000000 		.4byte	.LFE77
 7641 04e2 0100     		.2byte	0x1
ARM GAS  C:\Users\samue\AppData\Local\Temp\ccYWUiYX.s 			page 149


 7642 04e4 53       		.byte	0x53
 7643 04e5 00000000 		.4byte	0
 7644 04e9 00000000 		.4byte	0
 7645              	.LLST32:
 7646 04ed 38000000 		.4byte	.LVL90
 7647 04f1 40000000 		.4byte	.LVL91
 7648 04f5 0100     		.2byte	0x1
 7649 04f7 50       		.byte	0x50
 7650 04f8 40000000 		.4byte	.LVL91
 7651 04fc 43000000 		.4byte	.LVL92-1
 7652 0500 0100     		.2byte	0x1
 7653 0502 51       		.byte	0x51
 7654 0503 4E000000 		.4byte	.LVL93
 7655 0507 52000000 		.4byte	.LVL94
 7656 050b 0100     		.2byte	0x1
 7657 050d 50       		.byte	0x50
 7658 050e 00000000 		.4byte	0
 7659 0512 00000000 		.4byte	0
 7660              	.LLST33:
 7661 0516 00000000 		.4byte	.LVL99
 7662 051a 04000000 		.4byte	.LVL100
 7663 051e 0200     		.2byte	0x2
 7664 0520 30       		.byte	0x30
 7665 0521 9F       		.byte	0x9f
 7666 0522 04000000 		.4byte	.LVL100
 7667 0526 14000000 		.4byte	.LFE78
 7668 052a 0100     		.2byte	0x1
 7669 052c 53       		.byte	0x53
 7670 052d 00000000 		.4byte	0
 7671 0531 00000000 		.4byte	0
 7672              	.LLST34:
 7673 0535 00000000 		.4byte	.LVL102
 7674 0539 0F000000 		.4byte	.LVL103-1
 7675 053d 0100     		.2byte	0x1
 7676 053f 50       		.byte	0x50
 7677 0540 0F000000 		.4byte	.LVL103-1
 7678 0544 12000000 		.4byte	.LFE79
 7679 0548 0400     		.2byte	0x4
 7680 054a F3       		.byte	0xf3
 7681 054b 01       		.uleb128 0x1
 7682 054c 50       		.byte	0x50
 7683 054d 9F       		.byte	0x9f
 7684 054e 00000000 		.4byte	0
 7685 0552 00000000 		.4byte	0
 7686              	.LLST35:
 7687 0556 00000000 		.4byte	.LVL104
 7688 055a 0B000000 		.4byte	.LVL106-1
 7689 055e 0100     		.2byte	0x1
 7690 0560 50       		.byte	0x50
 7691 0561 0B000000 		.4byte	.LVL106-1
 7692 0565 4C010000 		.4byte	.LFE80
 7693 0569 0100     		.2byte	0x1
 7694 056b 55       		.byte	0x55
 7695 056c 00000000 		.4byte	0
 7696 0570 00000000 		.4byte	0
 7697              	.LLST36:
 7698 0574 00000000 		.4byte	.LVL104
ARM GAS  C:\Users\samue\AppData\Local\Temp\ccYWUiYX.s 			page 150


 7699 0578 0B000000 		.4byte	.LVL106-1
 7700 057c 0100     		.2byte	0x1
 7701 057e 51       		.byte	0x51
 7702 057f 0B000000 		.4byte	.LVL106-1
 7703 0583 AE000000 		.4byte	.LVL119
 7704 0587 0100     		.2byte	0x1
 7705 0589 54       		.byte	0x54
 7706 058a AE000000 		.4byte	.LVL119
 7707 058e B0000000 		.4byte	.LVL120
 7708 0592 0400     		.2byte	0x4
 7709 0594 F3       		.byte	0xf3
 7710 0595 01       		.uleb128 0x1
 7711 0596 51       		.byte	0x51
 7712 0597 9F       		.byte	0x9f
 7713 0598 B0000000 		.4byte	.LVL120
 7714 059c B4000000 		.4byte	.LVL121
 7715 05a0 0100     		.2byte	0x1
 7716 05a2 54       		.byte	0x54
 7717 05a3 B4000000 		.4byte	.LVL121
 7718 05a7 BC000000 		.4byte	.LVL122
 7719 05ab 0400     		.2byte	0x4
 7720 05ad F3       		.byte	0xf3
 7721 05ae 01       		.uleb128 0x1
 7722 05af 51       		.byte	0x51
 7723 05b0 9F       		.byte	0x9f
 7724 05b1 BC000000 		.4byte	.LVL122
 7725 05b5 BE000000 		.4byte	.LVL123
 7726 05b9 0100     		.2byte	0x1
 7727 05bb 54       		.byte	0x54
 7728 05bc BE000000 		.4byte	.LVL123
 7729 05c0 C0000000 		.4byte	.LVL124
 7730 05c4 0400     		.2byte	0x4
 7731 05c6 F3       		.byte	0xf3
 7732 05c7 01       		.uleb128 0x1
 7733 05c8 51       		.byte	0x51
 7734 05c9 9F       		.byte	0x9f
 7735 05ca C0000000 		.4byte	.LVL124
 7736 05ce C2000000 		.4byte	.LVL125
 7737 05d2 0100     		.2byte	0x1
 7738 05d4 54       		.byte	0x54
 7739 05d5 C2000000 		.4byte	.LVL125
 7740 05d9 C4000000 		.4byte	.LVL126
 7741 05dd 0400     		.2byte	0x4
 7742 05df F3       		.byte	0xf3
 7743 05e0 01       		.uleb128 0x1
 7744 05e1 51       		.byte	0x51
 7745 05e2 9F       		.byte	0x9f
 7746 05e3 C4000000 		.4byte	.LVL126
 7747 05e7 00010000 		.4byte	.LVL132
 7748 05eb 0100     		.2byte	0x1
 7749 05ed 54       		.byte	0x54
 7750 05ee 00010000 		.4byte	.LVL132
 7751 05f2 04010000 		.4byte	.LVL133
 7752 05f6 0400     		.2byte	0x4
 7753 05f8 F3       		.byte	0xf3
 7754 05f9 01       		.uleb128 0x1
 7755 05fa 51       		.byte	0x51
ARM GAS  C:\Users\samue\AppData\Local\Temp\ccYWUiYX.s 			page 151


 7756 05fb 9F       		.byte	0x9f
 7757 05fc 04010000 		.4byte	.LVL133
 7758 0600 08010000 		.4byte	.LVL134
 7759 0604 0100     		.2byte	0x1
 7760 0606 54       		.byte	0x54
 7761 0607 08010000 		.4byte	.LVL134
 7762 060b 0A010000 		.4byte	.LVL135
 7763 060f 0400     		.2byte	0x4
 7764 0611 F3       		.byte	0xf3
 7765 0612 01       		.uleb128 0x1
 7766 0613 51       		.byte	0x51
 7767 0614 9F       		.byte	0x9f
 7768 0615 0A010000 		.4byte	.LVL135
 7769 0619 0E010000 		.4byte	.LVL136
 7770 061d 0100     		.2byte	0x1
 7771 061f 54       		.byte	0x54
 7772 0620 0E010000 		.4byte	.LVL136
 7773 0624 1C010000 		.4byte	.LVL139
 7774 0628 0400     		.2byte	0x4
 7775 062a F3       		.byte	0xf3
 7776 062b 01       		.uleb128 0x1
 7777 062c 51       		.byte	0x51
 7778 062d 9F       		.byte	0x9f
 7779 062e 1C010000 		.4byte	.LVL139
 7780 0632 1E010000 		.4byte	.LVL140
 7781 0636 0100     		.2byte	0x1
 7782 0638 54       		.byte	0x54
 7783 0639 1E010000 		.4byte	.LVL140
 7784 063d 22010000 		.4byte	.LVL141
 7785 0641 0400     		.2byte	0x4
 7786 0643 F3       		.byte	0xf3
 7787 0644 01       		.uleb128 0x1
 7788 0645 51       		.byte	0x51
 7789 0646 9F       		.byte	0x9f
 7790 0647 22010000 		.4byte	.LVL141
 7791 064b 24010000 		.4byte	.LVL142
 7792 064f 0100     		.2byte	0x1
 7793 0651 54       		.byte	0x54
 7794 0652 24010000 		.4byte	.LVL142
 7795 0656 2E010000 		.4byte	.LVL144
 7796 065a 0400     		.2byte	0x4
 7797 065c F3       		.byte	0xf3
 7798 065d 01       		.uleb128 0x1
 7799 065e 51       		.byte	0x51
 7800 065f 9F       		.byte	0x9f
 7801 0660 2E010000 		.4byte	.LVL144
 7802 0664 30010000 		.4byte	.LVL145
 7803 0668 0100     		.2byte	0x1
 7804 066a 54       		.byte	0x54
 7805 066b 30010000 		.4byte	.LVL145
 7806 066f 4C010000 		.4byte	.LFE80
 7807 0673 0400     		.2byte	0x4
 7808 0675 F3       		.byte	0xf3
 7809 0676 01       		.uleb128 0x1
 7810 0677 51       		.byte	0x51
 7811 0678 9F       		.byte	0x9f
 7812 0679 00000000 		.4byte	0
ARM GAS  C:\Users\samue\AppData\Local\Temp\ccYWUiYX.s 			page 152


 7813 067d 00000000 		.4byte	0
 7814              	.LLST37:
 7815 0681 08000000 		.4byte	.LVL105
 7816 0685 82000000 		.4byte	.LVL112
 7817 0689 0200     		.2byte	0x2
 7818 068b 30       		.byte	0x30
 7819 068c 9F       		.byte	0x9f
 7820 068d 82000000 		.4byte	.LVL112
 7821 0691 84000000 		.4byte	.LVL113
 7822 0695 0100     		.2byte	0x1
 7823 0697 50       		.byte	0x50
 7824 0698 84000000 		.4byte	.LVL113
 7825 069c 9C000000 		.4byte	.LVL115
 7826 06a0 0200     		.2byte	0x2
 7827 06a2 30       		.byte	0x30
 7828 06a3 9F       		.byte	0x9f
 7829 06a4 9C000000 		.4byte	.LVL115
 7830 06a8 9E000000 		.4byte	.LVL116
 7831 06ac 0100     		.2byte	0x1
 7832 06ae 50       		.byte	0x50
 7833 06af 9E000000 		.4byte	.LVL116
 7834 06b3 A0000000 		.4byte	.LVL117
 7835 06b7 0200     		.2byte	0x2
 7836 06b9 30       		.byte	0x30
 7837 06ba 9F       		.byte	0x9f
 7838 06bb A0000000 		.4byte	.LVL117
 7839 06bf AB000000 		.4byte	.LVL118-1
 7840 06c3 0100     		.2byte	0x1
 7841 06c5 51       		.byte	0x51
 7842 06c6 B0000000 		.4byte	.LVL120
 7843 06ca B4000000 		.4byte	.LVL121
 7844 06ce 0100     		.2byte	0x1
 7845 06d0 51       		.byte	0x51
 7846 06d1 BC000000 		.4byte	.LVL122
 7847 06d5 F2000000 		.4byte	.LVL129
 7848 06d9 0200     		.2byte	0x2
 7849 06db 30       		.byte	0x30
 7850 06dc 9F       		.byte	0x9f
 7851 06dd F2000000 		.4byte	.LVL129
 7852 06e1 FA000000 		.4byte	.LVL130
 7853 06e5 0100     		.2byte	0x1
 7854 06e7 50       		.byte	0x50
 7855 06e8 FA000000 		.4byte	.LVL130
 7856 06ec FD000000 		.4byte	.LVL131-1
 7857 06f0 0100     		.2byte	0x1
 7858 06f2 51       		.byte	0x51
 7859 06f3 04010000 		.4byte	.LVL133
 7860 06f7 0A010000 		.4byte	.LVL135
 7861 06fb 0200     		.2byte	0x2
 7862 06fd 30       		.byte	0x30
 7863 06fe 9F       		.byte	0x9f
 7864 06ff 0A010000 		.4byte	.LVL135
 7865 0703 10010000 		.4byte	.LVL137
 7866 0707 0100     		.2byte	0x1
 7867 0709 50       		.byte	0x50
 7868 070a 1C010000 		.4byte	.LVL139
 7869 070e 24010000 		.4byte	.LVL142
ARM GAS  C:\Users\samue\AppData\Local\Temp\ccYWUiYX.s 			page 153


 7870 0712 0200     		.2byte	0x2
 7871 0714 30       		.byte	0x30
 7872 0715 9F       		.byte	0x9f
 7873 0716 2E010000 		.4byte	.LVL144
 7874 071a 32010000 		.4byte	.LVL146
 7875 071e 0200     		.2byte	0x2
 7876 0720 30       		.byte	0x30
 7877 0721 9F       		.byte	0x9f
 7878 0722 00000000 		.4byte	0
 7879 0726 00000000 		.4byte	0
 7880              	.LLST38:
 7881 072a 08000000 		.4byte	.LVL105
 7882 072e AE000000 		.4byte	.LVL119
 7883 0732 0200     		.2byte	0x2
 7884 0734 30       		.byte	0x30
 7885 0735 9F       		.byte	0x9f
 7886 0736 AE000000 		.4byte	.LVL119
 7887 073a B0000000 		.4byte	.LVL120
 7888 073e 0100     		.2byte	0x1
 7889 0740 50       		.byte	0x50
 7890 0741 B0000000 		.4byte	.LVL120
 7891 0745 B4000000 		.4byte	.LVL121
 7892 0749 0200     		.2byte	0x2
 7893 074b 30       		.byte	0x30
 7894 074c 9F       		.byte	0x9f
 7895 074d B4000000 		.4byte	.LVL121
 7896 0751 BC000000 		.4byte	.LVL122
 7897 0755 0100     		.2byte	0x1
 7898 0757 54       		.byte	0x54
 7899 0758 BC000000 		.4byte	.LVL122
 7900 075c FE000000 		.4byte	.LVL131
 7901 0760 0200     		.2byte	0x2
 7902 0762 30       		.byte	0x30
 7903 0763 9F       		.byte	0x9f
 7904 0764 FE000000 		.4byte	.LVL131
 7905 0768 04010000 		.4byte	.LVL133
 7906 076c 0100     		.2byte	0x1
 7907 076e 50       		.byte	0x50
 7908 076f 04010000 		.4byte	.LVL133
 7909 0773 10010000 		.4byte	.LVL137
 7910 0777 0200     		.2byte	0x2
 7911 0779 30       		.byte	0x30
 7912 077a 9F       		.byte	0x9f
 7913 077b 10010000 		.4byte	.LVL137
 7914 077f 14010000 		.4byte	.LVL138
 7915 0783 0100     		.2byte	0x1
 7916 0785 50       		.byte	0x50
 7917 0786 14010000 		.4byte	.LVL138
 7918 078a 1C010000 		.4byte	.LVL139
 7919 078e 0100     		.2byte	0x1
 7920 0790 54       		.byte	0x54
 7921 0791 1C010000 		.4byte	.LVL139
 7922 0795 24010000 		.4byte	.LVL142
 7923 0799 0200     		.2byte	0x2
 7924 079b 30       		.byte	0x30
 7925 079c 9F       		.byte	0x9f
 7926 079d 24010000 		.4byte	.LVL142
ARM GAS  C:\Users\samue\AppData\Local\Temp\ccYWUiYX.s 			page 154


 7927 07a1 2E010000 		.4byte	.LVL144
 7928 07a5 0100     		.2byte	0x1
 7929 07a7 54       		.byte	0x54
 7930 07a8 2E010000 		.4byte	.LVL144
 7931 07ac 32010000 		.4byte	.LVL146
 7932 07b0 0200     		.2byte	0x2
 7933 07b2 30       		.byte	0x30
 7934 07b3 9F       		.byte	0x9f
 7935 07b4 32010000 		.4byte	.LVL146
 7936 07b8 4C010000 		.4byte	.LFE80
 7937 07bc 0100     		.2byte	0x1
 7938 07be 54       		.byte	0x54
 7939 07bf 00000000 		.4byte	0
 7940 07c3 00000000 		.4byte	0
 7941              	.LLST39:
 7942 07c7 0E000000 		.4byte	.LVL107
 7943 07cb 4A000000 		.4byte	.LVL108
 7944 07cf 0100     		.2byte	0x1
 7945 07d1 50       		.byte	0x50
 7946 07d2 4A000000 		.4byte	.LVL108
 7947 07d6 C4000000 		.4byte	.LVL126
 7948 07da 0100     		.2byte	0x1
 7949 07dc 56       		.byte	0x56
 7950 07dd C4000000 		.4byte	.LVL126
 7951 07e1 D0000000 		.4byte	.LVL127
 7952 07e5 0100     		.2byte	0x1
 7953 07e7 50       		.byte	0x50
 7954 07e8 D0000000 		.4byte	.LVL127
 7955 07ec 1C010000 		.4byte	.LVL139
 7956 07f0 0100     		.2byte	0x1
 7957 07f2 56       		.byte	0x56
 7958 07f3 1C010000 		.4byte	.LVL139
 7959 07f7 24010000 		.4byte	.LVL142
 7960 07fb 0100     		.2byte	0x1
 7961 07fd 50       		.byte	0x50
 7962 07fe 24010000 		.4byte	.LVL142
 7963 0802 2E010000 		.4byte	.LVL144
 7964 0806 0100     		.2byte	0x1
 7965 0808 56       		.byte	0x56
 7966 0809 2E010000 		.4byte	.LVL144
 7967 080d 32010000 		.4byte	.LVL146
 7968 0811 0100     		.2byte	0x1
 7969 0813 50       		.byte	0x50
 7970 0814 32010000 		.4byte	.LVL146
 7971 0818 4C010000 		.4byte	.LFE80
 7972 081c 0100     		.2byte	0x1
 7973 081e 56       		.byte	0x56
 7974 081f 00000000 		.4byte	0
 7975 0823 00000000 		.4byte	0
 7976              	.LLST40:
 7977 0827 00000000 		.4byte	.LVL150
 7978 082b 08000000 		.4byte	.LVL152
 7979 082f 0100     		.2byte	0x1
 7980 0831 50       		.byte	0x50
 7981 0832 08000000 		.4byte	.LVL152
 7982 0836 36000000 		.4byte	.LFE83
 7983 083a 0100     		.2byte	0x1
ARM GAS  C:\Users\samue\AppData\Local\Temp\ccYWUiYX.s 			page 155


 7984 083c 55       		.byte	0x55
 7985 083d 00000000 		.4byte	0
 7986 0841 00000000 		.4byte	0
 7987              	.LLST41:
 7988 0845 06000000 		.4byte	.LVL151
 7989 0849 08000000 		.4byte	.LVL152
 7990 084d 0100     		.2byte	0x1
 7991 084f 50       		.byte	0x50
 7992 0850 08000000 		.4byte	.LVL152
 7993 0854 36000000 		.4byte	.LFE83
 7994 0858 0100     		.2byte	0x1
 7995 085a 55       		.byte	0x55
 7996 085b 00000000 		.4byte	0
 7997 085f 00000000 		.4byte	0
 7998              	.LLST42:
 7999 0863 00000000 		.4byte	.LVL159
 8000 0867 0A000000 		.4byte	.LVL161
 8001 086b 0100     		.2byte	0x1
 8002 086d 50       		.byte	0x50
 8003 086e 0A000000 		.4byte	.LVL161
 8004 0872 38000000 		.4byte	.LFE81
 8005 0876 0100     		.2byte	0x1
 8006 0878 54       		.byte	0x54
 8007 0879 00000000 		.4byte	0
 8008 087d 00000000 		.4byte	0
 8009              	.LLST43:
 8010 0881 00000000 		.4byte	.LVL159
 8011 0885 0D000000 		.4byte	.LVL162-1
 8012 0889 0100     		.2byte	0x1
 8013 088b 51       		.byte	0x51
 8014 088c 0D000000 		.4byte	.LVL162-1
 8015 0890 38000000 		.4byte	.LFE81
 8016 0894 0100     		.2byte	0x1
 8017 0896 55       		.byte	0x55
 8018 0897 00000000 		.4byte	0
 8019 089b 00000000 		.4byte	0
 8020              	.LLST44:
 8021 089f 08000000 		.4byte	.LVL160
 8022 08a3 34000000 		.4byte	.LVL166
 8023 08a7 0200     		.2byte	0x2
 8024 08a9 30       		.byte	0x30
 8025 08aa 9F       		.byte	0x9f
 8026 08ab 34000000 		.4byte	.LVL166
 8027 08af 38000000 		.4byte	.LFE81
 8028 08b3 0100     		.2byte	0x1
 8029 08b5 50       		.byte	0x50
 8030 08b6 00000000 		.4byte	0
 8031 08ba 00000000 		.4byte	0
 8032              	.LLST45:
 8033 08be 00000000 		.4byte	.LVL167
 8034 08c2 02000000 		.4byte	.LVL168
 8035 08c6 0100     		.2byte	0x1
 8036 08c8 50       		.byte	0x50
 8037 08c9 02000000 		.4byte	.LVL168
 8038 08cd 04000000 		.4byte	.LFE82
 8039 08d1 0400     		.2byte	0x4
 8040 08d3 F3       		.byte	0xf3
ARM GAS  C:\Users\samue\AppData\Local\Temp\ccYWUiYX.s 			page 156


 8041 08d4 01       		.uleb128 0x1
 8042 08d5 50       		.byte	0x50
 8043 08d6 9F       		.byte	0x9f
 8044 08d7 00000000 		.4byte	0
 8045 08db 00000000 		.4byte	0
 8046              	.LLST46:
 8047 08df 00000000 		.4byte	.LVL169
 8048 08e3 08000000 		.4byte	.LVL170
 8049 08e7 0100     		.2byte	0x1
 8050 08e9 50       		.byte	0x50
 8051 08ea 08000000 		.4byte	.LVL170
 8052 08ee 0B000000 		.4byte	.LVL171-1
 8053 08f2 0100     		.2byte	0x1
 8054 08f4 52       		.byte	0x52
 8055 08f5 0B000000 		.4byte	.LVL171-1
 8056 08f9 14000000 		.4byte	.LFE84
 8057 08fd 0400     		.2byte	0x4
 8058 08ff F3       		.byte	0xf3
 8059 0900 01       		.uleb128 0x1
 8060 0901 50       		.byte	0x50
 8061 0902 9F       		.byte	0x9f
 8062 0903 00000000 		.4byte	0
 8063 0907 00000000 		.4byte	0
 8064              	.LLST47:
 8065 090b 00000000 		.4byte	.LVL172
 8066 090f 0C000000 		.4byte	.LVL174
 8067 0913 0100     		.2byte	0x1
 8068 0915 50       		.byte	0x50
 8069 0916 0C000000 		.4byte	.LVL174
 8070 091a 2A000000 		.4byte	.LFE85
 8071 091e 0100     		.2byte	0x1
 8072 0920 57       		.byte	0x57
 8073 0921 00000000 		.4byte	0
 8074 0925 00000000 		.4byte	0
 8075              	.LLST48:
 8076 0929 00000000 		.4byte	.LVL172
 8077 092d 0C000000 		.4byte	.LVL174
 8078 0931 0100     		.2byte	0x1
 8079 0933 51       		.byte	0x51
 8080 0934 0C000000 		.4byte	.LVL174
 8081 0938 2A000000 		.4byte	.LFE85
 8082 093c 0100     		.2byte	0x1
 8083 093e 56       		.byte	0x56
 8084 093f 00000000 		.4byte	0
 8085 0943 00000000 		.4byte	0
 8086              	.LLST49:
 8087 0947 00000000 		.4byte	.LVL172
 8088 094b 0C000000 		.4byte	.LVL174
 8089 094f 0100     		.2byte	0x1
 8090 0951 52       		.byte	0x52
 8091 0952 0C000000 		.4byte	.LVL174
 8092 0956 2A000000 		.4byte	.LFE85
 8093 095a 0100     		.2byte	0x1
 8094 095c 55       		.byte	0x55
 8095 095d 00000000 		.4byte	0
 8096 0961 00000000 		.4byte	0
 8097              	.LLST50:
ARM GAS  C:\Users\samue\AppData\Local\Temp\ccYWUiYX.s 			page 157


 8098 0965 08000000 		.4byte	.LVL173
 8099 0969 0C000000 		.4byte	.LVL174
 8100 096d 0300     		.2byte	0x3
 8101 096f 09       		.byte	0x9
 8102 0970 FF       		.byte	0xff
 8103 0971 9F       		.byte	0x9f
 8104 0972 0C000000 		.4byte	.LVL174
 8105 0976 1E000000 		.4byte	.LVL177
 8106 097a 0100     		.2byte	0x1
 8107 097c 54       		.byte	0x54
 8108 097d 1E000000 		.4byte	.LVL177
 8109 0981 26000000 		.4byte	.LVL178
 8110 0985 0100     		.2byte	0x1
 8111 0987 50       		.byte	0x50
 8112 0988 26000000 		.4byte	.LVL178
 8113 098c 2A000000 		.4byte	.LFE85
 8114 0990 0100     		.2byte	0x1
 8115 0992 54       		.byte	0x54
 8116 0993 00000000 		.4byte	0
 8117 0997 00000000 		.4byte	0
 8118              	.LLST51:
 8119 099b 00000000 		.4byte	.LVL179
 8120 099f 10000000 		.4byte	.LVL183
 8121 09a3 0100     		.2byte	0x1
 8122 09a5 50       		.byte	0x50
 8123 09a6 10000000 		.4byte	.LVL183
 8124 09aa B6000000 		.4byte	.LVL207
 8125 09ae 0100     		.2byte	0x1
 8126 09b0 54       		.byte	0x54
 8127 09b1 B6000000 		.4byte	.LVL207
 8128 09b5 BC000000 		.4byte	.LFE86
 8129 09b9 0400     		.2byte	0x4
 8130 09bb F3       		.byte	0xf3
 8131 09bc 01       		.uleb128 0x1
 8132 09bd 50       		.byte	0x50
 8133 09be 9F       		.byte	0x9f
 8134 09bf 00000000 		.4byte	0
 8135 09c3 00000000 		.4byte	0
 8136              	.LLST52:
 8137 09c7 00000000 		.4byte	.LVL179
 8138 09cb 0E000000 		.4byte	.LVL182
 8139 09cf 0100     		.2byte	0x1
 8140 09d1 51       		.byte	0x51
 8141 09d2 0E000000 		.4byte	.LVL182
 8142 09d6 5E000000 		.4byte	.LVL193
 8143 09da 0100     		.2byte	0x1
 8144 09dc 55       		.byte	0x55
 8145 09dd 8A000000 		.4byte	.LVL198
 8146 09e1 8E000000 		.4byte	.LVL199
 8147 09e5 0100     		.2byte	0x1
 8148 09e7 55       		.byte	0x55
 8149 09e8 8E000000 		.4byte	.LVL199
 8150 09ec 90000000 		.4byte	.LVL200
 8151 09f0 0400     		.2byte	0x4
 8152 09f2 F3       		.byte	0xf3
 8153 09f3 01       		.uleb128 0x1
 8154 09f4 51       		.byte	0x51
ARM GAS  C:\Users\samue\AppData\Local\Temp\ccYWUiYX.s 			page 158


 8155 09f5 9F       		.byte	0x9f
 8156 09f6 90000000 		.4byte	.LVL200
 8157 09fa 94000000 		.4byte	.LVL201
 8158 09fe 0100     		.2byte	0x1
 8159 0a00 55       		.byte	0x55
 8160 0a01 00000000 		.4byte	0
 8161 0a05 00000000 		.4byte	0
 8162              	.LLST53:
 8163 0a09 00000000 		.4byte	.LVL179
 8164 0a0d 0C000000 		.4byte	.LVL181
 8165 0a11 0100     		.2byte	0x1
 8166 0a13 52       		.byte	0x52
 8167 0a14 0C000000 		.4byte	.LVL181
 8168 0a18 B6000000 		.4byte	.LVL207
 8169 0a1c 0100     		.2byte	0x1
 8170 0a1e 57       		.byte	0x57
 8171 0a1f B6000000 		.4byte	.LVL207
 8172 0a23 BC000000 		.4byte	.LFE86
 8173 0a27 0400     		.2byte	0x4
 8174 0a29 F3       		.byte	0xf3
 8175 0a2a 01       		.uleb128 0x1
 8176 0a2b 52       		.byte	0x52
 8177 0a2c 9F       		.byte	0x9f
 8178 0a2d 00000000 		.4byte	0
 8179 0a31 00000000 		.4byte	0
 8180              	.LLST54:
 8181 0a35 0A000000 		.4byte	.LVL180
 8182 0a39 5C000000 		.4byte	.LVL192
 8183 0a3d 0300     		.2byte	0x3
 8184 0a3f 09       		.byte	0x9
 8185 0a40 FF       		.byte	0xff
 8186 0a41 9F       		.byte	0x9f
 8187 0a42 5C000000 		.4byte	.LVL192
 8188 0a46 66000000 		.4byte	.LVL194
 8189 0a4a 0100     		.2byte	0x1
 8190 0a4c 50       		.byte	0x50
 8191 0a4d 66000000 		.4byte	.LVL194
 8192 0a51 8A000000 		.4byte	.LVL198
 8193 0a55 0100     		.2byte	0x1
 8194 0a57 55       		.byte	0x55
 8195 0a58 8A000000 		.4byte	.LVL198
 8196 0a5c 96000000 		.4byte	.LVL202
 8197 0a60 0300     		.2byte	0x3
 8198 0a62 09       		.byte	0x9
 8199 0a63 FF       		.byte	0xff
 8200 0a64 9F       		.byte	0x9f
 8201 0a65 96000000 		.4byte	.LVL202
 8202 0a69 9A000000 		.4byte	.LVL203
 8203 0a6d 0100     		.2byte	0x1
 8204 0a6f 55       		.byte	0x55
 8205 0a70 9C000000 		.4byte	.LVL204
 8206 0a74 B6000000 		.4byte	.LVL207
 8207 0a78 0100     		.2byte	0x1
 8208 0a7a 55       		.byte	0x55
 8209 0a7b B6000000 		.4byte	.LVL207
 8210 0a7f BC000000 		.4byte	.LFE86
 8211 0a83 0100     		.2byte	0x1
ARM GAS  C:\Users\samue\AppData\Local\Temp\ccYWUiYX.s 			page 159


 8212 0a85 50       		.byte	0x50
 8213 0a86 00000000 		.4byte	0
 8214 0a8a 00000000 		.4byte	0
 8215              	.LLST55:
 8216 0a8e 14000000 		.4byte	.LVL184
 8217 0a92 50000000 		.4byte	.LVL190
 8218 0a96 0200     		.2byte	0x2
 8219 0a98 30       		.byte	0x30
 8220 0a99 9F       		.byte	0x9f
 8221 0a9a 50000000 		.4byte	.LVL190
 8222 0a9e 58000000 		.4byte	.LVL191
 8223 0aa2 0100     		.2byte	0x1
 8224 0aa4 50       		.byte	0x50
 8225 0aa5 58000000 		.4byte	.LVL191
 8226 0aa9 5B000000 		.4byte	.LVL192-1
 8227 0aad 0100     		.2byte	0x1
 8228 0aaf 51       		.byte	0x51
 8229 0ab0 8A000000 		.4byte	.LVL198
 8230 0ab4 90000000 		.4byte	.LVL200
 8231 0ab8 0200     		.2byte	0x2
 8232 0aba 30       		.byte	0x30
 8233 0abb 9F       		.byte	0x9f
 8234 0abc 90000000 		.4byte	.LVL200
 8235 0ac0 96000000 		.4byte	.LVL202
 8236 0ac4 0100     		.2byte	0x1
 8237 0ac6 50       		.byte	0x50
 8238 0ac7 00000000 		.4byte	0
 8239 0acb 00000000 		.4byte	0
 8240              	.LLST56:
 8241 0acf 00000000 		.4byte	.LVL208
 8242 0ad3 09000000 		.4byte	.LVL209-1
 8243 0ad7 0100     		.2byte	0x1
 8244 0ad9 50       		.byte	0x50
 8245 0ada 09000000 		.4byte	.LVL209-1
 8246 0ade 10000000 		.4byte	.LFE87
 8247 0ae2 0400     		.2byte	0x4
 8248 0ae4 F3       		.byte	0xf3
 8249 0ae5 01       		.uleb128 0x1
 8250 0ae6 50       		.byte	0x50
 8251 0ae7 9F       		.byte	0x9f
 8252 0ae8 00000000 		.4byte	0
 8253 0aec 00000000 		.4byte	0
 8254              	.LLST57:
 8255 0af0 00000000 		.4byte	.LVL208
 8256 0af4 09000000 		.4byte	.LVL209-1
 8257 0af8 0100     		.2byte	0x1
 8258 0afa 51       		.byte	0x51
 8259 0afb 09000000 		.4byte	.LVL209-1
 8260 0aff 10000000 		.4byte	.LFE87
 8261 0b03 0400     		.2byte	0x4
 8262 0b05 F3       		.byte	0xf3
 8263 0b06 01       		.uleb128 0x1
 8264 0b07 51       		.byte	0x51
 8265 0b08 9F       		.byte	0x9f
 8266 0b09 00000000 		.4byte	0
 8267 0b0d 00000000 		.4byte	0
 8268              	.LLST58:
ARM GAS  C:\Users\samue\AppData\Local\Temp\ccYWUiYX.s 			page 160


 8269 0b11 00000000 		.4byte	.LVL210
 8270 0b15 0C000000 		.4byte	.LVL212
 8271 0b19 0100     		.2byte	0x1
 8272 0b1b 50       		.byte	0x50
 8273 0b1c 0C000000 		.4byte	.LVL212
 8274 0b20 68000000 		.4byte	.LFE88
 8275 0b24 0100     		.2byte	0x1
 8276 0b26 55       		.byte	0x55
 8277 0b27 00000000 		.4byte	0
 8278 0b2b 00000000 		.4byte	0
 8279              	.LLST59:
 8280 0b2f 00000000 		.4byte	.LVL210
 8281 0b33 0C000000 		.4byte	.LVL212
 8282 0b37 0100     		.2byte	0x1
 8283 0b39 51       		.byte	0x51
 8284 0b3a 0C000000 		.4byte	.LVL212
 8285 0b3e 68000000 		.4byte	.LFE88
 8286 0b42 0100     		.2byte	0x1
 8287 0b44 56       		.byte	0x56
 8288 0b45 00000000 		.4byte	0
 8289 0b49 00000000 		.4byte	0
 8290              	.LLST60:
 8291 0b4d 00000000 		.4byte	.LVL210
 8292 0b51 0C000000 		.4byte	.LVL212
 8293 0b55 0100     		.2byte	0x1
 8294 0b57 52       		.byte	0x52
 8295 0b58 0C000000 		.4byte	.LVL212
 8296 0b5c 68000000 		.4byte	.LFE88
 8297 0b60 0100     		.2byte	0x1
 8298 0b62 57       		.byte	0x57
 8299 0b63 00000000 		.4byte	0
 8300 0b67 00000000 		.4byte	0
 8301              	.LLST61:
 8302 0b6b 08000000 		.4byte	.LVL211
 8303 0b6f 3A000000 		.4byte	.LVL215
 8304 0b73 0300     		.2byte	0x3
 8305 0b75 09       		.byte	0x9
 8306 0b76 FF       		.byte	0xff
 8307 0b77 9F       		.byte	0x9f
 8308 0b78 3A000000 		.4byte	.LVL215
 8309 0b7c 68000000 		.4byte	.LFE88
 8310 0b80 0100     		.2byte	0x1
 8311 0b82 50       		.byte	0x50
 8312 0b83 00000000 		.4byte	0
 8313 0b87 00000000 		.4byte	0
 8314              	.LLST62:
 8315 0b8b 08000000 		.4byte	.LVL211
 8316 0b8f 0C000000 		.4byte	.LVL212
 8317 0b93 0200     		.2byte	0x2
 8318 0b95 30       		.byte	0x30
 8319 0b96 9F       		.byte	0x9f
 8320 0b97 0C000000 		.4byte	.LVL212
 8321 0b9b 5C000000 		.4byte	.LVL219
 8322 0b9f 0100     		.2byte	0x1
 8323 0ba1 54       		.byte	0x54
 8324 0ba2 5C000000 		.4byte	.LVL219
 8325 0ba6 64000000 		.4byte	.LVL220
ARM GAS  C:\Users\samue\AppData\Local\Temp\ccYWUiYX.s 			page 161


 8326 0baa 0300     		.2byte	0x3
 8327 0bac 74       		.byte	0x74
 8328 0bad 7B       		.sleb128 -5
 8329 0bae 9F       		.byte	0x9f
 8330 0baf 00000000 		.4byte	0
 8331 0bb3 00000000 		.4byte	0
 8332              	.LLST63:
 8333 0bb7 00000000 		.4byte	.LVL221
 8334 0bbb 1E000000 		.4byte	.LVL224
 8335 0bbf 0100     		.2byte	0x1
 8336 0bc1 50       		.byte	0x50
 8337 0bc2 1E000000 		.4byte	.LVL224
 8338 0bc6 DE000000 		.4byte	.LFE89
 8339 0bca 0100     		.2byte	0x1
 8340 0bcc 54       		.byte	0x54
 8341 0bcd 00000000 		.4byte	0
 8342 0bd1 00000000 		.4byte	0
 8343              	.LLST64:
 8344 0bd5 00000000 		.4byte	.LVL221
 8345 0bd9 21000000 		.4byte	.LVL225-1
 8346 0bdd 0100     		.2byte	0x1
 8347 0bdf 51       		.byte	0x51
 8348 0be0 21000000 		.4byte	.LVL225-1
 8349 0be4 DE000000 		.4byte	.LFE89
 8350 0be8 0100     		.2byte	0x1
 8351 0bea 57       		.byte	0x57
 8352 0beb 00000000 		.4byte	0
 8353 0bef 00000000 		.4byte	0
 8354              	.LLST65:
 8355 0bf3 00000000 		.4byte	.LVL221
 8356 0bf7 21000000 		.4byte	.LVL225-1
 8357 0bfb 0100     		.2byte	0x1
 8358 0bfd 52       		.byte	0x52
 8359 0bfe 21000000 		.4byte	.LVL225-1
 8360 0c02 46000000 		.4byte	.LVL229
 8361 0c06 0300     		.2byte	0x3
 8362 0c08 91       		.byte	0x91
 8363 0c09 BF7F     		.sleb128 -65
 8364 0c0b 46000000 		.4byte	.LVL229
 8365 0c0f 4A000000 		.4byte	.LVL230
 8366 0c13 0200     		.2byte	0x2
 8367 0c15 73       		.byte	0x73
 8368 0c16 00       		.sleb128 0
 8369 0c17 4A000000 		.4byte	.LVL230
 8370 0c1b 5B000000 		.4byte	.LVL231-1
 8371 0c1f 0400     		.2byte	0x4
 8372 0c21 91       		.byte	0x91
 8373 0c22 B07F     		.sleb128 -80
 8374 0c24 06       		.byte	0x6
 8375 0c25 5B000000 		.4byte	.LVL231-1
 8376 0c29 DE000000 		.4byte	.LFE89
 8377 0c2d 0300     		.2byte	0x3
 8378 0c2f 91       		.byte	0x91
 8379 0c30 BF7F     		.sleb128 -65
 8380 0c32 00000000 		.4byte	0
 8381 0c36 00000000 		.4byte	0
 8382              	.LLST66:
ARM GAS  C:\Users\samue\AppData\Local\Temp\ccYWUiYX.s 			page 162


 8383 0c3a 00000000 		.4byte	.LVL221
 8384 0c3e 12000000 		.4byte	.LVL223
 8385 0c42 0100     		.2byte	0x1
 8386 0c44 53       		.byte	0x53
 8387 0c45 12000000 		.4byte	.LVL223
 8388 0c49 DE000000 		.4byte	.LFE89
 8389 0c4d 0100     		.2byte	0x1
 8390 0c4f 58       		.byte	0x58
 8391 0c50 00000000 		.4byte	0
 8392 0c54 00000000 		.4byte	0
 8393              	.LLST67:
 8394 0c58 10000000 		.4byte	.LVL222
 8395 0c5c 68000000 		.4byte	.LVL233
 8396 0c60 0300     		.2byte	0x3
 8397 0c62 09       		.byte	0x9
 8398 0c63 FF       		.byte	0xff
 8399 0c64 9F       		.byte	0x9f
 8400 0c65 68000000 		.4byte	.LVL233
 8401 0c69 72000000 		.4byte	.LVL234
 8402 0c6d 0100     		.2byte	0x1
 8403 0c6f 50       		.byte	0x50
 8404 0c70 72000000 		.4byte	.LVL234
 8405 0c74 B2000000 		.4byte	.LVL238
 8406 0c78 0100     		.2byte	0x1
 8407 0c7a 55       		.byte	0x55
 8408 0c7b B2000000 		.4byte	.LVL238
 8409 0c7f B4000000 		.4byte	.LVL239
 8410 0c83 0100     		.2byte	0x1
 8411 0c85 50       		.byte	0x50
 8412 0c86 B4000000 		.4byte	.LVL239
 8413 0c8a C0000000 		.4byte	.LVL241
 8414 0c8e 0300     		.2byte	0x3
 8415 0c90 09       		.byte	0x9
 8416 0c91 FF       		.byte	0xff
 8417 0c92 9F       		.byte	0x9f
 8418 0c93 C0000000 		.4byte	.LVL241
 8419 0c97 DE000000 		.4byte	.LFE89
 8420 0c9b 0100     		.2byte	0x1
 8421 0c9d 55       		.byte	0x55
 8422 0c9e 00000000 		.4byte	0
 8423 0ca2 00000000 		.4byte	0
 8424              	.LLST68:
 8425 0ca6 10000000 		.4byte	.LVL222
 8426 0caa 5C000000 		.4byte	.LVL231
 8427 0cae 0200     		.2byte	0x2
 8428 0cb0 30       		.byte	0x30
 8429 0cb1 9F       		.byte	0x9f
 8430 0cb2 5C000000 		.4byte	.LVL231
 8431 0cb6 64000000 		.4byte	.LVL232
 8432 0cba 0100     		.2byte	0x1
 8433 0cbc 50       		.byte	0x50
 8434 0cbd 64000000 		.4byte	.LVL232
 8435 0cc1 67000000 		.4byte	.LVL233-1
 8436 0cc5 0100     		.2byte	0x1
 8437 0cc7 51       		.byte	0x51
 8438 0cc8 B4000000 		.4byte	.LVL239
 8439 0ccc BA000000 		.4byte	.LVL240
ARM GAS  C:\Users\samue\AppData\Local\Temp\ccYWUiYX.s 			page 163


 8440 0cd0 0200     		.2byte	0x2
 8441 0cd2 30       		.byte	0x30
 8442 0cd3 9F       		.byte	0x9f
 8443 0cd4 BA000000 		.4byte	.LVL240
 8444 0cd8 C0000000 		.4byte	.LVL241
 8445 0cdc 0100     		.2byte	0x1
 8446 0cde 50       		.byte	0x50
 8447 0cdf 00000000 		.4byte	0
 8448 0ce3 00000000 		.4byte	0
 8449              	.LLST69:
 8450 0ce7 00000000 		.4byte	.LVL245
 8451 0ceb 0B000000 		.4byte	.LVL246-1
 8452 0cef 0100     		.2byte	0x1
 8453 0cf1 50       		.byte	0x50
 8454 0cf2 0B000000 		.4byte	.LVL246-1
 8455 0cf6 10000000 		.4byte	.LFE90
 8456 0cfa 0400     		.2byte	0x4
 8457 0cfc F3       		.byte	0xf3
 8458 0cfd 01       		.uleb128 0x1
 8459 0cfe 50       		.byte	0x50
 8460 0cff 9F       		.byte	0x9f
 8461 0d00 00000000 		.4byte	0
 8462 0d04 00000000 		.4byte	0
 8463              	.LLST70:
 8464 0d08 00000000 		.4byte	.LVL245
 8465 0d0c 0B000000 		.4byte	.LVL246-1
 8466 0d10 0100     		.2byte	0x1
 8467 0d12 51       		.byte	0x51
 8468 0d13 0B000000 		.4byte	.LVL246-1
 8469 0d17 10000000 		.4byte	.LFE90
 8470 0d1b 0400     		.2byte	0x4
 8471 0d1d F3       		.byte	0xf3
 8472 0d1e 01       		.uleb128 0x1
 8473 0d1f 51       		.byte	0x51
 8474 0d20 9F       		.byte	0x9f
 8475 0d21 00000000 		.4byte	0
 8476 0d25 00000000 		.4byte	0
 8477              	.LLST71:
 8478 0d29 00000000 		.4byte	.LVL245
 8479 0d2d 0B000000 		.4byte	.LVL246-1
 8480 0d31 0100     		.2byte	0x1
 8481 0d33 52       		.byte	0x52
 8482 0d34 0B000000 		.4byte	.LVL246-1
 8483 0d38 10000000 		.4byte	.LFE90
 8484 0d3c 0400     		.2byte	0x4
 8485 0d3e F3       		.byte	0xf3
 8486 0d3f 01       		.uleb128 0x1
 8487 0d40 52       		.byte	0x52
 8488 0d41 9F       		.byte	0x9f
 8489 0d42 00000000 		.4byte	0
 8490 0d46 00000000 		.4byte	0
 8491              	.LLST72:
 8492 0d4a 00000000 		.4byte	.LVL245
 8493 0d4e 0B000000 		.4byte	.LVL246-1
 8494 0d52 0100     		.2byte	0x1
 8495 0d54 53       		.byte	0x53
 8496 0d55 0B000000 		.4byte	.LVL246-1
ARM GAS  C:\Users\samue\AppData\Local\Temp\ccYWUiYX.s 			page 164


 8497 0d59 10000000 		.4byte	.LFE90
 8498 0d5d 0400     		.2byte	0x4
 8499 0d5f F3       		.byte	0xf3
 8500 0d60 01       		.uleb128 0x1
 8501 0d61 53       		.byte	0x53
 8502 0d62 9F       		.byte	0x9f
 8503 0d63 00000000 		.4byte	0
 8504 0d67 00000000 		.4byte	0
 8505              	.LLST73:
 8506 0d6b 00000000 		.4byte	.LVL247
 8507 0d6f 18000000 		.4byte	.LVL250
 8508 0d73 0100     		.2byte	0x1
 8509 0d75 50       		.byte	0x50
 8510 0d76 18000000 		.4byte	.LVL250
 8511 0d7a B4000000 		.4byte	.LFE91
 8512 0d7e 0100     		.2byte	0x1
 8513 0d80 54       		.byte	0x54
 8514 0d81 00000000 		.4byte	0
 8515 0d85 00000000 		.4byte	0
 8516              	.LLST74:
 8517 0d89 00000000 		.4byte	.LVL247
 8518 0d8d 1B000000 		.4byte	.LVL251-1
 8519 0d91 0100     		.2byte	0x1
 8520 0d93 51       		.byte	0x51
 8521 0d94 1B000000 		.4byte	.LVL251-1
 8522 0d98 B4000000 		.4byte	.LFE91
 8523 0d9c 0100     		.2byte	0x1
 8524 0d9e 57       		.byte	0x57
 8525 0d9f 00000000 		.4byte	0
 8526 0da3 00000000 		.4byte	0
 8527              	.LLST75:
 8528 0da7 0A000000 		.4byte	.LVL248
 8529 0dab 5C000000 		.4byte	.LVL257
 8530 0daf 0300     		.2byte	0x3
 8531 0db1 09       		.byte	0x9
 8532 0db2 FF       		.byte	0xff
 8533 0db3 9F       		.byte	0x9f
 8534 0db4 5C000000 		.4byte	.LVL257
 8535 0db8 66000000 		.4byte	.LVL258
 8536 0dbc 0100     		.2byte	0x1
 8537 0dbe 50       		.byte	0x50
 8538 0dbf 66000000 		.4byte	.LVL258
 8539 0dc3 8A000000 		.4byte	.LVL262
 8540 0dc7 0100     		.2byte	0x1
 8541 0dc9 55       		.byte	0x55
 8542 0dca 8A000000 		.4byte	.LVL262
 8543 0dce 96000000 		.4byte	.LVL264
 8544 0dd2 0300     		.2byte	0x3
 8545 0dd4 09       		.byte	0x9
 8546 0dd5 FF       		.byte	0xff
 8547 0dd6 9F       		.byte	0x9f
 8548 0dd7 96000000 		.4byte	.LVL264
 8549 0ddb B4000000 		.4byte	.LFE91
 8550 0ddf 0100     		.2byte	0x1
 8551 0de1 55       		.byte	0x55
 8552 0de2 00000000 		.4byte	0
 8553 0de6 00000000 		.4byte	0
ARM GAS  C:\Users\samue\AppData\Local\Temp\ccYWUiYX.s 			page 165


 8554              	.LLST76:
 8555 0dea 12000000 		.4byte	.LVL249
 8556 0dee 50000000 		.4byte	.LVL255
 8557 0df2 0200     		.2byte	0x2
 8558 0df4 30       		.byte	0x30
 8559 0df5 9F       		.byte	0x9f
 8560 0df6 50000000 		.4byte	.LVL255
 8561 0dfa 58000000 		.4byte	.LVL256
 8562 0dfe 0100     		.2byte	0x1
 8563 0e00 50       		.byte	0x50
 8564 0e01 58000000 		.4byte	.LVL256
 8565 0e05 5B000000 		.4byte	.LVL257-1
 8566 0e09 0100     		.2byte	0x1
 8567 0e0b 51       		.byte	0x51
 8568 0e0c 8A000000 		.4byte	.LVL262
 8569 0e10 90000000 		.4byte	.LVL263
 8570 0e14 0200     		.2byte	0x2
 8571 0e16 30       		.byte	0x30
 8572 0e17 9F       		.byte	0x9f
 8573 0e18 90000000 		.4byte	.LVL263
 8574 0e1c 96000000 		.4byte	.LVL264
 8575 0e20 0100     		.2byte	0x1
 8576 0e22 50       		.byte	0x50
 8577 0e23 00000000 		.4byte	0
 8578 0e27 00000000 		.4byte	0
 8579              	.LLST77:
 8580 0e2b 00000000 		.4byte	.LVL268
 8581 0e2f 16000000 		.4byte	.LVL271
 8582 0e33 0100     		.2byte	0x1
 8583 0e35 50       		.byte	0x50
 8584 0e36 16000000 		.4byte	.LVL271
 8585 0e3a 10010000 		.4byte	.LFE92
 8586 0e3e 0100     		.2byte	0x1
 8587 0e40 54       		.byte	0x54
 8588 0e41 00000000 		.4byte	0
 8589 0e45 00000000 		.4byte	0
 8590              	.LLST78:
 8591 0e49 00000000 		.4byte	.LVL268
 8592 0e4d 19000000 		.4byte	.LVL272-1
 8593 0e51 0100     		.2byte	0x1
 8594 0e53 51       		.byte	0x51
 8595 0e54 19000000 		.4byte	.LVL272-1
 8596 0e58 56000000 		.4byte	.LVL276
 8597 0e5c 0200     		.2byte	0x2
 8598 0e5e 91       		.byte	0x91
 8599 0e5f 50       		.sleb128 -48
 8600 0e60 56000000 		.4byte	.LVL276
 8601 0e64 58000000 		.4byte	.LVL277
 8602 0e68 0200     		.2byte	0x2
 8603 0e6a 72       		.byte	0x72
 8604 0e6b 00       		.sleb128 0
 8605 0e6c 58000000 		.4byte	.LVL277
 8606 0e70 10010000 		.4byte	.LFE92
 8607 0e74 0200     		.2byte	0x2
 8608 0e76 91       		.byte	0x91
 8609 0e77 50       		.sleb128 -48
 8610 0e78 00000000 		.4byte	0
ARM GAS  C:\Users\samue\AppData\Local\Temp\ccYWUiYX.s 			page 166


 8611 0e7c 00000000 		.4byte	0
 8612              	.LLST79:
 8613 0e80 00000000 		.4byte	.LVL268
 8614 0e84 19000000 		.4byte	.LVL272-1
 8615 0e88 0100     		.2byte	0x1
 8616 0e8a 52       		.byte	0x52
 8617 0e8b 19000000 		.4byte	.LVL272-1
 8618 0e8f 10010000 		.4byte	.LFE92
 8619 0e93 0100     		.2byte	0x1
 8620 0e95 55       		.byte	0x55
 8621 0e96 00000000 		.4byte	0
 8622 0e9a 00000000 		.4byte	0
 8623              	.LLST80:
 8624 0e9e 08000000 		.4byte	.LVL269
 8625 0ea2 7A000000 		.4byte	.LVL280
 8626 0ea6 0300     		.2byte	0x3
 8627 0ea8 09       		.byte	0x9
 8628 0ea9 FF       		.byte	0xff
 8629 0eaa 9F       		.byte	0x9f
 8630 0eab 7A000000 		.4byte	.LVL280
 8631 0eaf 8C000000 		.4byte	.LVL281
 8632 0eb3 0100     		.2byte	0x1
 8633 0eb5 50       		.byte	0x50
 8634 0eb6 8C000000 		.4byte	.LVL281
 8635 0eba B0000000 		.4byte	.LVL284
 8636 0ebe 0100     		.2byte	0x1
 8637 0ec0 56       		.byte	0x56
 8638 0ec1 B0000000 		.4byte	.LVL284
 8639 0ec5 B2000000 		.4byte	.LVL285
 8640 0ec9 0300     		.2byte	0x3
 8641 0ecb 09       		.byte	0x9
 8642 0ecc FF       		.byte	0xff
 8643 0ecd 9F       		.byte	0x9f
 8644 0ece B2000000 		.4byte	.LVL285
 8645 0ed2 BC000000 		.4byte	.LVL286
 8646 0ed6 0100     		.2byte	0x1
 8647 0ed8 50       		.byte	0x50
 8648 0ed9 BC000000 		.4byte	.LVL286
 8649 0edd E0000000 		.4byte	.LVL289
 8650 0ee1 0100     		.2byte	0x1
 8651 0ee3 56       		.byte	0x56
 8652 0ee4 E0000000 		.4byte	.LVL289
 8653 0ee8 EE000000 		.4byte	.LVL292
 8654 0eec 0300     		.2byte	0x3
 8655 0eee 09       		.byte	0x9
 8656 0eef FF       		.byte	0xff
 8657 0ef0 9F       		.byte	0x9f
 8658 0ef1 EE000000 		.4byte	.LVL292
 8659 0ef5 F2000000 		.4byte	.LVL293
 8660 0ef9 0100     		.2byte	0x1
 8661 0efb 56       		.byte	0x56
 8662 0efc F4000000 		.4byte	.LVL294
 8663 0f00 10010000 		.4byte	.LFE92
 8664 0f04 0100     		.2byte	0x1
 8665 0f06 56       		.byte	0x56
 8666 0f07 00000000 		.4byte	0
 8667 0f0b 00000000 		.4byte	0
ARM GAS  C:\Users\samue\AppData\Local\Temp\ccYWUiYX.s 			page 167


 8668              	.LLST81:
 8669 0f0f 10000000 		.4byte	.LVL270
 8670 0f13 6E000000 		.4byte	.LVL278
 8671 0f17 0200     		.2byte	0x2
 8672 0f19 30       		.byte	0x30
 8673 0f1a 9F       		.byte	0x9f
 8674 0f1b 6E000000 		.4byte	.LVL278
 8675 0f1f 76000000 		.4byte	.LVL279
 8676 0f23 0100     		.2byte	0x1
 8677 0f25 50       		.byte	0x50
 8678 0f26 76000000 		.4byte	.LVL279
 8679 0f2a 79000000 		.4byte	.LVL280-1
 8680 0f2e 0100     		.2byte	0x1
 8681 0f30 51       		.byte	0x51
 8682 0f31 E2000000 		.4byte	.LVL290
 8683 0f35 E8000000 		.4byte	.LVL291
 8684 0f39 0200     		.2byte	0x2
 8685 0f3b 30       		.byte	0x30
 8686 0f3c 9F       		.byte	0x9f
 8687 0f3d E8000000 		.4byte	.LVL291
 8688 0f41 EE000000 		.4byte	.LVL292
 8689 0f45 0100     		.2byte	0x1
 8690 0f47 50       		.byte	0x50
 8691 0f48 00000000 		.4byte	0
 8692 0f4c 00000000 		.4byte	0
 8693              	.LLST82:
 8694 0f50 00000000 		.4byte	.LVL298
 8695 0f54 0C000000 		.4byte	.LVL300
 8696 0f58 0100     		.2byte	0x1
 8697 0f5a 50       		.byte	0x50
 8698 0f5b 0C000000 		.4byte	.LVL300
 8699 0f5f 4C000000 		.4byte	.LFE93
 8700 0f63 0100     		.2byte	0x1
 8701 0f65 54       		.byte	0x54
 8702 0f66 00000000 		.4byte	0
 8703 0f6a 00000000 		.4byte	0
 8704              	.LLST83:
 8705 0f6e 06000000 		.4byte	.LVL299
 8706 0f72 34000000 		.4byte	.LVL307
 8707 0f76 0300     		.2byte	0x3
 8708 0f78 09       		.byte	0x9
 8709 0f79 FF       		.byte	0xff
 8710 0f7a 9F       		.byte	0x9f
 8711 0f7b 34000000 		.4byte	.LVL307
 8712 0f7f 36000000 		.4byte	.LVL308
 8713 0f83 0100     		.2byte	0x1
 8714 0f85 50       		.byte	0x50
 8715 0f86 36000000 		.4byte	.LVL308
 8716 0f8a 3A000000 		.4byte	.LVL309
 8717 0f8e 0300     		.2byte	0x3
 8718 0f90 09       		.byte	0x9
 8719 0f91 FF       		.byte	0xff
 8720 0f92 9F       		.byte	0x9f
 8721 0f93 3A000000 		.4byte	.LVL309
 8722 0f97 4C000000 		.4byte	.LFE93
 8723 0f9b 0100     		.2byte	0x1
 8724 0f9d 56       		.byte	0x56
ARM GAS  C:\Users\samue\AppData\Local\Temp\ccYWUiYX.s 			page 168


 8725 0f9e 00000000 		.4byte	0
 8726 0fa2 00000000 		.4byte	0
 8727              	.LLST84:
 8728 0fa6 06000000 		.4byte	.LVL299
 8729 0faa 26000000 		.4byte	.LVL304
 8730 0fae 0200     		.2byte	0x2
 8731 0fb0 30       		.byte	0x30
 8732 0fb1 9F       		.byte	0x9f
 8733 0fb2 26000000 		.4byte	.LVL304
 8734 0fb6 2E000000 		.4byte	.LVL305
 8735 0fba 0100     		.2byte	0x1
 8736 0fbc 50       		.byte	0x50
 8737 0fbd 2E000000 		.4byte	.LVL305
 8738 0fc1 31000000 		.4byte	.LVL306-1
 8739 0fc5 0100     		.2byte	0x1
 8740 0fc7 51       		.byte	0x51
 8741 0fc8 36000000 		.4byte	.LVL308
 8742 0fcc 3A000000 		.4byte	.LVL309
 8743 0fd0 0100     		.2byte	0x1
 8744 0fd2 50       		.byte	0x50
 8745 0fd3 00000000 		.4byte	0
 8746 0fd7 00000000 		.4byte	0
 8747              		.section	.debug_aranges,"",%progbits
 8748 0000 DC000000 		.4byte	0xdc
 8749 0004 0200     		.2byte	0x2
 8750 0006 00000000 		.4byte	.Ldebug_info0
 8751 000a 04       		.byte	0x4
 8752 000b 00       		.byte	0
 8753 000c 0000     		.2byte	0
 8754 000e 0000     		.2byte	0
 8755 0010 00000000 		.4byte	.LFB69
 8756 0014 06000000 		.4byte	.LFE69-.LFB69
 8757 0018 00000000 		.4byte	.LFB70
 8758 001c 16000000 		.4byte	.LFE70-.LFB70
 8759 0020 00000000 		.4byte	.LFB73
 8760 0024 4E000000 		.4byte	.LFE73-.LFB73
 8761 0028 00000000 		.4byte	.LFB75
 8762 002c 5E000000 		.4byte	.LFE75-.LFB75
 8763 0030 00000000 		.4byte	.LFB71
 8764 0034 5E000000 		.4byte	.LFE71-.LFB71
 8765 0038 00000000 		.4byte	.LFB74
 8766 003c 9C000000 		.4byte	.LFE74-.LFB74
 8767 0040 00000000 		.4byte	.LFB72
 8768 0044 50000000 		.4byte	.LFE72-.LFB72
 8769 0048 00000000 		.4byte	.LFB76
 8770 004c 7A000000 		.4byte	.LFE76-.LFB76
 8771 0050 00000000 		.4byte	.LFB77
 8772 0054 66000000 		.4byte	.LFE77-.LFB77
 8773 0058 00000000 		.4byte	.LFB78
 8774 005c 14000000 		.4byte	.LFE78-.LFB78
 8775 0060 00000000 		.4byte	.LFB79
 8776 0064 12000000 		.4byte	.LFE79-.LFB79
 8777 0068 00000000 		.4byte	.LFB80
 8778 006c 4C010000 		.4byte	.LFE80-.LFB80
 8779 0070 00000000 		.4byte	.LFB83
 8780 0074 36000000 		.4byte	.LFE83-.LFB83
 8781 0078 00000000 		.4byte	.LFB81
ARM GAS  C:\Users\samue\AppData\Local\Temp\ccYWUiYX.s 			page 169


 8782 007c 38000000 		.4byte	.LFE81-.LFB81
 8783 0080 00000000 		.4byte	.LFB82
 8784 0084 04000000 		.4byte	.LFE82-.LFB82
 8785 0088 00000000 		.4byte	.LFB84
 8786 008c 14000000 		.4byte	.LFE84-.LFB84
 8787 0090 00000000 		.4byte	.LFB85
 8788 0094 2A000000 		.4byte	.LFE85-.LFB85
 8789 0098 00000000 		.4byte	.LFB86
 8790 009c BC000000 		.4byte	.LFE86-.LFB86
 8791 00a0 00000000 		.4byte	.LFB87
 8792 00a4 10000000 		.4byte	.LFE87-.LFB87
 8793 00a8 00000000 		.4byte	.LFB88
 8794 00ac 68000000 		.4byte	.LFE88-.LFB88
 8795 00b0 00000000 		.4byte	.LFB89
 8796 00b4 DE000000 		.4byte	.LFE89-.LFB89
 8797 00b8 00000000 		.4byte	.LFB90
 8798 00bc 10000000 		.4byte	.LFE90-.LFB90
 8799 00c0 00000000 		.4byte	.LFB91
 8800 00c4 B4000000 		.4byte	.LFE91-.LFB91
 8801 00c8 00000000 		.4byte	.LFB92
 8802 00cc 10010000 		.4byte	.LFE92-.LFB92
 8803 00d0 00000000 		.4byte	.LFB93
 8804 00d4 4C000000 		.4byte	.LFE93-.LFB93
 8805 00d8 00000000 		.4byte	0
 8806 00dc 00000000 		.4byte	0
 8807              		.section	.debug_ranges,"",%progbits
 8808              	.Ldebug_ranges0:
 8809 0000 26000000 		.4byte	.LBB7
 8810 0004 9E000000 		.4byte	.LBE7
 8811 0008 A0000000 		.4byte	.LBB8
 8812 000c BC000000 		.4byte	.LBE8
 8813 0010 00000000 		.4byte	0
 8814 0014 00000000 		.4byte	0
 8815 0018 00000000 		.4byte	.LFB69
 8816 001c 06000000 		.4byte	.LFE69
 8817 0020 00000000 		.4byte	.LFB70
 8818 0024 16000000 		.4byte	.LFE70
 8819 0028 00000000 		.4byte	.LFB73
 8820 002c 4E000000 		.4byte	.LFE73
 8821 0030 00000000 		.4byte	.LFB75
 8822 0034 5E000000 		.4byte	.LFE75
 8823 0038 00000000 		.4byte	.LFB71
 8824 003c 5E000000 		.4byte	.LFE71
 8825 0040 00000000 		.4byte	.LFB74
 8826 0044 9C000000 		.4byte	.LFE74
 8827 0048 00000000 		.4byte	.LFB72
 8828 004c 50000000 		.4byte	.LFE72
 8829 0050 00000000 		.4byte	.LFB76
 8830 0054 7A000000 		.4byte	.LFE76
 8831 0058 00000000 		.4byte	.LFB77
 8832 005c 66000000 		.4byte	.LFE77
 8833 0060 00000000 		.4byte	.LFB78
 8834 0064 14000000 		.4byte	.LFE78
 8835 0068 00000000 		.4byte	.LFB79
 8836 006c 12000000 		.4byte	.LFE79
 8837 0070 00000000 		.4byte	.LFB80
 8838 0074 4C010000 		.4byte	.LFE80
ARM GAS  C:\Users\samue\AppData\Local\Temp\ccYWUiYX.s 			page 170


 8839 0078 00000000 		.4byte	.LFB83
 8840 007c 36000000 		.4byte	.LFE83
 8841 0080 00000000 		.4byte	.LFB81
 8842 0084 38000000 		.4byte	.LFE81
 8843 0088 00000000 		.4byte	.LFB82
 8844 008c 04000000 		.4byte	.LFE82
 8845 0090 00000000 		.4byte	.LFB84
 8846 0094 14000000 		.4byte	.LFE84
 8847 0098 00000000 		.4byte	.LFB85
 8848 009c 2A000000 		.4byte	.LFE85
 8849 00a0 00000000 		.4byte	.LFB86
 8850 00a4 BC000000 		.4byte	.LFE86
 8851 00a8 00000000 		.4byte	.LFB87
 8852 00ac 10000000 		.4byte	.LFE87
 8853 00b0 00000000 		.4byte	.LFB88
 8854 00b4 68000000 		.4byte	.LFE88
 8855 00b8 00000000 		.4byte	.LFB89
 8856 00bc DE000000 		.4byte	.LFE89
 8857 00c0 00000000 		.4byte	.LFB90
 8858 00c4 10000000 		.4byte	.LFE90
 8859 00c8 00000000 		.4byte	.LFB91
 8860 00cc B4000000 		.4byte	.LFE91
 8861 00d0 00000000 		.4byte	.LFB92
 8862 00d4 10010000 		.4byte	.LFE92
 8863 00d8 00000000 		.4byte	.LFB93
 8864 00dc 4C000000 		.4byte	.LFE93
 8865 00e0 00000000 		.4byte	0
 8866 00e4 00000000 		.4byte	0
 8867              		.section	.debug_line,"",%progbits
 8868              	.Ldebug_line0:
 8869 0000 81070000 		.section	.debug_str,"MS",%progbits,1
 8869      0200AC03 
 8869      00000201 
 8869      FB0E0D00 
 8869      01010101 
 8870              	.LASF0:
 8871 0000 4D515454 		.ascii	"MQTTPACKET_BUFFER_TOO_SHORT\000"
 8871      5041434B 
 8871      45545F42 
 8871      55464645 
 8871      525F544F 
 8872              	.LASF166:
 8873 001c 636F756E 		.ascii	"count\000"
 8873      7400
 8874              	.LASF140:
 8875 0022 73656E64 		.ascii	"sendbuf_size\000"
 8875      6275665F 
 8875      73697A65 
 8875      00
 8876              	.LASF34:
 8877 002f 73747275 		.ascii	"struct_version\000"
 8877      63745F76 
 8877      65727369 
 8877      6F6E00
 8878              	.LASF163:
 8879 003e 4D515454 		.ascii	"MQTTSetMessageHandler\000"
 8879      5365744D 
ARM GAS  C:\Users\samue\AppData\Local\Temp\ccYWUiYX.s 			page 171


 8879      65737361 
 8879      67654861 
 8879      6E646C65 
 8880              	.LASF180:
 8881 0054 4D515454 		.ascii	"MQTTDeserialize_publish\000"
 8881      44657365 
 8881      7269616C 
 8881      697A655F 
 8881      7075626C 
 8882              	.LASF119:
 8883 006c 614D6573 		.ascii	"aMessage\000"
 8883      73616765 
 8883      00
 8884              	.LASF189:
 8885 0075 73747263 		.ascii	"strcmp\000"
 8885      6D7000
 8886              	.LASF102:
 8887 007c 746F7069 		.ascii	"topicFilter\000"
 8887      6346696C 
 8887      74657200 
 8888              	.LASF57:
 8889 0088 73697A65 		.ascii	"size_t\000"
 8889      5F7400
 8890              	.LASF70:
 8891 008f 54696D65 		.ascii	"TimeOut_t\000"
 8891      4F75745F 
 8891      7400
 8892              	.LASF161:
 8893 0099 64656661 		.ascii	"default_options\000"
 8893      756C745F 
 8893      6F707469 
 8893      6F6E7300 
 8894              	.LASF35:
 8895 00a9 746F7069 		.ascii	"topicName\000"
 8895      634E616D 
 8895      6500
 8896              	.LASF89:
 8897 00b3 42554646 		.ascii	"BUFFER_OVERFLOW\000"
 8897      45525F4F 
 8897      56455246 
 8897      4C4F5700 
 8898              	.LASF94:
 8899 00c3 7061796C 		.ascii	"payloadlen\000"
 8899      6F61646C 
 8899      656E00
 8900              	.LASF41:
 8901 00ce 636C6965 		.ascii	"clientID\000"
 8901      6E744944 
 8901      00
 8902              	.LASF22:
 8903 00d7 74797065 		.ascii	"type\000"
 8903      00
 8904              	.LASF194:
 8905 00dc 4D515454 		.ascii	"MQTTSerialize_publish\000"
 8905      53657269 
 8905      616C697A 
 8905      655F7075 
ARM GAS  C:\Users\samue\AppData\Local\Temp\ccYWUiYX.s 			page 172


 8905      626C6973 
 8906              	.LASF47:
 8907 00f2 70617373 		.ascii	"password\000"
 8907      776F7264 
 8907      00
 8908              	.LASF15:
 8909 00fb 554E5355 		.ascii	"UNSUBACK\000"
 8909      4241434B 
 8909      00
 8910              	.LASF21:
 8911 0104 72657461 		.ascii	"retain\000"
 8911      696E00
 8912              	.LASF112:
 8913 010b 64656661 		.ascii	"defaultMessageHandler\000"
 8913      756C744D 
 8913      65737361 
 8913      67654861 
 8913      6E646C65 
 8914              	.LASF31:
 8915 0121 6C656E73 		.ascii	"lenstring\000"
 8915      7472696E 
 8915      6700
 8916              	.LASF56:
 8917 012b 6C6F6E67 		.ascii	"long long unsigned int\000"
 8917      206C6F6E 
 8917      6720756E 
 8917      7369676E 
 8917      65642069 
 8918              	.LASF79:
 8919 0142 6D717474 		.ascii	"mqttwrite\000"
 8919      77726974 
 8919      6500
 8920              	.LASF135:
 8921 014c 72656164 		.ascii	"readPacket\000"
 8921      5061636B 
 8921      657400
 8922              	.LASF142:
 8923 0157 6B656570 		.ascii	"keepalive\000"
 8923      616C6976 
 8923      6500
 8924              	.LASF141:
 8925 0161 64656C69 		.ascii	"deliverMessage\000"
 8925      7665724D 
 8925      65737361 
 8925      676500
 8926              	.LASF65:
 8927 0170 51756575 		.ascii	"QueueHandle_t\000"
 8927      6548616E 
 8927      646C655F 
 8927      7400
 8928              	.LASF201:
 8929 017e 49544D5F 		.ascii	"ITM_RxBuffer\000"
 8929      52784275 
 8929      66666572 
 8929      00
 8930              	.LASF45:
 8931 018b 77696C6C 		.ascii	"will\000"
ARM GAS  C:\Users\samue\AppData\Local\Temp\ccYWUiYX.s 			page 173


 8931      00
 8932              	.LASF71:
 8933 0190 7854494D 		.ascii	"xTIME_OUT\000"
 8933      455F4F55 
 8933      5400
 8934              	.LASF1:
 8935 019a 4D515454 		.ascii	"MQTTPACKET_READ_ERROR\000"
 8935      5041434B 
 8935      45545F52 
 8935      4541445F 
 8935      4552524F 
 8936              	.LASF55:
 8937 01b0 6C6F6E67 		.ascii	"long long int\000"
 8937      206C6F6E 
 8937      6720696E 
 8937      7400
 8938              	.LASF19:
 8939 01be 7369676E 		.ascii	"signed char\000"
 8939      65642063 
 8939      68617200 
 8940              	.LASF147:
 8941 01ca 7061636B 		.ascii	"packet_type\000"
 8941      65745F74 
 8941      79706500 
 8942              	.LASF198:
 8943 01d6 433A5C55 		.ascii	"C:\\Users\\samue\\Desktop\\RobotRage2\\Zumo\\ZumoBo"
 8943      73657273 
 8943      5C73616D 
 8943      75655C44 
 8943      65736B74 
 8944 0203 742E6379 		.ascii	"t.cydsn\000"
 8944      64736E00 
 8945              	.LASF80:
 8946 020b 64697363 		.ascii	"disconnect\000"
 8946      6F6E6E65 
 8946      637400
 8947              	.LASF72:
 8948 0216 54696D65 		.ascii	"Timer\000"
 8948      7200
 8949              	.LASF95:
 8950 021c 4D657373 		.ascii	"MessageData\000"
 8950      61676544 
 8950      61746100 
 8951              	.LASF25:
 8952 0228 62697473 		.ascii	"bits\000"
 8952      00
 8953              	.LASF52:
 8954 022d 6C6F6E67 		.ascii	"long int\000"
 8954      20696E74 
 8954      00
 8955              	.LASF179:
 8956 0236 4D515454 		.ascii	"MQTTSerialize_pingreq\000"
 8956      53657269 
 8956      616C697A 
 8956      655F7069 
 8956      6E677265 
 8957              	.LASF162:
ARM GAS  C:\Users\samue\AppData\Local\Temp\ccYWUiYX.s 			page 174


 8958 024c 4D515454 		.ascii	"MQTTConnect\000"
 8958      436F6E6E 
 8958      65637400 
 8959              	.LASF67:
 8960 0258 5461736B 		.ascii	"TaskHandle_t\000"
 8960      48616E64 
 8960      6C655F74 
 8960      00
 8961              	.LASF44:
 8962 0265 77696C6C 		.ascii	"willFlag\000"
 8962      466C6167 
 8962      00
 8963              	.LASF173:
 8964 026e 54696D65 		.ascii	"TimerCountdown\000"
 8964      72436F75 
 8964      6E74646F 
 8964      776E00
 8965              	.LASF160:
 8966 027d 636F6E6E 		.ascii	"connect_timer\000"
 8966      6563745F 
 8966      74696D65 
 8966      7200
 8967              	.LASF92:
 8968 028b 4D515454 		.ascii	"MQTTMessage\000"
 8968      4D657373 
 8968      61676500 
 8969              	.LASF165:
 8970 0297 746F7069 		.ascii	"topic\000"
 8970      6300
 8971              	.LASF186:
 8972 029d 54687265 		.ascii	"ThreadStart\000"
 8972      61645374 
 8972      61727400 
 8973              	.LASF178:
 8974 02a9 54696D65 		.ascii	"TimerCountdownMS\000"
 8974      72436F75 
 8974      6E74646F 
 8974      776E4D53 
 8974      00
 8975              	.LASF63:
 8976 02ba 42617365 		.ascii	"BaseType_t\000"
 8976      54797065 
 8976      5F7400
 8977              	.LASF181:
 8978 02c5 4D515454 		.ascii	"MQTTSerialize_ack\000"
 8978      53657269 
 8978      616C697A 
 8978      655F6163 
 8978      6B00
 8979              	.LASF74:
 8980 02d7 7854696D 		.ascii	"xTimeOut\000"
 8980      654F7574 
 8980      00
 8981              	.LASF14:
 8982 02e0 554E5355 		.ascii	"UNSUBSCRIBE\000"
 8982      42534352 
 8982      49424500 
ARM GAS  C:\Users\samue\AppData\Local\Temp\ccYWUiYX.s 			page 175


 8983              	.LASF120:
 8984 02ec 6765744E 		.ascii	"getNextPacketId\000"
 8984      65787450 
 8984      61636B65 
 8984      74496400 
 8985              	.LASF97:
 8986 02fc 73657373 		.ascii	"sessionPresent\000"
 8986      696F6E50 
 8986      72657365 
 8986      6E7400
 8987              	.LASF183:
 8988 030b 4D757465 		.ascii	"MutexLock\000"
 8988      784C6F63 
 8988      6B00
 8989              	.LASF58:
 8990 0315 6C6F6E67 		.ascii	"long double\000"
 8990      20646F75 
 8990      626C6500 
 8991              	.LASF24:
 8992 0321 62797465 		.ascii	"byte\000"
 8992      00
 8993              	.LASF53:
 8994 0326 5F5F7569 		.ascii	"__uint32_t\000"
 8994      6E743332 
 8994      5F7400
 8995              	.LASF68:
 8996 0331 784F7665 		.ascii	"xOverflowCount\000"
 8996      72666C6F 
 8996      77436F75 
 8996      6E7400
 8997              	.LASF159:
 8998 0340 6F707469 		.ascii	"options\000"
 8998      6F6E7300 
 8999              	.LASF174:
 9000 0348 4D515454 		.ascii	"MQTTPacket_encode\000"
 9000      5061636B 
 9000      65745F65 
 9000      6E636F64 
 9000      6500
 9001              	.LASF88:
 9002 035a 72657475 		.ascii	"returnCode\000"
 9002      726E436F 
 9002      646500
 9003              	.LASF85:
 9004 0365 514F5331 		.ascii	"QOS1\000"
 9004      00
 9005              	.LASF86:
 9006 036a 514F5332 		.ascii	"QOS2\000"
 9006      00
 9007              	.LASF43:
 9008 036f 636C6561 		.ascii	"cleansession\000"
 9008      6E736573 
 9008      73696F6E 
 9008      00
 9009              	.LASF155:
 9010 037c 636C6965 		.ascii	"client\000"
 9010      6E7400
ARM GAS  C:\Users\samue\AppData\Local\Temp\ccYWUiYX.s 			page 176


 9011              	.LASF4:
 9012 0383 6D736754 		.ascii	"msgTypes\000"
 9012      79706573 
 9012      00
 9013              	.LASF114:
 9014 038c 6C617374 		.ascii	"last_sent\000"
 9014      5F73656E 
 9014      7400
 9015              	.LASF122:
 9016 0396 76616C75 		.ascii	"value\000"
 9016      6500
 9017              	.LASF121:
 9018 039c 6465636F 		.ascii	"decodePacket\000"
 9018      64655061 
 9018      636B6574 
 9018      00
 9019              	.LASF23:
 9020 03a9 756E7369 		.ascii	"unsigned int\000"
 9020      676E6564 
 9020      20696E74 
 9020      00
 9021              	.LASF39:
 9022 03b6 4D515454 		.ascii	"MQTTPacket_willOptions\000"
 9022      5061636B 
 9022      65745F77 
 9022      696C6C4F 
 9022      7074696F 
 9023              	.LASF69:
 9024 03cd 7854696D 		.ascii	"xTimeOnEntering\000"
 9024      654F6E45 
 9024      6E746572 
 9024      696E6700 
 9025              	.LASF77:
 9026 03dd 73736964 		.ascii	"ssid\000"
 9026      00
 9027              	.LASF3:
 9028 03e2 6572726F 		.ascii	"errors\000"
 9028      727300
 9029              	.LASF54:
 9030 03e9 6C6F6E67 		.ascii	"long unsigned int\000"
 9030      20756E73 
 9030      69676E65 
 9030      6420696E 
 9030      7400
 9031              	.LASF188:
 9032 03fb 4D515454 		.ascii	"MQTTDeserialize_connack\000"
 9032      44657365 
 9032      7269616C 
 9032      697A655F 
 9032      636F6E6E 
 9033              	.LASF123:
 9034 0413 74696D65 		.ascii	"timeout\000"
 9034      6F757400 
 9035              	.LASF148:
 9036 041b 696E7451 		.ascii	"intQoS\000"
 9036      6F5300
 9037              	.LASF110:
ARM GAS  C:\Users\samue\AppData\Local\Temp\ccYWUiYX.s 			page 177


 9038 0422 6973636F 		.ascii	"isconnected\000"
 9038      6E6E6563 
 9038      74656400 
 9039              	.LASF109:
 9040 042e 70696E67 		.ascii	"ping_outstanding\000"
 9040      5F6F7574 
 9040      7374616E 
 9040      64696E67 
 9040      00
 9041              	.LASF199:
 9042 043f 4E65774D 		.ascii	"NewMessageData\000"
 9042      65737361 
 9042      67654461 
 9042      746100
 9043              	.LASF26:
 9044 044e 64617461 		.ascii	"data\000"
 9044      00
 9045              	.LASF139:
 9046 0453 73656E64 		.ascii	"sendbuf\000"
 9046      62756600 
 9047              	.LASF78:
 9048 045b 6D717474 		.ascii	"mqttread\000"
 9048      72656164 
 9048      00
 9049              	.LASF90:
 9050 0464 4641494C 		.ascii	"FAILURE\000"
 9050      55524500 
 9051              	.LASF2:
 9052 046c 4D515454 		.ascii	"MQTTPACKET_READ_COMPLETE\000"
 9052      5041434B 
 9052      45545F52 
 9052      4541445F 
 9052      434F4D50 
 9053              	.LASF75:
 9054 0485 4E657477 		.ascii	"Network\000"
 9054      6F726B00 
 9055              	.LASF172:
 9056 048d 54696D65 		.ascii	"TimerIsExpired\000"
 9056      72497345 
 9056      78706972 
 9056      656400
 9057              	.LASF113:
 9058 049c 69707374 		.ascii	"ipstack\000"
 9058      61636B00 
 9059              	.LASF177:
 9060 04a4 4D515454 		.ascii	"MQTTPacket_equals\000"
 9060      5061636B 
 9060      65745F65 
 9060      7175616C 
 9060      7300
 9061              	.LASF108:
 9062 04b6 72656164 		.ascii	"readbuf\000"
 9062      62756600 
 9063              	.LASF13:
 9064 04be 53554241 		.ascii	"SUBACK\000"
 9064      434B00
 9065              	.LASF144:
ARM GAS  C:\Users\samue\AppData\Local\Temp\ccYWUiYX.s 			page 178


 9066 04c5 4D515454 		.ascii	"MQTTCleanSession\000"
 9066      436C6561 
 9066      6E536573 
 9066      73696F6E 
 9066      00
 9067              	.LASF182:
 9068 04d6 4D515454 		.ascii	"MQTTDeserialize_ack\000"
 9068      44657365 
 9068      7269616C 
 9068      697A655F 
 9068      61636B00 
 9069              	.LASF105:
 9070 04ea 636F6D6D 		.ascii	"command_timeout_ms\000"
 9070      616E645F 
 9070      74696D65 
 9070      6F75745F 
 9070      6D7300
 9071              	.LASF46:
 9072 04fd 75736572 		.ascii	"username\000"
 9072      6E616D65 
 9072      00
 9073              	.LASF32:
 9074 0506 4D515454 		.ascii	"MQTTString\000"
 9074      53747269 
 9074      6E6700
 9075              	.LASF49:
 9076 0511 4D515454 		.ascii	"MQTTPacket_connectData\000"
 9076      5061636B 
 9076      65745F63 
 9076      6F6E6E65 
 9076      63744461 
 9077              	.LASF164:
 9078 0528 4D515454 		.ascii	"MQTTSubscribeWithResults\000"
 9078      53756273 
 9078      63726962 
 9078      65576974 
 9078      68526573 
 9079              	.LASF195:
 9080 0541 4D515454 		.ascii	"MQTTSerialize_disconnect\000"
 9080      53657269 
 9080      616C697A 
 9080      655F6469 
 9080      73636F6E 
 9081              	.LASF168:
 9082 055a 4D515454 		.ascii	"MQTTUnsubscribe\000"
 9082      556E7375 
 9082      62736372 
 9082      69626500 
 9083              	.LASF192:
 9084 056a 4D515454 		.ascii	"MQTTDeserialize_unsuback\000"
 9084      44657365 
 9084      7269616C 
 9084      697A655F 
 9084      756E7375 
 9085              	.LASF193:
 9086 0583 4D515454 		.ascii	"MQTTSerialize_unsubscribe\000"
 9086      53657269 
ARM GAS  C:\Users\samue\AppData\Local\Temp\ccYWUiYX.s 			page 179


 9086      616C697A 
 9086      655F756E 
 9086      73756273 
 9087              	.LASF101:
 9088 059d 4D657373 		.ascii	"MessageHandlers\000"
 9088      61676548 
 9088      616E646C 
 9088      65727300 
 9089              	.LASF191:
 9090 05ad 4D515454 		.ascii	"MQTTSerialize_subscribe\000"
 9090      53657269 
 9090      616C697A 
 9090      655F7375 
 9090      62736372 
 9091              	.LASF138:
 9092 05c5 6E657477 		.ascii	"network\000"
 9092      6F726B00 
 9093              	.LASF38:
 9094 05cd 73697A65 		.ascii	"sizetype\000"
 9094      74797065 
 9094      00
 9095              	.LASF118:
 9096 05d6 61546F70 		.ascii	"aTopicName\000"
 9096      69634E61 
 9096      6D6500
 9097              	.LASF106:
 9098 05e1 6275665F 		.ascii	"buf_size\000"
 9098      73697A65 
 9098      00
 9099              	.LASF81:
 9100 05ea 4D757465 		.ascii	"Mutex\000"
 9100      7800
 9101              	.LASF87:
 9102 05f0 53554246 		.ascii	"SUBFAIL\000"
 9102      41494C00 
 9103              	.LASF64:
 9104 05f8 5469636B 		.ascii	"TickType_t\000"
 9104      54797065 
 9104      5F7400
 9105              	.LASF93:
 9106 0603 7061796C 		.ascii	"payload\000"
 9106      6F616400 
 9107              	.LASF197:
 9108 060b 2E2E5C70 		.ascii	"..\\paho.mqtt.embedded-c\\MQTTClient-C\\src\\MQTTCl"
 9108      61686F2E 
 9108      6D717474 
 9108      2E656D62 
 9108      65646465 
 9109 063a 69656E74 		.ascii	"ient.c\000"
 9109      2E6300
 9110              	.LASF42:
 9111 0641 6B656570 		.ascii	"keepAliveInterval\000"
 9111      416C6976 
 9111      65496E74 
 9111      65727661 
 9111      6C00
 9112              	.LASF111:
ARM GAS  C:\Users\samue\AppData\Local\Temp\ccYWUiYX.s 			page 180


 9113 0653 6D657373 		.ascii	"messageHandlers\000"
 9113      61676548 
 9113      616E646C 
 9113      65727300 
 9114              	.LASF30:
 9115 0663 63737472 		.ascii	"cstring\000"
 9115      696E6700 
 9116              	.LASF124:
 9117 066b 6D756C74 		.ascii	"multiplier\000"
 9117      69706C69 
 9117      657200
 9118              	.LASF125:
 9119 0676 4D41585F 		.ascii	"MAX_NO_OF_REMAINING_LENGTH_BYTES\000"
 9119      4E4F5F4F 
 9119      465F5245 
 9119      4D41494E 
 9119      494E475F 
 9120              	.LASF36:
 9121 0697 6D657373 		.ascii	"message\000"
 9121      61676500 
 9122              	.LASF134:
 9123 069f 73656E74 		.ascii	"sent\000"
 9123      00
 9124              	.LASF115:
 9125 06a4 6C617374 		.ascii	"last_received\000"
 9125      5F726563 
 9125      65697665 
 9125      6400
 9126              	.LASF156:
 9127 06b2 4D515454 		.ascii	"MQTTStartTask\000"
 9127      53746172 
 9127      74546173 
 9127      6B00
 9128              	.LASF175:
 9129 06c0 54696D65 		.ascii	"TimerInit\000"
 9129      72496E69 
 9129      7400
 9130              	.LASF176:
 9131 06ca 4D757465 		.ascii	"MutexInit\000"
 9131      78496E69 
 9131      7400
 9132              	.LASF152:
 9133 06d4 4D515454 		.ascii	"MQTTYield\000"
 9133      5969656C 
 9133      6400
 9134              	.LASF96:
 9135 06de 4D515454 		.ascii	"MQTTConnackData\000"
 9135      436F6E6E 
 9135      61636B44 
 9135      61746100 
 9136              	.LASF61:
 9137 06ee 666C6F61 		.ascii	"float\000"
 9137      7400
 9138              	.LASF190:
 9139 06f4 4D515454 		.ascii	"MQTTDeserialize_suback\000"
 9139      44657365 
 9139      7269616C 
ARM GAS  C:\Users\samue\AppData\Local\Temp\ccYWUiYX.s 			page 181


 9139      697A655F 
 9139      73756261 
 9140              	.LASF73:
 9141 070b 78546963 		.ascii	"xTicksToWait\000"
 9141      6B73546F 
 9141      57616974 
 9141      00
 9142              	.LASF153:
 9143 0718 74696D65 		.ascii	"timeout_ms\000"
 9143      6F75745F 
 9143      6D7300
 9144              	.LASF127:
 9145 0723 63757266 		.ascii	"curf\000"
 9145      00
 9146              	.LASF136:
 9147 0728 72656D5F 		.ascii	"rem_len\000"
 9147      6C656E00 
 9148              	.LASF126:
 9149 0730 6973546F 		.ascii	"isTopicMatched\000"
 9149      7069634D 
 9149      61746368 
 9149      656400
 9150              	.LASF17:
 9151 073f 50494E47 		.ascii	"PINGRESP\000"
 9151      52455350 
 9151      00
 9152              	.LASF5:
 9153 0748 434F4E4E 		.ascii	"CONNECT\000"
 9153      45435400 
 9154              	.LASF116:
 9155 0750 6D757465 		.ascii	"mutex\000"
 9155      7800
 9156              	.LASF128:
 9157 0756 6375726E 		.ascii	"curn\000"
 9157      00
 9158              	.LASF59:
 9159 075b 696E7433 		.ascii	"int32_t\000"
 9159      325F7400 
 9160              	.LASF20:
 9161 0763 756E7369 		.ascii	"unsigned char\000"
 9161      676E6564 
 9161      20636861 
 9161      7200
 9162              	.LASF149:
 9163 0771 6D797061 		.ascii	"mypacketid\000"
 9163      636B6574 
 9163      696400
 9164              	.LASF129:
 9165 077c 6375726E 		.ascii	"curn_end\000"
 9165      5F656E64 
 9165      00
 9166              	.LASF37:
 9167 0785 72657461 		.ascii	"retained\000"
 9167      696E6564 
 9167      00
 9168              	.LASF50:
 9169 078e 73686F72 		.ascii	"short int\000"
ARM GAS  C:\Users\samue\AppData\Local\Temp\ccYWUiYX.s 			page 182


 9169      7420696E 
 9169      7400
 9170              	.LASF184:
 9171 0798 4D757465 		.ascii	"MutexUnlock\000"
 9171      78556E6C 
 9171      6F636B00 
 9172              	.LASF171:
 9173 07a4 54696D65 		.ascii	"TimerLeftMS\000"
 9173      724C6566 
 9173      744D5300 
 9174              	.LASF187:
 9175 07b0 4D515454 		.ascii	"MQTTSerialize_connect\000"
 9175      53657269 
 9175      616C697A 
 9175      655F636F 
 9175      6E6E6563 
 9176              	.LASF7:
 9177 07c6 5055424C 		.ascii	"PUBLISH\000"
 9177      49534800 
 9178              	.LASF103:
 9179 07ce 4D515454 		.ascii	"MQTTClient\000"
 9179      436C6965 
 9179      6E7400
 9180              	.LASF196:
 9181 07d9 474E5520 		.ascii	"GNU C11 5.4.1 20160609 (release) [ARM/embedded-5-br"
 9181      43313120 
 9181      352E342E 
 9181      31203230 
 9181      31363036 
 9182 080c 616E6368 		.ascii	"anch revision 237715] -mcpu=cortex-m3 -mthumb -g -O"
 9182      20726576 
 9182      6973696F 
 9182      6E203233 
 9182      37373135 
 9183 083f 67202D66 		.ascii	"g -ffunction-sections -ffat-lto-objects\000"
 9183      66756E63 
 9183      74696F6E 
 9183      2D736563 
 9183      74696F6E 
 9184              	.LASF137:
 9185 0867 65786974 		.ascii	"exit\000"
 9185      00
 9186              	.LASF82:
 9187 086c 54687265 		.ascii	"Thread\000"
 9187      616400
 9188              	.LASF104:
 9189 0873 6E657874 		.ascii	"next_packetid\000"
 9189      5F706163 
 9189      6B657469 
 9189      6400
 9190              	.LASF150:
 9191 0881 4D515454 		.ascii	"MQTTRun\000"
 9191      52756E00 
 9192              	.LASF167:
 9193 0889 4D515454 		.ascii	"MQTTSubscribe\000"
 9193      53756273 
 9193      63726962 
ARM GAS  C:\Users\samue\AppData\Local\Temp\ccYWUiYX.s 			page 183


 9193      6500
 9194              	.LASF60:
 9195 0897 75696E74 		.ascii	"uint32_t\000"
 9195      33325F74 
 9195      00
 9196              	.LASF28:
 9197 08a0 4D515454 		.ascii	"MQTTHeader\000"
 9197      48656164 
 9197      657200
 9198              	.LASF33:
 9199 08ab 73747275 		.ascii	"struct_id\000"
 9199      63745F69 
 9199      6400
 9200              	.LASF29:
 9201 08b5 4D515454 		.ascii	"MQTTLenString\000"
 9201      4C656E53 
 9201      7472696E 
 9201      6700
 9202              	.LASF12:
 9203 08c3 53554253 		.ascii	"SUBSCRIBE\000"
 9203      43524942 
 9203      4500
 9204              	.LASF76:
 9205 08cd 6D795F73 		.ascii	"my_socket\000"
 9205      6F636B65 
 9205      7400
 9206              	.LASF132:
 9207 08d7 6C656E67 		.ascii	"length\000"
 9207      746800
 9208              	.LASF66:
 9209 08de 53656D61 		.ascii	"SemaphoreHandle_t\000"
 9209      70686F72 
 9209      6548616E 
 9209      646C655F 
 9209      7400
 9210              	.LASF27:
 9211 08f0 63686172 		.ascii	"char\000"
 9211      00
 9212              	.LASF8:
 9213 08f5 50554241 		.ascii	"PUBACK\000"
 9213      434B00
 9214              	.LASF131:
 9215 08fc 73656E64 		.ascii	"sendPacket\000"
 9215      5061636B 
 9215      657400
 9216              	.LASF130:
 9217 0907 6E657874 		.ascii	"nextpos\000"
 9217      706F7300 
 9218              	.LASF51:
 9219 090f 5F5F696E 		.ascii	"__int32_t\000"
 9219      7433325F 
 9219      7400
 9220              	.LASF117:
 9221 0919 74687265 		.ascii	"thread\000"
 9221      616400
 9222              	.LASF83:
 9223 0920 7461736B 		.ascii	"task\000"
ARM GAS  C:\Users\samue\AppData\Local\Temp\ccYWUiYX.s 			page 184


 9223      00
 9224              	.LASF99:
 9225 0925 6772616E 		.ascii	"grantedQoS\000"
 9225      74656451 
 9225      6F5300
 9226              	.LASF202:
 9227 0930 6D656D63 		.ascii	"memcpy\000"
 9227      707900
 9228              	.LASF151:
 9229 0937 7061726D 		.ascii	"parm\000"
 9229      00
 9230              	.LASF48:
 9231 093c 73686F72 		.ascii	"short unsigned int\000"
 9231      7420756E 
 9231      7369676E 
 9231      65642069 
 9231      6E7400
 9232              	.LASF11:
 9233 094f 50554243 		.ascii	"PUBCOMP\000"
 9233      4F4D5000 
 9234              	.LASF154:
 9235 0957 4D515454 		.ascii	"MQTTIsConnected\000"
 9235      4973436F 
 9235      6E6E6563 
 9235      74656400 
 9236              	.LASF100:
 9237 0967 6D657373 		.ascii	"messageHandler\000"
 9237      61676548 
 9237      616E646C 
 9237      657200
 9238              	.LASF170:
 9239 0976 4D515454 		.ascii	"MQTTDisconnect\000"
 9239      44697363 
 9239      6F6E6E65 
 9239      637400
 9240              	.LASF146:
 9241 0985 6379636C 		.ascii	"cycle\000"
 9241      6500
 9242              	.LASF6:
 9243 098b 434F4E4E 		.ascii	"CONNACK\000"
 9243      41434B00 
 9244              	.LASF98:
 9245 0993 4D515454 		.ascii	"MQTTSubackData\000"
 9245      53756261 
 9245      636B4461 
 9245      746100
 9246              	.LASF18:
 9247 09a2 44495343 		.ascii	"DISCONNECT\000"
 9247      4F4E4E45 
 9247      435400
 9248              	.LASF107:
 9249 09ad 72656164 		.ascii	"readbuf_size\000"
 9249      6275665F 
 9249      73697A65 
 9249      00
 9250              	.LASF169:
 9251 09ba 4D515454 		.ascii	"MQTTPublish\000"
ARM GAS  C:\Users\samue\AppData\Local\Temp\ccYWUiYX.s 			page 185


 9251      5075626C 
 9251      69736800 
 9252              	.LASF91:
 9253 09c6 53554343 		.ascii	"SUCCESS\000"
 9253      45535300 
 9254              	.LASF145:
 9255 09ce 4D515454 		.ascii	"MQTTCloseSession\000"
 9255      436C6F73 
 9255      65536573 
 9255      73696F6E 
 9255      00
 9256              	.LASF133:
 9257 09df 74696D65 		.ascii	"timer\000"
 9257      7200
 9258              	.LASF143:
 9259 09e5 4D515454 		.ascii	"MQTTClientInit\000"
 9259      436C6965 
 9259      6E74496E 
 9259      697400
 9260              	.LASF9:
 9261 09f4 50554252 		.ascii	"PUBREC\000"
 9261      454300
 9262              	.LASF10:
 9263 09fb 50554252 		.ascii	"PUBREL\000"
 9263      454C00
 9264              	.LASF16:
 9265 0a02 50494E47 		.ascii	"PINGREQ\000"
 9265      52455100 
 9266              	.LASF40:
 9267 0a0a 4D515454 		.ascii	"MQTTVersion\000"
 9267      56657273 
 9267      696F6E00 
 9268              	.LASF84:
 9269 0a16 514F5330 		.ascii	"QOS0\000"
 9269      00
 9270              	.LASF185:
 9271 0a1b 76546173 		.ascii	"vTaskDelay\000"
 9271      6B44656C 
 9271      617900
 9272              	.LASF158:
 9273 0a26 4D515454 		.ascii	"MQTTConnectWithResults\000"
 9273      436F6E6E 
 9273      65637457 
 9273      69746852 
 9273      6573756C 
 9274              	.LASF62:
 9275 0a3d 646F7562 		.ascii	"double\000"
 9275      6C6500
 9276              	.LASF200:
 9277 0a44 68656164 		.ascii	"header\000"
 9277      657200
 9278              	.LASF157:
 9279 0a4b 77616974 		.ascii	"waitfor\000"
 9279      666F7200 
 9280              		.ident	"GCC: (GNU Tools for ARM Embedded Processors) 5.4.1 20160609 (release) [ARM/embedded-5-bran
