ARM GAS  C:\Users\samue\AppData\Local\Temp\ccHdqhKZ.s 			page 1


   1              		.syntax unified
   2              		.cpu cortex-m3
   3              		.fpu softvfp
   4              		.eabi_attribute 20, 1
   5              		.eabi_attribute 21, 1
   6              		.eabi_attribute 23, 3
   7              		.eabi_attribute 24, 1
   8              		.eabi_attribute 25, 1
   9              		.eabi_attribute 26, 1
  10              		.eabi_attribute 30, 1
  11              		.eabi_attribute 34, 1
  12              		.eabi_attribute 18, 4
  13              		.thumb
  14              		.syntax unified
  15              		.file	"MQTTFormat.c"
  16              		.text
  17              	.Ltext0:
  18              		.cfi_sections	.debug_frame
  19              		.section	.text.MQTTPacket_getName,"ax",%progbits
  20              		.align	2
  21              		.global	MQTTPacket_getName
  22              		.thumb
  23              		.thumb_func
  24              		.type	MQTTPacket_getName, %function
  25              	MQTTPacket_getName:
  26              	.LFB1:
  27              		.file 1 "..\\paho.mqtt.embedded-c\\MQTTPacket\\src\\MQTTFormat.c"
   1:..\paho.mqtt.embedded-c\MQTTPacket\src/MQTTFormat.c **** /*******************************************************************************
   2:..\paho.mqtt.embedded-c\MQTTPacket\src/MQTTFormat.c ****  * Copyright (c) 2014 IBM Corp.
   3:..\paho.mqtt.embedded-c\MQTTPacket\src/MQTTFormat.c ****  *
   4:..\paho.mqtt.embedded-c\MQTTPacket\src/MQTTFormat.c ****  * All rights reserved. This program and the accompanying materials
   5:..\paho.mqtt.embedded-c\MQTTPacket\src/MQTTFormat.c ****  * are made available under the terms of the Eclipse Public License v1.0
   6:..\paho.mqtt.embedded-c\MQTTPacket\src/MQTTFormat.c ****  * and Eclipse Distribution License v1.0 which accompany this distribution.
   7:..\paho.mqtt.embedded-c\MQTTPacket\src/MQTTFormat.c ****  *
   8:..\paho.mqtt.embedded-c\MQTTPacket\src/MQTTFormat.c ****  * The Eclipse Public License is available at
   9:..\paho.mqtt.embedded-c\MQTTPacket\src/MQTTFormat.c ****  *    http://www.eclipse.org/legal/epl-v10.html
  10:..\paho.mqtt.embedded-c\MQTTPacket\src/MQTTFormat.c ****  * and the Eclipse Distribution License is available at
  11:..\paho.mqtt.embedded-c\MQTTPacket\src/MQTTFormat.c ****  *   http://www.eclipse.org/org/documents/edl-v10.php.
  12:..\paho.mqtt.embedded-c\MQTTPacket\src/MQTTFormat.c ****  *
  13:..\paho.mqtt.embedded-c\MQTTPacket\src/MQTTFormat.c ****  * Contributors:
  14:..\paho.mqtt.embedded-c\MQTTPacket\src/MQTTFormat.c ****  *    Ian Craggs - initial API and implementation and/or initial documentation
  15:..\paho.mqtt.embedded-c\MQTTPacket\src/MQTTFormat.c ****  *******************************************************************************/
  16:..\paho.mqtt.embedded-c\MQTTPacket\src/MQTTFormat.c **** 
  17:..\paho.mqtt.embedded-c\MQTTPacket\src/MQTTFormat.c **** #include "StackTrace.h"
  18:..\paho.mqtt.embedded-c\MQTTPacket\src/MQTTFormat.c **** #include "MQTTPacket.h"
  19:..\paho.mqtt.embedded-c\MQTTPacket\src/MQTTFormat.c **** 
  20:..\paho.mqtt.embedded-c\MQTTPacket\src/MQTTFormat.c **** #include <string.h>
  21:..\paho.mqtt.embedded-c\MQTTPacket\src/MQTTFormat.c **** 
  22:..\paho.mqtt.embedded-c\MQTTPacket\src/MQTTFormat.c **** 
  23:..\paho.mqtt.embedded-c\MQTTPacket\src/MQTTFormat.c **** const char* MQTTPacket_names[] =
  24:..\paho.mqtt.embedded-c\MQTTPacket\src/MQTTFormat.c **** {
  25:..\paho.mqtt.embedded-c\MQTTPacket\src/MQTTFormat.c **** 	"RESERVED", "CONNECT", "CONNACK", "PUBLISH", "PUBACK", "PUBREC", "PUBREL",
  26:..\paho.mqtt.embedded-c\MQTTPacket\src/MQTTFormat.c **** 	"PUBCOMP", "SUBSCRIBE", "SUBACK", "UNSUBSCRIBE", "UNSUBACK",
  27:..\paho.mqtt.embedded-c\MQTTPacket\src/MQTTFormat.c **** 	"PINGREQ", "PINGRESP", "DISCONNECT"
  28:..\paho.mqtt.embedded-c\MQTTPacket\src/MQTTFormat.c **** };
  29:..\paho.mqtt.embedded-c\MQTTPacket\src/MQTTFormat.c **** 
  30:..\paho.mqtt.embedded-c\MQTTPacket\src/MQTTFormat.c **** 
ARM GAS  C:\Users\samue\AppData\Local\Temp\ccHdqhKZ.s 			page 2


  31:..\paho.mqtt.embedded-c\MQTTPacket\src/MQTTFormat.c **** const char* MQTTPacket_getName(unsigned short packetid)
  32:..\paho.mqtt.embedded-c\MQTTPacket\src/MQTTFormat.c **** {
  28              		.loc 1 32 0
  29              		.cfi_startproc
  30              		@ args = 0, pretend = 0, frame = 0
  31              		@ frame_needed = 0, uses_anonymous_args = 0
  32              		@ link register save eliminated.
  33              	.LVL0:
  33:..\paho.mqtt.embedded-c\MQTTPacket\src/MQTTFormat.c **** 	return MQTTPacket_names[packetid];
  34:..\paho.mqtt.embedded-c\MQTTPacket\src/MQTTFormat.c **** }
  34              		.loc 1 34 0
  35 0000 014B     		ldr	r3, .L2
  36 0002 53F82000 		ldr	r0, [r3, r0, lsl #2]
  37              	.LVL1:
  38 0006 7047     		bx	lr
  39              	.L3:
  40              		.align	2
  41              	.L2:
  42 0008 00000000 		.word	.LANCHOR0
  43              		.cfi_endproc
  44              	.LFE1:
  45              		.size	MQTTPacket_getName, .-MQTTPacket_getName
  46              		.section	.text.MQTTStringFormat_connect,"ax",%progbits
  47              		.align	2
  48              		.global	MQTTStringFormat_connect
  49              		.thumb
  50              		.thumb_func
  51              		.type	MQTTStringFormat_connect, %function
  52              	MQTTStringFormat_connect:
  53              	.LFB2:
  35:..\paho.mqtt.embedded-c\MQTTPacket\src/MQTTFormat.c **** 
  36:..\paho.mqtt.embedded-c\MQTTPacket\src/MQTTFormat.c **** 
  37:..\paho.mqtt.embedded-c\MQTTPacket\src/MQTTFormat.c **** int MQTTStringFormat_connect(char* strbuf, int strbuflen, MQTTPacket_connectData* data)
  38:..\paho.mqtt.embedded-c\MQTTPacket\src/MQTTFormat.c **** {
  54              		.loc 1 38 0
  55              		.cfi_startproc
  56              		@ args = 0, pretend = 0, frame = 0
  57              		@ frame_needed = 0, uses_anonymous_args = 0
  58              	.LVL2:
  59 0000 F0B5     		push	{r4, r5, r6, r7, lr}
  60              		.cfi_def_cfa_offset 20
  61              		.cfi_offset 4, -20
  62              		.cfi_offset 5, -16
  63              		.cfi_offset 6, -12
  64              		.cfi_offset 7, -8
  65              		.cfi_offset 14, -4
  66 0002 87B0     		sub	sp, sp, #28
  67              		.cfi_def_cfa_offset 48
  68 0004 0646     		mov	r6, r0
  69 0006 0F46     		mov	r7, r1
  70 0008 1446     		mov	r4, r2
  71              	.LVL3:
  39:..\paho.mqtt.embedded-c\MQTTPacket\src/MQTTFormat.c **** 	int strindex = 0;
  40:..\paho.mqtt.embedded-c\MQTTPacket\src/MQTTFormat.c **** 
  41:..\paho.mqtt.embedded-c\MQTTPacket\src/MQTTFormat.c **** 	strindex = snprintf(strbuf, strbuflen,
  42:..\paho.mqtt.embedded-c\MQTTPacket\src/MQTTFormat.c **** 			"CONNECT MQTT version %d, client id %.*s, clean session %d, keep alive %d",
  43:..\paho.mqtt.embedded-c\MQTTPacket\src/MQTTFormat.c **** 			(int)data->MQTTVersion, data->clientID.lenstring.len, data->clientID.lenstring.data,
ARM GAS  C:\Users\samue\AppData\Local\Temp\ccHdqhKZ.s 			page 3


  72              		.loc 1 43 0
  73 000a 137A     		ldrb	r3, [r2, #8]	@ zero_extendqisi2
  44:..\paho.mqtt.embedded-c\MQTTPacket\src/MQTTFormat.c **** 			(int)data->cleansession, data->keepAliveInterval);
  74              		.loc 1 44 0
  75 000c 927E     		ldrb	r2, [r2, #26]	@ zero_extendqisi2
  76              	.LVL4:
  77 000e 258B     		ldrh	r5, [r4, #24]
  41:..\paho.mqtt.embedded-c\MQTTPacket\src/MQTTFormat.c **** 			"CONNECT MQTT version %d, client id %.*s, clean session %d, keep alive %d",
  78              		.loc 1 41 0
  79 0010 0395     		str	r5, [sp, #12]
  80 0012 0292     		str	r2, [sp, #8]
  81 0014 6269     		ldr	r2, [r4, #20]
  82 0016 0192     		str	r2, [sp, #4]
  83 0018 2269     		ldr	r2, [r4, #16]
  84 001a 0092     		str	r2, [sp]
  85 001c 194A     		ldr	r2, .L9
  86 001e FFF7FEFF 		bl	snprintf
  87              	.LVL5:
  88 0022 0546     		mov	r5, r0
  89              	.LVL6:
  45:..\paho.mqtt.embedded-c\MQTTPacket\src/MQTTFormat.c **** 	if (data->willFlag)
  90              		.loc 1 45 0
  91 0024 E37E     		ldrb	r3, [r4, #27]	@ zero_extendqisi2
  92 0026 93B1     		cbz	r3, .L5
  46:..\paho.mqtt.embedded-c\MQTTPacket\src/MQTTFormat.c **** 		strindex += snprintf(&strbuf[strindex], strbuflen - strindex,
  47:..\paho.mqtt.embedded-c\MQTTPacket\src/MQTTFormat.c **** 				", will QoS %d, will retain %d, will topic %.*s, will message %.*s",
  48:..\paho.mqtt.embedded-c\MQTTPacket\src/MQTTFormat.c **** 				data->will.qos, data->will.retained,
  93              		.loc 1 48 0
  94 0028 94F83D30 		ldrb	r3, [r4, #61]	@ zero_extendqisi2
  95 002c 94F83C20 		ldrb	r2, [r4, #60]	@ zero_extendqisi2
  46:..\paho.mqtt.embedded-c\MQTTPacket\src/MQTTFormat.c **** 		strindex += snprintf(&strbuf[strindex], strbuflen - strindex,
  96              		.loc 1 46 0
  97 0030 A16B     		ldr	r1, [r4, #56]
  98 0032 0491     		str	r1, [sp, #16]
  99 0034 616B     		ldr	r1, [r4, #52]
 100 0036 0391     		str	r1, [sp, #12]
 101 0038 E16A     		ldr	r1, [r4, #44]
 102 003a 0291     		str	r1, [sp, #8]
 103 003c A16A     		ldr	r1, [r4, #40]
 104 003e 0191     		str	r1, [sp, #4]
 105 0040 0092     		str	r2, [sp]
 106 0042 114A     		ldr	r2, .L9+4
 107 0044 391A     		subs	r1, r7, r0
 108 0046 3018     		adds	r0, r6, r0
 109              	.LVL7:
 110 0048 FFF7FEFF 		bl	snprintf
 111              	.LVL8:
 112 004c 0544     		add	r5, r5, r0
 113              	.LVL9:
 114              	.L5:
  49:..\paho.mqtt.embedded-c\MQTTPacket\src/MQTTFormat.c **** 				data->will.topicName.lenstring.len, data->will.topicName.lenstring.data,
  50:..\paho.mqtt.embedded-c\MQTTPacket\src/MQTTFormat.c **** 				data->will.message.lenstring.len, data->will.message.lenstring.data);
  51:..\paho.mqtt.embedded-c\MQTTPacket\src/MQTTFormat.c **** 	if (data->username.lenstring.data && data->username.lenstring.len > 0)
 115              		.loc 1 51 0
 116 004e A26C     		ldr	r2, [r4, #72]
 117 0050 4AB1     		cbz	r2, .L6
 118              		.loc 1 51 0 is_stmt 0 discriminator 1
ARM GAS  C:\Users\samue\AppData\Local\Temp\ccHdqhKZ.s 			page 4


 119 0052 636C     		ldr	r3, [r4, #68]
 120 0054 002B     		cmp	r3, #0
 121 0056 06DD     		ble	.L6
  52:..\paho.mqtt.embedded-c\MQTTPacket\src/MQTTFormat.c **** 		strindex += snprintf(&strbuf[strindex], strbuflen - strindex,
 122              		.loc 1 52 0 is_stmt 1
 123 0058 0092     		str	r2, [sp]
 124 005a 0C4A     		ldr	r2, .L9+8
 125 005c 791B     		subs	r1, r7, r5
 126 005e 7019     		adds	r0, r6, r5
 127 0060 FFF7FEFF 		bl	snprintf
 128              	.LVL10:
 129 0064 0544     		add	r5, r5, r0
 130              	.LVL11:
 131              	.L6:
  53:..\paho.mqtt.embedded-c\MQTTPacket\src/MQTTFormat.c **** 				", user name %.*s", data->username.lenstring.len, data->username.lenstring.data);
  54:..\paho.mqtt.embedded-c\MQTTPacket\src/MQTTFormat.c **** 	if (data->password.lenstring.data && data->password.lenstring.len > 0)
 132              		.loc 1 54 0
 133 0066 626D     		ldr	r2, [r4, #84]
 134 0068 4AB1     		cbz	r2, .L7
 135              		.loc 1 54 0 is_stmt 0 discriminator 1
 136 006a 236D     		ldr	r3, [r4, #80]
 137 006c 002B     		cmp	r3, #0
 138 006e 06DD     		ble	.L7
  55:..\paho.mqtt.embedded-c\MQTTPacket\src/MQTTFormat.c **** 		strindex += snprintf(&strbuf[strindex], strbuflen - strindex,
 139              		.loc 1 55 0 is_stmt 1
 140 0070 0092     		str	r2, [sp]
 141 0072 074A     		ldr	r2, .L9+12
 142 0074 791B     		subs	r1, r7, r5
 143 0076 7019     		adds	r0, r6, r5
 144 0078 FFF7FEFF 		bl	snprintf
 145              	.LVL12:
 146 007c 0544     		add	r5, r5, r0
 147              	.LVL13:
 148              	.L7:
  56:..\paho.mqtt.embedded-c\MQTTPacket\src/MQTTFormat.c **** 				", password %.*s", data->password.lenstring.len, data->password.lenstring.data);
  57:..\paho.mqtt.embedded-c\MQTTPacket\src/MQTTFormat.c **** 	return strindex;
  58:..\paho.mqtt.embedded-c\MQTTPacket\src/MQTTFormat.c **** }
 149              		.loc 1 58 0
 150 007e 2846     		mov	r0, r5
 151 0080 07B0     		add	sp, sp, #28
 152              		.cfi_def_cfa_offset 20
 153              		@ sp needed
 154 0082 F0BD     		pop	{r4, r5, r6, r7, pc}
 155              	.LVL14:
 156              	.L10:
 157              		.align	2
 158              	.L9:
 159 0084 00000000 		.word	.LC0
 160 0088 4C000000 		.word	.LC1
 161 008c 90000000 		.word	.LC2
 162 0090 A4000000 		.word	.LC3
 163              		.cfi_endproc
 164              	.LFE2:
 165              		.size	MQTTStringFormat_connect, .-MQTTStringFormat_connect
 166              		.section	.text.MQTTStringFormat_connack,"ax",%progbits
 167              		.align	2
 168              		.global	MQTTStringFormat_connack
ARM GAS  C:\Users\samue\AppData\Local\Temp\ccHdqhKZ.s 			page 5


 169              		.thumb
 170              		.thumb_func
 171              		.type	MQTTStringFormat_connack, %function
 172              	MQTTStringFormat_connack:
 173              	.LFB3:
  59:..\paho.mqtt.embedded-c\MQTTPacket\src/MQTTFormat.c **** 
  60:..\paho.mqtt.embedded-c\MQTTPacket\src/MQTTFormat.c **** 
  61:..\paho.mqtt.embedded-c\MQTTPacket\src/MQTTFormat.c **** int MQTTStringFormat_connack(char* strbuf, int strbuflen, unsigned char connack_rc, unsigned char s
  62:..\paho.mqtt.embedded-c\MQTTPacket\src/MQTTFormat.c **** {
 174              		.loc 1 62 0
 175              		.cfi_startproc
 176              		@ args = 0, pretend = 0, frame = 0
 177              		@ frame_needed = 0, uses_anonymous_args = 0
 178              	.LVL15:
 179 0000 00B5     		push	{lr}
 180              		.cfi_def_cfa_offset 4
 181              		.cfi_offset 14, -4
 182 0002 83B0     		sub	sp, sp, #12
 183              		.cfi_def_cfa_offset 16
  63:..\paho.mqtt.embedded-c\MQTTPacket\src/MQTTFormat.c **** 	int strindex = snprintf(strbuf, strbuflen, "CONNACK session present %d, rc %d", sessionPresent, co
 184              		.loc 1 63 0
 185 0004 0092     		str	r2, [sp]
 186 0006 034A     		ldr	r2, .L13
 187              	.LVL16:
 188 0008 FFF7FEFF 		bl	snprintf
 189              	.LVL17:
  64:..\paho.mqtt.embedded-c\MQTTPacket\src/MQTTFormat.c **** 	return strindex;
  65:..\paho.mqtt.embedded-c\MQTTPacket\src/MQTTFormat.c **** }
 190              		.loc 1 65 0
 191 000c 03B0     		add	sp, sp, #12
 192              		.cfi_def_cfa_offset 4
 193              		@ sp needed
 194 000e 5DF804FB 		ldr	pc, [sp], #4
 195              	.L14:
 196 0012 00BF     		.align	2
 197              	.L13:
 198 0014 B4000000 		.word	.LC4
 199              		.cfi_endproc
 200              	.LFE3:
 201              		.size	MQTTStringFormat_connack, .-MQTTStringFormat_connack
 202              		.section	.text.MQTTStringFormat_publish,"ax",%progbits
 203              		.align	2
 204              		.global	MQTTStringFormat_publish
 205              		.thumb
 206              		.thumb_func
 207              		.type	MQTTStringFormat_publish, %function
 208              	MQTTStringFormat_publish:
 209              	.LFB4:
  66:..\paho.mqtt.embedded-c\MQTTPacket\src/MQTTFormat.c **** 
  67:..\paho.mqtt.embedded-c\MQTTPacket\src/MQTTFormat.c **** 
  68:..\paho.mqtt.embedded-c\MQTTPacket\src/MQTTFormat.c **** int MQTTStringFormat_publish(char* strbuf, int strbuflen, unsigned char dup, int qos, unsigned char
  69:..\paho.mqtt.embedded-c\MQTTPacket\src/MQTTFormat.c **** 		unsigned short packetid, MQTTString topicName, unsigned char* payload, int payloadlen)
  70:..\paho.mqtt.embedded-c\MQTTPacket\src/MQTTFormat.c **** {
 210              		.loc 1 70 0
 211              		.cfi_startproc
 212              		@ args = 28, pretend = 0, frame = 0
 213              		@ frame_needed = 0, uses_anonymous_args = 0
ARM GAS  C:\Users\samue\AppData\Local\Temp\ccHdqhKZ.s 			page 6


 214              	.LVL18:
 215 0000 F0B5     		push	{r4, r5, r6, r7, lr}
 216              		.cfi_def_cfa_offset 20
 217              		.cfi_offset 4, -20
 218              		.cfi_offset 5, -16
 219              		.cfi_offset 6, -12
 220              		.cfi_offset 7, -8
 221              		.cfi_offset 14, -4
 222 0002 89B0     		sub	sp, sp, #36
 223              		.cfi_def_cfa_offset 56
 224 0004 149D     		ldr	r5, [sp, #80]
  71:..\paho.mqtt.embedded-c\MQTTPacket\src/MQTTFormat.c **** 	int strindex = snprintf(strbuf, strbuflen,
  72:..\paho.mqtt.embedded-c\MQTTPacket\src/MQTTFormat.c **** 				"PUBLISH dup %d, QoS %d, retained %d, packet id %d, topic %.*s, payload length %d, payload %.*s
  73:..\paho.mqtt.embedded-c\MQTTPacket\src/MQTTFormat.c **** 				dup, qos, retained, packetid,
  74:..\paho.mqtt.embedded-c\MQTTPacket\src/MQTTFormat.c **** 				(topicName.lenstring.len < 20) ? topicName.lenstring.len : 20, topicName.lenstring.data,
 225              		.loc 1 74 0
 226 0006 119C     		ldr	r4, [sp, #68]
  71:..\paho.mqtt.embedded-c\MQTTPacket\src/MQTTFormat.c **** 	int strindex = snprintf(strbuf, strbuflen,
 227              		.loc 1 71 0
 228 0008 142C     		cmp	r4, #20
 229 000a A8BF     		it	ge
 230 000c 1424     		movge	r4, #20
 231 000e 2E46     		mov	r6, r5
 232 0010 142D     		cmp	r5, #20
 233 0012 A8BF     		it	ge
 234 0014 1426     		movge	r6, #20
 235 0016 139F     		ldr	r7, [sp, #76]
 236 0018 0797     		str	r7, [sp, #28]
 237 001a 0696     		str	r6, [sp, #24]
 238 001c 0595     		str	r5, [sp, #20]
 239 001e 129D     		ldr	r5, [sp, #72]
 240 0020 0495     		str	r5, [sp, #16]
 241 0022 0394     		str	r4, [sp, #12]
 242 0024 BDF83C40 		ldrh	r4, [sp, #60]
 243 0028 0294     		str	r4, [sp, #8]
 244 002a 9DF83840 		ldrb	r4, [sp, #56]	@ zero_extendqisi2
 245 002e 0194     		str	r4, [sp, #4]
 246 0030 0093     		str	r3, [sp]
 247 0032 1346     		mov	r3, r2
 248              	.LVL19:
 249 0034 024A     		ldr	r2, .L17
 250              	.LVL20:
 251 0036 FFF7FEFF 		bl	snprintf
 252              	.LVL21:
  75:..\paho.mqtt.embedded-c\MQTTPacket\src/MQTTFormat.c **** 				payloadlen, (payloadlen < 20) ? payloadlen : 20, payload);
  76:..\paho.mqtt.embedded-c\MQTTPacket\src/MQTTFormat.c **** 	return strindex;
  77:..\paho.mqtt.embedded-c\MQTTPacket\src/MQTTFormat.c **** }
 253              		.loc 1 77 0
 254 003a 09B0     		add	sp, sp, #36
 255              		.cfi_def_cfa_offset 20
 256              		@ sp needed
 257 003c F0BD     		pop	{r4, r5, r6, r7, pc}
 258              	.LVL22:
 259              	.L18:
 260 003e 00BF     		.align	2
 261              	.L17:
 262 0040 D8000000 		.word	.LC5
ARM GAS  C:\Users\samue\AppData\Local\Temp\ccHdqhKZ.s 			page 7


 263              		.cfi_endproc
 264              	.LFE4:
 265              		.size	MQTTStringFormat_publish, .-MQTTStringFormat_publish
 266              		.section	.text.MQTTStringFormat_ack,"ax",%progbits
 267              		.align	2
 268              		.global	MQTTStringFormat_ack
 269              		.thumb
 270              		.thumb_func
 271              		.type	MQTTStringFormat_ack, %function
 272              	MQTTStringFormat_ack:
 273              	.LFB5:
  78:..\paho.mqtt.embedded-c\MQTTPacket\src/MQTTFormat.c **** 
  79:..\paho.mqtt.embedded-c\MQTTPacket\src/MQTTFormat.c **** 
  80:..\paho.mqtt.embedded-c\MQTTPacket\src/MQTTFormat.c **** int MQTTStringFormat_ack(char* strbuf, int strbuflen, unsigned char packettype, unsigned char dup, 
  81:..\paho.mqtt.embedded-c\MQTTPacket\src/MQTTFormat.c **** {
 274              		.loc 1 81 0
 275              		.cfi_startproc
 276              		@ args = 4, pretend = 0, frame = 0
 277              		@ frame_needed = 0, uses_anonymous_args = 0
 278              	.LVL23:
 279 0000 F0B5     		push	{r4, r5, r6, r7, lr}
 280              		.cfi_def_cfa_offset 20
 281              		.cfi_offset 4, -20
 282              		.cfi_offset 5, -16
 283              		.cfi_offset 6, -12
 284              		.cfi_offset 7, -8
 285              		.cfi_offset 14, -4
 286 0002 83B0     		sub	sp, sp, #12
 287              		.cfi_def_cfa_offset 32
 288 0004 0646     		mov	r6, r0
 289 0006 0F46     		mov	r7, r1
 290 0008 1D46     		mov	r5, r3
  82:..\paho.mqtt.embedded-c\MQTTPacket\src/MQTTFormat.c **** 	int strindex = snprintf(strbuf, strbuflen, "%s, packet id %d", MQTTPacket_names[packettype], packe
 291              		.loc 1 82 0
 292 000a 0A4B     		ldr	r3, .L22
 293              	.LVL24:
 294 000c 53F82230 		ldr	r3, [r3, r2, lsl #2]
 295 0010 BDF82020 		ldrh	r2, [sp, #32]
 296              	.LVL25:
 297 0014 0092     		str	r2, [sp]
 298 0016 084A     		ldr	r2, .L22+4
 299 0018 FFF7FEFF 		bl	snprintf
 300              	.LVL26:
 301 001c 0446     		mov	r4, r0
 302              	.LVL27:
  83:..\paho.mqtt.embedded-c\MQTTPacket\src/MQTTFormat.c **** 	if (dup)
 303              		.loc 1 83 0
 304 001e 35B1     		cbz	r5, .L20
  84:..\paho.mqtt.embedded-c\MQTTPacket\src/MQTTFormat.c **** 		strindex += snprintf(strbuf + strindex, strbuflen - strindex, ", dup %d", dup);
 305              		.loc 1 84 0
 306 0020 2B46     		mov	r3, r5
 307 0022 064A     		ldr	r2, .L22+8
 308 0024 391A     		subs	r1, r7, r0
 309 0026 3018     		adds	r0, r6, r0
 310              	.LVL28:
 311 0028 FFF7FEFF 		bl	snprintf
 312              	.LVL29:
ARM GAS  C:\Users\samue\AppData\Local\Temp\ccHdqhKZ.s 			page 8


 313 002c 0444     		add	r4, r4, r0
 314              	.LVL30:
 315              	.L20:
  85:..\paho.mqtt.embedded-c\MQTTPacket\src/MQTTFormat.c **** 	return strindex;
  86:..\paho.mqtt.embedded-c\MQTTPacket\src/MQTTFormat.c **** }
 316              		.loc 1 86 0
 317 002e 2046     		mov	r0, r4
 318 0030 03B0     		add	sp, sp, #12
 319              		.cfi_def_cfa_offset 20
 320              		@ sp needed
 321 0032 F0BD     		pop	{r4, r5, r6, r7, pc}
 322              	.LVL31:
 323              	.L23:
 324              		.align	2
 325              	.L22:
 326 0034 00000000 		.word	.LANCHOR0
 327 0038 38010000 		.word	.LC6
 328 003c 4C010000 		.word	.LC7
 329              		.cfi_endproc
 330              	.LFE5:
 331              		.size	MQTTStringFormat_ack, .-MQTTStringFormat_ack
 332              		.section	.text.MQTTStringFormat_subscribe,"ax",%progbits
 333              		.align	2
 334              		.global	MQTTStringFormat_subscribe
 335              		.thumb
 336              		.thumb_func
 337              		.type	MQTTStringFormat_subscribe, %function
 338              	MQTTStringFormat_subscribe:
 339              	.LFB6:
  87:..\paho.mqtt.embedded-c\MQTTPacket\src/MQTTFormat.c **** 
  88:..\paho.mqtt.embedded-c\MQTTPacket\src/MQTTFormat.c **** 
  89:..\paho.mqtt.embedded-c\MQTTPacket\src/MQTTFormat.c **** int MQTTStringFormat_subscribe(char* strbuf, int strbuflen, unsigned char dup, unsigned short packe
  90:..\paho.mqtt.embedded-c\MQTTPacket\src/MQTTFormat.c **** 		MQTTString topicFilters[], int requestedQoSs[])
  91:..\paho.mqtt.embedded-c\MQTTPacket\src/MQTTFormat.c **** {
 340              		.loc 1 91 0
 341              		.cfi_startproc
 342              		@ args = 12, pretend = 0, frame = 0
 343              		@ frame_needed = 0, uses_anonymous_args = 0
 344              	.LVL32:
 345 0000 30B5     		push	{r4, r5, lr}
 346              		.cfi_def_cfa_offset 12
 347              		.cfi_offset 4, -12
 348              		.cfi_offset 5, -8
 349              		.cfi_offset 14, -4
 350 0002 87B0     		sub	sp, sp, #28
 351              		.cfi_def_cfa_offset 40
 352 0004 0B9C     		ldr	r4, [sp, #44]
  92:..\paho.mqtt.embedded-c\MQTTPacket\src/MQTTFormat.c **** 	return snprintf(strbuf, strbuflen,
 353              		.loc 1 92 0
 354 0006 0C9D     		ldr	r5, [sp, #48]
 355 0008 2D68     		ldr	r5, [r5]
 356 000a 0495     		str	r5, [sp, #16]
 357 000c A568     		ldr	r5, [r4, #8]
 358 000e 0395     		str	r5, [sp, #12]
 359 0010 6468     		ldr	r4, [r4, #4]
 360 0012 0294     		str	r4, [sp, #8]
 361 0014 0A9C     		ldr	r4, [sp, #40]
ARM GAS  C:\Users\samue\AppData\Local\Temp\ccHdqhKZ.s 			page 9


 362 0016 0194     		str	r4, [sp, #4]
 363 0018 0093     		str	r3, [sp]
 364 001a 1346     		mov	r3, r2
 365              	.LVL33:
 366 001c 024A     		ldr	r2, .L26
 367              	.LVL34:
 368 001e FFF7FEFF 		bl	snprintf
 369              	.LVL35:
  93:..\paho.mqtt.embedded-c\MQTTPacket\src/MQTTFormat.c **** 		"SUBSCRIBE dup %d, packet id %d count %d topic %.*s qos %d",
  94:..\paho.mqtt.embedded-c\MQTTPacket\src/MQTTFormat.c **** 		dup, packetid, count,
  95:..\paho.mqtt.embedded-c\MQTTPacket\src/MQTTFormat.c **** 		topicFilters[0].lenstring.len, topicFilters[0].lenstring.data,
  96:..\paho.mqtt.embedded-c\MQTTPacket\src/MQTTFormat.c **** 		requestedQoSs[0]);
  97:..\paho.mqtt.embedded-c\MQTTPacket\src/MQTTFormat.c **** }
 370              		.loc 1 97 0
 371 0022 07B0     		add	sp, sp, #28
 372              		.cfi_def_cfa_offset 12
 373              		@ sp needed
 374 0024 30BD     		pop	{r4, r5, pc}
 375              	.LVL36:
 376              	.L27:
 377 0026 00BF     		.align	2
 378              	.L26:
 379 0028 58010000 		.word	.LC8
 380              		.cfi_endproc
 381              	.LFE6:
 382              		.size	MQTTStringFormat_subscribe, .-MQTTStringFormat_subscribe
 383              		.section	.text.MQTTStringFormat_suback,"ax",%progbits
 384              		.align	2
 385              		.global	MQTTStringFormat_suback
 386              		.thumb
 387              		.thumb_func
 388              		.type	MQTTStringFormat_suback, %function
 389              	MQTTStringFormat_suback:
 390              	.LFB7:
  98:..\paho.mqtt.embedded-c\MQTTPacket\src/MQTTFormat.c **** 
  99:..\paho.mqtt.embedded-c\MQTTPacket\src/MQTTFormat.c **** 
 100:..\paho.mqtt.embedded-c\MQTTPacket\src/MQTTFormat.c **** int MQTTStringFormat_suback(char* strbuf, int strbuflen, unsigned short packetid, int count, int* g
 101:..\paho.mqtt.embedded-c\MQTTPacket\src/MQTTFormat.c **** {
 391              		.loc 1 101 0
 392              		.cfi_startproc
 393              		@ args = 4, pretend = 0, frame = 0
 394              		@ frame_needed = 0, uses_anonymous_args = 0
 395              	.LVL37:
 396 0000 10B5     		push	{r4, lr}
 397              		.cfi_def_cfa_offset 8
 398              		.cfi_offset 4, -8
 399              		.cfi_offset 14, -4
 400 0002 82B0     		sub	sp, sp, #8
 401              		.cfi_def_cfa_offset 16
 102:..\paho.mqtt.embedded-c\MQTTPacket\src/MQTTFormat.c **** 	return snprintf(strbuf, strbuflen,
 402              		.loc 1 102 0
 403 0004 049C     		ldr	r4, [sp, #16]
 404 0006 2468     		ldr	r4, [r4]
 405 0008 0194     		str	r4, [sp, #4]
 406 000a 0093     		str	r3, [sp]
 407 000c 1346     		mov	r3, r2
 408              	.LVL38:
ARM GAS  C:\Users\samue\AppData\Local\Temp\ccHdqhKZ.s 			page 10


 409 000e 024A     		ldr	r2, .L30
 410              	.LVL39:
 411 0010 FFF7FEFF 		bl	snprintf
 412              	.LVL40:
 103:..\paho.mqtt.embedded-c\MQTTPacket\src/MQTTFormat.c **** 		"SUBACK packet id %d count %d granted qos %d", packetid, count, grantedQoSs[0]);
 104:..\paho.mqtt.embedded-c\MQTTPacket\src/MQTTFormat.c **** }
 413              		.loc 1 104 0
 414 0014 02B0     		add	sp, sp, #8
 415              		.cfi_def_cfa_offset 8
 416              		@ sp needed
 417 0016 10BD     		pop	{r4, pc}
 418              	.LVL41:
 419              	.L31:
 420              		.align	2
 421              	.L30:
 422 0018 94010000 		.word	.LC9
 423              		.cfi_endproc
 424              	.LFE7:
 425              		.size	MQTTStringFormat_suback, .-MQTTStringFormat_suback
 426              		.section	.text.MQTTStringFormat_unsubscribe,"ax",%progbits
 427              		.align	2
 428              		.global	MQTTStringFormat_unsubscribe
 429              		.thumb
 430              		.thumb_func
 431              		.type	MQTTStringFormat_unsubscribe, %function
 432              	MQTTStringFormat_unsubscribe:
 433              	.LFB8:
 105:..\paho.mqtt.embedded-c\MQTTPacket\src/MQTTFormat.c **** 
 106:..\paho.mqtt.embedded-c\MQTTPacket\src/MQTTFormat.c **** 
 107:..\paho.mqtt.embedded-c\MQTTPacket\src/MQTTFormat.c **** int MQTTStringFormat_unsubscribe(char* strbuf, int strbuflen, unsigned char dup, unsigned short pac
 108:..\paho.mqtt.embedded-c\MQTTPacket\src/MQTTFormat.c **** 		int count, MQTTString topicFilters[])
 109:..\paho.mqtt.embedded-c\MQTTPacket\src/MQTTFormat.c **** {
 434              		.loc 1 109 0
 435              		.cfi_startproc
 436              		@ args = 8, pretend = 0, frame = 0
 437              		@ frame_needed = 0, uses_anonymous_args = 0
 438              	.LVL42:
 439 0000 30B5     		push	{r4, r5, lr}
 440              		.cfi_def_cfa_offset 12
 441              		.cfi_offset 4, -12
 442              		.cfi_offset 5, -8
 443              		.cfi_offset 14, -4
 444 0002 85B0     		sub	sp, sp, #20
 445              		.cfi_def_cfa_offset 32
 446 0004 099C     		ldr	r4, [sp, #36]
 110:..\paho.mqtt.embedded-c\MQTTPacket\src/MQTTFormat.c **** 	return snprintf(strbuf, strbuflen,
 447              		.loc 1 110 0
 448 0006 A568     		ldr	r5, [r4, #8]
 449 0008 0395     		str	r5, [sp, #12]
 450 000a 6468     		ldr	r4, [r4, #4]
 451 000c 0294     		str	r4, [sp, #8]
 452 000e 089C     		ldr	r4, [sp, #32]
 453 0010 0194     		str	r4, [sp, #4]
 454 0012 0093     		str	r3, [sp]
 455 0014 1346     		mov	r3, r2
 456              	.LVL43:
 457 0016 024A     		ldr	r2, .L34
ARM GAS  C:\Users\samue\AppData\Local\Temp\ccHdqhKZ.s 			page 11


 458              	.LVL44:
 459 0018 FFF7FEFF 		bl	snprintf
 460              	.LVL45:
 111:..\paho.mqtt.embedded-c\MQTTPacket\src/MQTTFormat.c **** 					"UNSUBSCRIBE dup %d, packet id %d count %d topic %.*s",
 112:..\paho.mqtt.embedded-c\MQTTPacket\src/MQTTFormat.c **** 					dup, packetid, count,
 113:..\paho.mqtt.embedded-c\MQTTPacket\src/MQTTFormat.c **** 					topicFilters[0].lenstring.len, topicFilters[0].lenstring.data);
 114:..\paho.mqtt.embedded-c\MQTTPacket\src/MQTTFormat.c **** }
 461              		.loc 1 114 0
 462 001c 05B0     		add	sp, sp, #20
 463              		.cfi_def_cfa_offset 12
 464              		@ sp needed
 465 001e 30BD     		pop	{r4, r5, pc}
 466              	.LVL46:
 467              	.L35:
 468              		.align	2
 469              	.L34:
 470 0020 C0010000 		.word	.LC10
 471              		.cfi_endproc
 472              	.LFE8:
 473              		.size	MQTTStringFormat_unsubscribe, .-MQTTStringFormat_unsubscribe
 474              		.global	MQTTPacket_names
 475              		.data
 476              		.align	2
 477              		.set	.LANCHOR0,. + 0
 478              		.type	MQTTPacket_names, %object
 479              		.size	MQTTPacket_names, 60
 480              	MQTTPacket_names:
 481 0000 F8010000 		.word	.LC11
 482 0004 04020000 		.word	.LC12
 483 0008 0C020000 		.word	.LC13
 484 000c 14020000 		.word	.LC14
 485 0010 1C020000 		.word	.LC15
 486 0014 24020000 		.word	.LC16
 487 0018 2C020000 		.word	.LC17
 488 001c 34020000 		.word	.LC18
 489 0020 3C020000 		.word	.LC19
 490 0024 48020000 		.word	.LC20
 491 0028 50020000 		.word	.LC21
 492 002c 5C020000 		.word	.LC22
 493 0030 68020000 		.word	.LC23
 494 0034 70020000 		.word	.LC24
 495 0038 7C020000 		.word	.LC25
 496              		.section	.rodata.str1.4,"aMS",%progbits,1
 497              		.align	2
 498              	.LC0:
 499 0000 434F4E4E 		.ascii	"CONNECT MQTT version %d, client id %.*s, clean sess"
 499      45435420 
 499      4D515454 
 499      20766572 
 499      73696F6E 
 500 0033 696F6E20 		.ascii	"ion %d, keep alive %d\000"
 500      25642C20 
 500      6B656570 
 500      20616C69 
 500      76652025 
 501 0049 000000   		.space	3
 502              	.LC1:
ARM GAS  C:\Users\samue\AppData\Local\Temp\ccHdqhKZ.s 			page 12


 503 004c 2C207769 		.ascii	", will QoS %d, will retain %d, will topic %.*s, wil"
 503      6C6C2051 
 503      6F532025 
 503      642C2077 
 503      696C6C20 
 504 007f 6C206D65 		.ascii	"l message %.*s\000"
 504      73736167 
 504      6520252E 
 504      2A7300
 505 008e 0000     		.space	2
 506              	.LC2:
 507 0090 2C207573 		.ascii	", user name %.*s\000"
 507      6572206E 
 507      616D6520 
 507      252E2A73 
 507      00
 508 00a1 000000   		.space	3
 509              	.LC3:
 510 00a4 2C207061 		.ascii	", password %.*s\000"
 510      7373776F 
 510      72642025 
 510      2E2A7300 
 511              	.LC4:
 512 00b4 434F4E4E 		.ascii	"CONNACK session present %d, rc %d\000"
 512      41434B20 
 512      73657373 
 512      696F6E20 
 512      70726573 
 513 00d6 0000     		.space	2
 514              	.LC5:
 515 00d8 5055424C 		.ascii	"PUBLISH dup %d, QoS %d, retained %d, packet id %d, "
 515      49534820 
 515      64757020 
 515      25642C20 
 515      516F5320 
 516 010b 746F7069 		.ascii	"topic %.*s, payload length %d, payload %.*s\000"
 516      6320252E 
 516      2A732C20 
 516      7061796C 
 516      6F616420 
 517 0137 00       		.space	1
 518              	.LC6:
 519 0138 25732C20 		.ascii	"%s, packet id %d\000"
 519      7061636B 
 519      65742069 
 519      64202564 
 519      00
 520 0149 000000   		.space	3
 521              	.LC7:
 522 014c 2C206475 		.ascii	", dup %d\000"
 522      70202564 
 522      00
 523 0155 000000   		.space	3
 524              	.LC8:
 525 0158 53554253 		.ascii	"SUBSCRIBE dup %d, packet id %d count %d topic %.*s "
 525      43524942 
 525      45206475 
ARM GAS  C:\Users\samue\AppData\Local\Temp\ccHdqhKZ.s 			page 13


 525      70202564 
 525      2C207061 
 526 018b 716F7320 		.ascii	"qos %d\000"
 526      256400
 527 0192 0000     		.space	2
 528              	.LC9:
 529 0194 53554241 		.ascii	"SUBACK packet id %d count %d granted qos %d\000"
 529      434B2070 
 529      61636B65 
 529      74206964 
 529      20256420 
 530              	.LC10:
 531 01c0 554E5355 		.ascii	"UNSUBSCRIBE dup %d, packet id %d count %d topic %.*"
 531      42534352 
 531      49424520 
 531      64757020 
 531      25642C20 
 532 01f3 7300     		.ascii	"s\000"
 533 01f5 000000   		.space	3
 534              	.LC11:
 535 01f8 52455345 		.ascii	"RESERVED\000"
 535      52564544 
 535      00
 536 0201 000000   		.space	3
 537              	.LC12:
 538 0204 434F4E4E 		.ascii	"CONNECT\000"
 538      45435400 
 539              	.LC13:
 540 020c 434F4E4E 		.ascii	"CONNACK\000"
 540      41434B00 
 541              	.LC14:
 542 0214 5055424C 		.ascii	"PUBLISH\000"
 542      49534800 
 543              	.LC15:
 544 021c 50554241 		.ascii	"PUBACK\000"
 544      434B00
 545 0223 00       		.space	1
 546              	.LC16:
 547 0224 50554252 		.ascii	"PUBREC\000"
 547      454300
 548 022b 00       		.space	1
 549              	.LC17:
 550 022c 50554252 		.ascii	"PUBREL\000"
 550      454C00
 551 0233 00       		.space	1
 552              	.LC18:
 553 0234 50554243 		.ascii	"PUBCOMP\000"
 553      4F4D5000 
 554              	.LC19:
 555 023c 53554253 		.ascii	"SUBSCRIBE\000"
 555      43524942 
 555      4500
 556 0246 0000     		.space	2
 557              	.LC20:
 558 0248 53554241 		.ascii	"SUBACK\000"
 558      434B00
 559 024f 00       		.space	1
ARM GAS  C:\Users\samue\AppData\Local\Temp\ccHdqhKZ.s 			page 14


 560              	.LC21:
 561 0250 554E5355 		.ascii	"UNSUBSCRIBE\000"
 561      42534352 
 561      49424500 
 562              	.LC22:
 563 025c 554E5355 		.ascii	"UNSUBACK\000"
 563      4241434B 
 563      00
 564 0265 000000   		.space	3
 565              	.LC23:
 566 0268 50494E47 		.ascii	"PINGREQ\000"
 566      52455100 
 567              	.LC24:
 568 0270 50494E47 		.ascii	"PINGRESP\000"
 568      52455350 
 568      00
 569 0279 000000   		.space	3
 570              	.LC25:
 571 027c 44495343 		.ascii	"DISCONNECT\000"
 571      4F4E4E45 
 571      435400
 572              		.text
 573              	.Letext0:
 574              		.file 2 "..\\paho.mqtt.embedded-c\\MQTTPacket\\src\\MQTTPacket.h"
 575              		.file 3 "..\\paho.mqtt.embedded-c\\MQTTPacket\\src\\MQTTConnect.h"
 576              		.file 4 "c:\\program files (x86)\\cypress\\psoc creator\\4.2\\psoc creator\\import\\gnu\\arm\\5.4.