ARM GAS  C:\Users\samue\AppData\Local\Temp\ccYWUiYX.s 			page 1


   1              		.syntax unified
   2              		.cpu cortex-m3
   3              		.fpu softvfp
   4              		.eabi_attribute 20, 1
   5              		.eabi_attribute 21, 1
   6              		.eabi_attribute 23, 3
   7              		.eabi_attribute 24, 1
   8              		.eabi_attribute 25, 1
   9              		.eabi_attribute 26, 1
  10              		.eabi_attribute 30, 1
  11              		.eabi_attribute 34, 1
  12              		.eabi_attribute 18, 4
  13              		.thumb
  14              		.syntax unified
  15              		.file	"MQTTClient.c"
  16              		.text
  17              	.Ltext0:
  18              		.cfi_sections	.debug_frame
  19              		.section	.text.NewMessageData,"ax",%progbits
  20              		.align	2
  21              		.thumb
  22              		.thumb_func
  23              		.type	NewMessageData, %function
  24              	NewMessageData:
  25              	.LFB69:
  26              		.file 1 "..\\paho.mqtt.embedded-c\\MQTTClient-C\\src\\MQTTClient.c"
   1:..\paho.mqtt.embedded-c\MQTTClient-C\src/MQTTClient.c **** /*******************************************************************************
   2:..\paho.mqtt.embedded-c\MQTTClient-C\src/MQTTClient.c ****  * Copyright (c) 2014, 2017 IBM Corp.
   3:..\paho.mqtt.embedded-c\MQTTClient-C\src/MQTTClient.c ****  *
   4:..\paho.mqtt.embedded-c\MQTTClient-C\src/MQTTClient.c ****  * All rights reserved. This program and the accompanying materials
   5:..\paho.mqtt.embedded-c\MQTTClient-C\src/MQTTClient.c ****  * are made available under the terms of the Eclipse Public License v1.0
   6:..\paho.mqtt.embedded-c\MQTTClient-C\src/MQTTClient.c ****  * and Eclipse Distribution License v1.0 which accompany this distribution.
   7:..\paho.mqtt.embedded-c\MQTTClient-C\src/MQTTClient.c ****  *
   8:..\paho.mqtt.embedded-c\MQTTClient-C\src/MQTTClient.c ****  * The Eclipse Public License is available at
   9:..\paho.mqtt.embedded-c\MQTTClient-C\src/MQTTClient.c ****  *    http://www.eclipse.org/legal/epl-v10.html
  10:..\paho.mqtt.embedded-c\MQTTClient-C\src/MQTTClient.c ****  * and the Eclipse Distribution License is available at
  11:..\paho.mqtt.embedded-c\MQTTClient-C\src/MQTTClient.c ****  *   http://www.eclipse.org/org/documents/edl-v10.php.
  12:..\paho.mqtt.embedded-c\MQTTClient-C\src/MQTTClient.c ****  *
  13:..\paho.mqtt.embedded-c\MQTTClient-C\src/MQTTClient.c ****  * Contributors:
  14:..\paho.mqtt.embedded-c\MQTTClient-C\src/MQTTClient.c ****  *   Allan Stockdill-Mander/Ian Craggs - initial API and implementation and/or initial documentatio
  15:..\paho.mqtt.embedded-c\MQTTClient-C\src/MQTTClient.c ****  *   Ian Craggs - fix for #96 - check rem_len in readPacket
  16:..\paho.mqtt.embedded-c\MQTTClient-C\src/MQTTClient.c ****  *   Ian Craggs - add ability to set message handler separately #6
  17:..\paho.mqtt.embedded-c\MQTTClient-C\src/MQTTClient.c ****  *******************************************************************************/
  18:..\paho.mqtt.embedded-c\MQTTClient-C\src/MQTTClient.c **** #include "MQTTClient.h"
  19:..\paho.mqtt.embedded-c\MQTTClient-C\src/MQTTClient.c **** 
  20:..\paho.mqtt.embedded-c\MQTTClient-C\src/MQTTClient.c **** #include <stdio.h>
  21:..\paho.mqtt.embedded-c\MQTTClient-C\src/MQTTClient.c **** #include <string.h>
  22:..\paho.mqtt.embedded-c\MQTTClient-C\src/MQTTClient.c **** 
  23:..\paho.mqtt.embedded-c\MQTTClient-C\src/MQTTClient.c **** static void NewMessageData(MessageData* md, MQTTString* aTopicName, MQTTMessage* aMessage) {
  27              		.loc 1 23 0
  28              		.cfi_startproc
  29              		@ args = 0, pretend = 0, frame = 0
  30              		@ frame_needed = 0, uses_anonymous_args = 0
  31              		@ link register save eliminated.
  32              	.LVL0:
  24:..\paho.mqtt.embedded-c\MQTTClient-C\src/MQTTClient.c ****     md->topicName = aTopicName;
  33              		.loc 1 24 0
ARM GAS  C:\Users\samue\AppData\Local\Temp\ccYWUiYX.s 			page 2


  34 0000 4160     		str	r1, [r0, #4]
  25:..\paho.mqtt.embedded-c\MQTTClient-C\src/MQTTClient.c ****     md->message = aMessage;
  35              		.loc 1 25 0
  36 0002 0260     		str	r2, [r0]
  37 0004 7047     		bx	lr
  38              		.cfi_endproc
  39              	.LFE69:
  40              		.size	NewMessageData, .-NewMessageData
  41 0006 00BF     		.section	.text.getNextPacketId,"ax",%progbits
  42              		.align	2
  43              		.thumb
  44              		.thumb_func
  45              		.type	getNextPacketId, %function
  46              	getNextPacketId:
  47              	.LFB70:
  26:..\paho.mqtt.embedded-c\MQTTClient-C\src/MQTTClient.c **** }
  27:..\paho.mqtt.embedded-c\MQTTClient-C\src/MQTTClient.c **** 
  28:..\paho.mqtt.embedded-c\MQTTClient-C\src/MQTTClient.c **** 
  29:..\paho.mqtt.embedded-c\MQTTClient-C\src/MQTTClient.c **** static int getNextPacketId(MQTTClient *c) {
  48              		.loc 1 29 0
  49              		.cfi_startproc
  50              		@ args = 0, pretend = 0, frame = 0
  51              		@ frame_needed = 0, uses_anonymous_args = 0
  52              		@ link register save eliminated.
  53              	.LVL1:
  30:..\paho.mqtt.embedded-c\MQTTClient-C\src/MQTTClient.c ****     return c->next_packetid = (c->next_packetid == MAX_PACKET_ID) ? 1 : c->next_packetid + 1;
  54              		.loc 1 30 0
  55 0000 0368     		ldr	r3, [r0]
  56 0002 4FF6FF72 		movw	r2, #65535
  57 0006 9342     		cmp	r3, r2
  58 0008 01D0     		beq	.L4
  59              		.loc 1 30 0 is_stmt 0 discriminator 1
  60 000a 0133     		adds	r3, r3, #1
  61 000c 00E0     		b	.L3
  62              	.L4:
  63              		.loc 1 30 0
  64 000e 0123     		movs	r3, #1
  65              	.L3:
  66              		.loc 1 30 0 discriminator 4
  67 0010 0360     		str	r3, [r0]
  31:..\paho.mqtt.embedded-c\MQTTClient-C\src/MQTTClient.c **** }
  68              		.loc 1 31 0 is_stmt 1 discriminator 4
  69 0012 1846     		mov	r0, r3
  70              	.LVL2:
  71 0014 7047     		bx	lr
  72              		.cfi_endproc
  73              	.LFE70:
  74              		.size	getNextPacketId, .-getNextPacketId
  75 0016 00BF     		.section	.text.decodePacket,"ax",%progbits
  76              		.align	2
  77              		.thumb
  78              		.thumb_func
  79              		.type	decodePacket, %function
  80              	decodePacket:
  81              	.LFB73:
  32:..\paho.mqtt.embedded-c\MQTTClient-C\src/MQTTClient.c **** 
  33:..\paho.mqtt.embedded-c\MQTTClient-C\src/MQTTClient.c **** 
ARM GAS  C:\Users\samue\AppData\Local\Temp\ccYWUiYX.s 			page 3


  34:..\paho.mqtt.embedded-c\MQTTClient-C\src/MQTTClient.c **** static int sendPacket(MQTTClient* c, int length, Timer* timer)
  35:..\paho.mqtt.embedded-c\MQTTClient-C\src/MQTTClient.c **** {
  36:..\paho.mqtt.embedded-c\MQTTClient-C\src/MQTTClient.c ****     int rc = FAILURE,
  37:..\paho.mqtt.embedded-c\MQTTClient-C\src/MQTTClient.c ****         sent = 0;
  38:..\paho.mqtt.embedded-c\MQTTClient-C\src/MQTTClient.c **** 
  39:..\paho.mqtt.embedded-c\MQTTClient-C\src/MQTTClient.c ****     while (sent < length && !TimerIsExpired(timer))
  40:..\paho.mqtt.embedded-c\MQTTClient-C\src/MQTTClient.c ****     {
  41:..\paho.mqtt.embedded-c\MQTTClient-C\src/MQTTClient.c ****         rc = c->ipstack->mqttwrite(c->ipstack, &c->buf[sent], length, TimerLeftMS(timer));
  42:..\paho.mqtt.embedded-c\MQTTClient-C\src/MQTTClient.c ****         if (rc < 0)  // there was an error writing the data
  43:..\paho.mqtt.embedded-c\MQTTClient-C\src/MQTTClient.c ****             break;
  44:..\paho.mqtt.embedded-c\MQTTClient-C\src/MQTTClient.c ****         sent += rc;
  45:..\paho.mqtt.embedded-c\MQTTClient-C\src/MQTTClient.c ****     }
  46:..\paho.mqtt.embedded-c\MQTTClient-C\src/MQTTClient.c ****     if (sent == length)
  47:..\paho.mqtt.embedded-c\MQTTClient-C\src/MQTTClient.c ****     {
  48:..\paho.mqtt.embedded-c\MQTTClient-C\src/MQTTClient.c ****         TimerCountdown(&c->last_sent, c->keepAliveInterval); // record the fact that we have succes
  49:..\paho.mqtt.embedded-c\MQTTClient-C\src/MQTTClient.c ****         rc = SUCCESS;
  50:..\paho.mqtt.embedded-c\MQTTClient-C\src/MQTTClient.c ****     }
  51:..\paho.mqtt.embedded-c\MQTTClient-C\src/MQTTClient.c ****     else
  52:..\paho.mqtt.embedded-c\MQTTClient-C\src/MQTTClient.c ****         rc = FAILURE;
  53:..\paho.mqtt.embedded-c\MQTTClient-C\src/MQTTClient.c ****     return rc;
  54:..\paho.mqtt.embedded-c\MQTTClient-C\src/MQTTClient.c **** }
  55:..\paho.mqtt.embedded-c\MQTTClient-C\src/MQTTClient.c **** 
  56:..\paho.mqtt.embedded-c\MQTTClient-C\src/MQTTClient.c **** 
  57:..\paho.mqtt.embedded-c\MQTTClient-C\src/MQTTClient.c **** void MQTTClientInit(MQTTClient* c, Network* network, unsigned int command_timeout_ms,
  58:..\paho.mqtt.embedded-c\MQTTClient-C\src/MQTTClient.c **** 		unsigned char* sendbuf, size_t sendbuf_size, unsigned char* readbuf, size_t readbuf_size)
  59:..\paho.mqtt.embedded-c\MQTTClient-C\src/MQTTClient.c **** {
  60:..\paho.mqtt.embedded-c\MQTTClient-C\src/MQTTClient.c ****     int i;
  61:..\paho.mqtt.embedded-c\MQTTClient-C\src/MQTTClient.c ****     c->ipstack = network;
  62:..\paho.mqtt.embedded-c\MQTTClient-C\src/MQTTClient.c **** 
  63:..\paho.mqtt.embedded-c\MQTTClient-C\src/MQTTClient.c ****     for (i = 0; i < MAX_MESSAGE_HANDLERS; ++i)
  64:..\paho.mqtt.embedded-c\MQTTClient-C\src/MQTTClient.c ****         c->messageHandlers[i].topicFilter = 0;
  65:..\paho.mqtt.embedded-c\MQTTClient-C\src/MQTTClient.c ****     c->command_timeout_ms = command_timeout_ms;
  66:..\paho.mqtt.embedded-c\MQTTClient-C\src/MQTTClient.c ****     c->buf = sendbuf;
  67:..\paho.mqtt.embedded-c\MQTTClient-C\src/MQTTClient.c ****     c->buf_size = sendbuf_size;
  68:..\paho.mqtt.embedded-c\MQTTClient-C\src/MQTTClient.c ****     c->readbuf = readbuf;
  69:..\paho.mqtt.embedded-c\MQTTClient-C\src/MQTTClient.c ****     c->readbuf_size = readbuf_size;
  70:..\paho.mqtt.embedded-c\MQTTClient-C\src/MQTTClient.c ****     c->isconnected = 0;
  71:..\paho.mqtt.embedded-c\MQTTClient-C\src/MQTTClient.c ****     c->cleansession = 0;
  72:..\paho.mqtt.embedded-c\MQTTClient-C\src/MQTTClient.c ****     c->ping_outstanding = 0;
  73:..\paho.mqtt.embedded-c\MQTTClient-C\src/MQTTClient.c ****     c->defaultMessageHandler = NULL;
  74:..\paho.mqtt.embedded-c\MQTTClient-C\src/MQTTClient.c **** 	  c->next_packetid = 1;
  75:..\paho.mqtt.embedded-c\MQTTClient-C\src/MQTTClient.c ****     TimerInit(&c->last_sent);
  76:..\paho.mqtt.embedded-c\MQTTClient-C\src/MQTTClient.c ****     TimerInit(&c->last_received);
  77:..\paho.mqtt.embedded-c\MQTTClient-C\src/MQTTClient.c **** #if defined(MQTT_TASK)
  78:..\paho.mqtt.embedded-c\MQTTClient-C\src/MQTTClient.c **** 	  MutexInit(&c->mutex);
  79:..\paho.mqtt.embedded-c\MQTTClient-C\src/MQTTClient.c **** #endif
  80:..\paho.mqtt.embedded-c\MQTTClient-C\src/MQTTClient.c **** }
  81:..\paho.mqtt.embedded-c\MQTTClient-C\src/MQTTClient.c **** 
  82:..\paho.mqtt.embedded-c\MQTTClient-C\src/MQTTClient.c **** 
  83:..\paho.mqtt.embedded-c\MQTTClient-C\src/MQTTClient.c **** static int decodePacket(MQTTClient* c, int* value, int timeout)
  84:..\paho.mqtt.embedded-c\MQTTClient-C\src/MQTTClient.c **** {
  82              		.loc 1 84 0
  83              		.cfi_startproc
  84              		@ args = 0, pretend = 0, frame = 8
  85              		@ frame_needed = 0, uses_anonymous_args = 0
  86              	.LVL3:
  87 0000 2DE9F043 		push	{r4, r5, r6, r7, r8, r9, lr}
ARM GAS  C:\Users\samue\AppData\Local\Temp\ccYWUiYX.s 			page 4


  88              		.cfi_def_cfa_offset 28
  89              		.cfi_offset 4, -28
  90              		.cfi_offset 5, -24
  91              		.cfi_offset 6, -20
  92              		.cfi_offset 7, -16
  93              		.cfi_offset 8, -12
  94              		.cfi_offset 9, -8
  95              		.cfi_offset 14, -4
  96 0004 83B0     		sub	sp, sp, #12
  97              		.cfi_def_cfa_offset 40
  98 0006 8046     		mov	r8, r0
  99 0008 0E46     		mov	r6, r1
 100 000a 9146     		mov	r9, r2
 101              	.LVL4:
  85:..\paho.mqtt.embedded-c\MQTTClient-C\src/MQTTClient.c ****     unsigned char i;
  86:..\paho.mqtt.embedded-c\MQTTClient-C\src/MQTTClient.c ****     int multiplier = 1;
  87:..\paho.mqtt.embedded-c\MQTTClient-C\src/MQTTClient.c ****     int len = 0;
  88:..\paho.mqtt.embedded-c\MQTTClient-C\src/MQTTClient.c ****     const int MAX_NO_OF_REMAINING_LENGTH_BYTES = 4;
  89:..\paho.mqtt.embedded-c\MQTTClient-C\src/MQTTClient.c **** 
  90:..\paho.mqtt.embedded-c\MQTTClient-C\src/MQTTClient.c ****     *value = 0;
 102              		.loc 1 90 0
 103 000c 0024     		movs	r4, #0
 104 000e 0C60     		str	r4, [r1]
  86:..\paho.mqtt.embedded-c\MQTTClient-C\src/MQTTClient.c ****     int len = 0;
 105              		.loc 1 86 0
 106 0010 0125     		movs	r5, #1
 107              	.LVL5:
 108              	.L7:
 109              	.LBB2:
  91:..\paho.mqtt.embedded-c\MQTTClient-C\src/MQTTClient.c ****     do
  92:..\paho.mqtt.embedded-c\MQTTClient-C\src/MQTTClient.c ****     {
  93:..\paho.mqtt.embedded-c\MQTTClient-C\src/MQTTClient.c ****         int rc = MQTTPACKET_READ_ERROR;
  94:..\paho.mqtt.embedded-c\MQTTClient-C\src/MQTTClient.c **** 
  95:..\paho.mqtt.embedded-c\MQTTClient-C\src/MQTTClient.c ****         if (++len > MAX_NO_OF_REMAINING_LENGTH_BYTES)
 110              		.loc 1 95 0
 111 0012 0134     		adds	r4, r4, #1
 112              	.LVL6:
 113 0014 042C     		cmp	r4, #4
 114 0016 16DC     		bgt	.L6
  96:..\paho.mqtt.embedded-c\MQTTClient-C\src/MQTTClient.c ****         {
  97:..\paho.mqtt.embedded-c\MQTTClient-C\src/MQTTClient.c ****             rc = MQTTPACKET_READ_ERROR; /* bad data */
  98:..\paho.mqtt.embedded-c\MQTTClient-C\src/MQTTClient.c ****             goto exit;
  99:..\paho.mqtt.embedded-c\MQTTClient-C\src/MQTTClient.c ****         }
 100:..\paho.mqtt.embedded-c\MQTTClient-C\src/MQTTClient.c ****         rc = c->ipstack->mqttread(c->ipstack, &i, 1, timeout);
 115              		.loc 1 100 0
 116 0018 D8F85400 		ldr	r0, [r8, #84]
 117 001c C768     		ldr	r7, [r0, #12]
 118 001e 4B46     		mov	r3, r9
 119 0020 0122     		movs	r2, #1
 120 0022 0DF10701 		add	r1, sp, #7
 121 0026 B847     		blx	r7
 122              	.LVL7:
 101:..\paho.mqtt.embedded-c\MQTTClient-C\src/MQTTClient.c ****         if (rc != 1)
 123              		.loc 1 101 0
 124 0028 0128     		cmp	r0, #1
 125 002a 0CD1     		bne	.L6
 102:..\paho.mqtt.embedded-c\MQTTClient-C\src/MQTTClient.c ****             goto exit;
ARM GAS  C:\Users\samue\AppData\Local\Temp\ccYWUiYX.s 			page 5


 103:..\paho.mqtt.embedded-c\MQTTClient-C\src/MQTTClient.c ****         *value += (i & 127) * multiplier;
 126              		.loc 1 103 0
 127 002c 9DF80730 		ldrb	r3, [sp, #7]	@ zero_extendqisi2
 128 0030 03F07F03 		and	r3, r3, #127
 129 0034 3268     		ldr	r2, [r6]
 130 0036 03FB0523 		mla	r3, r3, r5, r2
 131 003a 3360     		str	r3, [r6]
 104:..\paho.mqtt.embedded-c\MQTTClient-C\src/MQTTClient.c ****         multiplier *= 128;
 132              		.loc 1 104 0
 133 003c ED01     		lsls	r5, r5, #7
 134              	.LVL8:
 135              	.LBE2:
 105:..\paho.mqtt.embedded-c\MQTTClient-C\src/MQTTClient.c ****     } while ((i & 128) != 0);
 136              		.loc 1 105 0
 137 003e 9DF90730 		ldrsb	r3, [sp, #7]
 138 0042 002B     		cmp	r3, #0
 139 0044 E5DB     		blt	.L7
 140              	.LVL9:
 141              	.L6:
 106:..\paho.mqtt.embedded-c\MQTTClient-C\src/MQTTClient.c **** exit:
 107:..\paho.mqtt.embedded-c\MQTTClient-C\src/MQTTClient.c ****     return len;
 108:..\paho.mqtt.embedded-c\MQTTClient-C\src/MQTTClient.c **** }
 142              		.loc 1 108 0
 143 0046 2046     		mov	r0, r4
 144 0048 03B0     		add	sp, sp, #12
 145              		.cfi_def_cfa_offset 28
 146              		@ sp needed
 147 004a BDE8F083 		pop	{r4, r5, r6, r7, r8, r9, pc}
 148              		.cfi_endproc
 149              	.LFE73:
 150              		.size	decodePacket, .-decodePacket
 151 004e 00BF     		.section	.text.isTopicMatched,"ax",%progbits
 152              		.align	2
 153              		.thumb
 154              		.thumb_func
 155              		.type	isTopicMatched, %function
 156              	isTopicMatched:
 157              	.LFB75:
 109:..\paho.mqtt.embedded-c\MQTTClient-C\src/MQTTClient.c **** 
 110:..\paho.mqtt.embedded-c\MQTTClient-C\src/MQTTClient.c **** 
 111:..\paho.mqtt.embedded-c\MQTTClient-C\src/MQTTClient.c **** static int readPacket(MQTTClient* c, Timer* timer)
 112:..\paho.mqtt.embedded-c\MQTTClient-C\src/MQTTClient.c **** {
 113:..\paho.mqtt.embedded-c\MQTTClient-C\src/MQTTClient.c ****     MQTTHeader header = {0};
 114:..\paho.mqtt.embedded-c\MQTTClient-C\src/MQTTClient.c ****     int len = 0;
 115:..\paho.mqtt.embedded-c\MQTTClient-C\src/MQTTClient.c ****     int rem_len = 0;
 116:..\paho.mqtt.embedded-c\MQTTClient-C\src/MQTTClient.c **** 
 117:..\paho.mqtt.embedded-c\MQTTClient-C\src/MQTTClient.c ****     /* 1. read the header byte.  This has the packet type in it */
 118:..\paho.mqtt.embedded-c\MQTTClient-C\src/MQTTClient.c ****     int rc = c->ipstack->mqttread(c->ipstack, c->readbuf, 1, TimerLeftMS(timer));
 119:..\paho.mqtt.embedded-c\MQTTClient-C\src/MQTTClient.c ****     if (rc != 1)
 120:..\paho.mqtt.embedded-c\MQTTClient-C\src/MQTTClient.c ****         goto exit;
 121:..\paho.mqtt.embedded-c\MQTTClient-C\src/MQTTClient.c **** 
 122:..\paho.mqtt.embedded-c\MQTTClient-C\src/MQTTClient.c ****     len = 1;
 123:..\paho.mqtt.embedded-c\MQTTClient-C\src/MQTTClient.c ****     /* 2. read the remaining length.  This is variable in itself */
 124:..\paho.mqtt.embedded-c\MQTTClient-C\src/MQTTClient.c ****     decodePacket(c, &rem_len, TimerLeftMS(timer));
 125:..\paho.mqtt.embedded-c\MQTTClient-C\src/MQTTClient.c ****     len += MQTTPacket_encode(c->readbuf + 1, rem_len); /* put the original remaining length back in
 126:..\paho.mqtt.embedded-c\MQTTClient-C\src/MQTTClient.c **** 
 127:..\paho.mqtt.embedded-c\MQTTClient-C\src/MQTTClient.c ****     if (rem_len > (c->readbuf_size - len))
ARM GAS  C:\Users\samue\AppData\Local\Temp\ccYWUiYX.s 			page 6


 128:..\paho.mqtt.embedded-c\MQTTClient-C\src/MQTTClient.c ****     {
 129:..\paho.mqtt.embedded-c\MQTTClient-C\src/MQTTClient.c ****         rc = BUFFER_OVERFLOW;
 130:..\paho.mqtt.embedded-c\MQTTClient-C\src/MQTTClient.c ****         goto exit;
 131:..\paho.mqtt.embedded-c\MQTTClient-C\src/MQTTClient.c ****     }
 132:..\paho.mqtt.embedded-c\MQTTClient-C\src/MQTTClient.c **** 
 133:..\paho.mqtt.embedded-c\MQTTClient-C\src/MQTTClient.c ****     /* 3. read the rest of the buffer using a callback to supply the rest of the data */
 134:..\paho.mqtt.embedded-c\MQTTClient-C\src/MQTTClient.c ****     if (rem_len > 0 && (rc = c->ipstack->mqttread(c->ipstack, c->readbuf + len, rem_len, TimerLeftM
 135:..\paho.mqtt.embedded-c\MQTTClient-C\src/MQTTClient.c ****         rc = 0;
 136:..\paho.mqtt.embedded-c\MQTTClient-C\src/MQTTClient.c ****         goto exit;
 137:..\paho.mqtt.embedded-c\MQTTClient-C\src/MQTTClient.c ****     }
 138:..\paho.mqtt.embedded-c\MQTTClient-C\src/MQTTClient.c **** 
 139:..\paho.mqtt.embedded-c\MQTTClient-C\src/MQTTClient.c ****     header.byte = c->readbuf[0];
 140:..\paho.mqtt.embedded-c\MQTTClient-C\src/MQTTClient.c ****     rc = header.bits.type;
 141:..\paho.mqtt.embedded-c\MQTTClient-C\src/MQTTClient.c ****     if (c->keepAliveInterval > 0)
 142:..\paho.mqtt.embedded-c\MQTTClient-C\src/MQTTClient.c ****         TimerCountdown(&c->last_received, c->keepAliveInterval); // record the fact that we have su
 143:..\paho.mqtt.embedded-c\MQTTClient-C\src/MQTTClient.c **** exit:
 144:..\paho.mqtt.embedded-c\MQTTClient-C\src/MQTTClient.c ****     return rc;
 145:..\paho.mqtt.embedded-c\MQTTClient-C\src/MQTTClient.c **** }
 146:..\paho.mqtt.embedded-c\MQTTClient-C\src/MQTTClient.c **** 
 147:..\paho.mqtt.embedded-c\MQTTClient-C\src/MQTTClient.c **** 
 148:..\paho.mqtt.embedded-c\MQTTClient-C\src/MQTTClient.c **** // assume topic filter and name is in correct format
 149:..\paho.mqtt.embedded-c\MQTTClient-C\src/MQTTClient.c **** // # can only be at end
 150:..\paho.mqtt.embedded-c\MQTTClient-C\src/MQTTClient.c **** // + and # can only be next to separator
 151:..\paho.mqtt.embedded-c\MQTTClient-C\src/MQTTClient.c **** static char isTopicMatched(char* topicFilter, MQTTString* topicName)
 152:..\paho.mqtt.embedded-c\MQTTClient-C\src/MQTTClient.c **** {
 158              		.loc 1 152 0
 159              		.cfi_startproc
 160              		@ args = 0, pretend = 0, frame = 0
 161              		@ frame_needed = 0, uses_anonymous_args = 0
 162              		@ link register save eliminated.
 163              	.LVL10:
 164 0000 10B4     		push	{r4}
 165              		.cfi_def_cfa_offset 4
 166              		.cfi_offset 4, -4
 167              	.LVL11:
 153:..\paho.mqtt.embedded-c\MQTTClient-C\src/MQTTClient.c ****     char* curf = topicFilter;
 154:..\paho.mqtt.embedded-c\MQTTClient-C\src/MQTTClient.c ****     char* curn = topicName->lenstring.data;
 168              		.loc 1 154 0
 169 0002 8B68     		ldr	r3, [r1, #8]
 170              	.LVL12:
 155:..\paho.mqtt.embedded-c\MQTTClient-C\src/MQTTClient.c ****     char* curn_end = curn + topicName->lenstring.len;
 171              		.loc 1 155 0
 172 0004 4968     		ldr	r1, [r1, #4]
 173              	.LVL13:
 174 0006 1944     		add	r1, r1, r3
 175              	.LVL14:
 156:..\paho.mqtt.embedded-c\MQTTClient-C\src/MQTTClient.c **** 
 157:..\paho.mqtt.embedded-c\MQTTClient-C\src/MQTTClient.c ****     while (*curf && curn < curn_end)
 176              		.loc 1 157 0
 177 0008 1BE0     		b	.L10
 178              	.LVL15:
 179              	.L18:
 158:..\paho.mqtt.embedded-c\MQTTClient-C\src/MQTTClient.c ****     {
 159:..\paho.mqtt.embedded-c\MQTTClient-C\src/MQTTClient.c ****         if (*curn == '/' && *curf != '/')
 180              		.loc 1 159 0
 181 000a 1C78     		ldrb	r4, [r3]	@ zero_extendqisi2
 182 000c 2F2C     		cmp	r4, #47
ARM GAS  C:\Users\samue\AppData\Local\Temp\ccYWUiYX.s 			page 7


 183 000e 01D1     		bne	.L11
 184              		.loc 1 159 0 is_stmt 0 discriminator 1
 185 0010 2F2A     		cmp	r2, #47
 186 0012 1AD1     		bne	.L12
 187              	.L11:
 160:..\paho.mqtt.embedded-c\MQTTClient-C\src/MQTTClient.c ****             break;
 161:..\paho.mqtt.embedded-c\MQTTClient-C\src/MQTTClient.c ****         if (*curf != '+' && *curf != '#' && *curf != *curn)
 188              		.loc 1 161 0 is_stmt 1
 189 0014 2B2A     		cmp	r2, #43
 190 0016 03D0     		beq	.L13
 191              		.loc 1 161 0 is_stmt 0 discriminator 1
 192 0018 232A     		cmp	r2, #35
 193 001a 01D0     		beq	.L13
 194              		.loc 1 161 0 discriminator 2
 195 001c A242     		cmp	r2, r4
 196 001e 14D1     		bne	.L12
 197              	.L13:
 162:..\paho.mqtt.embedded-c\MQTTClient-C\src/MQTTClient.c ****             break;
 163:..\paho.mqtt.embedded-c\MQTTClient-C\src/MQTTClient.c ****         if (*curf == '+')
 198              		.loc 1 163 0 is_stmt 1
 199 0020 2B2A     		cmp	r2, #43
 200 0022 09D1     		bne	.L14
 201              	.LBB3:
 164:..\paho.mqtt.embedded-c\MQTTClient-C\src/MQTTClient.c ****         {   // skip until we meet the next separator, or end of string
 165:..\paho.mqtt.embedded-c\MQTTClient-C\src/MQTTClient.c ****             char* nextpos = curn + 1;
 202              		.loc 1 165 0
 203 0024 5A1C     		adds	r2, r3, #1
 204              	.LVL16:
 166:..\paho.mqtt.embedded-c\MQTTClient-C\src/MQTTClient.c ****             while (nextpos < curn_end && *nextpos != '/')
 205              		.loc 1 166 0
 206 0026 01E0     		b	.L15
 207              	.LVL17:
 208              	.L17:
 167:..\paho.mqtt.embedded-c\MQTTClient-C\src/MQTTClient.c ****                 nextpos = ++curn + 1;
 209              		.loc 1 167 0
 210 0028 0133     		adds	r3, r3, #1
 211              	.LVL18:
 212 002a 5A1C     		adds	r2, r3, #1
 213              	.LVL19:
 214              	.L15:
 166:..\paho.mqtt.embedded-c\MQTTClient-C\src/MQTTClient.c ****             while (nextpos < curn_end && *nextpos != '/')
 215              		.loc 1 166 0
 216 002c 8A42     		cmp	r2, r1
 217 002e 06D2     		bcs	.L16
 166:..\paho.mqtt.embedded-c\MQTTClient-C\src/MQTTClient.c ****             while (nextpos < curn_end && *nextpos != '/')
 218              		.loc 1 166 0 is_stmt 0 discriminator 1
 219 0030 1278     		ldrb	r2, [r2]	@ zero_extendqisi2
 220              	.LVL20:
 221 0032 2F2A     		cmp	r2, #47
 222 0034 F8D1     		bne	.L17
 223 0036 02E0     		b	.L16
 224              	.L14:
 225              	.LBE3:
 168:..\paho.mqtt.embedded-c\MQTTClient-C\src/MQTTClient.c ****         }
 169:..\paho.mqtt.embedded-c\MQTTClient-C\src/MQTTClient.c ****         else if (*curf == '#')
 226              		.loc 1 169 0 is_stmt 1
 227 0038 232A     		cmp	r2, #35
ARM GAS  C:\Users\samue\AppData\Local\Temp\ccYWUiYX.s 			page 8


 228 003a 00D1     		bne	.L16
 170:..\paho.mqtt.embedded-c\MQTTClient-C\src/MQTTClient.c ****             curn = curn_end - 1;    // skip until end of string
 229              		.loc 1 170 0
 230 003c 4B1E     		subs	r3, r1, #1
 231              	.LVL21:
 232              	.L16:
 171:..\paho.mqtt.embedded-c\MQTTClient-C\src/MQTTClient.c ****         curf++;
 233              		.loc 1 171 0
 234 003e 0130     		adds	r0, r0, #1
 235              	.LVL22:
 172:..\paho.mqtt.embedded-c\MQTTClient-C\src/MQTTClient.c ****         curn++;
 236              		.loc 1 172 0
 237 0040 0133     		adds	r3, r3, #1
 238              	.LVL23:
 239              	.L10:
 157:..\paho.mqtt.embedded-c\MQTTClient-C\src/MQTTClient.c ****     {
 240              		.loc 1 157 0
 241 0042 0278     		ldrb	r2, [r0]	@ zero_extendqisi2
 242 0044 0AB1     		cbz	r2, .L12
 157:..\paho.mqtt.embedded-c\MQTTClient-C\src/MQTTClient.c ****     {
 243              		.loc 1 157 0 is_stmt 0 discriminator 1
 244 0046 8B42     		cmp	r3, r1
 245 0048 DFD3     		bcc	.L18
 246              	.L12:
 173:..\paho.mqtt.embedded-c\MQTTClient-C\src/MQTTClient.c ****     };
 174:..\paho.mqtt.embedded-c\MQTTClient-C\src/MQTTClient.c **** 
 175:..\paho.mqtt.embedded-c\MQTTClient-C\src/MQTTClient.c ****     return (curn == curn_end) && (*curf == '\0');
 247              		.loc 1 175 0 is_stmt 1
 248 004a 8B42     		cmp	r3, r1
 249 004c 02D1     		bne	.L20
 250              		.loc 1 175 0 is_stmt 0 discriminator 1
 251 004e 1AB1     		cbz	r2, .L21
 252              		.loc 1 175 0
 253 0050 0020     		movs	r0, #0
 254              	.LVL24:
 255 0052 02E0     		b	.L19
 256              	.LVL25:
 257              	.L20:
 258 0054 0020     		movs	r0, #0
 259              	.LVL26:
 260 0056 00E0     		b	.L19
 261              	.LVL27:
 262              	.L21:
 263 0058 0120     		movs	r0, #1
 264              	.LVL28:
 265              	.L19:
 176:..\paho.mqtt.embedded-c\MQTTClient-C\src/MQTTClient.c **** }
 266              		.loc 1 176 0 is_stmt 1 discriminator 6
 267 005a 10BC     		pop	{r4}
 268              		.cfi_restore 4
 269              		.cfi_def_cfa_offset 0
 270 005c 7047     		bx	lr
 271              		.cfi_endproc
 272              	.LFE75:
 273              		.size	isTopicMatched, .-isTopicMatched
 274 005e 00BF     		.section	.text.sendPacket,"ax",%progbits
 275              		.align	2
ARM GAS  C:\Users\samue\AppData\Local\Temp\ccYWUiYX.s 			page 9


 276              		.thumb
 277              		.thumb_func
 278              		.type	sendPacket, %function
 279              	sendPacket:
 280              	.LFB71:
  35:..\paho.mqtt.embedded-c\MQTTClient-C\src/MQTTClient.c ****     int rc = FAILURE,
 281              		.loc 1 35 0
 282              		.cfi_startproc
 283              		@ args = 0, pretend = 0, frame = 0
 284              		@ frame_needed = 0, uses_anonymous_args = 0
 285              	.LVL29:
 286 0000 2DE9F047 		push	{r4, r5, r6, r7, r8, r9, r10, lr}
 287              		.cfi_def_cfa_offset 32
 288              		.cfi_offset 4, -32
 289              		.cfi_offset 5, -28
 290              		.cfi_offset 6, -24
 291              		.cfi_offset 7, -20
 292              		.cfi_offset 8, -16
 293              		.cfi_offset 9, -12
 294              		.cfi_offset 10, -8
 295              		.cfi_offset 14, -4
 296 0004 8046     		mov	r8, r0
 297 0006 0F46     		mov	r7, r1
 298 0008 9146     		mov	r9, r2
 299              	.LVL30:
  37:..\paho.mqtt.embedded-c\MQTTClient-C\src/MQTTClient.c **** 
 300              		.loc 1 37 0
 301 000a 0024     		movs	r4, #0
  39:..\paho.mqtt.embedded-c\MQTTClient-C\src/MQTTClient.c ****     {
 302              		.loc 1 39 0
 303 000c 11E0     		b	.L24
 304              	.LVL31:
 305              	.L26:
  41:..\paho.mqtt.embedded-c\MQTTClient-C\src/MQTTClient.c ****         if (rc < 0)  // there was an error writing the data
 306              		.loc 1 41 0
 307 000e D8F85460 		ldr	r6, [r8, #84]
 308 0012 D6F810A0 		ldr	r10, [r6, #16]
 309 0016 D8F81050 		ldr	r5, [r8, #16]
 310 001a 2544     		add	r5, r5, r4
 311 001c 4846     		mov	r0, r9
 312 001e FFF7FEFF 		bl	TimerLeftMS
 313              	.LVL32:
 314 0022 0346     		mov	r3, r0
 315 0024 3A46     		mov	r2, r7
 316 0026 2946     		mov	r1, r5
 317 0028 3046     		mov	r0, r6
 318 002a D047     		blx	r10
 319              	.LVL33:
  42:..\paho.mqtt.embedded-c\MQTTClient-C\src/MQTTClient.c ****             break;
 320              		.loc 1 42 0
 321 002c 0028     		cmp	r0, #0
 322 002e 07DB     		blt	.L25
  44:..\paho.mqtt.embedded-c\MQTTClient-C\src/MQTTClient.c ****     }
 323              		.loc 1 44 0
 324 0030 0444     		add	r4, r4, r0
 325              	.LVL34:
 326              	.L24:
ARM GAS  C:\Users\samue\AppData\Local\Temp\ccYWUiYX.s 			page 10


  39:..\paho.mqtt.embedded-c\MQTTClient-C\src/MQTTClient.c ****     {
 327              		.loc 1 39 0
 328 0032 BC42     		cmp	r4, r7
 329 0034 04DA     		bge	.L25
  39:..\paho.mqtt.embedded-c\MQTTClient-C\src/MQTTClient.c ****     {
 330              		.loc 1 39 0 is_stmt 0 discriminator 1
 331 0036 4846     		mov	r0, r9
 332 0038 FFF7FEFF 		bl	TimerIsExpired
 333              	.LVL35:
 334 003c 0028     		cmp	r0, #0
 335 003e E6D0     		beq	.L26
 336              	.L25:
  46:..\paho.mqtt.embedded-c\MQTTClient-C\src/MQTTClient.c ****     {
 337              		.loc 1 46 0 is_stmt 1
 338 0040 BC42     		cmp	r4, r7
 339 0042 08D1     		bne	.L28
  48:..\paho.mqtt.embedded-c\MQTTClient-C\src/MQTTClient.c ****         rc = SUCCESS;
 340              		.loc 1 48 0
 341 0044 D8F81810 		ldr	r1, [r8, #24]
 342 0048 08F15800 		add	r0, r8, #88
 343 004c FFF7FEFF 		bl	TimerCountdown
 344              	.LVL36:
  49:..\paho.mqtt.embedded-c\MQTTClient-C\src/MQTTClient.c ****     }
 345              		.loc 1 49 0
 346 0050 0020     		movs	r0, #0
 347 0052 BDE8F087 		pop	{r4, r5, r6, r7, r8, r9, r10, pc}
 348              	.LVL37:
 349              	.L28:
  52:..\paho.mqtt.embedded-c\MQTTClient-C\src/MQTTClient.c ****     return rc;
 350              		.loc 1 52 0
 351 0056 4FF0FF30 		mov	r0, #-1
 352              	.LVL38:
  54:..\paho.mqtt.embedded-c\MQTTClient-C\src/MQTTClient.c **** 
 353              		.loc 1 54 0
 354 005a BDE8F087 		pop	{r4, r5, r6, r7, r8, r9, r10, pc}
 355              		.cfi_endproc
 356              	.LFE71:
 357              		.size	sendPacket, .-sendPacket
 358 005e 00BF     		.section	.text.readPacket,"ax",%progbits
 359              		.align	2
 360              		.thumb
 361              		.thumb_func
 362              		.type	readPacket, %function
 363              	readPacket:
 364              	.LFB74:
 112:..\paho.mqtt.embedded-c\MQTTClient-C\src/MQTTClient.c ****     MQTTHeader header = {0};
 365              		.loc 1 112 0
 366              		.cfi_startproc
 367              		@ args = 0, pretend = 0, frame = 8
 368              		@ frame_needed = 0, uses_anonymous_args = 0
 369              	.LVL39:
 370 0000 2DE9F043 		push	{r4, r5, r6, r7, r8, r9, lr}
 371              		.cfi_def_cfa_offset 28
 372              		.cfi_offset 4, -28
 373              		.cfi_offset 5, -24
 374              		.cfi_offset 6, -20
 375              		.cfi_offset 7, -16
ARM GAS  C:\Users\samue\AppData\Local\Temp\ccYWUiYX.s 			page 11


 376              		.cfi_offset 8, -12
 377              		.cfi_offset 9, -8
 378              		.cfi_offset 14, -4
 379 0004 83B0     		sub	sp, sp, #12
 380              		.cfi_def_cfa_offset 40
 381 0006 0446     		mov	r4, r0
 382 0008 0E46     		mov	r6, r1
 383              	.LVL40:
 115:..\paho.mqtt.embedded-c\MQTTClient-C\src/MQTTClient.c **** 
 384              		.loc 1 115 0
 385 000a 0023     		movs	r3, #0
 386 000c 0193     		str	r3, [sp, #4]
 118:..\paho.mqtt.embedded-c\MQTTClient-C\src/MQTTClient.c ****     if (rc != 1)
 387              		.loc 1 118 0
 388 000e 456D     		ldr	r5, [r0, #84]
 389 0010 EF68     		ldr	r7, [r5, #12]
 390 0012 D0F81480 		ldr	r8, [r0, #20]
 391 0016 0846     		mov	r0, r1
 392              	.LVL41:
 393 0018 FFF7FEFF 		bl	TimerLeftMS
 394              	.LVL42:
 395 001c 0346     		mov	r3, r0
 396 001e 0122     		movs	r2, #1
 397 0020 4146     		mov	r1, r8
 398 0022 2846     		mov	r0, r5
 399 0024 B847     		blx	r7
 400              	.LVL43:
 401 0026 0546     		mov	r5, r0
 402              	.LVL44:
 119:..\paho.mqtt.embedded-c\MQTTClient-C\src/MQTTClient.c ****         goto exit;
 403              		.loc 1 119 0
 404 0028 0128     		cmp	r0, #1
 405 002a 33D1     		bne	.L31
 406              	.LVL45:
 124:..\paho.mqtt.embedded-c\MQTTClient-C\src/MQTTClient.c ****     len += MQTTPacket_encode(c->readbuf + 1, rem_len); /* put the original remaining length back in
 407              		.loc 1 124 0
 408 002c 3046     		mov	r0, r6
 409              	.LVL46:
 410 002e FFF7FEFF 		bl	TimerLeftMS
 411              	.LVL47:
 412 0032 0246     		mov	r2, r0
 413 0034 01A9     		add	r1, sp, #4
 414 0036 2046     		mov	r0, r4
 415 0038 FFF7FEFF 		bl	decodePacket
 416              	.LVL48:
 125:..\paho.mqtt.embedded-c\MQTTClient-C\src/MQTTClient.c **** 
 417              		.loc 1 125 0
 418 003c 6069     		ldr	r0, [r4, #20]
 419 003e 0199     		ldr	r1, [sp, #4]
 420 0040 0130     		adds	r0, r0, #1
 421 0042 FFF7FEFF 		bl	MQTTPacket_encode
 422              	.LVL49:
 423 0046 0130     		adds	r0, r0, #1
 424              	.LVL50:
 127:..\paho.mqtt.embedded-c\MQTTClient-C\src/MQTTClient.c ****     {
 425              		.loc 1 127 0
 426 0048 E368     		ldr	r3, [r4, #12]
ARM GAS  C:\Users\samue\AppData\Local\Temp\ccYWUiYX.s 			page 12


 427 004a 1B1A     		subs	r3, r3, r0
 428 004c 019F     		ldr	r7, [sp, #4]
 429 004e BB42     		cmp	r3, r7
 430 0050 1CD3     		bcc	.L33
 134:..\paho.mqtt.embedded-c\MQTTClient-C\src/MQTTClient.c ****         rc = 0;
 431              		.loc 1 134 0
 432 0052 002F     		cmp	r7, #0
 433 0054 10DD     		ble	.L32
 134:..\paho.mqtt.embedded-c\MQTTClient-C\src/MQTTClient.c ****         rc = 0;
 434              		.loc 1 134 0 is_stmt 0 discriminator 1
 435 0056 D4F85480 		ldr	r8, [r4, #84]
 436 005a D8F80C90 		ldr	r9, [r8, #12]
 437 005e 6569     		ldr	r5, [r4, #20]
 438              	.LVL51:
 439 0060 0544     		add	r5, r5, r0
 440 0062 3046     		mov	r0, r6
 441              	.LVL52:
 442 0064 FFF7FEFF 		bl	TimerLeftMS
 443              	.LVL53:
 444 0068 0346     		mov	r3, r0
 445 006a 3A46     		mov	r2, r7
 446 006c 2946     		mov	r1, r5
 447 006e 4046     		mov	r0, r8
 448 0070 C847     		blx	r9
 449              	.LVL54:
 450 0072 019B     		ldr	r3, [sp, #4]
 451              	.LVL55:
 452 0074 9842     		cmp	r0, r3
 453 0076 0CD1     		bne	.L34
 454              	.LVL56:
 455              	.L32:
 139:..\paho.mqtt.embedded-c\MQTTClient-C\src/MQTTClient.c ****     rc = header.bits.type;
 456              		.loc 1 139 0 is_stmt 1
 457 0078 6369     		ldr	r3, [r4, #20]
 458 007a 1D78     		ldrb	r5, [r3]	@ zero_extendqisi2
 140:..\paho.mqtt.embedded-c\MQTTClient-C\src/MQTTClient.c ****     if (c->keepAliveInterval > 0)
 459              		.loc 1 140 0
 460 007c 2D09     		lsrs	r5, r5, #4
 461              	.LVL57:
 141:..\paho.mqtt.embedded-c\MQTTClient-C\src/MQTTClient.c ****         TimerCountdown(&c->last_received, c->keepAliveInterval); // record the fact that we have su
 462              		.loc 1 141 0
 463 007e A169     		ldr	r1, [r4, #24]
 464 0080 41B1     		cbz	r1, .L31
 142:..\paho.mqtt.embedded-c\MQTTClient-C\src/MQTTClient.c **** exit:
 465              		.loc 1 142 0
 466 0082 04F16400 		add	r0, r4, #100
 467 0086 FFF7FEFF 		bl	TimerCountdown
 468              	.LVL58:
 469 008a 03E0     		b	.L31
 470              	.LVL59:
 471              	.L33:
 129:..\paho.mqtt.embedded-c\MQTTClient-C\src/MQTTClient.c ****         goto exit;
 472              		.loc 1 129 0
 473 008c 6FF00105 		mvn	r5, #1
 474              	.LVL60:
 475 0090 00E0     		b	.L31
 476              	.LVL61:
ARM GAS  C:\Users\samue\AppData\Local\Temp\ccYWUiYX.s 			page 13


 477              	.L34:
 135:..\paho.mqtt.embedded-c\MQTTClient-C\src/MQTTClient.c ****         goto exit;
 478              		.loc 1 135 0
 479 0092 0025     		movs	r5, #0
 480              	.LVL62:
 481              	.L31:
 145:..\paho.mqtt.embedded-c\MQTTClient-C\src/MQTTClient.c **** 
 482              		.loc 1 145 0
 483 0094 2846     		mov	r0, r5
 484 0096 03B0     		add	sp, sp, #12
 485              		.cfi_def_cfa_offset 28
 486              		@ sp needed
 487 0098 BDE8F083 		pop	{r4, r5, r6, r7, r8, r9, pc}
 488              		.cfi_endproc
 489              	.LFE74:
 490              		.size	readPacket, .-readPacket
 491              		.section	.text.MQTTClientInit,"ax",%progbits
 492              		.align	2
 493              		.global	MQTTClientInit
 494              		.thumb
 495              		.thumb_func
 496              		.type	MQTTClientInit, %function
 497              	MQTTClientInit:
 498              	.LFB72:
  59:..\paho.mqtt.embedded-c\MQTTClient-C\src/MQTTClient.c ****     int i;
 499              		.loc 1 59 0
 500              		.cfi_startproc
 501              		@ args = 12, pretend = 0, frame = 0
 502              		@ frame_needed = 0, uses_anonymous_args = 0
 503              	.LVL63:
 504 0000 38B5     		push	{r3, r4, r5, lr}
 505              		.cfi_def_cfa_offset 16
 506              		.cfi_offset 3, -16
 507              		.cfi_offset 4, -12
 508              		.cfi_offset 5, -8
 509              		.cfi_offset 14, -4
 510 0002 0446     		mov	r4, r0
  61:..\paho.mqtt.embedded-c\MQTTClient-C\src/MQTTClient.c **** 
 511              		.loc 1 61 0
 512 0004 4165     		str	r1, [r0, #84]
 513              	.LVL64:
  63:..\paho.mqtt.embedded-c\MQTTClient-C\src/MQTTClient.c ****         c->messageHandlers[i].topicFilter = 0;
 514              		.loc 1 63 0
 515 0006 0021     		movs	r1, #0
 516              	.LVL65:
 517 0008 04E0     		b	.L37
 518              	.LVL66:
 519              	.L38:
  64:..\paho.mqtt.embedded-c\MQTTClient-C\src/MQTTClient.c ****     c->command_timeout_ms = command_timeout_ms;
 520              		.loc 1 64 0 discriminator 3
 521 000a 481D     		adds	r0, r1, #5
 522 000c 0025     		movs	r5, #0
 523 000e 44F83050 		str	r5, [r4, r0, lsl #3]
  63:..\paho.mqtt.embedded-c\MQTTClient-C\src/MQTTClient.c ****         c->messageHandlers[i].topicFilter = 0;
 524              		.loc 1 63 0 discriminator 3
 525 0012 0131     		adds	r1, r1, #1
 526              	.LVL67:
ARM GAS  C:\Users\samue\AppData\Local\Temp\ccYWUiYX.s 			page 14


 527              	.L37:
  63:..\paho.mqtt.embedded-c\MQTTClient-C\src/MQTTClient.c ****         c->messageHandlers[i].topicFilter = 0;
 528              		.loc 1 63 0 is_stmt 0 discriminator 1
 529 0014 0429     		cmp	r1, #4
 530 0016 F8DD     		ble	.L38
  65:..\paho.mqtt.embedded-c\MQTTClient-C\src/MQTTClient.c ****     c->buf = sendbuf;
 531              		.loc 1 65 0 is_stmt 1
 532 0018 6260     		str	r2, [r4, #4]
  66:..\paho.mqtt.embedded-c\MQTTClient-C\src/MQTTClient.c ****     c->buf_size = sendbuf_size;
 533              		.loc 1 66 0
 534 001a 2361     		str	r3, [r4, #16]
  67:..\paho.mqtt.embedded-c\MQTTClient-C\src/MQTTClient.c ****     c->readbuf = readbuf;
 535              		.loc 1 67 0
 536 001c 049B     		ldr	r3, [sp, #16]
 537              	.LVL68:
 538 001e A360     		str	r3, [r4, #8]
  68:..\paho.mqtt.embedded-c\MQTTClient-C\src/MQTTClient.c ****     c->readbuf_size = readbuf_size;
 539              		.loc 1 68 0
 540 0020 059B     		ldr	r3, [sp, #20]
 541 0022 6361     		str	r3, [r4, #20]
  69:..\paho.mqtt.embedded-c\MQTTClient-C\src/MQTTClient.c ****     c->isconnected = 0;
 542              		.loc 1 69 0
 543 0024 069B     		ldr	r3, [sp, #24]
 544 0026 E360     		str	r3, [r4, #12]
  70:..\paho.mqtt.embedded-c\MQTTClient-C\src/MQTTClient.c ****     c->cleansession = 0;
 545              		.loc 1 70 0
 546 0028 0023     		movs	r3, #0
 547 002a 2362     		str	r3, [r4, #32]
  71:..\paho.mqtt.embedded-c\MQTTClient-C\src/MQTTClient.c ****     c->ping_outstanding = 0;
 548              		.loc 1 71 0
 549 002c 6362     		str	r3, [r4, #36]
  72:..\paho.mqtt.embedded-c\MQTTClient-C\src/MQTTClient.c ****     c->defaultMessageHandler = NULL;
 550              		.loc 1 72 0
 551 002e 2377     		strb	r3, [r4, #28]
  73:..\paho.mqtt.embedded-c\MQTTClient-C\src/MQTTClient.c **** 	  c->next_packetid = 1;
 552              		.loc 1 73 0
 553 0030 2365     		str	r3, [r4, #80]
  74:..\paho.mqtt.embedded-c\MQTTClient-C\src/MQTTClient.c ****     TimerInit(&c->last_sent);
 554              		.loc 1 74 0
 555 0032 2046     		mov	r0, r4
 556 0034 0123     		movs	r3, #1
 557 0036 40F8583B 		str	r3, [r0], #88
  75:..\paho.mqtt.embedded-c\MQTTClient-C\src/MQTTClient.c ****     TimerInit(&c->last_received);
 558              		.loc 1 75 0
 559 003a FFF7FEFF 		bl	TimerInit
 560              	.LVL69:
  76:..\paho.mqtt.embedded-c\MQTTClient-C\src/MQTTClient.c **** #if defined(MQTT_TASK)
 561              		.loc 1 76 0
 562 003e 04F16400 		add	r0, r4, #100
 563 0042 FFF7FEFF 		bl	TimerInit
 564              	.LVL70:
  78:..\paho.mqtt.embedded-c\MQTTClient-C\src/MQTTClient.c **** #endif
 565              		.loc 1 78 0
 566 0046 04F17000 		add	r0, r4, #112
 567 004a FFF7FEFF 		bl	MutexInit
 568              	.LVL71:
 569 004e 38BD     		pop	{r3, r4, r5, pc}
ARM GAS  C:\Users\samue\AppData\Local\Temp\ccYWUiYX.s 			page 15


 570              		.cfi_endproc
 571              	.LFE72:
 572              		.size	MQTTClientInit, .-MQTTClientInit
 573              		.section	.text.deliverMessage,"ax",%progbits
 574              		.align	2
 575              		.global	deliverMessage
 576              		.thumb
 577              		.thumb_func
 578              		.type	deliverMessage, %function
 579              	deliverMessage:
 580              	.LFB76:
 177:..\paho.mqtt.embedded-c\MQTTClient-C\src/MQTTClient.c **** 
 178:..\paho.mqtt.embedded-c\MQTTClient-C\src/MQTTClient.c **** 
 179:..\paho.mqtt.embedded-c\MQTTClient-C\src/MQTTClient.c **** int deliverMessage(MQTTClient* c, MQTTString* topicName, MQTTMessage* message)
 180:..\paho.mqtt.embedded-c\MQTTClient-C\src/MQTTClient.c **** {
 581              		.loc 1 180 0
 582              		.cfi_startproc
 583              		@ args = 0, pretend = 0, frame = 8
 584              		@ frame_needed = 0, uses_anonymous_args = 0
 585              	.LVL72:
 586 0000 2DE9F041 		push	{r4, r5, r6, r7, r8, lr}
 587              		.cfi_def_cfa_offset 24
 588              		.cfi_offset 4, -24
 589              		.cfi_offset 5, -20
 590              		.cfi_offset 6, -16
 591              		.cfi_offset 7, -12
 592              		.cfi_offset 8, -8
 593              		.cfi_offset 14, -4
 594 0004 82B0     		sub	sp, sp, #8
 595              		.cfi_def_cfa_offset 32
 596 0006 0546     		mov	r5, r0
 597 0008 0E46     		mov	r6, r1
 598 000a 9046     		mov	r8, r2
 599              	.LVL73:
 181:..\paho.mqtt.embedded-c\MQTTClient-C\src/MQTTClient.c ****     int i;
 182:..\paho.mqtt.embedded-c\MQTTClient-C\src/MQTTClient.c ****     int rc = FAILURE;
 600              		.loc 1 182 0
 601 000c 4FF0FF37 		mov	r7, #-1
 183:..\paho.mqtt.embedded-c\MQTTClient-C\src/MQTTClient.c **** 
 184:..\paho.mqtt.embedded-c\MQTTClient-C\src/MQTTClient.c ****     // we have to find the right message handler - indexed by topic
 185:..\paho.mqtt.embedded-c\MQTTClient-C\src/MQTTClient.c ****     for (i = 0; i < MAX_MESSAGE_HANDLERS; ++i)
 602              		.loc 1 185 0
 603 0010 0024     		movs	r4, #0
 604 0012 20E0     		b	.L41
 605              	.LVL74:
 606              	.L44:
 186:..\paho.mqtt.embedded-c\MQTTClient-C\src/MQTTClient.c ****     {
 187:..\paho.mqtt.embedded-c\MQTTClient-C\src/MQTTClient.c ****         if (c->messageHandlers[i].topicFilter != 0 && (MQTTPacket_equals(topicName, (char*)c->messa
 607              		.loc 1 187 0
 608 0014 631D     		adds	r3, r4, #5
 609 0016 55F83310 		ldr	r1, [r5, r3, lsl #3]
 610 001a D9B1     		cbz	r1, .L42
 611              		.loc 1 187 0 is_stmt 0 discriminator 1
 612 001c 3046     		mov	r0, r6
 613 001e FFF7FEFF 		bl	MQTTPacket_equals
 614              	.LVL75:
 615 0022 30B9     		cbnz	r0, .L43
ARM GAS  C:\Users\samue\AppData\Local\Temp\ccYWUiYX.s 			page 16


 188:..\paho.mqtt.embedded-c\MQTTClient-C\src/MQTTClient.c ****                 isTopicMatched((char*)c->messageHandlers[i].topicFilter, topicName)))
 616              		.loc 1 188 0 is_stmt 1 discriminator 2
 617 0024 631D     		adds	r3, r4, #5
 618 0026 3146     		mov	r1, r6
 619 0028 55F83300 		ldr	r0, [r5, r3, lsl #3]
 620 002c FFF7FEFF 		bl	isTopicMatched
 621              	.LVL76:
 187:..\paho.mqtt.embedded-c\MQTTClient-C\src/MQTTClient.c ****                 isTopicMatched((char*)c->messageHandlers[i].topicFilter, topicName)))
 622              		.loc 1 187 0 discriminator 2
 623 0030 80B1     		cbz	r0, .L42
 624              	.L43:
 189:..\paho.mqtt.embedded-c\MQTTClient-C\src/MQTTClient.c ****         {
 190:..\paho.mqtt.embedded-c\MQTTClient-C\src/MQTTClient.c ****             if (c->messageHandlers[i].fp != NULL)
 625              		.loc 1 190 0
 626 0032 631D     		adds	r3, r4, #5
 627 0034 05EBC303 		add	r3, r5, r3, lsl #3
 628 0038 5B68     		ldr	r3, [r3, #4]
 629 003a 5BB1     		cbz	r3, .L42
 630              	.LBB4:
 191:..\paho.mqtt.embedded-c\MQTTClient-C\src/MQTTClient.c ****             {
 192:..\paho.mqtt.embedded-c\MQTTClient-C\src/MQTTClient.c ****                 MessageData md;
 193:..\paho.mqtt.embedded-c\MQTTClient-C\src/MQTTClient.c ****                 NewMessageData(&md, topicName, message);
 631              		.loc 1 193 0
 632 003c 4246     		mov	r2, r8
 633 003e 3146     		mov	r1, r6
 634 0040 6846     		mov	r0, sp
 635 0042 FFF7FEFF 		bl	NewMessageData
 636              	.LVL77:
 194:..\paho.mqtt.embedded-c\MQTTClient-C\src/MQTTClient.c ****                 c->messageHandlers[i].fp(&md);
 637              		.loc 1 194 0
 638 0046 631D     		adds	r3, r4, #5
 639 0048 05EBC303 		add	r3, r5, r3, lsl #3
 640 004c 5B68     		ldr	r3, [r3, #4]
 641 004e 6846     		mov	r0, sp
 642 0050 9847     		blx	r3
 643              	.LVL78:
 195:..\paho.mqtt.embedded-c\MQTTClient-C\src/MQTTClient.c ****                 rc = SUCCESS;
 644              		.loc 1 195 0
 645 0052 0027     		movs	r7, #0
 646              	.LVL79:
 647              	.L42:
 648              	.LBE4:
 185:..\paho.mqtt.embedded-c\MQTTClient-C\src/MQTTClient.c ****     {
 649              		.loc 1 185 0 discriminator 2
 650 0054 0134     		adds	r4, r4, #1
 651              	.LVL80:
 652              	.L41:
 185:..\paho.mqtt.embedded-c\MQTTClient-C\src/MQTTClient.c ****     {
 653              		.loc 1 185 0 is_stmt 0 discriminator 1
 654 0056 042C     		cmp	r4, #4
 655 0058 DCDD     		ble	.L44
 196:..\paho.mqtt.embedded-c\MQTTClient-C\src/MQTTClient.c ****             }
 197:..\paho.mqtt.embedded-c\MQTTClient-C\src/MQTTClient.c ****         }
 198:..\paho.mqtt.embedded-c\MQTTClient-C\src/MQTTClient.c ****     }
 199:..\paho.mqtt.embedded-c\MQTTClient-C\src/MQTTClient.c **** 
 200:..\paho.mqtt.embedded-c\MQTTClient-C\src/MQTTClient.c ****     if (rc == FAILURE && c->defaultMessageHandler != NULL)
 656              		.loc 1 200 0 is_stmt 1
ARM GAS  C:\Users\samue\AppData\Local\Temp\ccYWUiYX.s 			page 17


 657 005a 57B1     		cbz	r7, .L45
 658              		.loc 1 200 0 is_stmt 0 discriminator 1
 659 005c 2B6D     		ldr	r3, [r5, #80]
 660 005e 43B1     		cbz	r3, .L45
 661              	.LBB5:
 201:..\paho.mqtt.embedded-c\MQTTClient-C\src/MQTTClient.c ****     {
 202:..\paho.mqtt.embedded-c\MQTTClient-C\src/MQTTClient.c ****         MessageData md;
 203:..\paho.mqtt.embedded-c\MQTTClient-C\src/MQTTClient.c ****         NewMessageData(&md, topicName, message);
 662              		.loc 1 203 0 is_stmt 1
 663 0060 4246     		mov	r2, r8
 664 0062 3146     		mov	r1, r6
 665 0064 6846     		mov	r0, sp
 666 0066 FFF7FEFF 		bl	NewMessageData
 667              	.LVL81:
 204:..\paho.mqtt.embedded-c\MQTTClient-C\src/MQTTClient.c ****         c->defaultMessageHandler(&md);
 668              		.loc 1 204 0
 669 006a 2B6D     		ldr	r3, [r5, #80]
 670 006c 6846     		mov	r0, sp
 671 006e 9847     		blx	r3
 672              	.LVL82:
 205:..\paho.mqtt.embedded-c\MQTTClient-C\src/MQTTClient.c ****         rc = SUCCESS;
 673              		.loc 1 205 0
 674 0070 0027     		movs	r7, #0
 675              	.LVL83:
 676              	.L45:
 677              	.LBE5:
 206:..\paho.mqtt.embedded-c\MQTTClient-C\src/MQTTClient.c ****     }
 207:..\paho.mqtt.embedded-c\MQTTClient-C\src/MQTTClient.c **** 
 208:..\paho.mqtt.embedded-c\MQTTClient-C\src/MQTTClient.c ****     return rc;
 209:..\paho.mqtt.embedded-c\MQTTClient-C\src/MQTTClient.c **** }
 678              		.loc 1 209 0
 679 0072 3846     		mov	r0, r7
 680 0074 02B0     		add	sp, sp, #8
 681              		.cfi_def_cfa_offset 24
 682              		@ sp needed
 683 0076 BDE8F081 		pop	{r4, r5, r6, r7, r8, pc}
 684              		.cfi_endproc
 685              	.LFE76:
 686              		.size	deliverMessage, .-deliverMessage
 687 007a 00BF     		.section	.text.keepalive,"ax",%progbits
 688              		.align	2
 689              		.global	keepalive
 690              		.thumb
 691              		.thumb_func
 692              		.type	keepalive, %function
 693              	keepalive:
 694              	.LFB77:
 210:..\paho.mqtt.embedded-c\MQTTClient-C\src/MQTTClient.c **** 
 211:..\paho.mqtt.embedded-c\MQTTClient-C\src/MQTTClient.c **** 
 212:..\paho.mqtt.embedded-c\MQTTClient-C\src/MQTTClient.c **** int keepalive(MQTTClient* c)
 213:..\paho.mqtt.embedded-c\MQTTClient-C\src/MQTTClient.c **** {
 695              		.loc 1 213 0
 696              		.cfi_startproc
 697              		@ args = 0, pretend = 0, frame = 16
 698              		@ frame_needed = 0, uses_anonymous_args = 0
 699              	.LVL84:
 214:..\paho.mqtt.embedded-c\MQTTClient-C\src/MQTTClient.c ****     int rc = SUCCESS;
ARM GAS  C:\Users\samue\AppData\Local\Temp\ccYWUiYX.s 			page 18


 215:..\paho.mqtt.embedded-c\MQTTClient-C\src/MQTTClient.c **** 
 216:..\paho.mqtt.embedded-c\MQTTClient-C\src/MQTTClient.c ****     if (c->keepAliveInterval == 0)
 700              		.loc 1 216 0
 701 0000 8369     		ldr	r3, [r0, #24]
 702 0002 33B3     		cbz	r3, .L51
 213:..\paho.mqtt.embedded-c\MQTTClient-C\src/MQTTClient.c ****     int rc = SUCCESS;
 703              		.loc 1 213 0
 704 0004 10B5     		push	{r4, lr}
 705              		.cfi_def_cfa_offset 8
 706              		.cfi_offset 4, -8
 707              		.cfi_offset 14, -4
 708 0006 84B0     		sub	sp, sp, #16
 709              		.cfi_def_cfa_offset 24
 710 0008 0446     		mov	r4, r0
 217:..\paho.mqtt.embedded-c\MQTTClient-C\src/MQTTClient.c ****         goto exit;
 218:..\paho.mqtt.embedded-c\MQTTClient-C\src/MQTTClient.c **** 
 219:..\paho.mqtt.embedded-c\MQTTClient-C\src/MQTTClient.c ****     if (TimerIsExpired(&c->last_sent) || TimerIsExpired(&c->last_received))
 711              		.loc 1 219 0
 712 000a 5830     		adds	r0, r0, #88
 713              	.LVL85:
 714 000c FFF7FEFF 		bl	TimerIsExpired
 715              	.LVL86:
 716 0010 20B9     		cbnz	r0, .L49
 717              		.loc 1 219 0 is_stmt 0 discriminator 1
 718 0012 04F16400 		add	r0, r4, #100
 719 0016 FFF7FEFF 		bl	TimerIsExpired
 720              	.LVL87:
 721 001a E8B1     		cbz	r0, .L52
 722              	.L49:
 220:..\paho.mqtt.embedded-c\MQTTClient-C\src/MQTTClient.c ****     {
 221:..\paho.mqtt.embedded-c\MQTTClient-C\src/MQTTClient.c ****         if (c->ping_outstanding)
 723              		.loc 1 221 0 is_stmt 1
 724 001c 237F     		ldrb	r3, [r4, #28]	@ zero_extendqisi2
 725 001e EBB9     		cbnz	r3, .L53
 726              	.LBB6:
 222:..\paho.mqtt.embedded-c\MQTTClient-C\src/MQTTClient.c ****             rc = FAILURE; /* PINGRESP not received in keepalive interval */
 223:..\paho.mqtt.embedded-c\MQTTClient-C\src/MQTTClient.c ****         else
 224:..\paho.mqtt.embedded-c\MQTTClient-C\src/MQTTClient.c ****         {
 225:..\paho.mqtt.embedded-c\MQTTClient-C\src/MQTTClient.c ****             Timer timer;
 226:..\paho.mqtt.embedded-c\MQTTClient-C\src/MQTTClient.c ****             TimerInit(&timer);
 727              		.loc 1 226 0
 728 0020 01A8     		add	r0, sp, #4
 729 0022 FFF7FEFF 		bl	TimerInit
 730              	.LVL88:
 227:..\paho.mqtt.embedded-c\MQTTClient-C\src/MQTTClient.c ****             TimerCountdownMS(&timer, 1000);
 731              		.loc 1 227 0
 732 0026 4FF47A71 		mov	r1, #1000
 733 002a 01A8     		add	r0, sp, #4
 734 002c FFF7FEFF 		bl	TimerCountdownMS
 735              	.LVL89:
 228:..\paho.mqtt.embedded-c\MQTTClient-C\src/MQTTClient.c ****             int len = MQTTSerialize_pingreq(c->buf, c->buf_size);
 736              		.loc 1 228 0
 737 0030 A168     		ldr	r1, [r4, #8]
 738 0032 2069     		ldr	r0, [r4, #16]
 739 0034 FFF7FEFF 		bl	MQTTSerialize_pingreq
 740              	.LVL90:
 229:..\paho.mqtt.embedded-c\MQTTClient-C\src/MQTTClient.c ****             if (len > 0 && (rc = sendPacket(c, len, &timer)) == SUCCESS) // send the ping packet
ARM GAS  C:\Users\samue\AppData\Local\Temp\ccYWUiYX.s 			page 19


 741              		.loc 1 229 0
 742 0038 011E     		subs	r1, r0, #0
 743 003a 08DD     		ble	.L54
 744              		.loc 1 229 0 is_stmt 0 discriminator 1
 745 003c 01AA     		add	r2, sp, #4
 746 003e 2046     		mov	r0, r4
 747              	.LVL91:
 748 0040 FFF7FEFF 		bl	sendPacket
 749              	.LVL92:
 750 0044 0346     		mov	r3, r0
 751 0046 58B9     		cbnz	r0, .L48
 230:..\paho.mqtt.embedded-c\MQTTClient-C\src/MQTTClient.c ****                 c->ping_outstanding = 1;
 752              		.loc 1 230 0 is_stmt 1
 753 0048 0122     		movs	r2, #1
 754 004a 2277     		strb	r2, [r4, #28]
 755 004c 08E0     		b	.L48
 756              	.LVL93:
 757              	.L54:
 758              	.LBE6:
 214:..\paho.mqtt.embedded-c\MQTTClient-C\src/MQTTClient.c **** 
 759              		.loc 1 214 0
 760 004e 0023     		movs	r3, #0
 761 0050 06E0     		b	.L48
 762              	.LVL94:
 763              	.L51:
 764              		.cfi_def_cfa_offset 0
 765              		.cfi_restore 4
 766              		.cfi_restore 14
 767 0052 0023     		movs	r3, #0
 768              	.LVL95:
 231:..\paho.mqtt.embedded-c\MQTTClient-C\src/MQTTClient.c ****         }
 232:..\paho.mqtt.embedded-c\MQTTClient-C\src/MQTTClient.c ****     }
 233:..\paho.mqtt.embedded-c\MQTTClient-C\src/MQTTClient.c **** 
 234:..\paho.mqtt.embedded-c\MQTTClient-C\src/MQTTClient.c **** exit:
 235:..\paho.mqtt.embedded-c\MQTTClient-C\src/MQTTClient.c ****     return rc;
 236:..\paho.mqtt.embedded-c\MQTTClient-C\src/MQTTClient.c **** }
 769              		.loc 1 236 0
 770 0054 1846     		mov	r0, r3
 771              	.LVL96:
 772 0056 7047     		bx	lr
 773              	.LVL97:
 774              	.L52:
 775              		.cfi_def_cfa_offset 24
 776              		.cfi_offset 4, -8
 777              		.cfi_offset 14, -4
 214:..\paho.mqtt.embedded-c\MQTTClient-C\src/MQTTClient.c **** 
 778              		.loc 1 214 0
 779 0058 0023     		movs	r3, #0
 780 005a 01E0     		b	.L48
 781              	.L53:
 222:..\paho.mqtt.embedded-c\MQTTClient-C\src/MQTTClient.c ****         else
 782              		.loc 1 222 0
 783 005c 4FF0FF33 		mov	r3, #-1
 784              	.LVL98:
 785              	.L48:
 786              		.loc 1 236 0
 787 0060 1846     		mov	r0, r3
ARM GAS  C:\Users\samue\AppData\Local\Temp\ccYWUiYX.s 			page 20


 788 0062 04B0     		add	sp, sp, #16
 789              		.cfi_def_cfa_offset 8
 790              		@ sp needed
 791 0064 10BD     		pop	{r4, pc}
 792              		.cfi_endproc
 793              	.LFE77:
 794              		.size	keepalive, .-keepalive
 795 0066 00BF     		.section	.text.MQTTCleanSession,"ax",%progbits
 796              		.align	2
 797              		.global	MQTTCleanSession
 798              		.thumb
 799              		.thumb_func
 800              		.type	MQTTCleanSession, %function
 801              	MQTTCleanSession:
 802              	.LFB78:
 237:..\paho.mqtt.embedded-c\MQTTClient-C\src/MQTTClient.c **** 
 238:..\paho.mqtt.embedded-c\MQTTClient-C\src/MQTTClient.c **** 
 239:..\paho.mqtt.embedded-c\MQTTClient-C\src/MQTTClient.c **** void MQTTCleanSession(MQTTClient* c)
 240:..\paho.mqtt.embedded-c\MQTTClient-C\src/MQTTClient.c **** {
 803              		.loc 1 240 0
 804              		.cfi_startproc
 805              		@ args = 0, pretend = 0, frame = 0
 806              		@ frame_needed = 0, uses_anonymous_args = 0
 807              		@ link register save eliminated.
 808              	.LVL99:
 241:..\paho.mqtt.embedded-c\MQTTClient-C\src/MQTTClient.c ****     int i = 0;
 242:..\paho.mqtt.embedded-c\MQTTClient-C\src/MQTTClient.c **** 
 243:..\paho.mqtt.embedded-c\MQTTClient-C\src/MQTTClient.c ****     for (i = 0; i < MAX_MESSAGE_HANDLERS; ++i)
 809              		.loc 1 243 0
 810 0000 0023     		movs	r3, #0
 811 0002 04E0     		b	.L57
 812              	.LVL100:
 813              	.L58:
 244:..\paho.mqtt.embedded-c\MQTTClient-C\src/MQTTClient.c ****         c->messageHandlers[i].topicFilter = NULL;
 814              		.loc 1 244 0 discriminator 3
 815 0004 5A1D     		adds	r2, r3, #5
 816 0006 0021     		movs	r1, #0
 817 0008 40F83210 		str	r1, [r0, r2, lsl #3]
 243:..\paho.mqtt.embedded-c\MQTTClient-C\src/MQTTClient.c ****         c->messageHandlers[i].topicFilter = NULL;
 818              		.loc 1 243 0 discriminator 3
 819 000c 0133     		adds	r3, r3, #1
 820              	.LVL101:
 821              	.L57:
 243:..\paho.mqtt.embedded-c\MQTTClient-C\src/MQTTClient.c ****         c->messageHandlers[i].topicFilter = NULL;
 822              		.loc 1 243 0 is_stmt 0 discriminator 1
 823 000e 042B     		cmp	r3, #4
 824 0010 F8DD     		ble	.L58
 245:..\paho.mqtt.embedded-c\MQTTClient-C\src/MQTTClient.c **** }
 825              		.loc 1 245 0 is_stmt 1
 826 0012 7047     		bx	lr
 827              		.cfi_endproc
 828              	.LFE78:
 829              		.size	MQTTCleanSession, .-MQTTCleanSession
 830              		.section	.text.MQTTCloseSession,"ax",%progbits
 831              		.align	2
 832              		.global	MQTTCloseSession
 833              		.thumb
ARM GAS  C:\Users\samue\AppData\Local\Temp\ccYWUiYX.s 			page 21


 834              		.thumb_func
 835              		.type	MQTTCloseSession, %function
 836              	MQTTCloseSession:
 837              	.LFB79:
 246:..\paho.mqtt.embedded-c\MQTTClient-C\src/MQTTClient.c **** 
 247:..\paho.mqtt.embedded-c\MQTTClient-C\src/MQTTClient.c **** 
 248:..\paho.mqtt.embedded-c\MQTTClient-C\src/MQTTClient.c **** void MQTTCloseSession(MQTTClient* c)
 249:..\paho.mqtt.embedded-c\MQTTClient-C\src/MQTTClient.c **** {
 838              		.loc 1 249 0
 839              		.cfi_startproc
 840              		@ args = 0, pretend = 0, frame = 0
 841              		@ frame_needed = 0, uses_anonymous_args = 0
 842              	.LVL102:
 843 0000 08B5     		push	{r3, lr}
 844              		.cfi_def_cfa_offset 8
 845              		.cfi_offset 3, -8
 846              		.cfi_offset 14, -4
 250:..\paho.mqtt.embedded-c\MQTTClient-C\src/MQTTClient.c ****     c->ping_outstanding = 0;
 847              		.loc 1 250 0
 848 0002 0023     		movs	r3, #0
 849 0004 0377     		strb	r3, [r0, #28]
 251:..\paho.mqtt.embedded-c\MQTTClient-C\src/MQTTClient.c ****     c->isconnected = 0;
 850              		.loc 1 251 0
 851 0006 0362     		str	r3, [r0, #32]
 252:..\paho.mqtt.embedded-c\MQTTClient-C\src/MQTTClient.c ****     if (c->cleansession)
 852              		.loc 1 252 0
 853 0008 436A     		ldr	r3, [r0, #36]
 854 000a 0BB1     		cbz	r3, .L59
 253:..\paho.mqtt.embedded-c\MQTTClient-C\src/MQTTClient.c ****         MQTTCleanSession(c);
 855              		.loc 1 253 0
 856 000c FFF7FEFF 		bl	MQTTCleanSession
 857              	.LVL103:
 858              	.L59:
 859 0010 08BD     		pop	{r3, pc}
 860              		.cfi_endproc
 861              	.LFE79:
 862              		.size	MQTTCloseSession, .-MQTTCloseSession
 863 0012 00BF     		.section	.text.cycle,"ax",%progbits
 864              		.align	2
 865              		.global	cycle
 866              		.thumb
 867              		.thumb_func
 868              		.type	cycle, %function
 869              	cycle:
 870              	.LFB80:
 254:..\paho.mqtt.embedded-c\MQTTClient-C\src/MQTTClient.c **** }
 255:..\paho.mqtt.embedded-c\MQTTClient-C\src/MQTTClient.c **** 
 256:..\paho.mqtt.embedded-c\MQTTClient-C\src/MQTTClient.c **** 
 257:..\paho.mqtt.embedded-c\MQTTClient-C\src/MQTTClient.c **** int cycle(MQTTClient* c, Timer* timer)
 258:..\paho.mqtt.embedded-c\MQTTClient-C\src/MQTTClient.c **** {
 871              		.loc 1 258 0
 872              		.cfi_startproc
 873              		@ args = 0, pretend = 0, frame = 32
 874              		@ frame_needed = 0, uses_anonymous_args = 0
 875              	.LVL104:
 876 0000 70B5     		push	{r4, r5, r6, lr}
 877              		.cfi_def_cfa_offset 16
ARM GAS  C:\Users\samue\AppData\Local\Temp\ccYWUiYX.s 			page 22


 878              		.cfi_offset 4, -16
 879              		.cfi_offset 5, -12
 880              		.cfi_offset 6, -8
 881              		.cfi_offset 14, -4
 882 0002 8EB0     		sub	sp, sp, #56
 883              		.cfi_def_cfa_offset 72
 884 0004 0546     		mov	r5, r0
 885 0006 0C46     		mov	r4, r1
 886              	.LVL105:
 259:..\paho.mqtt.embedded-c\MQTTClient-C\src/MQTTClient.c ****     int len = 0,
 260:..\paho.mqtt.embedded-c\MQTTClient-C\src/MQTTClient.c ****         rc = SUCCESS;
 261:..\paho.mqtt.embedded-c\MQTTClient-C\src/MQTTClient.c **** 
 262:..\paho.mqtt.embedded-c\MQTTClient-C\src/MQTTClient.c ****     int packet_type = readPacket(c, timer);     /* read the socket, see what work is due */
 887              		.loc 1 262 0
 888 0008 FFF7FEFF 		bl	readPacket
 889              	.LVL106:
 890 000c 0646     		mov	r6, r0
 891              	.LVL107:
 263:..\paho.mqtt.embedded-c\MQTTClient-C\src/MQTTClient.c **** 
 264:..\paho.mqtt.embedded-c\MQTTClient-C\src/MQTTClient.c ****     switch (packet_type)
 892              		.loc 1 264 0
 893 000e 0D28     		cmp	r0, #13
 894 0010 00F28D80 		bhi	.L78
 895 0014 DFE800F0 		tbb	[pc, r0]
 896              	.L65:
 897 0018 85       		.byte	(.L79-.L65)/2
 898 0019 8B       		.byte	(.L78-.L65)/2
 899 001a 85       		.byte	(.L79-.L65)/2
 900 001b 07       		.byte	(.L66-.L65)/2
 901 001c 85       		.byte	(.L79-.L65)/2
 902 001d 56       		.byte	(.L67-.L65)/2
 903 001e 56       		.byte	(.L67-.L65)/2
 904 001f 85       		.byte	(.L79-.L65)/2
 905 0020 8B       		.byte	(.L78-.L65)/2
 906 0021 85       		.byte	(.L79-.L65)/2
 907 0022 8B       		.byte	(.L78-.L65)/2
 908 0023 85       		.byte	(.L79-.L65)/2
 909 0024 8B       		.byte	(.L78-.L65)/2
 910 0025 82       		.byte	(.L68-.L65)/2
 911              		.p2align 1
 912              	.L66:
 913              	.LBB7:
 265:..\paho.mqtt.embedded-c\MQTTClient-C\src/MQTTClient.c ****     {
 266:..\paho.mqtt.embedded-c\MQTTClient-C\src/MQTTClient.c ****         default:
 267:..\paho.mqtt.embedded-c\MQTTClient-C\src/MQTTClient.c ****             /* no more data to read, unrecoverable. Or read packet fails due to unexpected network 
 268:..\paho.mqtt.embedded-c\MQTTClient-C\src/MQTTClient.c ****             rc = packet_type;
 269:..\paho.mqtt.embedded-c\MQTTClient-C\src/MQTTClient.c ****             goto exit;
 270:..\paho.mqtt.embedded-c\MQTTClient-C\src/MQTTClient.c ****         case 0: /* timed out reading packet */
 271:..\paho.mqtt.embedded-c\MQTTClient-C\src/MQTTClient.c ****             break;
 272:..\paho.mqtt.embedded-c\MQTTClient-C\src/MQTTClient.c ****         case CONNACK:
 273:..\paho.mqtt.embedded-c\MQTTClient-C\src/MQTTClient.c ****         case PUBACK:
 274:..\paho.mqtt.embedded-c\MQTTClient-C\src/MQTTClient.c ****         case SUBACK:
 275:..\paho.mqtt.embedded-c\MQTTClient-C\src/MQTTClient.c ****         case UNSUBACK:
 276:..\paho.mqtt.embedded-c\MQTTClient-C\src/MQTTClient.c ****             break;
 277:..\paho.mqtt.embedded-c\MQTTClient-C\src/MQTTClient.c ****         case PUBLISH:
 278:..\paho.mqtt.embedded-c\MQTTClient-C\src/MQTTClient.c ****         {
 279:..\paho.mqtt.embedded-c\MQTTClient-C\src/MQTTClient.c ****             MQTTString topicName;
ARM GAS  C:\Users\samue\AppData\Local\Temp\ccYWUiYX.s 			page 23


 280:..\paho.mqtt.embedded-c\MQTTClient-C\src/MQTTClient.c ****             MQTTMessage msg;
 281:..\paho.mqtt.embedded-c\MQTTClient-C\src/MQTTClient.c ****             int intQoS;
 282:..\paho.mqtt.embedded-c\MQTTClient-C\src/MQTTClient.c ****             msg.payloadlen = 0; /* this is a size_t, but deserialize publish sets this as int */
 914              		.loc 1 282 0
 915 0026 0023     		movs	r3, #0
 916 0028 0D93     		str	r3, [sp, #52]
 283:..\paho.mqtt.embedded-c\MQTTClient-C\src/MQTTClient.c ****             if (MQTTDeserialize_publish(&msg.dup, &intQoS, &msg.retained, &msg.id, &topicName,
 284:..\paho.mqtt.embedded-c\MQTTClient-C\src/MQTTClient.c ****                (unsigned char**)&msg.payload, (int*)&msg.payloadlen, c->readbuf, c->readbuf_size) !
 917              		.loc 1 284 0
 918 002a EB68     		ldr	r3, [r5, #12]
 283:..\paho.mqtt.embedded-c\MQTTClient-C\src/MQTTClient.c ****             if (MQTTDeserialize_publish(&msg.dup, &intQoS, &msg.retained, &msg.id, &topicName,
 919              		.loc 1 283 0
 920 002c 0493     		str	r3, [sp, #16]
 921 002e 6B69     		ldr	r3, [r5, #20]
 922 0030 0393     		str	r3, [sp, #12]
 923 0032 0DAB     		add	r3, sp, #52
 924 0034 0293     		str	r3, [sp, #8]
 925 0036 0CAB     		add	r3, sp, #48
 926 0038 0193     		str	r3, [sp, #4]
 927 003a 07AB     		add	r3, sp, #28
 928 003c 0093     		str	r3, [sp]
 929 003e 0BAB     		add	r3, sp, #44
 930 0040 0DF12902 		add	r2, sp, #41
 931 0044 06A9     		add	r1, sp, #24
 932 0046 0DF12A00 		add	r0, sp, #42
 933              	.LVL108:
 934 004a FFF7FEFF 		bl	MQTTDeserialize_publish
 935              	.LVL109:
 936 004e 0128     		cmp	r0, #1
 937 0050 34D1     		bne	.L80
 285:..\paho.mqtt.embedded-c\MQTTClient-C\src/MQTTClient.c ****                 goto exit;
 286:..\paho.mqtt.embedded-c\MQTTClient-C\src/MQTTClient.c ****             msg.qos = (enum QoS)intQoS;
 938              		.loc 1 286 0
 939 0052 9DF81830 		ldrb	r3, [sp, #24]	@ zero_extendqisi2
 940 0056 0EAA     		add	r2, sp, #56
 941 0058 02F8103D 		strb	r3, [r2, #-16]!
 287:..\paho.mqtt.embedded-c\MQTTClient-C\src/MQTTClient.c ****             deliverMessage(c, &topicName, &msg);
 942              		.loc 1 287 0
 943 005c 07A9     		add	r1, sp, #28
 944 005e 2846     		mov	r0, r5
 945 0060 FFF7FEFF 		bl	deliverMessage
 946              	.LVL110:
 288:..\paho.mqtt.embedded-c\MQTTClient-C\src/MQTTClient.c ****             if (msg.qos != QOS0)
 947              		.loc 1 288 0
 948 0064 9DF82830 		ldrb	r3, [sp, #40]	@ zero_extendqisi2
 949 0068 53B3     		cbz	r3, .L81
 289:..\paho.mqtt.embedded-c\MQTTClient-C\src/MQTTClient.c ****             {
 290:..\paho.mqtt.embedded-c\MQTTClient-C\src/MQTTClient.c ****                 if (msg.qos == QOS1)
 950              		.loc 1 290 0
 951 006a 012B     		cmp	r3, #1
 952 006c 0AD1     		bne	.L71
 291:..\paho.mqtt.embedded-c\MQTTClient-C\src/MQTTClient.c ****                     len = MQTTSerialize_ack(c->buf, c->buf_size, PUBACK, 0, msg.id);
 953              		.loc 1 291 0
 954 006e BDF82C30 		ldrh	r3, [sp, #44]
 955 0072 0093     		str	r3, [sp]
 956 0074 0023     		movs	r3, #0
 957 0076 0422     		movs	r2, #4
ARM GAS  C:\Users\samue\AppData\Local\Temp\ccYWUiYX.s 			page 24


 958 0078 A968     		ldr	r1, [r5, #8]
 959 007a 2869     		ldr	r0, [r5, #16]
 960 007c FFF7FEFF 		bl	MQTTSerialize_ack
 961              	.LVL111:
 962 0080 0146     		mov	r1, r0
 963              	.LVL112:
 964 0082 0DE0     		b	.L72
 965              	.LVL113:
 966              	.L71:
 292:..\paho.mqtt.embedded-c\MQTTClient-C\src/MQTTClient.c ****                 else if (msg.qos == QOS2)
 967              		.loc 1 292 0
 968 0084 022B     		cmp	r3, #2
 969 0086 0AD1     		bne	.L82
 293:..\paho.mqtt.embedded-c\MQTTClient-C\src/MQTTClient.c ****                     len = MQTTSerialize_ack(c->buf, c->buf_size, PUBREC, 0, msg.id);
 970              		.loc 1 293 0
 971 0088 BDF82C30 		ldrh	r3, [sp, #44]
 972 008c 0093     		str	r3, [sp]
 973 008e 0023     		movs	r3, #0
 974 0090 0522     		movs	r2, #5
 975 0092 A968     		ldr	r1, [r5, #8]
 976 0094 2869     		ldr	r0, [r5, #16]
 977 0096 FFF7FEFF 		bl	MQTTSerialize_ack
 978              	.LVL114:
 979 009a 0146     		mov	r1, r0
 980              	.LVL115:
 981 009c 00E0     		b	.L72
 982              	.LVL116:
 983              	.L82:
 984              	.LBE7:
 259:..\paho.mqtt.embedded-c\MQTTClient-C\src/MQTTClient.c ****         rc = SUCCESS;
 985              		.loc 1 259 0
 986 009e 0021     		movs	r1, #0
 987              	.LVL117:
 988              	.L72:
 989              	.LBB8:
 294:..\paho.mqtt.embedded-c\MQTTClient-C\src/MQTTClient.c ****                 if (len <= 0)
 990              		.loc 1 294 0
 991 00a0 0029     		cmp	r1, #0
 992 00a2 05DD     		ble	.L83
 295:..\paho.mqtt.embedded-c\MQTTClient-C\src/MQTTClient.c ****                     rc = FAILURE;
 296:..\paho.mqtt.embedded-c\MQTTClient-C\src/MQTTClient.c ****                 else
 297:..\paho.mqtt.embedded-c\MQTTClient-C\src/MQTTClient.c ****                     rc = sendPacket(c, len, timer);
 993              		.loc 1 297 0
 994 00a4 2246     		mov	r2, r4
 995 00a6 2846     		mov	r0, r5
 996 00a8 FFF7FEFF 		bl	sendPacket
 997              	.LVL118:
 998 00ac 0446     		mov	r4, r0
 999              	.LVL119:
 1000 00ae 01E0     		b	.L73
 1001              	.LVL120:
 1002              	.L83:
 295:..\paho.mqtt.embedded-c\MQTTClient-C\src/MQTTClient.c ****                     rc = FAILURE;
 1003              		.loc 1 295 0
 1004 00b0 4FF0FF34 		mov	r4, #-1
 1005              	.LVL121:
 1006              	.L73:
ARM GAS  C:\Users\samue\AppData\Local\Temp\ccYWUiYX.s 			page 25


 298:..\paho.mqtt.embedded-c\MQTTClient-C\src/MQTTClient.c ****                 if (rc == FAILURE)
 1007              		.loc 1 298 0
 1008 00b4 B4F1FF3F 		cmp	r4, #-1
 1009 00b8 34D1     		bne	.L64
 1010 00ba 3CE0     		b	.L63
 1011              	.LVL122:
 1012              	.L80:
 1013              	.LBE8:
 260:..\paho.mqtt.embedded-c\MQTTClient-C\src/MQTTClient.c **** 
 1014              		.loc 1 260 0
 1015 00bc 0024     		movs	r4, #0
 1016              	.LVL123:
 1017 00be 3AE0     		b	.L63
 1018              	.LVL124:
 1019              	.L81:
 1020 00c0 0024     		movs	r4, #0
 1021              	.LVL125:
 1022 00c2 2FE0     		b	.L64
 1023              	.LVL126:
 1024              	.L67:
 1025              	.LBB9:
 299:..\paho.mqtt.embedded-c\MQTTClient-C\src/MQTTClient.c ****                     goto exit; // there was a problem
 300:..\paho.mqtt.embedded-c\MQTTClient-C\src/MQTTClient.c ****             }
 301:..\paho.mqtt.embedded-c\MQTTClient-C\src/MQTTClient.c ****             break;
 302:..\paho.mqtt.embedded-c\MQTTClient-C\src/MQTTClient.c ****         }
 303:..\paho.mqtt.embedded-c\MQTTClient-C\src/MQTTClient.c ****         case PUBREC:
 304:..\paho.mqtt.embedded-c\MQTTClient-C\src/MQTTClient.c ****         case PUBREL:
 305:..\paho.mqtt.embedded-c\MQTTClient-C\src/MQTTClient.c ****         {
 306:..\paho.mqtt.embedded-c\MQTTClient-C\src/MQTTClient.c ****             unsigned short mypacketid;
 307:..\paho.mqtt.embedded-c\MQTTClient-C\src/MQTTClient.c ****             unsigned char dup, type;
 308:..\paho.mqtt.embedded-c\MQTTClient-C\src/MQTTClient.c ****             if (MQTTDeserialize_ack(&type, &dup, &mypacketid, c->readbuf, c->readbuf_size) != 1)
 1026              		.loc 1 308 0
 1027 00c4 EB68     		ldr	r3, [r5, #12]
 1028 00c6 0093     		str	r3, [sp]
 1029 00c8 6B69     		ldr	r3, [r5, #20]
 1030 00ca 0AAA     		add	r2, sp, #40
 1031 00cc 06A9     		add	r1, sp, #24
 1032 00ce 07A8     		add	r0, sp, #28
 1033              	.LVL127:
 1034 00d0 FFF7FEFF 		bl	MQTTDeserialize_ack
 1035              	.LVL128:
 1036 00d4 0128     		cmp	r0, #1
 1037 00d6 15D1     		bne	.L84
 309:..\paho.mqtt.embedded-c\MQTTClient-C\src/MQTTClient.c ****                 rc = FAILURE;
 310:..\paho.mqtt.embedded-c\MQTTClient-C\src/MQTTClient.c ****             else if ((len = MQTTSerialize_ack(c->buf, c->buf_size,
 1038              		.loc 1 310 0
 1039 00d8 2869     		ldr	r0, [r5, #16]
 1040 00da A968     		ldr	r1, [r5, #8]
 1041 00dc 052E     		cmp	r6, #5
 1042 00de 01D1     		bne	.L85
 1043 00e0 0622     		movs	r2, #6
 1044 00e2 00E0     		b	.L75
 1045              	.L85:
 1046 00e4 0722     		movs	r2, #7
 1047              	.L75:
 1048              		.loc 1 310 0 is_stmt 0 discriminator 4
 1049 00e6 BDF82830 		ldrh	r3, [sp, #40]
ARM GAS  C:\Users\samue\AppData\Local\Temp\ccYWUiYX.s 			page 26


 1050 00ea 0093     		str	r3, [sp]
 1051 00ec 0023     		movs	r3, #0
 1052 00ee FFF7FEFF 		bl	MQTTSerialize_ack
 1053              	.LVL129:
 1054 00f2 011E     		subs	r1, r0, #0
 1055 00f4 09DD     		ble	.L86
 311:..\paho.mqtt.embedded-c\MQTTClient-C\src/MQTTClient.c ****                 (packet_type == PUBREC) ? PUBREL : PUBCOMP, 0, mypacketid)) <= 0)
 312:..\paho.mqtt.embedded-c\MQTTClient-C\src/MQTTClient.c ****                 rc = FAILURE;
 313:..\paho.mqtt.embedded-c\MQTTClient-C\src/MQTTClient.c ****             else if ((rc = sendPacket(c, len, timer)) != SUCCESS) // send the PUBREL packet
 1056              		.loc 1 313 0 is_stmt 1
 1057 00f6 2246     		mov	r2, r4
 1058 00f8 2846     		mov	r0, r5
 1059              	.LVL130:
 1060 00fa FFF7FEFF 		bl	sendPacket
 1061              	.LVL131:
 1062 00fe 0446     		mov	r4, r0
 1063              	.LVL132:
 1064 0100 30B9     		cbnz	r0, .L87
 1065 0102 07E0     		b	.L74
 1066              	.LVL133:
 1067              	.L84:
 309:..\paho.mqtt.embedded-c\MQTTClient-C\src/MQTTClient.c ****                 rc = FAILURE;
 1068              		.loc 1 309 0
 1069 0104 4FF0FF34 		mov	r4, #-1
 1070              	.LVL134:
 1071 0108 04E0     		b	.L74
 1072              	.LVL135:
 1073              	.L86:
 312:..\paho.mqtt.embedded-c\MQTTClient-C\src/MQTTClient.c ****             else if ((rc = sendPacket(c, len, timer)) != SUCCESS) // send the PUBREL packet
 1074              		.loc 1 312 0
 1075 010a 4FF0FF34 		mov	r4, #-1
 1076              	.LVL136:
 1077 010e 01E0     		b	.L74
 1078              	.LVL137:
 1079              	.L87:
 314:..\paho.mqtt.embedded-c\MQTTClient-C\src/MQTTClient.c ****                 rc = FAILURE; // there was a problem
 1080              		.loc 1 314 0
 1081 0110 4FF0FF34 		mov	r4, #-1
 1082              	.LVL138:
 1083              	.L74:
 315:..\paho.mqtt.embedded-c\MQTTClient-C\src/MQTTClient.c ****             if (rc == FAILURE)
 1084              		.loc 1 315 0
 1085 0114 B4F1FF3F 		cmp	r4, #-1
 1086 0118 04D1     		bne	.L64
 1087 011a 0CE0     		b	.L63
 1088              	.LVL139:
 1089              	.L68:
 1090              	.LBE9:
 316:..\paho.mqtt.embedded-c\MQTTClient-C\src/MQTTClient.c ****                 goto exit; // there was a problem
 317:..\paho.mqtt.embedded-c\MQTTClient-C\src/MQTTClient.c ****             break;
 318:..\paho.mqtt.embedded-c\MQTTClient-C\src/MQTTClient.c ****         }
 319:..\paho.mqtt.embedded-c\MQTTClient-C\src/MQTTClient.c **** 
 320:..\paho.mqtt.embedded-c\MQTTClient-C\src/MQTTClient.c ****         case PUBCOMP:
 321:..\paho.mqtt.embedded-c\MQTTClient-C\src/MQTTClient.c ****             break;
 322:..\paho.mqtt.embedded-c\MQTTClient-C\src/MQTTClient.c ****         case PINGRESP:
 323:..\paho.mqtt.embedded-c\MQTTClient-C\src/MQTTClient.c ****             c->ping_outstanding = 0;
 1091              		.loc 1 323 0
ARM GAS  C:\Users\samue\AppData\Local\Temp\ccYWUiYX.s 			page 27


 1092 011c 0024     		movs	r4, #0
 1093              	.LVL140:
 1094 011e 2C77     		strb	r4, [r5, #28]
 324:..\paho.mqtt.embedded-c\MQTTClient-C\src/MQTTClient.c ****             break;
 1095              		.loc 1 324 0
 1096 0120 00E0     		b	.L64
 1097              	.LVL141:
 1098              	.L79:
 260:..\paho.mqtt.embedded-c\MQTTClient-C\src/MQTTClient.c **** 
 1099              		.loc 1 260 0
 1100 0122 0024     		movs	r4, #0
 1101              	.LVL142:
 1102              	.L64:
 325:..\paho.mqtt.embedded-c\MQTTClient-C\src/MQTTClient.c ****     }
 326:..\paho.mqtt.embedded-c\MQTTClient-C\src/MQTTClient.c **** 
 327:..\paho.mqtt.embedded-c\MQTTClient-C\src/MQTTClient.c ****     if (keepalive(c) != SUCCESS) {
 1103              		.loc 1 327 0
 1104 0124 2846     		mov	r0, r5
 1105 0126 FFF7FEFF 		bl	keepalive
 1106              	.LVL143:
 1107 012a 10B9     		cbnz	r0, .L88
 1108 012c 03E0     		b	.L63
 1109              	.LVL144:
 1110              	.L78:
 268:..\paho.mqtt.embedded-c\MQTTClient-C\src/MQTTClient.c ****             goto exit;
 1111              		.loc 1 268 0
 1112 012e 0446     		mov	r4, r0
 1113              	.LVL145:
 1114 0130 01E0     		b	.L63
 1115              	.LVL146:
 1116              	.L88:
 328:..\paho.mqtt.embedded-c\MQTTClient-C\src/MQTTClient.c ****         //check only keepalive FAILURE status so that previous FAILURE status can be considered as 
 329:..\paho.mqtt.embedded-c\MQTTClient-C\src/MQTTClient.c ****         rc = FAILURE;
 1117              		.loc 1 329 0
 1118 0132 4FF0FF34 		mov	r4, #-1
 1119              	.LVL147:
 1120              	.L63:
 330:..\paho.mqtt.embedded-c\MQTTClient-C\src/MQTTClient.c ****     }
 331:..\paho.mqtt.embedded-c\MQTTClient-C\src/MQTTClient.c **** 
 332:..\paho.mqtt.embedded-c\MQTTClient-C\src/MQTTClient.c **** exit:
 333:..\paho.mqtt.embedded-c\MQTTClient-C\src/MQTTClient.c ****     if (rc == SUCCESS)
 1121              		.loc 1 333 0
 1122 0136 2CB1     		cbz	r4, .L89
 334:..\paho.mqtt.embedded-c\MQTTClient-C\src/MQTTClient.c ****         rc = packet_type;
 335:..\paho.mqtt.embedded-c\MQTTClient-C\src/MQTTClient.c ****     else if (c->isconnected)
 1123              		.loc 1 335 0
 1124 0138 2B6A     		ldr	r3, [r5, #32]
 1125 013a 23B1     		cbz	r3, .L77
 336:..\paho.mqtt.embedded-c\MQTTClient-C\src/MQTTClient.c ****         MQTTCloseSession(c);
 1126              		.loc 1 336 0
 1127 013c 2846     		mov	r0, r5
 1128 013e FFF7FEFF 		bl	MQTTCloseSession
 1129              	.LVL148:
 1130 0142 00E0     		b	.L77
 1131              	.L89:
 334:..\paho.mqtt.embedded-c\MQTTClient-C\src/MQTTClient.c ****         rc = packet_type;
 1132              		.loc 1 334 0
ARM GAS  C:\Users\samue\AppData\Local\Temp\ccYWUiYX.s 			page 28


 1133 0144 3446     		mov	r4, r6
 1134              	.LVL149:
 1135              	.L77:
 337:..\paho.mqtt.embedded-c\MQTTClient-C\src/MQTTClient.c ****     return rc;
 338:..\paho.mqtt.embedded-c\MQTTClient-C\src/MQTTClient.c **** }
 1136              		.loc 1 338 0
 1137 0146 2046     		mov	r0, r4
 1138 0148 0EB0     		add	sp, sp, #56
 1139              		.cfi_def_cfa_offset 16
 1140              		@ sp needed
 1141 014a 70BD     		pop	{r4, r5, r6, pc}
 1142              		.cfi_endproc
 1143              	.LFE80:
 1144              		.size	cycle, .-cycle
 1145              		.section	.text.MQTTRun,"ax",%progbits
 1146              		.align	2
 1147              		.global	MQTTRun
 1148              		.thumb
 1149              		.thumb_func
 1150              		.type	MQTTRun, %function
 1151              	MQTTRun:
 1152              	.LFB83:
 339:..\paho.mqtt.embedded-c\MQTTClient-C\src/MQTTClient.c **** 
 340:..\paho.mqtt.embedded-c\MQTTClient-C\src/MQTTClient.c **** 
 341:..\paho.mqtt.embedded-c\MQTTClient-C\src/MQTTClient.c **** int MQTTYield(MQTTClient* c, int timeout_ms)
 342:..\paho.mqtt.embedded-c\MQTTClient-C\src/MQTTClient.c **** {
 343:..\paho.mqtt.embedded-c\MQTTClient-C\src/MQTTClient.c ****     int rc = SUCCESS;
 344:..\paho.mqtt.embedded-c\MQTTClient-C\src/MQTTClient.c ****     Timer timer;
 345:..\paho.mqtt.embedded-c\MQTTClient-C\src/MQTTClient.c **** 
 346:..\paho.mqtt.embedded-c\MQTTClient-C\src/MQTTClient.c ****     TimerInit(&timer);
 347:..\paho.mqtt.embedded-c\MQTTClient-C\src/MQTTClient.c ****     TimerCountdownMS(&timer, timeout_ms);
 348:..\paho.mqtt.embedded-c\MQTTClient-C\src/MQTTClient.c **** 
 349:..\paho.mqtt.embedded-c\MQTTClient-C\src/MQTTClient.c **** 	  do
 350:..\paho.mqtt.embedded-c\MQTTClient-C\src/MQTTClient.c ****     {
 351:..\paho.mqtt.embedded-c\MQTTClient-C\src/MQTTClient.c ****         if (cycle(c, &timer) < 0)
 352:..\paho.mqtt.embedded-c\MQTTClient-C\src/MQTTClient.c ****         {
 353:..\paho.mqtt.embedded-c\MQTTClient-C\src/MQTTClient.c ****             rc = FAILURE;
 354:..\paho.mqtt.embedded-c\MQTTClient-C\src/MQTTClient.c ****             break;
 355:..\paho.mqtt.embedded-c\MQTTClient-C\src/MQTTClient.c ****         }
 356:..\paho.mqtt.embedded-c\MQTTClient-C\src/MQTTClient.c ****   	} while (!TimerIsExpired(&timer));
 357:..\paho.mqtt.embedded-c\MQTTClient-C\src/MQTTClient.c **** 
 358:..\paho.mqtt.embedded-c\MQTTClient-C\src/MQTTClient.c ****     return rc;
 359:..\paho.mqtt.embedded-c\MQTTClient-C\src/MQTTClient.c **** }
 360:..\paho.mqtt.embedded-c\MQTTClient-C\src/MQTTClient.c **** 
 361:..\paho.mqtt.embedded-c\MQTTClient-C\src/MQTTClient.c **** int MQTTIsConnected(MQTTClient* client)
 362:..\paho.mqtt.embedded-c\MQTTClient-C\src/MQTTClient.c **** {
 363:..\paho.mqtt.embedded-c\MQTTClient-C\src/MQTTClient.c ****   return client->isconnected;
 364:..\paho.mqtt.embedded-c\MQTTClient-C\src/MQTTClient.c **** }
 365:..\paho.mqtt.embedded-c\MQTTClient-C\src/MQTTClient.c **** 
 366:..\paho.mqtt.embedded-c\MQTTClient-C\src/MQTTClient.c **** void MQTTRun(void* parm)
 367:..\paho.mqtt.embedded-c\MQTTClient-C\src/MQTTClient.c **** {
 1153              		.loc 1 367 0
 1154              		.cfi_startproc
 1155              		@ args = 0, pretend = 0, frame = 16
 1156              		@ frame_needed = 0, uses_anonymous_args = 0
 1157              	.LVL150:
 1158 0000 30B5     		push	{r4, r5, lr}
ARM GAS  C:\Users\samue\AppData\Local\Temp\ccYWUiYX.s 			page 29


 1159              		.cfi_def_cfa_offset 12
 1160              		.cfi_offset 4, -12
 1161              		.cfi_offset 5, -8
 1162              		.cfi_offset 14, -4
 1163 0002 85B0     		sub	sp, sp, #20
 1164              		.cfi_def_cfa_offset 32
 1165 0004 0546     		mov	r5, r0
 1166              	.LVL151:
 368:..\paho.mqtt.embedded-c\MQTTClient-C\src/MQTTClient.c **** 	Timer timer;
 369:..\paho.mqtt.embedded-c\MQTTClient-C\src/MQTTClient.c **** 	MQTTClient* c = (MQTTClient*)parm;
 370:..\paho.mqtt.embedded-c\MQTTClient-C\src/MQTTClient.c **** 
 371:..\paho.mqtt.embedded-c\MQTTClient-C\src/MQTTClient.c **** 	TimerInit(&timer);
 1167              		.loc 1 371 0
 1168 0006 01A8     		add	r0, sp, #4
 1169              	.LVL152:
 1170 0008 FFF7FEFF 		bl	TimerInit
 1171              	.LVL153:
 1172              	.L92:
 372:..\paho.mqtt.embedded-c\MQTTClient-C\src/MQTTClient.c **** 
 373:..\paho.mqtt.embedded-c\MQTTClient-C\src/MQTTClient.c **** 	while (1)
 374:..\paho.mqtt.embedded-c\MQTTClient-C\src/MQTTClient.c **** 	{
 375:..\paho.mqtt.embedded-c\MQTTClient-C\src/MQTTClient.c **** #if defined(MQTT_TASK)
 376:..\paho.mqtt.embedded-c\MQTTClient-C\src/MQTTClient.c **** 		MutexLock(&c->mutex);
 1173              		.loc 1 376 0 discriminator 1
 1174 000c 05F17004 		add	r4, r5, #112
 1175 0010 2046     		mov	r0, r4
 1176 0012 FFF7FEFF 		bl	MutexLock
 1177              	.LVL154:
 377:..\paho.mqtt.embedded-c\MQTTClient-C\src/MQTTClient.c **** #endif
 378:..\paho.mqtt.embedded-c\MQTTClient-C\src/MQTTClient.c **** 		TimerCountdownMS(&timer, 500); /* Don't wait too long if no traffic is incoming */
 1178              		.loc 1 378 0 discriminator 1
 1179 0016 4FF4FA71 		mov	r1, #500
 1180 001a 01A8     		add	r0, sp, #4
 1181 001c FFF7FEFF 		bl	TimerCountdownMS
 1182              	.LVL155:
 379:..\paho.mqtt.embedded-c\MQTTClient-C\src/MQTTClient.c **** 		cycle(c, &timer);
 1183              		.loc 1 379 0 discriminator 1
 1184 0020 01A9     		add	r1, sp, #4
 1185 0022 2846     		mov	r0, r5
 1186 0024 FFF7FEFF 		bl	cycle
 1187              	.LVL156:
 380:..\paho.mqtt.embedded-c\MQTTClient-C\src/MQTTClient.c **** #if defined(MQTT_TASK)
 381:..\paho.mqtt.embedded-c\MQTTClient-C\src/MQTTClient.c **** 		MutexUnlock(&c->mutex);
 1188              		.loc 1 381 0 discriminator 1
 1189 0028 2046     		mov	r0, r4
 1190 002a FFF7FEFF 		bl	MutexUnlock
 1191              	.LVL157:
 382:..\paho.mqtt.embedded-c\MQTTClient-C\src/MQTTClient.c ****         vTaskDelay(10); //KRL: sleep to allow other tasks to take the mutex
 1192              		.loc 1 382 0 discriminator 1
 1193 002e 0A20     		movs	r0, #10
 1194 0030 FFF7FEFF 		bl	vTaskDelay
 1195              	.LVL158:
 1196 0034 EAE7     		b	.L92
 1197              		.cfi_endproc
 1198              	.LFE83:
 1199              		.size	MQTTRun, .-MQTTRun
 1200 0036 00BF     		.section	.text.MQTTYield,"ax",%progbits
ARM GAS  C:\Users\samue\AppData\Local\Temp\ccYWUiYX.s 			page 30


 1201              		.align	2
 1202              		.global	MQTTYield
 1203              		.thumb
 1204              		.thumb_func
 1205              		.type	MQTTYield, %function
 1206              	MQTTYield:
 1207              	.LFB81:
 342:..\paho.mqtt.embedded-c\MQTTClient-C\src/MQTTClient.c ****     int rc = SUCCESS;
 1208              		.loc 1 342 0
 1209              		.cfi_startproc
 1210              		@ args = 0, pretend = 0, frame = 16
 1211              		@ frame_needed = 0, uses_anonymous_args = 0
 1212              	.LVL159:
 1213 0000 30B5     		push	{r4, r5, lr}
 1214              		.cfi_def_cfa_offset 12
 1215              		.cfi_offset 4, -12
 1216              		.cfi_offset 5, -8
 1217              		.cfi_offset 14, -4
 1218 0002 85B0     		sub	sp, sp, #20
 1219              		.cfi_def_cfa_offset 32
 1220 0004 0446     		mov	r4, r0
 1221 0006 0D46     		mov	r5, r1
 1222              	.LVL160:
 346:..\paho.mqtt.embedded-c\MQTTClient-C\src/MQTTClient.c ****     TimerCountdownMS(&timer, timeout_ms);
 1223              		.loc 1 346 0
 1224 0008 01A8     		add	r0, sp, #4
 1225              	.LVL161:
 1226 000a FFF7FEFF 		bl	TimerInit
 1227              	.LVL162:
 347:..\paho.mqtt.embedded-c\MQTTClient-C\src/MQTTClient.c **** 
 1228              		.loc 1 347 0
 1229 000e 2946     		mov	r1, r5
 1230 0010 01A8     		add	r0, sp, #4
 1231 0012 FFF7FEFF 		bl	TimerCountdownMS
 1232              	.LVL163:
 1233              	.L96:
 351:..\paho.mqtt.embedded-c\MQTTClient-C\src/MQTTClient.c ****         {
 1234              		.loc 1 351 0
 1235 0016 01A9     		add	r1, sp, #4
 1236 0018 2046     		mov	r0, r4
 1237 001a FFF7FEFF 		bl	cycle
 1238              	.LVL164:
 1239 001e 0028     		cmp	r0, #0
 1240 0020 06DB     		blt	.L97
 356:..\paho.mqtt.embedded-c\MQTTClient-C\src/MQTTClient.c **** 
 1241              		.loc 1 356 0
 1242 0022 01A8     		add	r0, sp, #4
 1243 0024 FFF7FEFF 		bl	TimerIsExpired
 1244              	.LVL165:
 1245 0028 0028     		cmp	r0, #0
 1246 002a F4D0     		beq	.L96
 343:..\paho.mqtt.embedded-c\MQTTClient-C\src/MQTTClient.c ****     Timer timer;
 1247              		.loc 1 343 0
 1248 002c 0020     		movs	r0, #0
 1249 002e 01E0     		b	.L95
 1250              	.L97:
 353:..\paho.mqtt.embedded-c\MQTTClient-C\src/MQTTClient.c ****             break;
ARM GAS  C:\Users\samue\AppData\Local\Temp\ccYWUiYX.s 			page 31


 1251              		.loc 1 353 0
 1252 0030 4FF0FF30 		mov	r0, #-1
 1253              	.L95:
 1254              	.LVL166:
 359:..\paho.mqtt.embedded-c\MQTTClient-C\src/MQTTClient.c **** 
 1255              		.loc 1 359 0
 1256 0034 05B0     		add	sp, sp, #20
 1257              		.cfi_def_cfa_offset 12
 1258              		@ sp needed
 1259 0036 30BD     		pop	{r4, r5, pc}
 1260              		.cfi_endproc
 1261              	.LFE81:
 1262              		.size	MQTTYield, .-MQTTYield
 1263              		.section	.text.MQTTIsConnected,"ax",%progbits
 1264              		.align	2
 1265              		.global	MQTTIsConnected
 1266              		.thumb
 1267              		.thumb_func
 1268              		.type	MQTTIsConnected, %function
 1269              	MQTTIsConnected:
 1270              	.LFB82:
 362:..\paho.mqtt.embedded-c\MQTTClient-C\src/MQTTClient.c ****   return client->isconnected;
 1271              		.loc 1 362 0
 1272              		.cfi_startproc
 1273              		@ args = 0, pretend = 0, frame = 0
 1274              		@ frame_needed = 0, uses_anonymous_args = 0
 1275              		@ link register save eliminated.
 1276              	.LVL167:
 364:..\paho.mqtt.embedded-c\MQTTClient-C\src/MQTTClient.c **** 
 1277              		.loc 1 364 0
 1278 0000 006A     		ldr	r0, [r0, #32]
 1279              	.LVL168:
 1280 0002 7047     		bx	lr
 1281              		.cfi_endproc
 1282              	.LFE82:
 1283              		.size	MQTTIsConnected, .-MQTTIsConnected
 1284              		.section	.text.MQTTStartTask,"ax",%progbits
 1285              		.align	2
 1286              		.global	MQTTStartTask
 1287              		.thumb
 1288              		.thumb_func
 1289              		.type	MQTTStartTask, %function
 1290              	MQTTStartTask:
 1291              	.LFB84:
 383:..\paho.mqtt.embedded-c\MQTTClient-C\src/MQTTClient.c **** #endif
 384:..\paho.mqtt.embedded-c\MQTTClient-C\src/MQTTClient.c **** 	}
 385:..\paho.mqtt.embedded-c\MQTTClient-C\src/MQTTClient.c **** }
 386:..\paho.mqtt.embedded-c\MQTTClient-C\src/MQTTClient.c **** 
 387:..\paho.mqtt.embedded-c\MQTTClient-C\src/MQTTClient.c **** 
 388:..\paho.mqtt.embedded-c\MQTTClient-C\src/MQTTClient.c **** #if defined(MQTT_TASK)
 389:..\paho.mqtt.embedded-c\MQTTClient-C\src/MQTTClient.c **** int MQTTStartTask(MQTTClient* client)
 390:..\paho.mqtt.embedded-c\MQTTClient-C\src/MQTTClient.c **** {
 1292              		.loc 1 390 0
 1293              		.cfi_startproc
 1294              		@ args = 0, pretend = 0, frame = 0
 1295              		@ frame_needed = 0, uses_anonymous_args = 0
 1296              	.LVL169:
ARM GAS  C:\Users\samue\AppData\Local\Temp\ccYWUiYX.s 			page 32


 1297 0000 08B5     		push	{r3, lr}
 1298              		.cfi_def_cfa_offset 8
 1299              		.cfi_offset 3, -8
 1300              		.cfi_offset 14, -4
 391:..\paho.mqtt.embedded-c\MQTTClient-C\src/MQTTClient.c **** 	return ThreadStart(&client->thread, &MQTTRun, client);
 1301              		.loc 1 391 0
 1302 0002 0246     		mov	r2, r0
 1303 0004 0249     		ldr	r1, .L102
 1304 0006 7430     		adds	r0, r0, #116
 1305              	.LVL170:
 1306 0008 FFF7FEFF 		bl	ThreadStart
 1307              	.LVL171:
 392:..\paho.mqtt.embedded-c\MQTTClient-C\src/MQTTClient.c **** }
 1308              		.loc 1 392 0
 1309 000c 08BD     		pop	{r3, pc}
 1310              	.L103:
 1311 000e 00BF     		.align	2
 1312              	.L102:
 1313 0010 00000000 		.word	MQTTRun
 1314              		.cfi_endproc
 1315              	.LFE84:
 1316              		.size	MQTTStartTask, .-MQTTStartTask
 1317              		.section	.text.waitfor,"ax",%progbits
 1318              		.align	2
 1319              		.global	waitfor
 1320              		.thumb
 1321              		.thumb_func
 1322              		.type	waitfor, %function
 1323              	waitfor:
 1324              	.LFB85:
 393:..\paho.mqtt.embedded-c\MQTTClient-C\src/MQTTClient.c **** #endif
 394:..\paho.mqtt.embedded-c\MQTTClient-C\src/MQTTClient.c **** 
 395:..\paho.mqtt.embedded-c\MQTTClient-C\src/MQTTClient.c **** 
 396:..\paho.mqtt.embedded-c\MQTTClient-C\src/MQTTClient.c **** int waitfor(MQTTClient* c, int packet_type, Timer* timer)
 397:..\paho.mqtt.embedded-c\MQTTClient-C\src/MQTTClient.c **** {
 1325              		.loc 1 397 0
 1326              		.cfi_startproc
 1327              		@ args = 0, pretend = 0, frame = 0
 1328              		@ frame_needed = 0, uses_anonymous_args = 0
 1329              	.LVL172:
 1330 0000 F8B5     		push	{r3, r4, r5, r6, r7, lr}
 1331              		.cfi_def_cfa_offset 24
 1332              		.cfi_offset 3, -24
 1333              		.cfi_offset 4, -20
 1334              		.cfi_offset 5, -16
 1335              		.cfi_offset 6, -12
 1336              		.cfi_offset 7, -8
 1337              		.cfi_offset 14, -4
 1338 0002 0746     		mov	r7, r0
 1339 0004 0E46     		mov	r6, r1
 1340 0006 1546     		mov	r5, r2
 1341              	.LVL173:
 398:..\paho.mqtt.embedded-c\MQTTClient-C\src/MQTTClient.c ****     int rc = FAILURE;
 1342              		.loc 1 398 0
 1343 0008 4FF0FF34 		mov	r4, #-1
 1344              	.LVL174:
 1345              	.L106:
ARM GAS  C:\Users\samue\AppData\Local\Temp\ccYWUiYX.s 			page 33


 399:..\paho.mqtt.embedded-c\MQTTClient-C\src/MQTTClient.c **** 
 400:..\paho.mqtt.embedded-c\MQTTClient-C\src/MQTTClient.c ****     do
 401:..\paho.mqtt.embedded-c\MQTTClient-C\src/MQTTClient.c ****     {
 402:..\paho.mqtt.embedded-c\MQTTClient-C\src/MQTTClient.c ****         if (TimerIsExpired(timer))
 1346              		.loc 1 402 0
 1347 000c 2846     		mov	r0, r5
 1348 000e FFF7FEFF 		bl	TimerIsExpired
 1349              	.LVL175:
 1350 0012 40B9     		cbnz	r0, .L105
 403:..\paho.mqtt.embedded-c\MQTTClient-C\src/MQTTClient.c ****             break; // we timed out
 404:..\paho.mqtt.embedded-c\MQTTClient-C\src/MQTTClient.c ****         rc = cycle(c, timer);
 1351              		.loc 1 404 0
 1352 0014 2946     		mov	r1, r5
 1353 0016 3846     		mov	r0, r7
 1354 0018 FFF7FEFF 		bl	cycle
 1355              	.LVL176:
 1356 001c 0446     		mov	r4, r0
 1357              	.LVL177:
 405:..\paho.mqtt.embedded-c\MQTTClient-C\src/MQTTClient.c ****     }
 406:..\paho.mqtt.embedded-c\MQTTClient-C\src/MQTTClient.c ****     while (rc != packet_type && rc >= 0);
 1358              		.loc 1 406 0
 1359 001e B042     		cmp	r0, r6
 1360 0020 01D0     		beq	.L105
 1361              		.loc 1 406 0 is_stmt 0 discriminator 1
 1362 0022 0028     		cmp	r0, #0
 1363 0024 F2DA     		bge	.L106
 1364              	.LVL178:
 1365              	.L105:
 407:..\paho.mqtt.embedded-c\MQTTClient-C\src/MQTTClient.c **** 
 408:..\paho.mqtt.embedded-c\MQTTClient-C\src/MQTTClient.c ****     return rc;
 409:..\paho.mqtt.embedded-c\MQTTClient-C\src/MQTTClient.c **** }
 1366              		.loc 1 409 0 is_stmt 1
 1367 0026 2046     		mov	r0, r4
 1368 0028 F8BD     		pop	{r3, r4, r5, r6, r7, pc}
 1369              		.cfi_endproc
 1370              	.LFE85:
 1371              		.size	waitfor, .-waitfor
 1372 002a 00BF     		.section	.text.MQTTConnectWithResults,"ax",%progbits
 1373              		.align	2
 1374              		.global	MQTTConnectWithResults
 1375              		.thumb
 1376              		.thumb_func
 1377              		.type	MQTTConnectWithResults, %function
 1378              	MQTTConnectWithResults:
 1379              	.LFB86:
 410:..\paho.mqtt.embedded-c\MQTTClient-C\src/MQTTClient.c **** 
 411:..\paho.mqtt.embedded-c\MQTTClient-C\src/MQTTClient.c **** 
 412:..\paho.mqtt.embedded-c\MQTTClient-C\src/MQTTClient.c **** 
 413:..\paho.mqtt.embedded-c\MQTTClient-C\src/MQTTClient.c **** 
 414:..\paho.mqtt.embedded-c\MQTTClient-C\src/MQTTClient.c **** int MQTTConnectWithResults(MQTTClient* c, MQTTPacket_connectData* options, MQTTConnackData* data)
 415:..\paho.mqtt.embedded-c\MQTTClient-C\src/MQTTClient.c **** {
 1380              		.loc 1 415 0
 1381              		.cfi_startproc
 1382              		@ args = 0, pretend = 0, frame = 104
 1383              		@ frame_needed = 0, uses_anonymous_args = 0
 1384              	.LVL179:
 1385 0000 F0B5     		push	{r4, r5, r6, r7, lr}
ARM GAS  C:\Users\samue\AppData\Local\Temp\ccYWUiYX.s 			page 34


 1386              		.cfi_def_cfa_offset 20
 1387              		.cfi_offset 4, -20
 1388              		.cfi_offset 5, -16
 1389              		.cfi_offset 6, -12
 1390              		.cfi_offset 7, -8
 1391              		.cfi_offset 14, -4
 1392 0002 9BB0     		sub	sp, sp, #108
 1393              		.cfi_def_cfa_offset 128
 1394 0004 0446     		mov	r4, r0
 1395 0006 0D46     		mov	r5, r1
 1396 0008 1746     		mov	r7, r2
 1397              	.LVL180:
 416:..\paho.mqtt.embedded-c\MQTTClient-C\src/MQTTClient.c ****     Timer connect_timer;
 417:..\paho.mqtt.embedded-c\MQTTClient-C\src/MQTTClient.c ****     int rc = FAILURE;
 418:..\paho.mqtt.embedded-c\MQTTClient-C\src/MQTTClient.c ****     MQTTPacket_connectData default_options = MQTTPacket_connectData_initializer;
 1398              		.loc 1 418 0
 1399 000a 5822     		movs	r2, #88
 1400              	.LVL181:
 1401 000c 2A49     		ldr	r1, .L118
 1402              	.LVL182:
 1403 000e 01A8     		add	r0, sp, #4
 1404              	.LVL183:
 1405 0010 FFF7FEFF 		bl	memcpy
 1406              	.LVL184:
 419:..\paho.mqtt.embedded-c\MQTTClient-C\src/MQTTClient.c ****     int len = 0;
 420:..\paho.mqtt.embedded-c\MQTTClient-C\src/MQTTClient.c **** 
 421:..\paho.mqtt.embedded-c\MQTTClient-C\src/MQTTClient.c **** #if defined(MQTT_TASK)
 422:..\paho.mqtt.embedded-c\MQTTClient-C\src/MQTTClient.c **** 	  MutexLock(&c->mutex);
 1407              		.loc 1 422 0
 1408 0014 04F17006 		add	r6, r4, #112
 1409 0018 3046     		mov	r0, r6
 1410 001a FFF7FEFF 		bl	MutexLock
 1411              	.LVL185:
 423:..\paho.mqtt.embedded-c\MQTTClient-C\src/MQTTClient.c **** #endif
 424:..\paho.mqtt.embedded-c\MQTTClient-C\src/MQTTClient.c **** 	  if (c->isconnected) /* don't send connect packet again if we are already connected */
 1412              		.loc 1 424 0
 1413 001e 236A     		ldr	r3, [r4, #32]
 1414 0020 002B     		cmp	r3, #0
 1415 0022 32D1     		bne	.L112
 425:..\paho.mqtt.embedded-c\MQTTClient-C\src/MQTTClient.c **** 		  goto exit;
 426:..\paho.mqtt.embedded-c\MQTTClient-C\src/MQTTClient.c **** 
 427:..\paho.mqtt.embedded-c\MQTTClient-C\src/MQTTClient.c ****     TimerInit(&connect_timer);
 1416              		.loc 1 427 0
 1417 0024 17A8     		add	r0, sp, #92
 1418 0026 FFF7FEFF 		bl	TimerInit
 1419              	.LVL186:
 428:..\paho.mqtt.embedded-c\MQTTClient-C\src/MQTTClient.c ****     TimerCountdownMS(&connect_timer, c->command_timeout_ms);
 1420              		.loc 1 428 0
 1421 002a 6168     		ldr	r1, [r4, #4]
 1422 002c 17A8     		add	r0, sp, #92
 1423 002e FFF7FEFF 		bl	TimerCountdownMS
 1424              	.LVL187:
 429:..\paho.mqtt.embedded-c\MQTTClient-C\src/MQTTClient.c **** 
 430:..\paho.mqtt.embedded-c\MQTTClient-C\src/MQTTClient.c ****     if (options == 0)
 1425              		.loc 1 430 0
 1426 0032 05B9     		cbnz	r5, .L110
 431:..\paho.mqtt.embedded-c\MQTTClient-C\src/MQTTClient.c ****         options = &default_options; /* set default options if none were supplied */
ARM GAS  C:\Users\samue\AppData\Local\Temp\ccYWUiYX.s 			page 35


 1427              		.loc 1 431 0
 1428 0034 01AD     		add	r5, sp, #4
 1429              	.LVL188:
 1430              	.L110:
 432:..\paho.mqtt.embedded-c\MQTTClient-C\src/MQTTClient.c **** 
 433:..\paho.mqtt.embedded-c\MQTTClient-C\src/MQTTClient.c ****     c->keepAliveInterval = options->keepAliveInterval;
 1431              		.loc 1 433 0
 1432 0036 298B     		ldrh	r1, [r5, #24]
 1433 0038 A161     		str	r1, [r4, #24]
 434:..\paho.mqtt.embedded-c\MQTTClient-C\src/MQTTClient.c ****     c->cleansession = options->cleansession;
 1434              		.loc 1 434 0
 1435 003a AB7E     		ldrb	r3, [r5, #26]	@ zero_extendqisi2
 1436 003c 6362     		str	r3, [r4, #36]
 435:..\paho.mqtt.embedded-c\MQTTClient-C\src/MQTTClient.c ****     TimerCountdown(&c->last_received, c->keepAliveInterval);
 1437              		.loc 1 435 0
 1438 003e 04F16400 		add	r0, r4, #100
 1439 0042 FFF7FEFF 		bl	TimerCountdown
 1440              	.LVL189:
 436:..\paho.mqtt.embedded-c\MQTTClient-C\src/MQTTClient.c ****     if ((len = MQTTSerialize_connect(c->buf, c->buf_size, options)) <= 0)
 1441              		.loc 1 436 0
 1442 0046 2A46     		mov	r2, r5
 1443 0048 A168     		ldr	r1, [r4, #8]
 1444 004a 2069     		ldr	r0, [r4, #16]
 1445 004c FFF7FEFF 		bl	MQTTSerialize_connect
 1446              	.LVL190:
 1447 0050 011E     		subs	r1, r0, #0
 1448 0052 1DDD     		ble	.L114
 437:..\paho.mqtt.embedded-c\MQTTClient-C\src/MQTTClient.c ****         goto exit;
 438:..\paho.mqtt.embedded-c\MQTTClient-C\src/MQTTClient.c ****     if ((rc = sendPacket(c, len, &connect_timer)) != SUCCESS)  // send the connect packet
 1449              		.loc 1 438 0
 1450 0054 17AA     		add	r2, sp, #92
 1451 0056 2046     		mov	r0, r4
 1452              	.LVL191:
 1453 0058 FFF7FEFF 		bl	sendPacket
 1454              	.LVL192:
 1455 005c 0546     		mov	r5, r0
 1456              	.LVL193:
 1457 005e F8B9     		cbnz	r0, .L109
 439:..\paho.mqtt.embedded-c\MQTTClient-C\src/MQTTClient.c ****         goto exit; // there was a problem
 440:..\paho.mqtt.embedded-c\MQTTClient-C\src/MQTTClient.c **** 
 441:..\paho.mqtt.embedded-c\MQTTClient-C\src/MQTTClient.c ****     // this will be a blocking call, wait for the connack
 442:..\paho.mqtt.embedded-c\MQTTClient-C\src/MQTTClient.c ****     if (waitfor(c, CONNACK, &connect_timer) == CONNACK)
 1458              		.loc 1 442 0
 1459 0060 17AA     		add	r2, sp, #92
 1460 0062 0221     		movs	r1, #2
 1461 0064 2046     		mov	r0, r4
 1462              	.LVL194:
 1463 0066 FFF7FEFF 		bl	waitfor
 1464              	.LVL195:
 1465 006a 0228     		cmp	r0, #2
 1466 006c 13D1     		bne	.L115
 443:..\paho.mqtt.embedded-c\MQTTClient-C\src/MQTTClient.c ****     {
 444:..\paho.mqtt.embedded-c\MQTTClient-C\src/MQTTClient.c ****         data->rc = 0;
 1467              		.loc 1 444 0
 1468 006e 0023     		movs	r3, #0
 1469 0070 3B70     		strb	r3, [r7]
 445:..\paho.mqtt.embedded-c\MQTTClient-C\src/MQTTClient.c ****         data->sessionPresent = 0;
ARM GAS  C:\Users\samue\AppData\Local\Temp\ccYWUiYX.s 			page 36


 1470              		.loc 1 445 0
 1471 0072 3846     		mov	r0, r7
 1472 0074 00F8013F 		strb	r3, [r0, #1]!
 446:..\paho.mqtt.embedded-c\MQTTClient-C\src/MQTTClient.c ****         if (MQTTDeserialize_connack(&data->sessionPresent, &data->rc, c->readbuf, c->readbuf_size) 
 1473              		.loc 1 446 0
 1474 0078 E368     		ldr	r3, [r4, #12]
 1475 007a 6269     		ldr	r2, [r4, #20]
 1476 007c 3946     		mov	r1, r7
 1477 007e FFF7FEFF 		bl	MQTTDeserialize_connack
 1478              	.LVL196:
 1479 0082 0128     		cmp	r0, #1
 1480 0084 0AD1     		bne	.L116
 447:..\paho.mqtt.embedded-c\MQTTClient-C\src/MQTTClient.c ****             rc = data->rc;
 1481              		.loc 1 447 0
 1482 0086 3D78     		ldrb	r5, [r7]	@ zero_extendqisi2
 1483              	.LVL197:
 1484 0088 0AE0     		b	.L109
 1485              	.LVL198:
 1486              	.L112:
 417:..\paho.mqtt.embedded-c\MQTTClient-C\src/MQTTClient.c ****     MQTTPacket_connectData default_options = MQTTPacket_connectData_initializer;
 1487              		.loc 1 417 0
 1488 008a 4FF0FF35 		mov	r5, #-1
 1489              	.LVL199:
 1490 008e 07E0     		b	.L109
 1491              	.LVL200:
 1492              	.L114:
 1493 0090 4FF0FF35 		mov	r5, #-1
 1494              	.LVL201:
 1495 0094 04E0     		b	.L109
 1496              	.LVL202:
 1497              	.L115:
 448:..\paho.mqtt.embedded-c\MQTTClient-C\src/MQTTClient.c ****         else
 449:..\paho.mqtt.embedded-c\MQTTClient-C\src/MQTTClient.c ****             rc = FAILURE;
 450:..\paho.mqtt.embedded-c\MQTTClient-C\src/MQTTClient.c ****     }
 451:..\paho.mqtt.embedded-c\MQTTClient-C\src/MQTTClient.c ****     else
 452:..\paho.mqtt.embedded-c\MQTTClient-C\src/MQTTClient.c ****         rc = FAILURE;
 1498              		.loc 1 452 0
 1499 0096 4FF0FF35 		mov	r5, #-1
 1500              	.LVL203:
 1501 009a 01E0     		b	.L109
 1502              	.LVL204:
 1503              	.L116:
 449:..\paho.mqtt.embedded-c\MQTTClient-C\src/MQTTClient.c ****     }
 1504              		.loc 1 449 0
 1505 009c 4FF0FF35 		mov	r5, #-1
 1506              	.LVL205:
 1507              	.L109:
 453:..\paho.mqtt.embedded-c\MQTTClient-C\src/MQTTClient.c **** 
 454:..\paho.mqtt.embedded-c\MQTTClient-C\src/MQTTClient.c **** exit:
 455:..\paho.mqtt.embedded-c\MQTTClient-C\src/MQTTClient.c ****     if (rc == SUCCESS)
 1508              		.loc 1 455 0
 1509 00a0 1DB9     		cbnz	r5, .L111
 456:..\paho.mqtt.embedded-c\MQTTClient-C\src/MQTTClient.c ****     {
 457:..\paho.mqtt.embedded-c\MQTTClient-C\src/MQTTClient.c ****         c->isconnected = 1;
 1510              		.loc 1 457 0
 1511 00a2 0123     		movs	r3, #1
 1512 00a4 2362     		str	r3, [r4, #32]
ARM GAS  C:\Users\samue\AppData\Local\Temp\ccYWUiYX.s 			page 37


 458:..\paho.mqtt.embedded-c\MQTTClient-C\src/MQTTClient.c ****         c->ping_outstanding = 0;
 1513              		.loc 1 458 0
 1514 00a6 0023     		movs	r3, #0
 1515 00a8 2377     		strb	r3, [r4, #28]
 1516              	.L111:
 459:..\paho.mqtt.embedded-c\MQTTClient-C\src/MQTTClient.c ****     }
 460:..\paho.mqtt.embedded-c\MQTTClient-C\src/MQTTClient.c **** 
 461:..\paho.mqtt.embedded-c\MQTTClient-C\src/MQTTClient.c **** #if defined(MQTT_TASK)
 462:..\paho.mqtt.embedded-c\MQTTClient-C\src/MQTTClient.c **** 	  MutexUnlock(&c->mutex);
 1517              		.loc 1 462 0
 1518 00aa 3046     		mov	r0, r6
 1519 00ac FFF7FEFF 		bl	MutexUnlock
 1520              	.LVL206:
 463:..\paho.mqtt.embedded-c\MQTTClient-C\src/MQTTClient.c **** #endif
 464:..\paho.mqtt.embedded-c\MQTTClient-C\src/MQTTClient.c **** 
 465:..\paho.mqtt.embedded-c\MQTTClient-C\src/MQTTClient.c ****     return rc;
 466:..\paho.mqtt.embedded-c\MQTTClient-C\src/MQTTClient.c **** }
 1521              		.loc 1 466 0
 1522 00b0 2846     		mov	r0, r5
 1523 00b2 1BB0     		add	sp, sp, #108
 1524              		.cfi_def_cfa_offset 20
 1525              		@ sp needed
 1526 00b4 F0BD     		pop	{r4, r5, r6, r7, pc}
 1527              	.LVL207:
 1528              	.L119:
 1529 00b6 00BF     		.align	2
 1530              	.L118:
 1531 00b8 00000000 		.word	.LANCHOR0
 1532              		.cfi_endproc
 1533              	.LFE86:
 1534              		.size	MQTTConnectWithResults, .-MQTTConnectWithResults
 1535              		.section	.text.MQTTConnect,"ax",%progbits
 1536              		.align	2
 1537              		.global	MQTTConnect
 1538              		.thumb
 1539              		.thumb_func
 1540              		.type	MQTTConnect, %function
 1541              	MQTTConnect:
 1542              	.LFB87:
 467:..\paho.mqtt.embedded-c\MQTTClient-C\src/MQTTClient.c **** 
 468:..\paho.mqtt.embedded-c\MQTTClient-C\src/MQTTClient.c **** 
 469:..\paho.mqtt.embedded-c\MQTTClient-C\src/MQTTClient.c **** int MQTTConnect(MQTTClient* c, MQTTPacket_connectData* options)
 470:..\paho.mqtt.embedded-c\MQTTClient-C\src/MQTTClient.c **** {
 1543              		.loc 1 470 0
 1544              		.cfi_startproc
 1545              		@ args = 0, pretend = 0, frame = 8
 1546              		@ frame_needed = 0, uses_anonymous_args = 0
 1547              	.LVL208:
 1548 0000 00B5     		push	{lr}
 1549              		.cfi_def_cfa_offset 4
 1550              		.cfi_offset 14, -4
 1551 0002 83B0     		sub	sp, sp, #12
 1552              		.cfi_def_cfa_offset 16
 471:..\paho.mqtt.embedded-c\MQTTClient-C\src/MQTTClient.c ****     MQTTConnackData data;
 472:..\paho.mqtt.embedded-c\MQTTClient-C\src/MQTTClient.c ****     return MQTTConnectWithResults(c, options, &data);
 1553              		.loc 1 472 0
 1554 0004 01AA     		add	r2, sp, #4
ARM GAS  C:\Users\samue\AppData\Local\Temp\ccYWUiYX.s 			page 38


 1555 0006 FFF7FEFF 		bl	MQTTConnectWithResults
 1556              	.LVL209:
 473:..\paho.mqtt.embedded-c\MQTTClient-C\src/MQTTClient.c **** }
 1557              		.loc 1 473 0
 1558 000a 03B0     		add	sp, sp, #12
 1559              		.cfi_def_cfa_offset 4
 1560              		@ sp needed
 1561 000c 5DF804FB 		ldr	pc, [sp], #4
 1562              		.cfi_endproc
 1563              	.LFE87:
 1564              		.size	MQTTConnect, .-MQTTConnect
 1565              		.section	.text.MQTTSetMessageHandler,"ax",%progbits
 1566              		.align	2
 1567              		.global	MQTTSetMessageHandler
 1568              		.thumb
 1569              		.thumb_func
 1570              		.type	MQTTSetMessageHandler, %function
 1571              	MQTTSetMessageHandler:
 1572              	.LFB88:
 474:..\paho.mqtt.embedded-c\MQTTClient-C\src/MQTTClient.c **** 
 475:..\paho.mqtt.embedded-c\MQTTClient-C\src/MQTTClient.c **** 
 476:..\paho.mqtt.embedded-c\MQTTClient-C\src/MQTTClient.c **** int MQTTSetMessageHandler(MQTTClient* c, const char* topicFilter, messageHandler messageHandler)
 477:..\paho.mqtt.embedded-c\MQTTClient-C\src/MQTTClient.c **** {
 1573              		.loc 1 477 0
 1574              		.cfi_startproc
 1575              		@ args = 0, pretend = 0, frame = 0
 1576              		@ frame_needed = 0, uses_anonymous_args = 0
 1577              	.LVL210:
 1578 0000 F8B5     		push	{r3, r4, r5, r6, r7, lr}
 1579              		.cfi_def_cfa_offset 24
 1580              		.cfi_offset 3, -24
 1581              		.cfi_offset 4, -20
 1582              		.cfi_offset 5, -16
 1583              		.cfi_offset 6, -12
 1584              		.cfi_offset 7, -8
 1585              		.cfi_offset 14, -4
 1586 0002 0546     		mov	r5, r0
 1587 0004 0E46     		mov	r6, r1
 1588 0006 1746     		mov	r7, r2
 1589              	.LVL211:
 478:..\paho.mqtt.embedded-c\MQTTClient-C\src/MQTTClient.c ****     int rc = FAILURE;
 479:..\paho.mqtt.embedded-c\MQTTClient-C\src/MQTTClient.c ****     int i = -1;
 480:..\paho.mqtt.embedded-c\MQTTClient-C\src/MQTTClient.c **** 
 481:..\paho.mqtt.embedded-c\MQTTClient-C\src/MQTTClient.c ****     /* first check for an existing matching slot */
 482:..\paho.mqtt.embedded-c\MQTTClient-C\src/MQTTClient.c ****     for (i = 0; i < MAX_MESSAGE_HANDLERS; ++i)
 1590              		.loc 1 482 0
 1591 0008 0024     		movs	r4, #0
 1592 000a 10E0     		b	.L123
 1593              	.LVL212:
 1594              	.L126:
 483:..\paho.mqtt.embedded-c\MQTTClient-C\src/MQTTClient.c ****     {
 484:..\paho.mqtt.embedded-c\MQTTClient-C\src/MQTTClient.c ****         if (c->messageHandlers[i].topicFilter != NULL && strcmp(c->messageHandlers[i].topicFilter, 
 1595              		.loc 1 484 0
 1596 000c 631D     		adds	r3, r4, #5
 1597 000e 55F83300 		ldr	r0, [r5, r3, lsl #3]
 1598 0012 58B1     		cbz	r0, .L124
 1599              		.loc 1 484 0 is_stmt 0 discriminator 1
ARM GAS  C:\Users\samue\AppData\Local\Temp\ccYWUiYX.s 			page 39


 1600 0014 3146     		mov	r1, r6
 1601 0016 FFF7FEFF 		bl	strcmp
 1602              	.LVL213:
 1603 001a 38B9     		cbnz	r0, .L124
 485:..\paho.mqtt.embedded-c\MQTTClient-C\src/MQTTClient.c ****         {
 486:..\paho.mqtt.embedded-c\MQTTClient-C\src/MQTTClient.c ****             if (messageHandler == NULL) /* remove existing */
 1604              		.loc 1 486 0 is_stmt 1
 1605 001c 67B9     		cbnz	r7, .L131
 487:..\paho.mqtt.embedded-c\MQTTClient-C\src/MQTTClient.c ****             {
 488:..\paho.mqtt.embedded-c\MQTTClient-C\src/MQTTClient.c ****                 c->messageHandlers[i].topicFilter = NULL;
 1606              		.loc 1 488 0
 1607 001e 631D     		adds	r3, r4, #5
 1608 0020 45F83300 		str	r0, [r5, r3, lsl #3]
 489:..\paho.mqtt.embedded-c\MQTTClient-C\src/MQTTClient.c ****                 c->messageHandlers[i].fp = NULL;
 1609              		.loc 1 489 0
 1610 0024 05EBC303 		add	r3, r5, r3, lsl #3
 1611 0028 5860     		str	r0, [r3, #4]
 1612 002a 06E0     		b	.L125
 1613              	.L124:
 482:..\paho.mqtt.embedded-c\MQTTClient-C\src/MQTTClient.c ****     {
 1614              		.loc 1 482 0 discriminator 2
 1615 002c 0134     		adds	r4, r4, #1
 1616              	.LVL214:
 1617              	.L123:
 482:..\paho.mqtt.embedded-c\MQTTClient-C\src/MQTTClient.c ****     {
 1618              		.loc 1 482 0 is_stmt 0 discriminator 1
 1619 002e 042C     		cmp	r4, #4
 1620 0030 ECDD     		ble	.L126
 478:..\paho.mqtt.embedded-c\MQTTClient-C\src/MQTTClient.c ****     int i = -1;
 1621              		.loc 1 478 0 is_stmt 1
 1622 0032 4FF0FF30 		mov	r0, #-1
 1623 0036 00E0     		b	.L125
 1624              	.L131:
 490:..\paho.mqtt.embedded-c\MQTTClient-C\src/MQTTClient.c ****             }
 491:..\paho.mqtt.embedded-c\MQTTClient-C\src/MQTTClient.c ****             rc = SUCCESS; /* return i when adding new subscription */
 1625              		.loc 1 491 0
 1626 0038 0020     		movs	r0, #0
 1627              	.L125:
 1628              	.LVL215:
 492:..\paho.mqtt.embedded-c\MQTTClient-C\src/MQTTClient.c ****             break;
 493:..\paho.mqtt.embedded-c\MQTTClient-C\src/MQTTClient.c ****         }
 494:..\paho.mqtt.embedded-c\MQTTClient-C\src/MQTTClient.c ****     }
 495:..\paho.mqtt.embedded-c\MQTTClient-C\src/MQTTClient.c ****     /* if no existing, look for empty slot (unless we are removing) */
 496:..\paho.mqtt.embedded-c\MQTTClient-C\src/MQTTClient.c ****     if (messageHandler != NULL) {
 1629              		.loc 1 496 0
 1630 003a A7B1     		cbz	r7, .L127
 497:..\paho.mqtt.embedded-c\MQTTClient-C\src/MQTTClient.c ****         if (rc == FAILURE)
 1631              		.loc 1 497 0
 1632 003c 58B1     		cbz	r0, .L129
 1633 003e 05E0     		b	.L132
 1634              	.L130:
 498:..\paho.mqtt.embedded-c\MQTTClient-C\src/MQTTClient.c ****         {
 499:..\paho.mqtt.embedded-c\MQTTClient-C\src/MQTTClient.c ****             for (i = 0; i < MAX_MESSAGE_HANDLERS; ++i)
 500:..\paho.mqtt.embedded-c\MQTTClient-C\src/MQTTClient.c ****             {
 501:..\paho.mqtt.embedded-c\MQTTClient-C\src/MQTTClient.c ****                 if (c->messageHandlers[i].topicFilter == NULL)
 1635              		.loc 1 501 0
 1636 0040 631D     		adds	r3, r4, #5
ARM GAS  C:\Users\samue\AppData\Local\Temp\ccYWUiYX.s 			page 40


 1637 0042 55F83330 		ldr	r3, [r5, r3, lsl #3]
 1638 0046 2BB1     		cbz	r3, .L133
 499:..\paho.mqtt.embedded-c\MQTTClient-C\src/MQTTClient.c ****             {
 1639              		.loc 1 499 0 discriminator 2
 1640 0048 0134     		adds	r4, r4, #1
 1641              	.LVL216:
 1642 004a 00E0     		b	.L128
 1643              	.L132:
 1644 004c 0024     		movs	r4, #0
 1645              	.LVL217:
 1646              	.L128:
 499:..\paho.mqtt.embedded-c\MQTTClient-C\src/MQTTClient.c ****             {
 1647              		.loc 1 499 0 is_stmt 0 discriminator 1
 1648 004e 042C     		cmp	r4, #4
 1649 0050 F6DD     		ble	.L130
 1650 0052 00E0     		b	.L129
 1651              	.L133:
 502:..\paho.mqtt.embedded-c\MQTTClient-C\src/MQTTClient.c ****                 {
 503:..\paho.mqtt.embedded-c\MQTTClient-C\src/MQTTClient.c ****                     rc = SUCCESS;
 1652              		.loc 1 503 0 is_stmt 1
 1653 0054 0020     		movs	r0, #0
 1654              	.LVL218:
 1655              	.L129:
 504:..\paho.mqtt.embedded-c\MQTTClient-C\src/MQTTClient.c ****                     break;
 505:..\paho.mqtt.embedded-c\MQTTClient-C\src/MQTTClient.c ****                 }
 506:..\paho.mqtt.embedded-c\MQTTClient-C\src/MQTTClient.c ****             }
 507:..\paho.mqtt.embedded-c\MQTTClient-C\src/MQTTClient.c ****         }
 508:..\paho.mqtt.embedded-c\MQTTClient-C\src/MQTTClient.c ****         if (i < MAX_MESSAGE_HANDLERS)
 1656              		.loc 1 508 0
 1657 0056 042C     		cmp	r4, #4
 1658 0058 05DC     		bgt	.L127
 509:..\paho.mqtt.embedded-c\MQTTClient-C\src/MQTTClient.c ****         {
 510:..\paho.mqtt.embedded-c\MQTTClient-C\src/MQTTClient.c ****             c->messageHandlers[i].topicFilter = topicFilter;
 1659              		.loc 1 510 0
 1660 005a 0534     		adds	r4, r4, #5
 1661              	.LVL219:
 1662 005c 45F83460 		str	r6, [r5, r4, lsl #3]
 511:..\paho.mqtt.embedded-c\MQTTClient-C\src/MQTTClient.c ****             c->messageHandlers[i].fp = messageHandler;
 1663              		.loc 1 511 0
 1664 0060 05EBC404 		add	r4, r5, r4, lsl #3
 1665              	.LVL220:
 1666 0064 6760     		str	r7, [r4, #4]
 1667              	.L127:
 512:..\paho.mqtt.embedded-c\MQTTClient-C\src/MQTTClient.c ****         }
 513:..\paho.mqtt.embedded-c\MQTTClient-C\src/MQTTClient.c ****     }
 514:..\paho.mqtt.embedded-c\MQTTClient-C\src/MQTTClient.c ****     return rc;
 515:..\paho.mqtt.embedded-c\MQTTClient-C\src/MQTTClient.c **** }
 1668              		.loc 1 515 0
 1669 0066 F8BD     		pop	{r3, r4, r5, r6, r7, pc}
 1670              		.cfi_endproc
 1671              	.LFE88:
 1672              		.size	MQTTSetMessageHandler, .-MQTTSetMessageHandler
 1673              		.section	.text.MQTTSubscribeWithResults,"ax",%progbits
 1674              		.align	2
 1675              		.global	MQTTSubscribeWithResults
 1676              		.thumb
 1677              		.thumb_func
ARM GAS  C:\Users\samue\AppData\Local\Temp\ccYWUiYX.s 			page 41


 1678              		.type	MQTTSubscribeWithResults, %function
 1679              	MQTTSubscribeWithResults:
 1680              	.LFB89:
 516:..\paho.mqtt.embedded-c\MQTTClient-C\src/MQTTClient.c **** 
 517:..\paho.mqtt.embedded-c\MQTTClient-C\src/MQTTClient.c **** 
 518:..\paho.mqtt.embedded-c\MQTTClient-C\src/MQTTClient.c **** int MQTTSubscribeWithResults(MQTTClient* c, const char* topicFilter, enum QoS qos,
 519:..\paho.mqtt.embedded-c\MQTTClient-C\src/MQTTClient.c ****        messageHandler messageHandler, MQTTSubackData* data)
 520:..\paho.mqtt.embedded-c\MQTTClient-C\src/MQTTClient.c **** {
 1681              		.loc 1 520 0
 1682              		.cfi_startproc
 1683              		@ args = 4, pretend = 0, frame = 40
 1684              		@ frame_needed = 0, uses_anonymous_args = 0
 1685              	.LVL221:
 1686 0000 2DE9F043 		push	{r4, r5, r6, r7, r8, r9, lr}
 1687              		.cfi_def_cfa_offset 28
 1688              		.cfi_offset 4, -28
 1689              		.cfi_offset 5, -24
 1690              		.cfi_offset 6, -20
 1691              		.cfi_offset 7, -16
 1692              		.cfi_offset 8, -12
 1693              		.cfi_offset 9, -8
 1694              		.cfi_offset 14, -4
 1695 0004 8FB0     		sub	sp, sp, #60
 1696              		.cfi_def_cfa_offset 88
 1697 0006 0446     		mov	r4, r0
 1698 0008 0F46     		mov	r7, r1
 1699 000a 9846     		mov	r8, r3
 1700 000c 8DF81720 		strb	r2, [sp, #23]
 1701              	.LVL222:
 521:..\paho.mqtt.embedded-c\MQTTClient-C\src/MQTTClient.c ****     int rc = FAILURE;
 522:..\paho.mqtt.embedded-c\MQTTClient-C\src/MQTTClient.c ****     Timer timer;
 523:..\paho.mqtt.embedded-c\MQTTClient-C\src/MQTTClient.c ****     int len = 0;
 524:..\paho.mqtt.embedded-c\MQTTClient-C\src/MQTTClient.c ****     MQTTString topic = MQTTString_initializer;
 1702              		.loc 1 524 0
 1703 0010 0023     		movs	r3, #0
 1704              	.LVL223:
 1705 0012 0993     		str	r3, [sp, #36]
 1706 0014 0A93     		str	r3, [sp, #40]
 525:..\paho.mqtt.embedded-c\MQTTClient-C\src/MQTTClient.c ****     topic.cstring = (char *)topicFilter;
 1707              		.loc 1 525 0
 1708 0016 0891     		str	r1, [sp, #32]
 526:..\paho.mqtt.embedded-c\MQTTClient-C\src/MQTTClient.c **** 
 527:..\paho.mqtt.embedded-c\MQTTClient-C\src/MQTTClient.c **** #if defined(MQTT_TASK)
 528:..\paho.mqtt.embedded-c\MQTTClient-C\src/MQTTClient.c **** 	  MutexLock(&c->mutex);
 1709              		.loc 1 528 0
 1710 0018 00F17006 		add	r6, r0, #112
 1711 001c 3046     		mov	r0, r6
 1712              	.LVL224:
 1713 001e FFF7FEFF 		bl	MutexLock
 1714              	.LVL225:
 529:..\paho.mqtt.embedded-c\MQTTClient-C\src/MQTTClient.c **** #endif
 530:..\paho.mqtt.embedded-c\MQTTClient-C\src/MQTTClient.c **** 	  if (!c->isconnected)
 1715              		.loc 1 530 0
 1716 0022 236A     		ldr	r3, [r4, #32]
 1717 0024 002B     		cmp	r3, #0
 1718 0026 45D0     		beq	.L139
 531:..\paho.mqtt.embedded-c\MQTTClient-C\src/MQTTClient.c **** 		    goto exit;
ARM GAS  C:\Users\samue\AppData\Local\Temp\ccYWUiYX.s 			page 42


 532:..\paho.mqtt.embedded-c\MQTTClient-C\src/MQTTClient.c **** 
 533:..\paho.mqtt.embedded-c\MQTTClient-C\src/MQTTClient.c ****     TimerInit(&timer);
 1719              		.loc 1 533 0
 1720 0028 0BA8     		add	r0, sp, #44
 1721 002a FFF7FEFF 		bl	TimerInit
 1722              	.LVL226:
 534:..\paho.mqtt.embedded-c\MQTTClient-C\src/MQTTClient.c ****     TimerCountdownMS(&timer, c->command_timeout_ms);
 1723              		.loc 1 534 0
 1724 002e 6168     		ldr	r1, [r4, #4]
 1725 0030 0BA8     		add	r0, sp, #44
 1726 0032 FFF7FEFF 		bl	TimerCountdownMS
 1727              	.LVL227:
 535:..\paho.mqtt.embedded-c\MQTTClient-C\src/MQTTClient.c **** 
 536:..\paho.mqtt.embedded-c\MQTTClient-C\src/MQTTClient.c ****     len = MQTTSerialize_subscribe(c->buf, c->buf_size, 0, getNextPacketId(c), 1, &topic, (int*)&qos
 1728              		.loc 1 536 0
 1729 0036 2569     		ldr	r5, [r4, #16]
 1730 0038 D4F80890 		ldr	r9, [r4, #8]
 1731 003c 2046     		mov	r0, r4
 1732 003e FFF7FEFF 		bl	getNextPacketId
 1733              	.LVL228:
 1734 0042 0DF11703 		add	r3, sp, #23
 1735              	.LVL229:
 1736 0046 0293     		str	r3, [sp, #8]
 1737 0048 08AB     		add	r3, sp, #32
 1738              	.LVL230:
 1739 004a 0193     		str	r3, [sp, #4]
 1740 004c 0123     		movs	r3, #1
 1741 004e 0093     		str	r3, [sp]
 1742 0050 83B2     		uxth	r3, r0
 1743 0052 0022     		movs	r2, #0
 1744 0054 4946     		mov	r1, r9
 1745 0056 2846     		mov	r0, r5
 1746 0058 FFF7FEFF 		bl	MQTTSerialize_subscribe
 1747              	.LVL231:
 537:..\paho.mqtt.embedded-c\MQTTClient-C\src/MQTTClient.c ****     if (len <= 0)
 1748              		.loc 1 537 0
 1749 005c 011E     		subs	r1, r0, #0
 1750 005e 2CDD     		ble	.L140
 538:..\paho.mqtt.embedded-c\MQTTClient-C\src/MQTTClient.c ****         goto exit;
 539:..\paho.mqtt.embedded-c\MQTTClient-C\src/MQTTClient.c ****     if ((rc = sendPacket(c, len, &timer)) != SUCCESS) // send the subscribe packet
 1751              		.loc 1 539 0
 1752 0060 0BAA     		add	r2, sp, #44
 1753 0062 2046     		mov	r0, r4
 1754              	.LVL232:
 1755 0064 FFF7FEFF 		bl	sendPacket
 1756              	.LVL233:
 1757 0068 0546     		mov	r5, r0
 1758 006a 58BB     		cbnz	r0, .L136
 540:..\paho.mqtt.embedded-c\MQTTClient-C\src/MQTTClient.c ****         goto exit;             // there was a problem
 541:..\paho.mqtt.embedded-c\MQTTClient-C\src/MQTTClient.c **** 
 542:..\paho.mqtt.embedded-c\MQTTClient-C\src/MQTTClient.c ****     if (waitfor(c, SUBACK, &timer) == SUBACK)      // wait for suback
 1759              		.loc 1 542 0
 1760 006c 0BAA     		add	r2, sp, #44
 1761 006e 0921     		movs	r1, #9
 1762 0070 2046     		mov	r0, r4
 1763              	.LVL234:
 1764 0072 FFF7FEFF 		bl	waitfor
ARM GAS  C:\Users\samue\AppData\Local\Temp\ccYWUiYX.s 			page 43


 1765              	.LVL235:
 1766 0076 0928     		cmp	r0, #9
 1767 0078 22D1     		bne	.L141
 1768              	.LBB10:
 543:..\paho.mqtt.embedded-c\MQTTClient-C\src/MQTTClient.c ****     {
 544:..\paho.mqtt.embedded-c\MQTTClient-C\src/MQTTClient.c ****         int count = 0;
 1769              		.loc 1 544 0
 1770 007a 0023     		movs	r3, #0
 1771 007c 0EAA     		add	r2, sp, #56
 1772 007e 42F81C3D 		str	r3, [r2, #-28]!
 545:..\paho.mqtt.embedded-c\MQTTClient-C\src/MQTTClient.c ****         unsigned short mypacketid;
 546:..\paho.mqtt.embedded-c\MQTTClient-C\src/MQTTClient.c ****         data->grantedQoS = QOS0;
 1773              		.loc 1 546 0
 1774 0082 1699     		ldr	r1, [sp, #88]
 1775 0084 0B70     		strb	r3, [r1]
 547:..\paho.mqtt.embedded-c\MQTTClient-C\src/MQTTClient.c ****         if (MQTTDeserialize_suback(&mypacketid, 1, &count, (int*)&data->grantedQoS, c->readbuf, c->
 1776              		.loc 1 547 0
 1777 0086 E368     		ldr	r3, [r4, #12]
 1778 0088 0193     		str	r3, [sp, #4]
 1779 008a 6369     		ldr	r3, [r4, #20]
 1780 008c 0093     		str	r3, [sp]
 1781 008e 0B46     		mov	r3, r1
 1782 0090 0121     		movs	r1, #1
 1783 0092 0DF11A00 		add	r0, sp, #26
 1784 0096 FFF7FEFF 		bl	MQTTDeserialize_suback
 1785              	.LVL236:
 1786 009a 0128     		cmp	r0, #1
 1787 009c 12D1     		bne	.L136
 548:..\paho.mqtt.embedded-c\MQTTClient-C\src/MQTTClient.c ****         {
 549:..\paho.mqtt.embedded-c\MQTTClient-C\src/MQTTClient.c ****             if (data->grantedQoS != 0x80)
 1788              		.loc 1 549 0
 1789 009e 169B     		ldr	r3, [sp, #88]
 1790 00a0 1B78     		ldrb	r3, [r3]	@ zero_extendqisi2
 1791 00a2 802B     		cmp	r3, #128
 1792 00a4 0ED0     		beq	.L136
 550:..\paho.mqtt.embedded-c\MQTTClient-C\src/MQTTClient.c ****                 rc = MQTTSetMessageHandler(c, topicFilter, messageHandler);
 1793              		.loc 1 550 0
 1794 00a6 4246     		mov	r2, r8
 1795 00a8 3946     		mov	r1, r7
 1796 00aa 2046     		mov	r0, r4
 1797 00ac FFF7FEFF 		bl	MQTTSetMessageHandler
 1798              	.LVL237:
 1799 00b0 0546     		mov	r5, r0
 1800              	.LVL238:
 1801 00b2 07E0     		b	.L136
 1802              	.LVL239:
 1803              	.L139:
 1804              	.LBE10:
 521:..\paho.mqtt.embedded-c\MQTTClient-C\src/MQTTClient.c ****     Timer timer;
 1805              		.loc 1 521 0
 1806 00b4 4FF0FF35 		mov	r5, #-1
 1807 00b8 04E0     		b	.L136
 1808              	.LVL240:
 1809              	.L140:
 1810 00ba 4FF0FF35 		mov	r5, #-1
 1811 00be 01E0     		b	.L136
 1812              	.LVL241:
ARM GAS  C:\Users\samue\AppData\Local\Temp\ccYWUiYX.s 			page 44


 1813              	.L141:
 551:..\paho.mqtt.embedded-c\MQTTClient-C\src/MQTTClient.c ****         }
 552:..\paho.mqtt.embedded-c\MQTTClient-C\src/MQTTClient.c ****     }
 553:..\paho.mqtt.embedded-c\MQTTClient-C\src/MQTTClient.c ****     else
 554:..\paho.mqtt.embedded-c\MQTTClient-C\src/MQTTClient.c ****         rc = FAILURE;
 1814              		.loc 1 554 0
 1815 00c0 4FF0FF35 		mov	r5, #-1
 1816              	.LVL242:
 1817              	.L136:
 555:..\paho.mqtt.embedded-c\MQTTClient-C\src/MQTTClient.c **** 
 556:..\paho.mqtt.embedded-c\MQTTClient-C\src/MQTTClient.c **** exit:
 557:..\paho.mqtt.embedded-c\MQTTClient-C\src/MQTTClient.c ****     if (rc == FAILURE)
 1818              		.loc 1 557 0
 1819 00c4 B5F1FF3F 		cmp	r5, #-1
 1820 00c8 02D1     		bne	.L138
 558:..\paho.mqtt.embedded-c\MQTTClient-C\src/MQTTClient.c ****         MQTTCloseSession(c);
 1821              		.loc 1 558 0
 1822 00ca 2046     		mov	r0, r4
 1823 00cc FFF7FEFF 		bl	MQTTCloseSession
 1824              	.LVL243:
 1825              	.L138:
 559:..\paho.mqtt.embedded-c\MQTTClient-C\src/MQTTClient.c **** #if defined(MQTT_TASK)
 560:..\paho.mqtt.embedded-c\MQTTClient-C\src/MQTTClient.c **** 	  MutexUnlock(&c->mutex);
 1826              		.loc 1 560 0
 1827 00d0 3046     		mov	r0, r6
 1828 00d2 FFF7FEFF 		bl	MutexUnlock
 1829              	.LVL244:
 561:..\paho.mqtt.embedded-c\MQTTClient-C\src/MQTTClient.c **** #endif
 562:..\paho.mqtt.embedded-c\MQTTClient-C\src/MQTTClient.c ****     return rc;
 563:..\paho.mqtt.embedded-c\MQTTClient-C\src/MQTTClient.c **** }
 1830              		.loc 1 563 0
 1831 00d6 2846     		mov	r0, r5
 1832 00d8 0FB0     		add	sp, sp, #60
 1833              		.cfi_def_cfa_offset 28
 1834              		@ sp needed
 1835 00da BDE8F083 		pop	{r4, r5, r6, r7, r8, r9, pc}
 1836              		.cfi_endproc
 1837              	.LFE89:
 1838              		.size	MQTTSubscribeWithResults, .-MQTTSubscribeWithResults
 1839 00de 00BF     		.section	.text.MQTTSubscribe,"ax",%progbits
 1840              		.align	2
 1841              		.global	MQTTSubscribe
 1842              		.thumb
 1843              		.thumb_func
 1844              		.type	MQTTSubscribe, %function
 1845              	MQTTSubscribe:
 1846              	.LFB90:
 564:..\paho.mqtt.embedded-c\MQTTClient-C\src/MQTTClient.c **** 
 565:..\paho.mqtt.embedded-c\MQTTClient-C\src/MQTTClient.c **** 
 566:..\paho.mqtt.embedded-c\MQTTClient-C\src/MQTTClient.c **** int MQTTSubscribe(MQTTClient* c, const char* topicFilter, enum QoS qos,
 567:..\paho.mqtt.embedded-c\MQTTClient-C\src/MQTTClient.c ****        messageHandler messageHandler)
 568:..\paho.mqtt.embedded-c\MQTTClient-C\src/MQTTClient.c **** {
 1847              		.loc 1 568 0
 1848              		.cfi_startproc
 1849              		@ args = 0, pretend = 0, frame = 8
 1850              		@ frame_needed = 0, uses_anonymous_args = 0
 1851              	.LVL245:
ARM GAS  C:\Users\samue\AppData\Local\Temp\ccYWUiYX.s 			page 45


 1852 0000 10B5     		push	{r4, lr}
 1853              		.cfi_def_cfa_offset 8
 1854              		.cfi_offset 4, -8
 1855              		.cfi_offset 14, -4
 1856 0002 84B0     		sub	sp, sp, #16
 1857              		.cfi_def_cfa_offset 24
 569:..\paho.mqtt.embedded-c\MQTTClient-C\src/MQTTClient.c ****     MQTTSubackData data;
 570:..\paho.mqtt.embedded-c\MQTTClient-C\src/MQTTClient.c ****     return MQTTSubscribeWithResults(c, topicFilter, qos, messageHandler, &data);
 1858              		.loc 1 570 0
 1859 0004 03AC     		add	r4, sp, #12
 1860 0006 0094     		str	r4, [sp]
 1861 0008 FFF7FEFF 		bl	MQTTSubscribeWithResults
 1862              	.LVL246:
 571:..\paho.mqtt.embedded-c\MQTTClient-C\src/MQTTClient.c **** }
 1863              		.loc 1 571 0
 1864 000c 04B0     		add	sp, sp, #16
 1865              		.cfi_def_cfa_offset 8
 1866              		@ sp needed
 1867 000e 10BD     		pop	{r4, pc}
 1868              		.cfi_endproc
 1869              	.LFE90:
 1870              		.size	MQTTSubscribe, .-MQTTSubscribe
 1871              		.section	.text.MQTTUnsubscribe,"ax",%progbits
 1872              		.align	2
 1873              		.global	MQTTUnsubscribe
 1874              		.thumb
 1875              		.thumb_func
 1876              		.type	MQTTUnsubscribe, %function
 1877              	MQTTUnsubscribe:
 1878              	.LFB91:
 572:..\paho.mqtt.embedded-c\MQTTClient-C\src/MQTTClient.c **** 
 573:..\paho.mqtt.embedded-c\MQTTClient-C\src/MQTTClient.c **** 
 574:..\paho.mqtt.embedded-c\MQTTClient-C\src/MQTTClient.c **** int MQTTUnsubscribe(MQTTClient* c, const char* topicFilter)
 575:..\paho.mqtt.embedded-c\MQTTClient-C\src/MQTTClient.c **** {
 1879              		.loc 1 575 0
 1880              		.cfi_startproc
 1881              		@ args = 0, pretend = 0, frame = 32
 1882              		@ frame_needed = 0, uses_anonymous_args = 0
 1883              	.LVL247:
 1884 0000 2DE9F041 		push	{r4, r5, r6, r7, r8, lr}
 1885              		.cfi_def_cfa_offset 24
 1886              		.cfi_offset 4, -24
 1887              		.cfi_offset 5, -20
 1888              		.cfi_offset 6, -16
 1889              		.cfi_offset 7, -12
 1890              		.cfi_offset 8, -8
 1891              		.cfi_offset 14, -4
 1892 0004 8AB0     		sub	sp, sp, #40
 1893              		.cfi_def_cfa_offset 64
 1894 0006 0446     		mov	r4, r0
 1895 0008 0F46     		mov	r7, r1
 1896              	.LVL248:
 576:..\paho.mqtt.embedded-c\MQTTClient-C\src/MQTTClient.c ****     int rc = FAILURE;
 577:..\paho.mqtt.embedded-c\MQTTClient-C\src/MQTTClient.c ****     Timer timer;
 578:..\paho.mqtt.embedded-c\MQTTClient-C\src/MQTTClient.c ****     MQTTString topic = MQTTString_initializer;
 1897              		.loc 1 578 0
 1898 000a 0023     		movs	r3, #0
ARM GAS  C:\Users\samue\AppData\Local\Temp\ccYWUiYX.s 			page 46


 1899 000c 0593     		str	r3, [sp, #20]
 1900 000e 0693     		str	r3, [sp, #24]
 579:..\paho.mqtt.embedded-c\MQTTClient-C\src/MQTTClient.c ****     topic.cstring = (char *)topicFilter;
 1901              		.loc 1 579 0
 1902 0010 0491     		str	r1, [sp, #16]
 1903              	.LVL249:
 580:..\paho.mqtt.embedded-c\MQTTClient-C\src/MQTTClient.c ****     int len = 0;
 581:..\paho.mqtt.embedded-c\MQTTClient-C\src/MQTTClient.c **** 
 582:..\paho.mqtt.embedded-c\MQTTClient-C\src/MQTTClient.c **** #if defined(MQTT_TASK)
 583:..\paho.mqtt.embedded-c\MQTTClient-C\src/MQTTClient.c **** 	  MutexLock(&c->mutex);
 1904              		.loc 1 583 0
 1905 0012 00F17006 		add	r6, r0, #112
 1906 0016 3046     		mov	r0, r6
 1907              	.LVL250:
 1908 0018 FFF7FEFF 		bl	MutexLock
 1909              	.LVL251:
 584:..\paho.mqtt.embedded-c\MQTTClient-C\src/MQTTClient.c **** #endif
 585:..\paho.mqtt.embedded-c\MQTTClient-C\src/MQTTClient.c **** 	  if (!c->isconnected)
 1910              		.loc 1 585 0
 1911 001c 236A     		ldr	r3, [r4, #32]
 1912 001e 002B     		cmp	r3, #0
 1913 0020 33D0     		beq	.L149
 586:..\paho.mqtt.embedded-c\MQTTClient-C\src/MQTTClient.c **** 		  goto exit;
 587:..\paho.mqtt.embedded-c\MQTTClient-C\src/MQTTClient.c **** 
 588:..\paho.mqtt.embedded-c\MQTTClient-C\src/MQTTClient.c ****     TimerInit(&timer);
 1914              		.loc 1 588 0
 1915 0022 07A8     		add	r0, sp, #28
 1916 0024 FFF7FEFF 		bl	TimerInit
 1917              	.LVL252:
 589:..\paho.mqtt.embedded-c\MQTTClient-C\src/MQTTClient.c ****     TimerCountdownMS(&timer, c->command_timeout_ms);
 1918              		.loc 1 589 0
 1919 0028 6168     		ldr	r1, [r4, #4]
 1920 002a 07A8     		add	r0, sp, #28
 1921 002c FFF7FEFF 		bl	TimerCountdownMS
 1922              	.LVL253:
 590:..\paho.mqtt.embedded-c\MQTTClient-C\src/MQTTClient.c **** 
 591:..\paho.mqtt.embedded-c\MQTTClient-C\src/MQTTClient.c ****     if ((len = MQTTSerialize_unsubscribe(c->buf, c->buf_size, 0, getNextPacketId(c), 1, &topic)) <=
 1923              		.loc 1 591 0
 1924 0030 2569     		ldr	r5, [r4, #16]
 1925 0032 D4F80880 		ldr	r8, [r4, #8]
 1926 0036 2046     		mov	r0, r4
 1927 0038 FFF7FEFF 		bl	getNextPacketId
 1928              	.LVL254:
 1929 003c 04AB     		add	r3, sp, #16
 1930 003e 0193     		str	r3, [sp, #4]
 1931 0040 0123     		movs	r3, #1
 1932 0042 0093     		str	r3, [sp]
 1933 0044 83B2     		uxth	r3, r0
 1934 0046 0022     		movs	r2, #0
 1935 0048 4146     		mov	r1, r8
 1936 004a 2846     		mov	r0, r5
 1937 004c FFF7FEFF 		bl	MQTTSerialize_unsubscribe
 1938              	.LVL255:
 1939 0050 011E     		subs	r1, r0, #0
 1940 0052 1DDD     		ble	.L150
 592:..\paho.mqtt.embedded-c\MQTTClient-C\src/MQTTClient.c ****         goto exit;
 593:..\paho.mqtt.embedded-c\MQTTClient-C\src/MQTTClient.c ****     if ((rc = sendPacket(c, len, &timer)) != SUCCESS) // send the subscribe packet
ARM GAS  C:\Users\samue\AppData\Local\Temp\ccYWUiYX.s 			page 47


 1941              		.loc 1 593 0
 1942 0054 07AA     		add	r2, sp, #28
 1943 0056 2046     		mov	r0, r4
 1944              	.LVL256:
 1945 0058 FFF7FEFF 		bl	sendPacket
 1946              	.LVL257:
 1947 005c 0546     		mov	r5, r0
 1948 005e E0B9     		cbnz	r0, .L146
 594:..\paho.mqtt.embedded-c\MQTTClient-C\src/MQTTClient.c ****         goto exit; // there was a problem
 595:..\paho.mqtt.embedded-c\MQTTClient-C\src/MQTTClient.c **** 
 596:..\paho.mqtt.embedded-c\MQTTClient-C\src/MQTTClient.c ****     if (waitfor(c, UNSUBACK, &timer) == UNSUBACK)
 1949              		.loc 1 596 0
 1950 0060 07AA     		add	r2, sp, #28
 1951 0062 0B21     		movs	r1, #11
 1952 0064 2046     		mov	r0, r4
 1953              	.LVL258:
 1954 0066 FFF7FEFF 		bl	waitfor
 1955              	.LVL259:
 1956 006a 0B28     		cmp	r0, #11
 1957 006c 13D1     		bne	.L151
 1958              	.LBB11:
 597:..\paho.mqtt.embedded-c\MQTTClient-C\src/MQTTClient.c ****     {
 598:..\paho.mqtt.embedded-c\MQTTClient-C\src/MQTTClient.c ****         unsigned short mypacketid;  // should be the same as the packetid above
 599:..\paho.mqtt.embedded-c\MQTTClient-C\src/MQTTClient.c ****         if (MQTTDeserialize_unsuback(&mypacketid, c->readbuf, c->readbuf_size) == 1)
 1959              		.loc 1 599 0
 1960 006e E268     		ldr	r2, [r4, #12]
 1961 0070 6169     		ldr	r1, [r4, #20]
 1962 0072 0DF10E00 		add	r0, sp, #14
 1963 0076 FFF7FEFF 		bl	MQTTDeserialize_unsuback
 1964              	.LVL260:
 1965 007a 0128     		cmp	r0, #1
 1966 007c 0DD1     		bne	.L146
 600:..\paho.mqtt.embedded-c\MQTTClient-C\src/MQTTClient.c ****         {
 601:..\paho.mqtt.embedded-c\MQTTClient-C\src/MQTTClient.c ****             /* remove the subscription message handler associated with this topic, if there is one 
 602:..\paho.mqtt.embedded-c\MQTTClient-C\src/MQTTClient.c ****             MQTTSetMessageHandler(c, topicFilter, NULL);
 1967              		.loc 1 602 0
 1968 007e 0022     		movs	r2, #0
 1969 0080 3946     		mov	r1, r7
 1970 0082 2046     		mov	r0, r4
 1971 0084 FFF7FEFF 		bl	MQTTSetMessageHandler
 1972              	.LVL261:
 1973 0088 07E0     		b	.L146
 1974              	.LVL262:
 1975              	.L149:
 1976              	.LBE11:
 576:..\paho.mqtt.embedded-c\MQTTClient-C\src/MQTTClient.c ****     Timer timer;
 1977              		.loc 1 576 0
 1978 008a 4FF0FF35 		mov	r5, #-1
 1979 008e 04E0     		b	.L146
 1980              	.LVL263:
 1981              	.L150:
 1982 0090 4FF0FF35 		mov	r5, #-1
 1983 0094 01E0     		b	.L146
 1984              	.LVL264:
 1985              	.L151:
 603:..\paho.mqtt.embedded-c\MQTTClient-C\src/MQTTClient.c ****         }
 604:..\paho.mqtt.embedded-c\MQTTClient-C\src/MQTTClient.c ****     }
ARM GAS  C:\Users\samue\AppData\Local\Temp\ccYWUiYX.s 			page 48


 605:..\paho.mqtt.embedded-c\MQTTClient-C\src/MQTTClient.c ****     else
 606:..\paho.mqtt.embedded-c\MQTTClient-C\src/MQTTClient.c ****         rc = FAILURE;
 1986              		.loc 1 606 0
 1987 0096 4FF0FF35 		mov	r5, #-1
 1988              	.LVL265:
 1989              	.L146:
 607:..\paho.mqtt.embedded-c\MQTTClient-C\src/MQTTClient.c **** 
 608:..\paho.mqtt.embedded-c\MQTTClient-C\src/MQTTClient.c **** exit:
 609:..\paho.mqtt.embedded-c\MQTTClient-C\src/MQTTClient.c ****     if (rc == FAILURE)
 1990              		.loc 1 609 0
 1991 009a B5F1FF3F 		cmp	r5, #-1
 1992 009e 02D1     		bne	.L148
 610:..\paho.mqtt.embedded-c\MQTTClient-C\src/MQTTClient.c ****         MQTTCloseSession(c);
 1993              		.loc 1 610 0
 1994 00a0 2046     		mov	r0, r4
 1995 00a2 FFF7FEFF 		bl	MQTTCloseSession
 1996              	.LVL266:
 1997              	.L148:
 611:..\paho.mqtt.embedded-c\MQTTClient-C\src/MQTTClient.c **** #if defined(MQTT_TASK)
 612:..\paho.mqtt.embedded-c\MQTTClient-C\src/MQTTClient.c **** 	  MutexUnlock(&c->mutex);
 1998              		.loc 1 612 0
 1999 00a6 3046     		mov	r0, r6
 2000 00a8 FFF7FEFF 		bl	MutexUnlock
 2001              	.LVL267:
 613:..\paho.mqtt.embedded-c\MQTTClient-C\src/MQTTClient.c **** #endif
 614:..\paho.mqtt.embedded-c\MQTTClient-C\src/MQTTClient.c ****     return rc;
 615:..\paho.mqtt.embedded-c\MQTTClient-C\src/MQTTClient.c **** }
 2002              		.loc 1 615 0
 2003 00ac 2846     		mov	r0, r5
 2004 00ae 0AB0     		add	sp, sp, #40
 2005              		.cfi_def_cfa_offset 24
 2006              		@ sp needed
 2007 00b0 BDE8F081 		pop	{r4, r5, r6, r7, r8, pc}
 2008              		.cfi_endproc
 2009              	.LFE91:
 2010              		.size	MQTTUnsubscribe, .-MQTTUnsubscribe
 2011              		.section	.text.MQTTPublish,"ax",%progbits
 2012              		.align	2
 2013              		.global	MQTTPublish
 2014              		.thumb
 2015              		.thumb_func
 2016              		.type	MQTTPublish, %function
 2017              	MQTTPublish:
 2018              	.LFB92:
 616:..\paho.mqtt.embedded-c\MQTTClient-C\src/MQTTClient.c **** 
 617:..\paho.mqtt.embedded-c\MQTTClient-C\src/MQTTClient.c **** 
 618:..\paho.mqtt.embedded-c\MQTTClient-C\src/MQTTClient.c **** int MQTTPublish(MQTTClient* c, const char* topicName, MQTTMessage* message)
 619:..\paho.mqtt.embedded-c\MQTTClient-C\src/MQTTClient.c **** {
 2019              		.loc 1 619 0
 2020              		.cfi_startproc
 2021              		@ args = 0, pretend = 0, frame = 32
 2022              		@ frame_needed = 0, uses_anonymous_args = 0
 2023              	.LVL268:
 2024 0000 F0B5     		push	{r4, r5, r6, r7, lr}
 2025              		.cfi_def_cfa_offset 20
 2026              		.cfi_offset 4, -20
 2027              		.cfi_offset 5, -16
ARM GAS  C:\Users\samue\AppData\Local\Temp\ccYWUiYX.s 			page 49


 2028              		.cfi_offset 6, -12
 2029              		.cfi_offset 7, -8
 2030              		.cfi_offset 14, -4
 2031 0002 91B0     		sub	sp, sp, #68
 2032              		.cfi_def_cfa_offset 88
 2033 0004 0446     		mov	r4, r0
 2034 0006 1546     		mov	r5, r2
 2035              	.LVL269:
 620:..\paho.mqtt.embedded-c\MQTTClient-C\src/MQTTClient.c ****     int rc = FAILURE;
 621:..\paho.mqtt.embedded-c\MQTTClient-C\src/MQTTClient.c ****     Timer timer;
 622:..\paho.mqtt.embedded-c\MQTTClient-C\src/MQTTClient.c ****     MQTTString topic = MQTTString_initializer;
 2036              		.loc 1 622 0
 2037 0008 0023     		movs	r3, #0
 2038 000a 0B93     		str	r3, [sp, #44]
 2039 000c 0C93     		str	r3, [sp, #48]
 623:..\paho.mqtt.embedded-c\MQTTClient-C\src/MQTTClient.c ****     topic.cstring = (char *)topicName;
 2040              		.loc 1 623 0
 2041 000e 0A91     		str	r1, [sp, #40]
 2042              	.LVL270:
 624:..\paho.mqtt.embedded-c\MQTTClient-C\src/MQTTClient.c ****     int len = 0;
 625:..\paho.mqtt.embedded-c\MQTTClient-C\src/MQTTClient.c **** 
 626:..\paho.mqtt.embedded-c\MQTTClient-C\src/MQTTClient.c **** #if defined(MQTT_TASK)
 627:..\paho.mqtt.embedded-c\MQTTClient-C\src/MQTTClient.c **** 	  MutexLock(&c->mutex);
 2043              		.loc 1 627 0
 2044 0010 00F17007 		add	r7, r0, #112
 2045 0014 3846     		mov	r0, r7
 2046              	.LVL271:
 2047 0016 FFF7FEFF 		bl	MutexLock
 2048              	.LVL272:
 628:..\paho.mqtt.embedded-c\MQTTClient-C\src/MQTTClient.c **** #endif
 629:..\paho.mqtt.embedded-c\MQTTClient-C\src/MQTTClient.c **** 	  if (!c->isconnected)
 2049              		.loc 1 629 0
 2050 001a 236A     		ldr	r3, [r4, #32]
 2051 001c 002B     		cmp	r3, #0
 2052 001e 60D0     		beq	.L160
 630:..\paho.mqtt.embedded-c\MQTTClient-C\src/MQTTClient.c **** 		    goto exit;
 631:..\paho.mqtt.embedded-c\MQTTClient-C\src/MQTTClient.c **** 
 632:..\paho.mqtt.embedded-c\MQTTClient-C\src/MQTTClient.c ****     TimerInit(&timer);
 2053              		.loc 1 632 0
 2054 0020 0DA8     		add	r0, sp, #52
 2055 0022 FFF7FEFF 		bl	TimerInit
 2056              	.LVL273:
 633:..\paho.mqtt.embedded-c\MQTTClient-C\src/MQTTClient.c ****     TimerCountdownMS(&timer, c->command_timeout_ms);
 2057              		.loc 1 633 0
 2058 0026 6168     		ldr	r1, [r4, #4]
 2059 0028 0DA8     		add	r0, sp, #52
 2060 002a FFF7FEFF 		bl	TimerCountdownMS
 2061              	.LVL274:
 634:..\paho.mqtt.embedded-c\MQTTClient-C\src/MQTTClient.c **** 
 635:..\paho.mqtt.embedded-c\MQTTClient-C\src/MQTTClient.c ****     if (message->qos == QOS1 || message->qos == QOS2)
 2062              		.loc 1 635 0
 2063 002e 2B78     		ldrb	r3, [r5]	@ zero_extendqisi2
 2064 0030 013B     		subs	r3, r3, #1
 2065 0032 DBB2     		uxtb	r3, r3
 2066 0034 012B     		cmp	r3, #1
 2067 0036 03D8     		bhi	.L155
 636:..\paho.mqtt.embedded-c\MQTTClient-C\src/MQTTClient.c ****         message->id = getNextPacketId(c);
ARM GAS  C:\Users\samue\AppData\Local\Temp\ccYWUiYX.s 			page 50


 2068              		.loc 1 636 0
 2069 0038 2046     		mov	r0, r4
 2070 003a FFF7FEFF 		bl	getNextPacketId
 2071              	.LVL275:
 2072 003e A880     		strh	r0, [r5, #4]	@ movhi
 2073              	.L155:
 637:..\paho.mqtt.embedded-c\MQTTClient-C\src/MQTTClient.c **** 
 638:..\paho.mqtt.embedded-c\MQTTClient-C\src/MQTTClient.c ****     len = MQTTSerialize_publish(c->buf, c->buf_size, 0, message->qos, message->retained, message->i
 2074              		.loc 1 638 0
 2075 0040 2B78     		ldrb	r3, [r5]	@ zero_extendqisi2
 2076 0042 95F801E0 		ldrb	lr, [r5, #1]	@ zero_extendqisi2
 2077 0046 B5F804C0 		ldrh	ip, [r5, #4]
 639:..\paho.mqtt.embedded-c\MQTTClient-C\src/MQTTClient.c ****               topic, (unsigned char*)message->payload, message->payloadlen);
 2078              		.loc 1 639 0
 2079 004a AA68     		ldr	r2, [r5, #8]
 2080 004c E968     		ldr	r1, [r5, #12]
 638:..\paho.mqtt.embedded-c\MQTTClient-C\src/MQTTClient.c ****               topic, (unsigned char*)message->payload, message->payloadlen);
 2081              		.loc 1 638 0
 2082 004e 0691     		str	r1, [sp, #24]
 2083 0050 0592     		str	r2, [sp, #20]
 2084 0052 02AE     		add	r6, sp, #8
 2085 0054 0AAA     		add	r2, sp, #40
 2086              	.LVL276:
 2087 0056 07CA     		ldmia	r2, {r0, r1, r2}
 2088              	.LVL277:
 2089 0058 86E80700 		stmia	r6, {r0, r1, r2}
 2090 005c CDF804C0 		str	ip, [sp, #4]
 2091 0060 CDF800E0 		str	lr, [sp]
 2092 0064 0022     		movs	r2, #0
 2093 0066 A168     		ldr	r1, [r4, #8]
 2094 0068 2069     		ldr	r0, [r4, #16]
 2095 006a FFF7FEFF 		bl	MQTTSerialize_publish
 2096              	.LVL278:
 640:..\paho.mqtt.embedded-c\MQTTClient-C\src/MQTTClient.c ****     if (len <= 0)
 2097              		.loc 1 640 0
 2098 006e 011E     		subs	r1, r0, #0
 2099 0070 3ADD     		ble	.L161
 641:..\paho.mqtt.embedded-c\MQTTClient-C\src/MQTTClient.c ****         goto exit;
 642:..\paho.mqtt.embedded-c\MQTTClient-C\src/MQTTClient.c ****     if ((rc = sendPacket(c, len, &timer)) != SUCCESS) // send the subscribe packet
 2100              		.loc 1 642 0
 2101 0072 0DAA     		add	r2, sp, #52
 2102 0074 2046     		mov	r0, r4
 2103              	.LVL279:
 2104 0076 FFF7FEFF 		bl	sendPacket
 2105              	.LVL280:
 2106 007a 0646     		mov	r6, r0
 2107 007c 0028     		cmp	r0, #0
 2108 007e 3BD1     		bne	.L154
 643:..\paho.mqtt.embedded-c\MQTTClient-C\src/MQTTClient.c ****         goto exit; // there was a problem
 644:..\paho.mqtt.embedded-c\MQTTClient-C\src/MQTTClient.c **** 
 645:..\paho.mqtt.embedded-c\MQTTClient-C\src/MQTTClient.c ****     if (message->qos == QOS1)
 2109              		.loc 1 645 0
 2110 0080 2B78     		ldrb	r3, [r5]	@ zero_extendqisi2
 2111 0082 012B     		cmp	r3, #1
 2112 0084 15D1     		bne	.L156
 646:..\paho.mqtt.embedded-c\MQTTClient-C\src/MQTTClient.c ****     {
 647:..\paho.mqtt.embedded-c\MQTTClient-C\src/MQTTClient.c ****         if (waitfor(c, PUBACK, &timer) == PUBACK)
ARM GAS  C:\Users\samue\AppData\Local\Temp\ccYWUiYX.s 			page 51


 2113              		.loc 1 647 0
 2114 0086 0DAA     		add	r2, sp, #52
 2115 0088 0421     		movs	r1, #4
 2116 008a 2046     		mov	r0, r4
 2117              	.LVL281:
 2118 008c FFF7FEFF 		bl	waitfor
 2119              	.LVL282:
 2120 0090 0428     		cmp	r0, #4
 2121 0092 2CD1     		bne	.L162
 2122              	.LBB12:
 648:..\paho.mqtt.embedded-c\MQTTClient-C\src/MQTTClient.c ****         {
 649:..\paho.mqtt.embedded-c\MQTTClient-C\src/MQTTClient.c ****             unsigned short mypacketid;
 650:..\paho.mqtt.embedded-c\MQTTClient-C\src/MQTTClient.c ****             unsigned char dup, type;
 651:..\paho.mqtt.embedded-c\MQTTClient-C\src/MQTTClient.c ****             if (MQTTDeserialize_ack(&type, &dup, &mypacketid, c->readbuf, c->readbuf_size) != 1)
 2123              		.loc 1 651 0
 2124 0094 E368     		ldr	r3, [r4, #12]
 2125 0096 0093     		str	r3, [sp]
 2126 0098 6369     		ldr	r3, [r4, #20]
 2127 009a 0DF12602 		add	r2, sp, #38
 2128 009e 09A9     		add	r1, sp, #36
 2129 00a0 0DF12500 		add	r0, sp, #37
 2130 00a4 FFF7FEFF 		bl	MQTTDeserialize_ack
 2131              	.LVL283:
 2132 00a8 0128     		cmp	r0, #1
 2133 00aa 25D0     		beq	.L154
 652:..\paho.mqtt.embedded-c\MQTTClient-C\src/MQTTClient.c ****                 rc = FAILURE;
 2134              		.loc 1 652 0
 2135 00ac 4FF0FF36 		mov	r6, #-1
 2136              	.LVL284:
 2137 00b0 22E0     		b	.L154
 2138              	.LVL285:
 2139              	.L156:
 2140              	.LBE12:
 653:..\paho.mqtt.embedded-c\MQTTClient-C\src/MQTTClient.c ****         }
 654:..\paho.mqtt.embedded-c\MQTTClient-C\src/MQTTClient.c ****         else
 655:..\paho.mqtt.embedded-c\MQTTClient-C\src/MQTTClient.c ****             rc = FAILURE;
 656:..\paho.mqtt.embedded-c\MQTTClient-C\src/MQTTClient.c ****     }
 657:..\paho.mqtt.embedded-c\MQTTClient-C\src/MQTTClient.c ****     else if (message->qos == QOS2)
 2141              		.loc 1 657 0
 2142 00b2 022B     		cmp	r3, #2
 2143 00b4 20D1     		bne	.L154
 658:..\paho.mqtt.embedded-c\MQTTClient-C\src/MQTTClient.c ****     {
 659:..\paho.mqtt.embedded-c\MQTTClient-C\src/MQTTClient.c ****         if (waitfor(c, PUBCOMP, &timer) == PUBCOMP)
 2144              		.loc 1 659 0
 2145 00b6 0DAA     		add	r2, sp, #52
 2146 00b8 0721     		movs	r1, #7
 2147 00ba 2046     		mov	r0, r4
 2148              	.LVL286:
 2149 00bc FFF7FEFF 		bl	waitfor
 2150              	.LVL287:
 2151 00c0 0728     		cmp	r0, #7
 2152 00c2 17D1     		bne	.L164
 2153              	.LBB13:
 660:..\paho.mqtt.embedded-c\MQTTClient-C\src/MQTTClient.c ****         {
 661:..\paho.mqtt.embedded-c\MQTTClient-C\src/MQTTClient.c ****             unsigned short mypacketid;
 662:..\paho.mqtt.embedded-c\MQTTClient-C\src/MQTTClient.c ****             unsigned char dup, type;
 663:..\paho.mqtt.embedded-c\MQTTClient-C\src/MQTTClient.c ****             if (MQTTDeserialize_ack(&type, &dup, &mypacketid, c->readbuf, c->readbuf_size) != 1)
ARM GAS  C:\Users\samue\AppData\Local\Temp\ccYWUiYX.s 			page 52


 2154              		.loc 1 663 0
 2155 00c4 E368     		ldr	r3, [r4, #12]
 2156 00c6 0093     		str	r3, [sp]
 2157 00c8 6369     		ldr	r3, [r4, #20]
 2158 00ca 0DF12602 		add	r2, sp, #38
 2159 00ce 09A9     		add	r1, sp, #36
 2160 00d0 0DF12500 		add	r0, sp, #37
 2161 00d4 FFF7FEFF 		bl	MQTTDeserialize_ack
 2162              	.LVL288:
 2163 00d8 0128     		cmp	r0, #1
 2164 00da 0DD0     		beq	.L154
 664:..\paho.mqtt.embedded-c\MQTTClient-C\src/MQTTClient.c ****                 rc = FAILURE;
 2165              		.loc 1 664 0
 2166 00dc 4FF0FF36 		mov	r6, #-1
 2167              	.LVL289:
 2168 00e0 0AE0     		b	.L154
 2169              	.LVL290:
 2170              	.L160:
 2171              	.LBE13:
 620:..\paho.mqtt.embedded-c\MQTTClient-C\src/MQTTClient.c ****     Timer timer;
 2172              		.loc 1 620 0
 2173 00e2 4FF0FF36 		mov	r6, #-1
 2174 00e6 07E0     		b	.L154
 2175              	.LVL291:
 2176              	.L161:
 2177 00e8 4FF0FF36 		mov	r6, #-1
 2178 00ec 04E0     		b	.L154
 2179              	.LVL292:
 2180              	.L162:
 655:..\paho.mqtt.embedded-c\MQTTClient-C\src/MQTTClient.c ****     }
 2181              		.loc 1 655 0
 2182 00ee 4FF0FF36 		mov	r6, #-1
 2183              	.LVL293:
 2184 00f2 01E0     		b	.L154
 2185              	.LVL294:
 2186              	.L164:
 665:..\paho.mqtt.embedded-c\MQTTClient-C\src/MQTTClient.c ****         }
 666:..\paho.mqtt.embedded-c\MQTTClient-C\src/MQTTClient.c ****         else
 667:..\paho.mqtt.embedded-c\MQTTClient-C\src/MQTTClient.c ****             rc = FAILURE;
 2187              		.loc 1 667 0
 2188 00f4 4FF0FF36 		mov	r6, #-1
 2189              	.LVL295:
 2190              	.L154:
 668:..\paho.mqtt.embedded-c\MQTTClient-C\src/MQTTClient.c ****     }
 669:..\paho.mqtt.embedded-c\MQTTClient-C\src/MQTTClient.c **** 
 670:..\paho.mqtt.embedded-c\MQTTClient-C\src/MQTTClient.c **** exit:
 671:..\paho.mqtt.embedded-c\MQTTClient-C\src/MQTTClient.c ****     if (rc == FAILURE)
 2191              		.loc 1 671 0
 2192 00f8 B6F1FF3F 		cmp	r6, #-1
 2193 00fc 02D1     		bne	.L159
 672:..\paho.mqtt.embedded-c\MQTTClient-C\src/MQTTClient.c ****         MQTTCloseSession(c);
 2194              		.loc 1 672 0
 2195 00fe 2046     		mov	r0, r4
 2196 0100 FFF7FEFF 		bl	MQTTCloseSession
 2197              	.LVL296:
 2198              	.L159:
 673:..\paho.mqtt.embedded-c\MQTTClient-C\src/MQTTClient.c **** #if defined(MQTT_TASK)
ARM GAS  C:\Users\samue\AppData\Local\Temp\ccYWUiYX.s 			page 53


 674:..\paho.mqtt.embedded-c\MQTTClient-C\src/MQTTClient.c **** 	  MutexUnlock(&c->mutex);
 2199              		.loc 1 674 0
 2200 0104 3846     		mov	r0, r7
 2201 0106 FFF7FEFF 		bl	MutexUnlock
 2202              	.LVL297:
 675:..\paho.mqtt.embedded-c\MQTTClient-C\src/MQTTClient.c **** #endif
 676:..\paho.mqtt.embedded-c\MQTTClient-C\src/MQTTClient.c ****     return rc;
 677:..\paho.mqtt.embedded-c\MQTTClient-C\src/MQTTClient.c **** }
 2203              		.loc 1 677 0
 2204 010a 3046     		mov	r0, r6
 2205 010c 11B0     		add	sp, sp, #68
 2206              		.cfi_def_cfa_offset 20
 2207              		@ sp needed
 2208 010e F0BD     		pop	{r4, r5, r6, r7, pc}
 2209              		.cfi_endproc
 2210              	.LFE92:
 2211              		.size	MQTTPublish, .-MQTTPublish
 2212              		.section	.text.MQTTDisconnect,"ax",%progbits
 2213              		.align	2
 2214              		.global	MQTTDisconnect
 2215              		.thumb
 2216              		.thumb_func
 2217              		.type	MQTTDisconnect, %function
 2218              	MQTTDisconnect:
 2219              	.LFB93:
 678:..\paho.mqtt.embedded-c\MQTTClient-C\src/MQTTClient.c **** 
 679:..\paho.mqtt.embedded-c\MQTTClient-C\src/MQTTClient.c **** 
 680:..\paho.mqtt.embedded-c\MQTTClient-C\src/MQTTClient.c **** int MQTTDisconnect(MQTTClient* c)
 681:..\paho.mqtt.embedded-c\MQTTClient-C\src/MQTTClient.c **** {
 2220              		.loc 1 681 0
 2221              		.cfi_startproc
 2222              		@ args = 0, pretend = 0, frame = 16
 2223              		@ frame_needed = 0, uses_anonymous_args = 0
 2224              	.LVL298:
 2225 0000 70B5     		push	{r4, r5, r6, lr}
 2226              		.cfi_def_cfa_offset 16
 2227              		.cfi_offset 4, -16
 2228              		.cfi_offset 5, -12
 2229              		.cfi_offset 6, -8
 2230              		.cfi_offset 14, -4
 2231 0002 84B0     		sub	sp, sp, #16
 2232              		.cfi_def_cfa_offset 32
 2233 0004 0446     		mov	r4, r0
 2234              	.LVL299:
 682:..\paho.mqtt.embedded-c\MQTTClient-C\src/MQTTClient.c ****     int rc = FAILURE;
 683:..\paho.mqtt.embedded-c\MQTTClient-C\src/MQTTClient.c ****     Timer timer;     // we might wait for incomplete incoming publishes to complete
 684:..\paho.mqtt.embedded-c\MQTTClient-C\src/MQTTClient.c ****     int len = 0;
 685:..\paho.mqtt.embedded-c\MQTTClient-C\src/MQTTClient.c **** 
 686:..\paho.mqtt.embedded-c\MQTTClient-C\src/MQTTClient.c **** #if defined(MQTT_TASK)
 687:..\paho.mqtt.embedded-c\MQTTClient-C\src/MQTTClient.c **** 	MutexLock(&c->mutex);
 2235              		.loc 1 687 0
 2236 0006 00F17005 		add	r5, r0, #112
 2237 000a 2846     		mov	r0, r5
 2238              	.LVL300:
 2239 000c FFF7FEFF 		bl	MutexLock
 2240              	.LVL301:
 688:..\paho.mqtt.embedded-c\MQTTClient-C\src/MQTTClient.c **** #endif
ARM GAS  C:\Users\samue\AppData\Local\Temp\ccYWUiYX.s 			page 54


 689:..\paho.mqtt.embedded-c\MQTTClient-C\src/MQTTClient.c ****     TimerInit(&timer);
 2241              		.loc 1 689 0
 2242 0010 01A8     		add	r0, sp, #4
 2243 0012 FFF7FEFF 		bl	TimerInit
 2244              	.LVL302:
 690:..\paho.mqtt.embedded-c\MQTTClient-C\src/MQTTClient.c ****     TimerCountdownMS(&timer, c->command_timeout_ms);
 2245              		.loc 1 690 0
 2246 0016 6168     		ldr	r1, [r4, #4]
 2247 0018 01A8     		add	r0, sp, #4
 2248 001a FFF7FEFF 		bl	TimerCountdownMS
 2249              	.LVL303:
 691:..\paho.mqtt.embedded-c\MQTTClient-C\src/MQTTClient.c **** 
 692:..\paho.mqtt.embedded-c\MQTTClient-C\src/MQTTClient.c **** 	  len = MQTTSerialize_disconnect(c->buf, c->buf_size);
 2250              		.loc 1 692 0
 2251 001e A168     		ldr	r1, [r4, #8]
 2252 0020 2069     		ldr	r0, [r4, #16]
 2253 0022 FFF7FEFF 		bl	MQTTSerialize_disconnect
 2254              	.LVL304:
 693:..\paho.mqtt.embedded-c\MQTTClient-C\src/MQTTClient.c ****     if (len > 0)
 2255              		.loc 1 693 0
 2256 0026 011E     		subs	r1, r0, #0
 2257 0028 05DD     		ble	.L169
 694:..\paho.mqtt.embedded-c\MQTTClient-C\src/MQTTClient.c ****         rc = sendPacket(c, len, &timer);            // send the disconnect packet
 2258              		.loc 1 694 0
 2259 002a 01AA     		add	r2, sp, #4
 2260 002c 2046     		mov	r0, r4
 2261              	.LVL305:
 2262 002e FFF7FEFF 		bl	sendPacket
 2263              	.LVL306:
 2264 0032 0646     		mov	r6, r0
 2265              	.LVL307:
 2266 0034 01E0     		b	.L168
 2267              	.LVL308:
 2268              	.L169:
 682:..\paho.mqtt.embedded-c\MQTTClient-C\src/MQTTClient.c ****     Timer timer;     // we might wait for incomplete incoming publishes to complete
 2269              		.loc 1 682 0
 2270 0036 4FF0FF36 		mov	r6, #-1
 2271              	.LVL309:
 2272              	.L168:
 695:..\paho.mqtt.embedded-c\MQTTClient-C\src/MQTTClient.c ****     MQTTCloseSession(c);
 2273              		.loc 1 695 0
 2274 003a 2046     		mov	r0, r4
 2275 003c FFF7FEFF 		bl	MQTTCloseSession
 2276              	.LVL310:
 696:..\paho.mqtt.embedded-c\MQTTClient-C\src/MQTTClient.c **** 
 697:..\paho.mqtt.embedded-c\MQTTClient-C\src/MQTTClient.c **** #if defined(MQTT_TASK)
 698:..\paho.mqtt.embedded-c\MQTTClient-C\src/MQTTClient.c **** 	  MutexUnlock(&c->mutex);
 2277              		.loc 1 698 0
 2278 0040 2846     		mov	r0, r5
 2279 0042 FFF7FEFF 		bl	MutexUnlock
 2280              	.LVL311:
 699:..\paho.mqtt.embedded-c\MQTTClient-C\src/MQTTClient.c **** #endif
 700:..\paho.mqtt.embedded-c\MQTTClient-C\src/MQTTClient.c ****     return rc;
 701:..\paho.mqtt.embedded-c\MQTTClient-C\src/MQTTClient.c **** }
 2281              		.loc 1 701 0
 2282 0046 3046     		mov	r0, r6
 2283 0048 04B0     		add	sp, sp, #16
ARM GAS  C:\Users\samue\AppData\Local\Temp\ccYWUiYX.s 			page 55


 2284              		.cfi_def_cfa_offset 16
 2285              		@ sp needed
 2286 004a 70BD     		pop	{r4, r5, r6, pc}
 2287              		.cfi_endproc
 2288              	.LFE93:
 2289              		.size	MQTTDisconnect, .-MQTTDisconnect
 2290              		.section	.rodata
 2291              		.align	2
 2292              		.set	.LANCHOR0,. + 0
 2293              	.LC0:
 2294 0000 4D       		.byte	77
 2295 0001 51       		.byte	81
 2296 0002 54       		.byte	84
 2297 0003 43       		.byte	67
 2298 0004 00000000 		.word	0
 2299 0008 04       		.byte	4
 2300 0009 000000   		.space	3
 2301 000c 00000000 		.word	0
 2302 0010 00000000 		.word	0
 2303 0014 00000000 		.word	0
 2304 0018 3C00     		.short	60
 2305 001a 01       		.byte	1
 2306 001b 00       		.byte	0
 2307 001c 4D       		.byte	77
 2308 001d 51       		.byte	81
 2309 001e 54       		.byte	84
 2310 001f 57       		.byte	87
 2311 0020 00000000 		.word	0
 2312 0024 00000000 		.word	0
 2313 0028 00000000 		.word	0
 2314 002c 00000000 		.word	0
 2315 0030 00000000 		.word	0
 2316 0034 00000000 		.word	0
 2317 0038 00000000 		.word	0
 2318 003c 00       		.byte	0
 2319 003d 00       		.byte	0
 2320 003e 0000     		.space	2
 2321 0040 00000000 		.word	0
 2322 0044 00000000 		.word	0
 2323 0048 00000000 		.word	0
 2324 004c 00000000 		.word	0
 2325 0050 00000000 		.word	0
 2326 0054 00000000 		.word	0
 2327              		.text
 2328              	.Letext0:
 2329              		.file 2 "..\\paho.mqtt.embedded-c\\MQTTPacket\\src/MQTTPacket.h"
 2330              		.file 3 "..\\paho.mqtt.embedded-c\\MQTTPacket\\src/MQTTConnect.h"
 2331              		.file 4 "c:\\program files (x86)\\cypress\\psoc creator\\4.2\\psoc creator\\import\\gnu\\arm\\5.4.
 2332              		.file 5 "c:\\program files (x86)\\cypress\\psoc creator\\4.2\\psoc creator\\import\\gnu\\arm\\5.4.
 2333              		.file 6 "c:\\program files (x86)\\cypress\\psoc creator\\4.2\\psoc creator\\import\\gnu\\arm\\5.4.
 2334              		.file 7 "..\\FreeRTOS\\Source\\portable\\GCC\\ARM_CM3/portmacro.h"
 2335              		.file 8 "..\\FreeRTOS\\Source\\include/queue.h"
 2336              		.file 9 "..\\FreeRTOS\\Source\\include/semphr.h"
 2337              		.file 10 "..\\FreeRTOS\\Source\\include/task.h"
 2338              		.file 11 "..\\paho.mqtt.embedded-c\\MQTTClient-C\\src\\FreeRTOS/MQTTFreeRTOS.h"
 2339              		.file 12 "..\\paho.mqtt.embedded-c\\MQTTClient-C\\src\\MQTTClient.h"
 2340              		.file 13 "..\\paho.mqtt.embedded-c\\MQTTPacket\\src/MQTTPublish.h"
ARM GAS  C:\Users\samue\AppData\Local\Temp\ccYWUiYX.s 			page 56


 2341              		.file 14 "c:\\program files (x86)\\cypress\\psoc creator\\4.2\\psoc creator\\import\\gnu\\arm\\5.4
 2342              		.file 15 "..\\paho.mqtt.embedded-c\\MQTTPacket\\src/MQTTSubscribe.h"
 2343              		.file 16 "..\\paho.mqtt.embedded-c\\MQTTPacket\\src/MQTTUnsubscribe.h"
 2344              		.file 17 "Generated_Source\\PSoC5/core_cm3.h"