ARM GAS  C:\Users\samue\AppData\Local\Temp\ccTFjdjY.s 			page 1


   1              		.syntax unified
   2              		.cpu cortex-m3
   3              		.fpu softvfp
   4              		.eabi_attribute 20, 1
   5              		.eabi_attribute 21, 1
   6              		.eabi_attribute 23, 3
   7              		.eabi_attribute 24, 1
   8              		.eabi_attribute 25, 1
   9              		.eabi_attribute 26, 1
  10              		.eabi_attribute 30, 1
  11              		.eabi_attribute 34, 1
  12              		.eabi_attribute 18, 4
  13              		.thumb
  14              		.syntax unified
  15              		.file	"mqtt_sender.c"
  16              		.text
  17              	.Ltext0:
  18              		.cfi_sections	.debug_frame
  19              		.section	.text.free_buffer,"ax",%progbits
  20              		.align	2
  21              		.thumb
  22              		.thumb_func
  23              		.type	free_buffer, %function
  24              	free_buffer:
  25              	.LFB71:
  26              		.file 1 "ZumoLibrary\\mqtt_sender.c"
   1:ZumoLibrary/mqtt_sender.c **** /* Standard includes. */
   2:ZumoLibrary/mqtt_sender.c **** #include <stdint.h>
   3:ZumoLibrary/mqtt_sender.c **** #include <stdio.h>
   4:ZumoLibrary/mqtt_sender.c **** #include <stdlib.h>
   5:ZumoLibrary/mqtt_sender.c **** #include <stdbool.h>
   6:ZumoLibrary/mqtt_sender.c **** #include <stdarg.h>
   7:ZumoLibrary/mqtt_sender.c **** 
   8:ZumoLibrary/mqtt_sender.c **** /* FreeRTOS includes. */
   9:ZumoLibrary/mqtt_sender.c **** #include "FreeRTOS.h"
  10:ZumoLibrary/mqtt_sender.c **** #include "task.h"
  11:ZumoLibrary/mqtt_sender.c **** #include "queue.h"
  12:ZumoLibrary/mqtt_sender.c **** 
  13:ZumoLibrary/mqtt_sender.c **** #include "MQTTFreeRTOS.h"
  14:ZumoLibrary/mqtt_sender.c **** #include "MQTTClient.h"
  15:ZumoLibrary/mqtt_sender.c **** #include "mqtt_sender.h"
  16:ZumoLibrary/mqtt_sender.c **** #include "zumo_config.h"
  17:ZumoLibrary/mqtt_sender.c **** 
  18:ZumoLibrary/mqtt_sender.c **** 
  19:ZumoLibrary/mqtt_sender.c **** 
  20:ZumoLibrary/mqtt_sender.c **** typedef struct mqtt_message_ {
  21:ZumoLibrary/mqtt_sender.c ****     const char *topic;
  22:ZumoLibrary/mqtt_sender.c ****     char *message;
  23:ZumoLibrary/mqtt_sender.c ****     void (*free)(void *);
  24:ZumoLibrary/mqtt_sender.c **** } mqtt_message_t;
  25:ZumoLibrary/mqtt_sender.c **** 
  26:ZumoLibrary/mqtt_sender.c **** #define MAX_MESSAGE 32
  27:ZumoLibrary/mqtt_sender.c **** #define BUFFER_SIZE 80
  28:ZumoLibrary/mqtt_sender.c **** static QueueHandle_t msg_q;
  29:ZumoLibrary/mqtt_sender.c **** static QueueHandle_t buf_q;
  30:ZumoLibrary/mqtt_sender.c **** static char buffers[MAX_MESSAGE][BUFFER_SIZE];
  31:ZumoLibrary/mqtt_sender.c **** 
ARM GAS  C:\Users\samue\AppData\Local\Temp\ccTFjdjY.s 			page 2


  32:ZumoLibrary/mqtt_sender.c **** void MQTTSendTaskInit(void)
  33:ZumoLibrary/mqtt_sender.c **** {
  34:ZumoLibrary/mqtt_sender.c ****     msg_q = xQueueCreate(MAX_MESSAGE, sizeof(mqtt_message_t));
  35:ZumoLibrary/mqtt_sender.c ****     buf_q = xQueueCreate(MAX_MESSAGE, sizeof(char *));
  36:ZumoLibrary/mqtt_sender.c **** }
  37:ZumoLibrary/mqtt_sender.c **** 
  38:ZumoLibrary/mqtt_sender.c **** 
  39:ZumoLibrary/mqtt_sender.c **** void MQTTSendTask(void *pvParameters)
  40:ZumoLibrary/mqtt_sender.c **** {
  41:ZumoLibrary/mqtt_sender.c **** 	MQTTClient client;
  42:ZumoLibrary/mqtt_sender.c **** 	Network network;
  43:ZumoLibrary/mqtt_sender.c **** 	unsigned char sendbuf[128], readbuf[128];
  44:ZumoLibrary/mqtt_sender.c **** 	int rc = 0;
  45:ZumoLibrary/mqtt_sender.c **** 	MQTTPacket_connectData connectData = MQTTPacket_connectData_initializer;
  46:ZumoLibrary/mqtt_sender.c ****     
  47:ZumoLibrary/mqtt_sender.c ****     for(int i = 0; i < MAX_MESSAGE; ++i) {
  48:ZumoLibrary/mqtt_sender.c ****         char *p = buffers[i];
  49:ZumoLibrary/mqtt_sender.c ****         xQueueSend(buf_q, &p, 0);
  50:ZumoLibrary/mqtt_sender.c ****     }
  51:ZumoLibrary/mqtt_sender.c **** 
  52:ZumoLibrary/mqtt_sender.c **** 	pvParameters = 0;
  53:ZumoLibrary/mqtt_sender.c **** 	NetworkInit(&network, NETWORK_SSID, NETWORK_PASSWORD);
  54:ZumoLibrary/mqtt_sender.c ****     
  55:ZumoLibrary/mqtt_sender.c **** 	MQTTClientInit(&client, &network, 30000, sendbuf, sizeof(sendbuf), readbuf, sizeof(readbuf));
  56:ZumoLibrary/mqtt_sender.c **** 
  57:ZumoLibrary/mqtt_sender.c **** 	//char* address = "iot.eclipse.org";
  58:ZumoLibrary/mqtt_sender.c **** 	char* address = MQTT_BROKER;
  59:ZumoLibrary/mqtt_sender.c **** 	if ((rc = NetworkConnect(&network, address, 1883)) != 0)
  60:ZumoLibrary/mqtt_sender.c **** 		printf("Return code from network connect is %d\n", rc);
  61:ZumoLibrary/mqtt_sender.c **** 
  62:ZumoLibrary/mqtt_sender.c **** #if defined(MQTT_TASK)
  63:ZumoLibrary/mqtt_sender.c **** 	if ((rc = MQTTStartTask(&client)) != pdPASS)
  64:ZumoLibrary/mqtt_sender.c **** 		printf("Return code from start tasks is %d\n", rc);
  65:ZumoLibrary/mqtt_sender.c **** #else
  66:ZumoLibrary/mqtt_sender.c ****     #error "MQTT_TASK not defined"
  67:ZumoLibrary/mqtt_sender.c **** #endif
  68:ZumoLibrary/mqtt_sender.c **** 
  69:ZumoLibrary/mqtt_sender.c **** 	connectData.MQTTVersion = 3;
  70:ZumoLibrary/mqtt_sender.c **** 	connectData.clientID.cstring = MQTT_CLIENT_ID;
  71:ZumoLibrary/mqtt_sender.c **** 
  72:ZumoLibrary/mqtt_sender.c **** 	if ((rc = MQTTConnect(&client, &connectData)) != 0)
  73:ZumoLibrary/mqtt_sender.c **** 		printf("Return code from MQTT connect is %d\n", rc);
  74:ZumoLibrary/mqtt_sender.c **** 	else
  75:ZumoLibrary/mqtt_sender.c **** 		printf("MQTT Connected\n");
  76:ZumoLibrary/mqtt_sender.c **** 
  77:ZumoLibrary/mqtt_sender.c ****     while(true)
  78:ZumoLibrary/mqtt_sender.c **** 	{
  79:ZumoLibrary/mqtt_sender.c ****         mqtt_message_t msg;
  80:ZumoLibrary/mqtt_sender.c ****         
  81:ZumoLibrary/mqtt_sender.c ****         if(xQueueReceive(msg_q, &msg, portMAX_DELAY) == pdFALSE) {
  82:ZumoLibrary/mqtt_sender.c ****             // this should never happen
  83:ZumoLibrary/mqtt_sender.c ****             vTaskDelay(configTICK_RATE_HZ);
  84:ZumoLibrary/mqtt_sender.c ****             continue;
  85:ZumoLibrary/mqtt_sender.c ****         }
  86:ZumoLibrary/mqtt_sender.c ****         
  87:ZumoLibrary/mqtt_sender.c **** 		MQTTMessage message;
  88:ZumoLibrary/mqtt_sender.c **** 
ARM GAS  C:\Users\samue\AppData\Local\Temp\ccTFjdjY.s 			page 3


  89:ZumoLibrary/mqtt_sender.c **** 		message.qos = QOS0;
  90:ZumoLibrary/mqtt_sender.c **** 		message.retained = 0;
  91:ZumoLibrary/mqtt_sender.c **** 		message.payload = (void *) msg.message;
  92:ZumoLibrary/mqtt_sender.c **** 		message.payloadlen = strlen(msg.message);
  93:ZumoLibrary/mqtt_sender.c **** 
  94:ZumoLibrary/mqtt_sender.c **** 		if ((rc = MQTTPublish(&client, msg.topic, &message)) != 0) {
  95:ZumoLibrary/mqtt_sender.c **** 			printf("Return code from MQTT publish is %d\n", rc);
  96:ZumoLibrary/mqtt_sender.c ****         }
  97:ZumoLibrary/mqtt_sender.c ****         if(msg.free != NULL) {
  98:ZumoLibrary/mqtt_sender.c ****             msg.free(msg.message);
  99:ZumoLibrary/mqtt_sender.c ****         }
 100:ZumoLibrary/mqtt_sender.c **** 	}
 101:ZumoLibrary/mqtt_sender.c **** 
 102:ZumoLibrary/mqtt_sender.c **** 	/* do not return */
 103:ZumoLibrary/mqtt_sender.c **** }
 104:ZumoLibrary/mqtt_sender.c **** 
 105:ZumoLibrary/mqtt_sender.c **** static void free_buffer(void *buffer) 
 106:ZumoLibrary/mqtt_sender.c **** {
  27              		.loc 1 106 0
  28              		.cfi_startproc
  29              		@ args = 0, pretend = 0, frame = 8
  30              		@ frame_needed = 0, uses_anonymous_args = 0
  31              	.LVL0:
  32 0000 00B5     		push	{lr}
  33              		.cfi_def_cfa_offset 4
  34              		.cfi_offset 14, -4
  35 0002 83B0     		sub	sp, sp, #12
  36              		.cfi_def_cfa_offset 16
  37 0004 02A9     		add	r1, sp, #8
  38 0006 41F8040D 		str	r0, [r1, #-4]!
 107:ZumoLibrary/mqtt_sender.c ****     xQueueSend(buf_q, &buffer, 0);
  39              		.loc 1 107 0
  40 000a 0023     		movs	r3, #0
  41 000c 1A46     		mov	r2, r3
  42 000e 0348     		ldr	r0, .L3
  43              	.LVL1:
  44 0010 0068     		ldr	r0, [r0]
  45 0012 FFF7FEFF 		bl	xQueueGenericSend
  46              	.LVL2:
 108:ZumoLibrary/mqtt_sender.c **** }    
  47              		.loc 1 108 0
  48 0016 03B0     		add	sp, sp, #12
  49              		.cfi_def_cfa_offset 4
  50              		@ sp needed
  51 0018 5DF804FB 		ldr	pc, [sp], #4
  52              	.LVL3:
  53              	.L4:
  54              		.align	2
  55              	.L3:
  56 001c 00000000 		.word	.LANCHOR0
  57              		.cfi_endproc
  58              	.LFE71:
  59              		.size	free_buffer, .-free_buffer
  60              		.section	.text.MQTTSendTaskInit,"ax",%progbits
  61              		.align	2
  62              		.global	MQTTSendTaskInit
  63              		.thumb
ARM GAS  C:\Users\samue\AppData\Local\Temp\ccTFjdjY.s 			page 4


  64              		.thumb_func
  65              		.type	MQTTSendTaskInit, %function
  66              	MQTTSendTaskInit:
  67              	.LFB69:
  33:ZumoLibrary/mqtt_sender.c ****     msg_q = xQueueCreate(MAX_MESSAGE, sizeof(mqtt_message_t));
  68              		.loc 1 33 0
  69              		.cfi_startproc
  70              		@ args = 0, pretend = 0, frame = 0
  71              		@ frame_needed = 0, uses_anonymous_args = 0
  72 0000 10B5     		push	{r4, lr}
  73              		.cfi_def_cfa_offset 8
  74              		.cfi_offset 4, -8
  75              		.cfi_offset 14, -4
  34:ZumoLibrary/mqtt_sender.c ****     buf_q = xQueueCreate(MAX_MESSAGE, sizeof(char *));
  76              		.loc 1 34 0
  77 0002 0022     		movs	r2, #0
  78 0004 0C21     		movs	r1, #12
  79 0006 2020     		movs	r0, #32
  80 0008 FFF7FEFF 		bl	xQueueGenericCreate
  81              	.LVL4:
  82 000c 044C     		ldr	r4, .L7
  83 000e 6060     		str	r0, [r4, #4]
  35:ZumoLibrary/mqtt_sender.c **** }
  84              		.loc 1 35 0
  85 0010 0022     		movs	r2, #0
  86 0012 0421     		movs	r1, #4
  87 0014 2020     		movs	r0, #32
  88 0016 FFF7FEFF 		bl	xQueueGenericCreate
  89              	.LVL5:
  90 001a 2060     		str	r0, [r4]
  91 001c 10BD     		pop	{r4, pc}
  92              	.L8:
  93 001e 00BF     		.align	2
  94              	.L7:
  95 0020 00000000 		.word	.LANCHOR0
  96              		.cfi_endproc
  97              	.LFE69:
  98              		.size	MQTTSendTaskInit, .-MQTTSendTaskInit
  99              		.section	.text.MQTTSendTask,"ax",%progbits
 100              		.align	2
 101              		.global	MQTTSendTask
 102              		.thumb
 103              		.thumb_func
 104              		.type	MQTTSendTask, %function
 105              	MQTTSendTask:
 106              	.LFB70:
  40:ZumoLibrary/mqtt_sender.c **** 	MQTTClient client;
 107              		.loc 1 40 0
 108              		.cfi_startproc
 109              		@ args = 0, pretend = 0, frame = 520
 110              		@ frame_needed = 0, uses_anonymous_args = 0
 111              	.LVL6:
 112 0000 10B5     		push	{r4, lr}
 113              		.cfi_def_cfa_offset 8
 114              		.cfi_offset 4, -8
 115              		.cfi_offset 14, -4
 116 0002 ADF5067D 		sub	sp, sp, #536
ARM GAS  C:\Users\samue\AppData\Local\Temp\ccTFjdjY.s 			page 5


 117              		.cfi_def_cfa_offset 544
 118              	.LVL7:
  45:ZumoLibrary/mqtt_sender.c ****     
 119              		.loc 1 45 0
 120 0006 5822     		movs	r2, #88
 121 0008 3A49     		ldr	r1, .L22
 122 000a 0CA8     		add	r0, sp, #48
 123              	.LVL8:
 124 000c FFF7FEFF 		bl	memcpy
 125              	.LVL9:
 126              	.LBB2:
  47:ZumoLibrary/mqtt_sender.c ****         char *p = buffers[i];
 127              		.loc 1 47 0
 128 0010 0024     		movs	r4, #0
 129 0012 0EE0     		b	.L10
 130              	.LVL10:
 131              	.L11:
 132              	.LBB3:
  48:ZumoLibrary/mqtt_sender.c ****         xQueueSend(buf_q, &p, 0);
 133              		.loc 1 48 0 discriminator 3
 134 0014 3848     		ldr	r0, .L22+4
 135 0016 00F10801 		add	r1, r0, #8
 136 001a 04EB8402 		add	r2, r4, r4, lsl #2
 137 001e 1301     		lsls	r3, r2, #4
 138 0020 0B44     		add	r3, r3, r1
 139 0022 0893     		str	r3, [sp, #32]
  49:ZumoLibrary/mqtt_sender.c ****     }
 140              		.loc 1 49 0 discriminator 3
 141 0024 0023     		movs	r3, #0
 142 0026 1A46     		mov	r2, r3
 143 0028 08A9     		add	r1, sp, #32
 144 002a 0068     		ldr	r0, [r0]
 145 002c FFF7FEFF 		bl	xQueueGenericSend
 146              	.LVL11:
 147              	.LBE3:
  47:ZumoLibrary/mqtt_sender.c ****         char *p = buffers[i];
 148              		.loc 1 47 0 discriminator 3
 149 0030 0134     		adds	r4, r4, #1
 150              	.LVL12:
 151              	.L10:
  47:ZumoLibrary/mqtt_sender.c ****         char *p = buffers[i];
 152              		.loc 1 47 0 is_stmt 0 discriminator 1
 153 0032 1F2C     		cmp	r4, #31
 154 0034 EEDD     		ble	.L11
 155              	.LVL13:
 156              	.LBE2:
  53:ZumoLibrary/mqtt_sender.c ****     
 157              		.loc 1 53 0 is_stmt 1
 158 0036 314A     		ldr	r2, .L22+8
 159 0038 3149     		ldr	r1, .L22+12
 160 003a 62A8     		add	r0, sp, #392
 161 003c FFF7FEFF 		bl	NetworkInit
 162              	.LVL14:
  55:ZumoLibrary/mqtt_sender.c **** 
 163              		.loc 1 55 0
 164 0040 8023     		movs	r3, #128
 165 0042 0293     		str	r3, [sp, #8]
ARM GAS  C:\Users\samue\AppData\Local\Temp\ccTFjdjY.s 			page 6


 166 0044 22AA     		add	r2, sp, #136
 167 0046 0192     		str	r2, [sp, #4]
 168 0048 0093     		str	r3, [sp]
 169 004a 42AB     		add	r3, sp, #264
 170 004c 47F23052 		movw	r2, #30000
 171 0050 62A9     		add	r1, sp, #392
 172 0052 68A8     		add	r0, sp, #416
 173 0054 FFF7FEFF 		bl	MQTTClientInit
 174              	.LVL15:
  59:ZumoLibrary/mqtt_sender.c **** 		printf("Return code from network connect is %d\n", rc);
 175              		.loc 1 59 0
 176 0058 40F25B72 		movw	r2, #1883
 177 005c 2949     		ldr	r1, .L22+16
 178 005e 62A8     		add	r0, sp, #392
 179 0060 FFF7FEFF 		bl	NetworkConnect
 180              	.LVL16:
 181 0064 0146     		mov	r1, r0
 182 0066 10B1     		cbz	r0, .L12
  60:ZumoLibrary/mqtt_sender.c **** 
 183              		.loc 1 60 0
 184 0068 2748     		ldr	r0, .L22+20
 185              	.LVL17:
 186 006a FFF7FEFF 		bl	printf
 187              	.LVL18:
 188              	.L12:
  63:ZumoLibrary/mqtt_sender.c **** 		printf("Return code from start tasks is %d\n", rc);
 189              		.loc 1 63 0
 190 006e 68A8     		add	r0, sp, #416
 191 0070 FFF7FEFF 		bl	MQTTStartTask
 192              	.LVL19:
 193 0074 0146     		mov	r1, r0
 194              	.LVL20:
 195 0076 0128     		cmp	r0, #1
 196 0078 02D0     		beq	.L13
  64:ZumoLibrary/mqtt_sender.c **** #else
 197              		.loc 1 64 0
 198 007a 2448     		ldr	r0, .L22+24
 199              	.LVL21:
 200 007c FFF7FEFF 		bl	printf
 201              	.LVL22:
 202              	.L13:
  69:ZumoLibrary/mqtt_sender.c **** 	connectData.clientID.cstring = MQTT_CLIENT_ID;
 203              		.loc 1 69 0
 204 0080 0323     		movs	r3, #3
 205 0082 8DF83830 		strb	r3, [sp, #56]
  70:ZumoLibrary/mqtt_sender.c **** 
 206              		.loc 1 70 0
 207 0086 224B     		ldr	r3, .L22+28
 208 0088 0F93     		str	r3, [sp, #60]
  72:ZumoLibrary/mqtt_sender.c **** 		printf("Return code from MQTT connect is %d\n", rc);
 209              		.loc 1 72 0
 210 008a 0CA9     		add	r1, sp, #48
 211 008c 68A8     		add	r0, sp, #416
 212 008e FFF7FEFF 		bl	MQTTConnect
 213              	.LVL23:
 214 0092 0146     		mov	r1, r0
 215 0094 18B1     		cbz	r0, .L14
ARM GAS  C:\Users\samue\AppData\Local\Temp\ccTFjdjY.s 			page 7


  73:ZumoLibrary/mqtt_sender.c **** 	else
 216              		.loc 1 73 0
 217 0096 1F48     		ldr	r0, .L22+32
 218              	.LVL24:
 219 0098 FFF7FEFF 		bl	printf
 220              	.LVL25:
 221 009c 02E0     		b	.L16
 222              	.LVL26:
 223              	.L14:
  75:ZumoLibrary/mqtt_sender.c **** 
 224              		.loc 1 75 0
 225 009e 1E48     		ldr	r0, .L22+36
 226              	.LVL27:
 227 00a0 FFF7FEFF 		bl	puts
 228              	.LVL28:
 229              	.L16:
 230              	.LBB4:
  81:ZumoLibrary/mqtt_sender.c ****             // this should never happen
 231              		.loc 1 81 0
 232 00a4 4FF0FF32 		mov	r2, #-1
 233 00a8 05A9     		add	r1, sp, #20
 234 00aa 134B     		ldr	r3, .L22+4
 235 00ac 5868     		ldr	r0, [r3, #4]
 236 00ae FFF7FEFF 		bl	xQueueReceive
 237              	.LVL29:
 238 00b2 20B9     		cbnz	r0, .L17
  83:ZumoLibrary/mqtt_sender.c ****             continue;
 239              		.loc 1 83 0
 240 00b4 4FF47A70 		mov	r0, #1000
 241 00b8 FFF7FEFF 		bl	vTaskDelay
 242              	.LVL30:
 243 00bc F2E7     		b	.L16
 244              	.L17:
  89:ZumoLibrary/mqtt_sender.c **** 		message.retained = 0;
 245              		.loc 1 89 0
 246 00be 0023     		movs	r3, #0
 247 00c0 8DF82030 		strb	r3, [sp, #32]
  90:ZumoLibrary/mqtt_sender.c **** 		message.payload = (void *) msg.message;
 248              		.loc 1 90 0
 249 00c4 8DF82130 		strb	r3, [sp, #33]
  91:ZumoLibrary/mqtt_sender.c **** 		message.payloadlen = strlen(msg.message);
 250              		.loc 1 91 0
 251 00c8 0698     		ldr	r0, [sp, #24]
 252 00ca 0A90     		str	r0, [sp, #40]
  92:ZumoLibrary/mqtt_sender.c **** 
 253              		.loc 1 92 0
 254 00cc FFF7FEFF 		bl	strlen
 255              	.LVL31:
 256 00d0 0B90     		str	r0, [sp, #44]
  94:ZumoLibrary/mqtt_sender.c **** 			printf("Return code from MQTT publish is %d\n", rc);
 257              		.loc 1 94 0
 258 00d2 08AA     		add	r2, sp, #32
 259 00d4 0599     		ldr	r1, [sp, #20]
 260 00d6 68A8     		add	r0, sp, #416
 261 00d8 FFF7FEFF 		bl	MQTTPublish
 262              	.LVL32:
 263 00dc 0146     		mov	r1, r0
ARM GAS  C:\Users\samue\AppData\Local\Temp\ccTFjdjY.s 			page 8


 264 00de 10B1     		cbz	r0, .L19
  95:ZumoLibrary/mqtt_sender.c ****         }
 265              		.loc 1 95 0
 266 00e0 0E48     		ldr	r0, .L22+40
 267              	.LVL33:
 268 00e2 FFF7FEFF 		bl	printf
 269              	.LVL34:
 270              	.L19:
  97:ZumoLibrary/mqtt_sender.c ****             msg.free(msg.message);
 271              		.loc 1 97 0
 272 00e6 079B     		ldr	r3, [sp, #28]
 273 00e8 002B     		cmp	r3, #0
 274 00ea DBD0     		beq	.L16
  98:ZumoLibrary/mqtt_sender.c ****         }
 275              		.loc 1 98 0
 276 00ec 0698     		ldr	r0, [sp, #24]
 277 00ee 9847     		blx	r3
 278              	.LVL35:
 279 00f0 D8E7     		b	.L16
 280              	.L23:
 281 00f2 00BF     		.align	2
 282              	.L22:
 283 00f4 00000000 		.word	.LANCHOR1
 284 00f8 00000000 		.word	.LANCHOR0
 285 00fc 00000000 		.word	.LC1
 286 0100 0C000000 		.word	.LC2
 287 0104 1C000000 		.word	.LC3
 288 0108 2C000000 		.word	.LC4
 289 010c 54000000 		.word	.LC5
 290 0110 78000000 		.word	.LC6
 291 0114 80000000 		.word	.LC7
 292 0118 A8000000 		.word	.LC8
 293 011c B8000000 		.word	.LC9
 294              	.LBE4:
 295              		.cfi_endproc
 296              	.LFE70:
 297              		.size	MQTTSendTask, .-MQTTSendTask
 298              		.section	.text.send_mqtt,"ax",%progbits
 299              		.align	2
 300              		.global	send_mqtt
 301              		.thumb
 302              		.thumb_func
 303              		.type	send_mqtt, %function
 304              	send_mqtt:
 305              	.LFB73:
 109:ZumoLibrary/mqtt_sender.c **** 
 110:ZumoLibrary/mqtt_sender.c **** int print_mqtt(const char *topic, const char *fmt, ...)
 111:ZumoLibrary/mqtt_sender.c **** {
 112:ZumoLibrary/mqtt_sender.c ****     va_list argptr;
 113:ZumoLibrary/mqtt_sender.c ****     int cnt=0;
 114:ZumoLibrary/mqtt_sender.c ****     char pbuf[BUFFER_SIZE];
 115:ZumoLibrary/mqtt_sender.c **** 
 116:ZumoLibrary/mqtt_sender.c ****     va_start(argptr, fmt);
 117:ZumoLibrary/mqtt_sender.c ****     cnt = vsnprintf(pbuf, BUFFER_SIZE, fmt, argptr);
 118:ZumoLibrary/mqtt_sender.c ****     va_end(argptr);
 119:ZumoLibrary/mqtt_sender.c **** 
 120:ZumoLibrary/mqtt_sender.c ****     send_mqtt(topic, pbuf);
ARM GAS  C:\Users\samue\AppData\Local\Temp\ccTFjdjY.s 			page 9


 121:ZumoLibrary/mqtt_sender.c **** 
 122:ZumoLibrary/mqtt_sender.c ****     return(cnt);
 123:ZumoLibrary/mqtt_sender.c **** }
 124:ZumoLibrary/mqtt_sender.c **** 
 125:ZumoLibrary/mqtt_sender.c **** void send_mqtt(const char *topic, const char *message)
 126:ZumoLibrary/mqtt_sender.c **** {
 306              		.loc 1 126 0
 307              		.cfi_startproc
 308              		@ args = 0, pretend = 0, frame = 16
 309              		@ frame_needed = 0, uses_anonymous_args = 0
 310              	.LVL36:
 311 0000 10B5     		push	{r4, lr}
 312              		.cfi_def_cfa_offset 8
 313              		.cfi_offset 4, -8
 314              		.cfi_offset 14, -4
 315 0002 84B0     		sub	sp, sp, #16
 316              		.cfi_def_cfa_offset 24
 317 0004 0C46     		mov	r4, r1
 127:ZumoLibrary/mqtt_sender.c ****     mqtt_message_t msg;
 128:ZumoLibrary/mqtt_sender.c ****     msg.topic = topic;
 318              		.loc 1 128 0
 319 0006 0190     		str	r0, [sp, #4]
 129:ZumoLibrary/mqtt_sender.c ****     if(xQueueReceive(buf_q, &msg.message, configTICK_RATE_HZ / 10) == pdFALSE) {
 320              		.loc 1 129 0
 321 0008 6422     		movs	r2, #100
 322 000a 02A9     		add	r1, sp, #8
 323              	.LVL37:
 324 000c 0D4B     		ldr	r3, .L29
 325 000e 1868     		ldr	r0, [r3]
 326              	.LVL38:
 327 0010 FFF7FEFF 		bl	xQueueReceive
 328              	.LVL39:
 329 0014 A0B1     		cbz	r0, .L24
 130:ZumoLibrary/mqtt_sender.c ****         return;
 131:ZumoLibrary/mqtt_sender.c ****     }
 132:ZumoLibrary/mqtt_sender.c ****     strncpy(msg.message, message, BUFFER_SIZE - 1);
 330              		.loc 1 132 0
 331 0016 4F22     		movs	r2, #79
 332 0018 2146     		mov	r1, r4
 333 001a 0298     		ldr	r0, [sp, #8]
 334 001c FFF7FEFF 		bl	strncpy
 335              	.LVL40:
 133:ZumoLibrary/mqtt_sender.c ****     msg.message[BUFFER_SIZE - 1] = '\0';
 336              		.loc 1 133 0
 337 0020 0023     		movs	r3, #0
 338 0022 029A     		ldr	r2, [sp, #8]
 339 0024 82F84F30 		strb	r3, [r2, #79]
 134:ZumoLibrary/mqtt_sender.c ****     msg.free = free_buffer;
 340              		.loc 1 134 0
 341 0028 074A     		ldr	r2, .L29+4
 342 002a 0392     		str	r2, [sp, #12]
 135:ZumoLibrary/mqtt_sender.c ****     if(xQueueSend(msg_q, &msg, configTICK_RATE_HZ / 10) == pdFALSE) {
 343              		.loc 1 135 0
 344 002c 6422     		movs	r2, #100
 345 002e 01A9     		add	r1, sp, #4
 346 0030 0448     		ldr	r0, .L29
 347 0032 4068     		ldr	r0, [r0, #4]
ARM GAS  C:\Users\samue\AppData\Local\Temp\ccTFjdjY.s 			page 10


 348 0034 FFF7FEFF 		bl	xQueueGenericSend
 349              	.LVL41:
 350 0038 10B9     		cbnz	r0, .L24
 136:ZumoLibrary/mqtt_sender.c ****         free_buffer(msg.message);
 351              		.loc 1 136 0
 352 003a 0298     		ldr	r0, [sp, #8]
 353 003c FFF7FEFF 		bl	free_buffer
 354              	.LVL42:
 355              	.L24:
 137:ZumoLibrary/mqtt_sender.c ****     }
 138:ZumoLibrary/mqtt_sender.c ****     
 139:ZumoLibrary/mqtt_sender.c **** }
 356              		.loc 1 139 0
 357 0040 04B0     		add	sp, sp, #16
 358              		.cfi_def_cfa_offset 8
 359              		@ sp needed
 360 0042 10BD     		pop	{r4, pc}
 361              	.LVL43:
 362              	.L30:
 363              		.align	2
 364              	.L29:
 365 0044 00000000 		.word	.LANCHOR0
 366 0048 00000000 		.word	free_buffer
 367              		.cfi_endproc
 368              	.LFE73:
 369              		.size	send_mqtt, .-send_mqtt
 370              		.section	.text.print_mqtt,"ax",%progbits
 371              		.align	2
 372              		.global	print_mqtt
 373              		.thumb
 374              		.thumb_func
 375              		.type	print_mqtt, %function
 376              	print_mqtt:
 377              	.LFB72:
 111:ZumoLibrary/mqtt_sender.c ****     va_list argptr;
 378              		.loc 1 111 0
 379              		.cfi_startproc
 380              		@ args = 4, pretend = 12, frame = 88
 381              		@ frame_needed = 0, uses_anonymous_args = 1
 382              	.LVL44:
 383 0000 0EB4     		push	{r1, r2, r3}
 384              		.cfi_def_cfa_offset 12
 385              		.cfi_offset 1, -12
 386              		.cfi_offset 2, -8
 387              		.cfi_offset 3, -4
 388 0002 30B5     		push	{r4, r5, lr}
 389              		.cfi_def_cfa_offset 24
 390              		.cfi_offset 4, -24
 391              		.cfi_offset 5, -20
 392              		.cfi_offset 14, -16
 393 0004 96B0     		sub	sp, sp, #88
 394              		.cfi_def_cfa_offset 112
 395 0006 0546     		mov	r5, r0
 396 0008 19AB     		add	r3, sp, #100
 397 000a 53F8042B 		ldr	r2, [r3], #4
 398              	.LVL45:
 116:ZumoLibrary/mqtt_sender.c ****     cnt = vsnprintf(pbuf, BUFFER_SIZE, fmt, argptr);
ARM GAS  C:\Users\samue\AppData\Local\Temp\ccTFjdjY.s 			page 11


 399              		.loc 1 116 0
 400 000e 1593     		str	r3, [sp, #84]
 117:ZumoLibrary/mqtt_sender.c ****     va_end(argptr);
 401              		.loc 1 117 0
 402 0010 5021     		movs	r1, #80
 403 0012 01A8     		add	r0, sp, #4
 404              	.LVL46:
 405 0014 FFF7FEFF 		bl	vsnprintf
 406              	.LVL47:
 407 0018 0446     		mov	r4, r0
 408              	.LVL48:
 120:ZumoLibrary/mqtt_sender.c **** 
 409              		.loc 1 120 0
 410 001a 01A9     		add	r1, sp, #4
 411 001c 2846     		mov	r0, r5
 412              	.LVL49:
 413 001e FFF7FEFF 		bl	send_mqtt
 414              	.LVL50:
 123:ZumoLibrary/mqtt_sender.c **** 
 415              		.loc 1 123 0
 416 0022 2046     		mov	r0, r4
 417 0024 16B0     		add	sp, sp, #88
 418              		.cfi_def_cfa_offset 24
 419              		@ sp needed
 420 0026 BDE83040 		pop	{r4, r5, lr}
 421              		.cfi_restore 14
 422              		.cfi_restore 5
 423              		.cfi_restore 4
 424              		.cfi_def_cfa_offset 12
 425              	.LVL51:
 426 002a 03B0     		add	sp, sp, #12
 427              		.cfi_restore 3
 428              		.cfi_restore 2
 429              		.cfi_restore 1
 430              		.cfi_def_cfa_offset 0
 431 002c 7047     		bx	lr
 432              		.cfi_endproc
 433              	.LFE72:
 434              		.size	print_mqtt, .-print_mqtt
 435 002e 00BF     		.section	.rodata
 436              		.align	2
 437              		.set	.LANCHOR1,. + 0
 438              	.LC0:
 439 0000 4D       		.byte	77
 440 0001 51       		.byte	81
 441 0002 54       		.byte	84
 442 0003 43       		.byte	67
 443 0004 00000000 		.word	0
 444 0008 04       		.byte	4
 445 0009 000000   		.space	3
 446 000c 00000000 		.word	0
 447 0010 00000000 		.word	0
 448 0014 00000000 		.word	0
 449 0018 3C00     		.short	60
 450 001a 01       		.byte	1
 451 001b 00       		.byte	0
 452 001c 4D       		.byte	77
ARM GAS  C:\Users\samue\AppData\Local\Temp\ccTFjdjY.s 			page 12


 453 001d 51       		.byte	81
 454 001e 54       		.byte	84
 455 001f 57       		.byte	87
 456 0020 00000000 		.word	0
 457 0024 00000000 		.word	0
 458 0028 00000000 		.word	0
 459 002c 00000000 		.word	0
 460 0030 00000000 		.word	0
 461 0034 00000000 		.word	0
 462 0038 00000000 		.word	0
 463 003c 00       		.byte	0
 464 003d 00       		.byte	0
 465 003e 0000     		.space	2
 466 0040 00000000 		.word	0
 467 0044 00000000 		.word	0
 468 0048 00000000 		.word	0
 469 004c 00000000 		.word	0
 470 0050 00000000 		.word	0
 471 0054 00000000 		.word	0
 472              		.section	.rodata.str1.4,"aMS",%progbits,1
 473              		.align	2
 474              	.LC1:
 475 0000 536D6172 		.ascii	"SmartIot\000"
 475      74496F74 
 475      00
 476 0009 000000   		.space	3
 477              	.LC2:
 478 000c 536D6172 		.ascii	"SmartIotMQTT\000"
 478      74496F74 
 478      4D515454 
 478      00
 479 0019 000000   		.space	3
 480              	.LC3:
 481 001c 3139322E 		.ascii	"192.168.1.254\000"
 481      3136382E 
 481      312E3235 
 481      3400
 482 002a 0000     		.space	2
 483              	.LC4:
 484 002c 52657475 		.ascii	"Return code from network connect is %d\012\000"
 484      726E2063 
 484      6F646520 
 484      66726F6D 
 484      206E6574 
 485              	.LC5:
 486 0054 52657475 		.ascii	"Return code from start tasks is %d\012\000"
 486      726E2063 
 486      6F646520 
 486      66726F6D 
 486      20737461 
 487              	.LC6:
 488 0078 5A756D6F 		.ascii	"Zumo035\000"
 488      30333500 
 489              	.LC7:
 490 0080 52657475 		.ascii	"Return code from MQTT connect is %d\012\000"
 490      726E2063 
 490      6F646520 
ARM GAS  C:\Users\samue\AppData\Local\Temp\ccTFjdjY.s 			page 13


 490      66726F6D 
 490      204D5154 
 491 00a5 000000   		.space	3
 492              	.LC8:
 493 00a8 4D515454 		.ascii	"MQTT Connected\000"
 493      20436F6E 
 493      6E656374 
 493      656400
 494 00b7 00       		.space	1
 495              	.LC9:
 496 00b8 52657475 		.ascii	"Return code from MQTT publish is %d\012\000"
 496      726E2063 
 496      6F646520 
 496      66726F6D 
 496      204D5154 
 497              		.bss
 498              		.align	2
 499              		.set	.LANCHOR0,. + 0
 500              		.type	buf_q, %object
 501              		.size	buf_q, 4
 502              	buf_q:
 503 0000 00000000 		.space	4
 504              		.type	msg_q, %object
 505              		.size	msg_q, 4
 506              	msg_q:
 507 0004 00000000 		.space	4
 508              		.type	buffers, %object
 509              		.size	buffers, 2560
 510              	buffers:
 511 0008 00000000 		.space	2560
 511      00000000 
 511      00000000 
 511      00000000 
 511      00000000 
 512              		.text
 513              	.Letext0:
 514              		.file 2 "c:\\program files (x86)\\cypress\\psoc creator\\4.2\\psoc creator\\import\\gnu\\arm\\5.4.
 515              		.file 3 "c:\\program files (x86)\\cypress\\psoc creator\\4.2\\psoc creator\\import\\gnu\\arm\\5.4.
 516              		.file 4 "c:\\program files (x86)\\cypress\\psoc creator\\4.2\\psoc creator\\import\\gnu\\arm\\5.4.
 517              		.file 5 "c:\\program files (x86)\\cypress\\psoc creator\\4.2\\psoc creator\\import\\gnu\\arm\\5.4.
 518              		.file 6 "..\\FreeRTOS\\Source\\portable\\GCC\\ARM_CM3/portmacro.h"
 519              		.file 7 "..\\FreeRTOS\\Source\\include/task.h"
 520              		.file 8 "<built-in>"
 521              		.file 9 "..\\FreeRTOS\\Source\\include/queue.h"
 522              		.file 10 "..\\FreeRTOS\\Source\\include/semphr.h"
 523              		.file 11 "..\\paho.mqtt.embedded-c\\MQTTClient-C\\src\\FreeRTOS/MQTTFreeRTOS.h"
 524              		.file 12 "..\\paho.mqtt.embedded-c\\MQTTPacket\\src/MQTTPacket.h"
 525              		.file 13 "..\\paho.mqtt.embedded-c\\MQTTPacket\\src/MQTTConnect.h"
 526              		.file 14 "..\\paho.mqtt.embedded-c\\MQTTClient-C\\src/MQTTClient.h"
 527              		.file 15 "c:\\program files (x86)\\cypress\\psoc creator\\4.2\\psoc creator\\import\\gnu\\arm\\5.4
 528              		.file 16 "c:\\program files (x86)\\cypress\\psoc creator\\4.2\\psoc creator\\import\\gnu\\arm\\5.4
 529              		.file 17 "Generated_Source\\PSoC5/core_cm3.h"