ARM GAS  C:\Users\samue\AppData\Local\Temp\cc1TpScf.s 			page 1


   1              		.syntax unified
   2              		.cpu cortex-m3
   3              		.fpu softvfp
   4              		.eabi_attribute 20, 1
   5              		.eabi_attribute 21, 1
   6              		.eabi_attribute 23, 3
   7              		.eabi_attribute 24, 1
   8              		.eabi_attribute 25, 1
   9              		.eabi_attribute 26, 1
  10              		.eabi_attribute 30, 1
  11              		.eabi_attribute 34, 1
  12              		.eabi_attribute 18, 4
  13              		.thumb
  14              		.syntax unified
  15              		.file	"MQTTPacket.c"
  16              		.text
  17              	.Ltext0:
  18              		.cfi_sections	.debug_frame
  19              		.section	.text.bufchar,"ax",%progbits
  20              		.align	2
  21              		.global	bufchar
  22              		.thumb
  23              		.thumb_func
  24              		.type	bufchar, %function
  25              	bufchar:
  26              	.LFB4:
  27              		.file 1 "..\\paho.mqtt.embedded-c\\MQTTPacket\\src\\MQTTPacket.c"
   1:..\paho.mqtt.embedded-c\MQTTPacket\src/MQTTPacket.c **** /*******************************************************************************
   2:..\paho.mqtt.embedded-c\MQTTPacket\src/MQTTPacket.c ****  * Copyright (c) 2014 IBM Corp.
   3:..\paho.mqtt.embedded-c\MQTTPacket\src/MQTTPacket.c ****  *
   4:..\paho.mqtt.embedded-c\MQTTPacket\src/MQTTPacket.c ****  * All rights reserved. This program and the accompanying materials
   5:..\paho.mqtt.embedded-c\MQTTPacket\src/MQTTPacket.c ****  * are made available under the terms of the Eclipse Public License v1.0
   6:..\paho.mqtt.embedded-c\MQTTPacket\src/MQTTPacket.c ****  * and Eclipse Distribution License v1.0 which accompany this distribution.
   7:..\paho.mqtt.embedded-c\MQTTPacket\src/MQTTPacket.c ****  *
   8:..\paho.mqtt.embedded-c\MQTTPacket\src/MQTTPacket.c ****  * The Eclipse Public License is available at
   9:..\paho.mqtt.embedded-c\MQTTPacket\src/MQTTPacket.c ****  *    http://www.eclipse.org/legal/epl-v10.html
  10:..\paho.mqtt.embedded-c\MQTTPacket\src/MQTTPacket.c ****  * and the Eclipse Distribution License is available at
  11:..\paho.mqtt.embedded-c\MQTTPacket\src/MQTTPacket.c ****  *   http://www.eclipse.org/org/documents/edl-v10.php.
  12:..\paho.mqtt.embedded-c\MQTTPacket\src/MQTTPacket.c ****  *
  13:..\paho.mqtt.embedded-c\MQTTPacket\src/MQTTPacket.c ****  * Contributors:
  14:..\paho.mqtt.embedded-c\MQTTPacket\src/MQTTPacket.c ****  *    Ian Craggs - initial API and implementation and/or initial documentation
  15:..\paho.mqtt.embedded-c\MQTTPacket\src/MQTTPacket.c ****  *    Sergio R. Caprile - non-blocking packet read functions for stream transport
  16:..\paho.mqtt.embedded-c\MQTTPacket\src/MQTTPacket.c ****  *******************************************************************************/
  17:..\paho.mqtt.embedded-c\MQTTPacket\src/MQTTPacket.c **** 
  18:..\paho.mqtt.embedded-c\MQTTPacket\src/MQTTPacket.c **** #include "StackTrace.h"
  19:..\paho.mqtt.embedded-c\MQTTPacket\src/MQTTPacket.c **** #include "MQTTPacket.h"
  20:..\paho.mqtt.embedded-c\MQTTPacket\src/MQTTPacket.c **** 
  21:..\paho.mqtt.embedded-c\MQTTPacket\src/MQTTPacket.c **** #include <string.h>
  22:..\paho.mqtt.embedded-c\MQTTPacket\src/MQTTPacket.c **** 
  23:..\paho.mqtt.embedded-c\MQTTPacket\src/MQTTPacket.c **** /**
  24:..\paho.mqtt.embedded-c\MQTTPacket\src/MQTTPacket.c ****  * Encodes the message length according to the MQTT algorithm
  25:..\paho.mqtt.embedded-c\MQTTPacket\src/MQTTPacket.c ****  * @param buf the buffer into which the encoded data is written
  26:..\paho.mqtt.embedded-c\MQTTPacket\src/MQTTPacket.c ****  * @param length the length to be encoded
  27:..\paho.mqtt.embedded-c\MQTTPacket\src/MQTTPacket.c ****  * @return the number of bytes written to buffer
  28:..\paho.mqtt.embedded-c\MQTTPacket\src/MQTTPacket.c ****  */
  29:..\paho.mqtt.embedded-c\MQTTPacket\src/MQTTPacket.c **** int MQTTPacket_encode(unsigned char* buf, int length)
  30:..\paho.mqtt.embedded-c\MQTTPacket\src/MQTTPacket.c **** {
ARM GAS  C:\Users\samue\AppData\Local\Temp\cc1TpScf.s 			page 2


  31:..\paho.mqtt.embedded-c\MQTTPacket\src/MQTTPacket.c **** 	int rc = 0;
  32:..\paho.mqtt.embedded-c\MQTTPacket\src/MQTTPacket.c **** 
  33:..\paho.mqtt.embedded-c\MQTTPacket\src/MQTTPacket.c **** 	FUNC_ENTRY;
  34:..\paho.mqtt.embedded-c\MQTTPacket\src/MQTTPacket.c **** 	do
  35:..\paho.mqtt.embedded-c\MQTTPacket\src/MQTTPacket.c **** 	{
  36:..\paho.mqtt.embedded-c\MQTTPacket\src/MQTTPacket.c **** 		char d = length % 128;
  37:..\paho.mqtt.embedded-c\MQTTPacket\src/MQTTPacket.c **** 		length /= 128;
  38:..\paho.mqtt.embedded-c\MQTTPacket\src/MQTTPacket.c **** 		/* if there are more digits to encode, set the top bit of this digit */
  39:..\paho.mqtt.embedded-c\MQTTPacket\src/MQTTPacket.c **** 		if (length > 0)
  40:..\paho.mqtt.embedded-c\MQTTPacket\src/MQTTPacket.c **** 			d |= 0x80;
  41:..\paho.mqtt.embedded-c\MQTTPacket\src/MQTTPacket.c **** 		buf[rc++] = d;
  42:..\paho.mqtt.embedded-c\MQTTPacket\src/MQTTPacket.c **** 	} while (length > 0);
  43:..\paho.mqtt.embedded-c\MQTTPacket\src/MQTTPacket.c **** 	FUNC_EXIT_RC(rc);
  44:..\paho.mqtt.embedded-c\MQTTPacket\src/MQTTPacket.c **** 	return rc;
  45:..\paho.mqtt.embedded-c\MQTTPacket\src/MQTTPacket.c **** }
  46:..\paho.mqtt.embedded-c\MQTTPacket\src/MQTTPacket.c **** 
  47:..\paho.mqtt.embedded-c\MQTTPacket\src/MQTTPacket.c **** 
  48:..\paho.mqtt.embedded-c\MQTTPacket\src/MQTTPacket.c **** /**
  49:..\paho.mqtt.embedded-c\MQTTPacket\src/MQTTPacket.c ****  * Decodes the message length according to the MQTT algorithm
  50:..\paho.mqtt.embedded-c\MQTTPacket\src/MQTTPacket.c ****  * @param getcharfn pointer to function to read the next character from the data source
  51:..\paho.mqtt.embedded-c\MQTTPacket\src/MQTTPacket.c ****  * @param value the decoded length returned
  52:..\paho.mqtt.embedded-c\MQTTPacket\src/MQTTPacket.c ****  * @return the number of bytes read from the socket
  53:..\paho.mqtt.embedded-c\MQTTPacket\src/MQTTPacket.c ****  */
  54:..\paho.mqtt.embedded-c\MQTTPacket\src/MQTTPacket.c **** int MQTTPacket_decode(int (*getcharfn)(unsigned char*, int), int* value)
  55:..\paho.mqtt.embedded-c\MQTTPacket\src/MQTTPacket.c **** {
  56:..\paho.mqtt.embedded-c\MQTTPacket\src/MQTTPacket.c **** 	unsigned char c;
  57:..\paho.mqtt.embedded-c\MQTTPacket\src/MQTTPacket.c **** 	int multiplier = 1;
  58:..\paho.mqtt.embedded-c\MQTTPacket\src/MQTTPacket.c **** 	int len = 0;
  59:..\paho.mqtt.embedded-c\MQTTPacket\src/MQTTPacket.c **** #define MAX_NO_OF_REMAINING_LENGTH_BYTES 4
  60:..\paho.mqtt.embedded-c\MQTTPacket\src/MQTTPacket.c **** 
  61:..\paho.mqtt.embedded-c\MQTTPacket\src/MQTTPacket.c **** 	FUNC_ENTRY;
  62:..\paho.mqtt.embedded-c\MQTTPacket\src/MQTTPacket.c **** 	*value = 0;
  63:..\paho.mqtt.embedded-c\MQTTPacket\src/MQTTPacket.c **** 	do
  64:..\paho.mqtt.embedded-c\MQTTPacket\src/MQTTPacket.c **** 	{
  65:..\paho.mqtt.embedded-c\MQTTPacket\src/MQTTPacket.c **** 		int rc = MQTTPACKET_READ_ERROR;
  66:..\paho.mqtt.embedded-c\MQTTPacket\src/MQTTPacket.c **** 
  67:..\paho.mqtt.embedded-c\MQTTPacket\src/MQTTPacket.c **** 		if (++len > MAX_NO_OF_REMAINING_LENGTH_BYTES)
  68:..\paho.mqtt.embedded-c\MQTTPacket\src/MQTTPacket.c **** 		{
  69:..\paho.mqtt.embedded-c\MQTTPacket\src/MQTTPacket.c **** 			rc = MQTTPACKET_READ_ERROR;	/* bad data */
  70:..\paho.mqtt.embedded-c\MQTTPacket\src/MQTTPacket.c **** 			goto exit;
  71:..\paho.mqtt.embedded-c\MQTTPacket\src/MQTTPacket.c **** 		}
  72:..\paho.mqtt.embedded-c\MQTTPacket\src/MQTTPacket.c **** 		rc = (*getcharfn)(&c, 1);
  73:..\paho.mqtt.embedded-c\MQTTPacket\src/MQTTPacket.c **** 		if (rc != 1)
  74:..\paho.mqtt.embedded-c\MQTTPacket\src/MQTTPacket.c **** 			goto exit;
  75:..\paho.mqtt.embedded-c\MQTTPacket\src/MQTTPacket.c **** 		*value += (c & 127) * multiplier;
  76:..\paho.mqtt.embedded-c\MQTTPacket\src/MQTTPacket.c **** 		multiplier *= 128;
  77:..\paho.mqtt.embedded-c\MQTTPacket\src/MQTTPacket.c **** 	} while ((c & 128) != 0);
  78:..\paho.mqtt.embedded-c\MQTTPacket\src/MQTTPacket.c **** exit:
  79:..\paho.mqtt.embedded-c\MQTTPacket\src/MQTTPacket.c **** 	FUNC_EXIT_RC(len);
  80:..\paho.mqtt.embedded-c\MQTTPacket\src/MQTTPacket.c **** 	return len;
  81:..\paho.mqtt.embedded-c\MQTTPacket\src/MQTTPacket.c **** }
  82:..\paho.mqtt.embedded-c\MQTTPacket\src/MQTTPacket.c **** 
  83:..\paho.mqtt.embedded-c\MQTTPacket\src/MQTTPacket.c **** 
  84:..\paho.mqtt.embedded-c\MQTTPacket\src/MQTTPacket.c **** int MQTTPacket_len(int rem_len)
  85:..\paho.mqtt.embedded-c\MQTTPacket\src/MQTTPacket.c **** {
  86:..\paho.mqtt.embedded-c\MQTTPacket\src/MQTTPacket.c **** 	rem_len += 1; /* header byte */
  87:..\paho.mqtt.embedded-c\MQTTPacket\src/MQTTPacket.c **** 
ARM GAS  C:\Users\samue\AppData\Local\Temp\cc1TpScf.s 			page 3


  88:..\paho.mqtt.embedded-c\MQTTPacket\src/MQTTPacket.c **** 	/* now remaining_length field */
  89:..\paho.mqtt.embedded-c\MQTTPacket\src/MQTTPacket.c **** 	if (rem_len < 128)
  90:..\paho.mqtt.embedded-c\MQTTPacket\src/MQTTPacket.c **** 		rem_len += 1;
  91:..\paho.mqtt.embedded-c\MQTTPacket\src/MQTTPacket.c **** 	else if (rem_len < 16384)
  92:..\paho.mqtt.embedded-c\MQTTPacket\src/MQTTPacket.c **** 		rem_len += 2;
  93:..\paho.mqtt.embedded-c\MQTTPacket\src/MQTTPacket.c **** 	else if (rem_len < 2097151)
  94:..\paho.mqtt.embedded-c\MQTTPacket\src/MQTTPacket.c **** 		rem_len += 3;
  95:..\paho.mqtt.embedded-c\MQTTPacket\src/MQTTPacket.c **** 	else
  96:..\paho.mqtt.embedded-c\MQTTPacket\src/MQTTPacket.c **** 		rem_len += 4;
  97:..\paho.mqtt.embedded-c\MQTTPacket\src/MQTTPacket.c **** 	return rem_len;
  98:..\paho.mqtt.embedded-c\MQTTPacket\src/MQTTPacket.c **** }
  99:..\paho.mqtt.embedded-c\MQTTPacket\src/MQTTPacket.c **** 
 100:..\paho.mqtt.embedded-c\MQTTPacket\src/MQTTPacket.c **** 
 101:..\paho.mqtt.embedded-c\MQTTPacket\src/MQTTPacket.c **** static unsigned char* bufptr;
 102:..\paho.mqtt.embedded-c\MQTTPacket\src/MQTTPacket.c **** 
 103:..\paho.mqtt.embedded-c\MQTTPacket\src/MQTTPacket.c **** int bufchar(unsigned char* c, int count)
 104:..\paho.mqtt.embedded-c\MQTTPacket\src/MQTTPacket.c **** {
  28              		.loc 1 104 0
  29              		.cfi_startproc
  30              		@ args = 0, pretend = 0, frame = 0
  31              		@ frame_needed = 0, uses_anonymous_args = 0
  32              		@ link register save eliminated.
  33              	.LVL0:
  34 0000 30B4     		push	{r4, r5}
  35              		.cfi_def_cfa_offset 8
  36              		.cfi_offset 4, -8
  37              		.cfi_offset 5, -4
  38              	.LVL1:
 105:..\paho.mqtt.embedded-c\MQTTPacket\src/MQTTPacket.c **** 	int i;
 106:..\paho.mqtt.embedded-c\MQTTPacket\src/MQTTPacket.c **** 
 107:..\paho.mqtt.embedded-c\MQTTPacket\src/MQTTPacket.c **** 	for (i = 0; i < count; ++i)
  39              		.loc 1 107 0
  40 0002 0023     		movs	r3, #0
  41 0004 06E0     		b	.L2
  42              	.LVL2:
  43              	.L3:
 108:..\paho.mqtt.embedded-c\MQTTPacket\src/MQTTPacket.c **** 		*c = *bufptr++;
  44              		.loc 1 108 0 discriminator 3
  45 0006 064C     		ldr	r4, .L5
  46 0008 2268     		ldr	r2, [r4]
  47 000a 551C     		adds	r5, r2, #1
  48 000c 2560     		str	r5, [r4]
  49 000e 1278     		ldrb	r2, [r2]	@ zero_extendqisi2
  50 0010 0270     		strb	r2, [r0]
 107:..\paho.mqtt.embedded-c\MQTTPacket\src/MQTTPacket.c **** 		*c = *bufptr++;
  51              		.loc 1 107 0 discriminator 3
  52 0012 0133     		adds	r3, r3, #1
  53              	.LVL3:
  54              	.L2:
 107:..\paho.mqtt.embedded-c\MQTTPacket\src/MQTTPacket.c **** 		*c = *bufptr++;
  55              		.loc 1 107 0 is_stmt 0 discriminator 1
  56 0014 8B42     		cmp	r3, r1
  57 0016 F6DB     		blt	.L3
 109:..\paho.mqtt.embedded-c\MQTTPacket\src/MQTTPacket.c **** 	return count;
 110:..\paho.mqtt.embedded-c\MQTTPacket\src/MQTTPacket.c **** }
  58              		.loc 1 110 0 is_stmt 1
  59 0018 0846     		mov	r0, r1
ARM GAS  C:\Users\samue\AppData\Local\Temp\cc1TpScf.s 			page 4


  60              	.LVL4:
  61 001a 30BC     		pop	{r4, r5}
  62              		.cfi_restore 5
  63              		.cfi_restore 4
  64              		.cfi_def_cfa_offset 0
  65 001c 7047     		bx	lr
  66              	.L6:
  67 001e 00BF     		.align	2
  68              	.L5:
  69 0020 00000000 		.word	.LANCHOR0
  70              		.cfi_endproc
  71              	.LFE4:
  72              		.size	bufchar, .-bufchar
  73              		.section	.text.MQTTPacket_decodenb,"ax",%progbits
  74              		.align	2
  75              		.thumb
  76              		.thumb_func
  77              		.type	MQTTPacket_decodenb, %function
  78              	MQTTPacket_decodenb:
  79              	.LFB17:
 111:..\paho.mqtt.embedded-c\MQTTPacket\src/MQTTPacket.c **** 
 112:..\paho.mqtt.embedded-c\MQTTPacket\src/MQTTPacket.c **** 
 113:..\paho.mqtt.embedded-c\MQTTPacket\src/MQTTPacket.c **** int MQTTPacket_decodeBuf(unsigned char* buf, int* value)
 114:..\paho.mqtt.embedded-c\MQTTPacket\src/MQTTPacket.c **** {
 115:..\paho.mqtt.embedded-c\MQTTPacket\src/MQTTPacket.c **** 	bufptr = buf;
 116:..\paho.mqtt.embedded-c\MQTTPacket\src/MQTTPacket.c **** 	return MQTTPacket_decode(bufchar, value);
 117:..\paho.mqtt.embedded-c\MQTTPacket\src/MQTTPacket.c **** }
 118:..\paho.mqtt.embedded-c\MQTTPacket\src/MQTTPacket.c **** 
 119:..\paho.mqtt.embedded-c\MQTTPacket\src/MQTTPacket.c **** 
 120:..\paho.mqtt.embedded-c\MQTTPacket\src/MQTTPacket.c **** /**
 121:..\paho.mqtt.embedded-c\MQTTPacket\src/MQTTPacket.c ****  * Calculates an integer from two bytes read from the input buffer
 122:..\paho.mqtt.embedded-c\MQTTPacket\src/MQTTPacket.c ****  * @param pptr pointer to the input buffer - incremented by the number of bytes used & returned
 123:..\paho.mqtt.embedded-c\MQTTPacket\src/MQTTPacket.c ****  * @return the integer value calculated
 124:..\paho.mqtt.embedded-c\MQTTPacket\src/MQTTPacket.c ****  */
 125:..\paho.mqtt.embedded-c\MQTTPacket\src/MQTTPacket.c **** int readInt(unsigned char** pptr)
 126:..\paho.mqtt.embedded-c\MQTTPacket\src/MQTTPacket.c **** {
 127:..\paho.mqtt.embedded-c\MQTTPacket\src/MQTTPacket.c **** 	unsigned char* ptr = *pptr;
 128:..\paho.mqtt.embedded-c\MQTTPacket\src/MQTTPacket.c **** 	int len = 256*(*ptr) + (*(ptr+1));
 129:..\paho.mqtt.embedded-c\MQTTPacket\src/MQTTPacket.c **** 	*pptr += 2;
 130:..\paho.mqtt.embedded-c\MQTTPacket\src/MQTTPacket.c **** 	return len;
 131:..\paho.mqtt.embedded-c\MQTTPacket\src/MQTTPacket.c **** }
 132:..\paho.mqtt.embedded-c\MQTTPacket\src/MQTTPacket.c **** 
 133:..\paho.mqtt.embedded-c\MQTTPacket\src/MQTTPacket.c **** 
 134:..\paho.mqtt.embedded-c\MQTTPacket\src/MQTTPacket.c **** /**
 135:..\paho.mqtt.embedded-c\MQTTPacket\src/MQTTPacket.c ****  * Reads one character from the input buffer.
 136:..\paho.mqtt.embedded-c\MQTTPacket\src/MQTTPacket.c ****  * @param pptr pointer to the input buffer - incremented by the number of bytes used & returned
 137:..\paho.mqtt.embedded-c\MQTTPacket\src/MQTTPacket.c ****  * @return the character read
 138:..\paho.mqtt.embedded-c\MQTTPacket\src/MQTTPacket.c ****  */
 139:..\paho.mqtt.embedded-c\MQTTPacket\src/MQTTPacket.c **** char readChar(unsigned char** pptr)
 140:..\paho.mqtt.embedded-c\MQTTPacket\src/MQTTPacket.c **** {
 141:..\paho.mqtt.embedded-c\MQTTPacket\src/MQTTPacket.c **** 	char c = **pptr;
 142:..\paho.mqtt.embedded-c\MQTTPacket\src/MQTTPacket.c **** 	(*pptr)++;
 143:..\paho.mqtt.embedded-c\MQTTPacket\src/MQTTPacket.c **** 	return c;
 144:..\paho.mqtt.embedded-c\MQTTPacket\src/MQTTPacket.c **** }
 145:..\paho.mqtt.embedded-c\MQTTPacket\src/MQTTPacket.c **** 
 146:..\paho.mqtt.embedded-c\MQTTPacket\src/MQTTPacket.c **** 
 147:..\paho.mqtt.embedded-c\MQTTPacket\src/MQTTPacket.c **** /**
ARM GAS  C:\Users\samue\AppData\Local\Temp\cc1TpScf.s 			page 5


 148:..\paho.mqtt.embedded-c\MQTTPacket\src/MQTTPacket.c ****  * Writes one character to an output buffer.
 149:..\paho.mqtt.embedded-c\MQTTPacket\src/MQTTPacket.c ****  * @param pptr pointer to the output buffer - incremented by the number of bytes used & returned
 150:..\paho.mqtt.embedded-c\MQTTPacket\src/MQTTPacket.c ****  * @param c the character to write
 151:..\paho.mqtt.embedded-c\MQTTPacket\src/MQTTPacket.c ****  */
 152:..\paho.mqtt.embedded-c\MQTTPacket\src/MQTTPacket.c **** void writeChar(unsigned char** pptr, char c)
 153:..\paho.mqtt.embedded-c\MQTTPacket\src/MQTTPacket.c **** {
 154:..\paho.mqtt.embedded-c\MQTTPacket\src/MQTTPacket.c **** 	**pptr = c;
 155:..\paho.mqtt.embedded-c\MQTTPacket\src/MQTTPacket.c **** 	(*pptr)++;
 156:..\paho.mqtt.embedded-c\MQTTPacket\src/MQTTPacket.c **** }
 157:..\paho.mqtt.embedded-c\MQTTPacket\src/MQTTPacket.c **** 
 158:..\paho.mqtt.embedded-c\MQTTPacket\src/MQTTPacket.c **** 
 159:..\paho.mqtt.embedded-c\MQTTPacket\src/MQTTPacket.c **** /**
 160:..\paho.mqtt.embedded-c\MQTTPacket\src/MQTTPacket.c ****  * Writes an integer as 2 bytes to an output buffer.
 161:..\paho.mqtt.embedded-c\MQTTPacket\src/MQTTPacket.c ****  * @param pptr pointer to the output buffer - incremented by the number of bytes used & returned
 162:..\paho.mqtt.embedded-c\MQTTPacket\src/MQTTPacket.c ****  * @param anInt the integer to write
 163:..\paho.mqtt.embedded-c\MQTTPacket\src/MQTTPacket.c ****  */
 164:..\paho.mqtt.embedded-c\MQTTPacket\src/MQTTPacket.c **** void writeInt(unsigned char** pptr, int anInt)
 165:..\paho.mqtt.embedded-c\MQTTPacket\src/MQTTPacket.c **** {
 166:..\paho.mqtt.embedded-c\MQTTPacket\src/MQTTPacket.c **** 	**pptr = (unsigned char)(anInt / 256);
 167:..\paho.mqtt.embedded-c\MQTTPacket\src/MQTTPacket.c **** 	(*pptr)++;
 168:..\paho.mqtt.embedded-c\MQTTPacket\src/MQTTPacket.c **** 	**pptr = (unsigned char)(anInt % 256);
 169:..\paho.mqtt.embedded-c\MQTTPacket\src/MQTTPacket.c **** 	(*pptr)++;
 170:..\paho.mqtt.embedded-c\MQTTPacket\src/MQTTPacket.c **** }
 171:..\paho.mqtt.embedded-c\MQTTPacket\src/MQTTPacket.c **** 
 172:..\paho.mqtt.embedded-c\MQTTPacket\src/MQTTPacket.c **** 
 173:..\paho.mqtt.embedded-c\MQTTPacket\src/MQTTPacket.c **** /**
 174:..\paho.mqtt.embedded-c\MQTTPacket\src/MQTTPacket.c ****  * Writes a "UTF" string to an output buffer.  Converts C string to length-delimited.
 175:..\paho.mqtt.embedded-c\MQTTPacket\src/MQTTPacket.c ****  * @param pptr pointer to the output buffer - incremented by the number of bytes used & returned
 176:..\paho.mqtt.embedded-c\MQTTPacket\src/MQTTPacket.c ****  * @param string the C string to write
 177:..\paho.mqtt.embedded-c\MQTTPacket\src/MQTTPacket.c ****  */
 178:..\paho.mqtt.embedded-c\MQTTPacket\src/MQTTPacket.c **** void writeCString(unsigned char** pptr, const char* string)
 179:..\paho.mqtt.embedded-c\MQTTPacket\src/MQTTPacket.c **** {
 180:..\paho.mqtt.embedded-c\MQTTPacket\src/MQTTPacket.c **** 	int len = strlen(string);
 181:..\paho.mqtt.embedded-c\MQTTPacket\src/MQTTPacket.c **** 	writeInt(pptr, len);
 182:..\paho.mqtt.embedded-c\MQTTPacket\src/MQTTPacket.c **** 	memcpy(*pptr, string, len);
 183:..\paho.mqtt.embedded-c\MQTTPacket\src/MQTTPacket.c **** 	*pptr += len;
 184:..\paho.mqtt.embedded-c\MQTTPacket\src/MQTTPacket.c **** }
 185:..\paho.mqtt.embedded-c\MQTTPacket\src/MQTTPacket.c **** 
 186:..\paho.mqtt.embedded-c\MQTTPacket\src/MQTTPacket.c **** 
 187:..\paho.mqtt.embedded-c\MQTTPacket\src/MQTTPacket.c **** int getLenStringLen(char* ptr)
 188:..\paho.mqtt.embedded-c\MQTTPacket\src/MQTTPacket.c **** {
 189:..\paho.mqtt.embedded-c\MQTTPacket\src/MQTTPacket.c **** 	int len = 256*((unsigned char)(*ptr)) + (unsigned char)(*(ptr+1));
 190:..\paho.mqtt.embedded-c\MQTTPacket\src/MQTTPacket.c **** 	return len;
 191:..\paho.mqtt.embedded-c\MQTTPacket\src/MQTTPacket.c **** }
 192:..\paho.mqtt.embedded-c\MQTTPacket\src/MQTTPacket.c **** 
 193:..\paho.mqtt.embedded-c\MQTTPacket\src/MQTTPacket.c **** 
 194:..\paho.mqtt.embedded-c\MQTTPacket\src/MQTTPacket.c **** void writeMQTTString(unsigned char** pptr, MQTTString mqttstring)
 195:..\paho.mqtt.embedded-c\MQTTPacket\src/MQTTPacket.c **** {
 196:..\paho.mqtt.embedded-c\MQTTPacket\src/MQTTPacket.c **** 	if (mqttstring.lenstring.len > 0)
 197:..\paho.mqtt.embedded-c\MQTTPacket\src/MQTTPacket.c **** 	{
 198:..\paho.mqtt.embedded-c\MQTTPacket\src/MQTTPacket.c **** 		writeInt(pptr, mqttstring.lenstring.len);
 199:..\paho.mqtt.embedded-c\MQTTPacket\src/MQTTPacket.c **** 		memcpy(*pptr, mqttstring.lenstring.data, mqttstring.lenstring.len);
 200:..\paho.mqtt.embedded-c\MQTTPacket\src/MQTTPacket.c **** 		*pptr += mqttstring.lenstring.len;
 201:..\paho.mqtt.embedded-c\MQTTPacket\src/MQTTPacket.c **** 	}
 202:..\paho.mqtt.embedded-c\MQTTPacket\src/MQTTPacket.c **** 	else if (mqttstring.cstring)
 203:..\paho.mqtt.embedded-c\MQTTPacket\src/MQTTPacket.c **** 		writeCString(pptr, mqttstring.cstring);
 204:..\paho.mqtt.embedded-c\MQTTPacket\src/MQTTPacket.c **** 	else
ARM GAS  C:\Users\samue\AppData\Local\Temp\cc1TpScf.s 			page 6


 205:..\paho.mqtt.embedded-c\MQTTPacket\src/MQTTPacket.c **** 		writeInt(pptr, 0);
 206:..\paho.mqtt.embedded-c\MQTTPacket\src/MQTTPacket.c **** }
 207:..\paho.mqtt.embedded-c\MQTTPacket\src/MQTTPacket.c **** 
 208:..\paho.mqtt.embedded-c\MQTTPacket\src/MQTTPacket.c **** 
 209:..\paho.mqtt.embedded-c\MQTTPacket\src/MQTTPacket.c **** /**
 210:..\paho.mqtt.embedded-c\MQTTPacket\src/MQTTPacket.c ****  * @param mqttstring the MQTTString structure into which the data is to be read
 211:..\paho.mqtt.embedded-c\MQTTPacket\src/MQTTPacket.c ****  * @param pptr pointer to the output buffer - incremented by the number of bytes used & returned
 212:..\paho.mqtt.embedded-c\MQTTPacket\src/MQTTPacket.c ****  * @param enddata pointer to the end of the data: do not read beyond
 213:..\paho.mqtt.embedded-c\MQTTPacket\src/MQTTPacket.c ****  * @return 1 if successful, 0 if not
 214:..\paho.mqtt.embedded-c\MQTTPacket\src/MQTTPacket.c ****  */
 215:..\paho.mqtt.embedded-c\MQTTPacket\src/MQTTPacket.c **** int readMQTTLenString(MQTTString* mqttstring, unsigned char** pptr, unsigned char* enddata)
 216:..\paho.mqtt.embedded-c\MQTTPacket\src/MQTTPacket.c **** {
 217:..\paho.mqtt.embedded-c\MQTTPacket\src/MQTTPacket.c **** 	int rc = 0;
 218:..\paho.mqtt.embedded-c\MQTTPacket\src/MQTTPacket.c **** 
 219:..\paho.mqtt.embedded-c\MQTTPacket\src/MQTTPacket.c **** 	FUNC_ENTRY;
 220:..\paho.mqtt.embedded-c\MQTTPacket\src/MQTTPacket.c **** 	/* the first two bytes are the length of the string */
 221:..\paho.mqtt.embedded-c\MQTTPacket\src/MQTTPacket.c **** 	if (enddata - (*pptr) > 1) /* enough length to read the integer? */
 222:..\paho.mqtt.embedded-c\MQTTPacket\src/MQTTPacket.c **** 	{
 223:..\paho.mqtt.embedded-c\MQTTPacket\src/MQTTPacket.c **** 		mqttstring->lenstring.len = readInt(pptr); /* increments pptr to point past length */
 224:..\paho.mqtt.embedded-c\MQTTPacket\src/MQTTPacket.c **** 		if (&(*pptr)[mqttstring->lenstring.len] <= enddata)
 225:..\paho.mqtt.embedded-c\MQTTPacket\src/MQTTPacket.c **** 		{
 226:..\paho.mqtt.embedded-c\MQTTPacket\src/MQTTPacket.c **** 			mqttstring->lenstring.data = (char*)*pptr;
 227:..\paho.mqtt.embedded-c\MQTTPacket\src/MQTTPacket.c **** 			*pptr += mqttstring->lenstring.len;
 228:..\paho.mqtt.embedded-c\MQTTPacket\src/MQTTPacket.c **** 			rc = 1;
 229:..\paho.mqtt.embedded-c\MQTTPacket\src/MQTTPacket.c **** 		}
 230:..\paho.mqtt.embedded-c\MQTTPacket\src/MQTTPacket.c **** 	}
 231:..\paho.mqtt.embedded-c\MQTTPacket\src/MQTTPacket.c **** 	mqttstring->cstring = NULL;
 232:..\paho.mqtt.embedded-c\MQTTPacket\src/MQTTPacket.c **** 	FUNC_EXIT_RC(rc);
 233:..\paho.mqtt.embedded-c\MQTTPacket\src/MQTTPacket.c **** 	return rc;
 234:..\paho.mqtt.embedded-c\MQTTPacket\src/MQTTPacket.c **** }
 235:..\paho.mqtt.embedded-c\MQTTPacket\src/MQTTPacket.c **** 
 236:..\paho.mqtt.embedded-c\MQTTPacket\src/MQTTPacket.c **** 
 237:..\paho.mqtt.embedded-c\MQTTPacket\src/MQTTPacket.c **** /**
 238:..\paho.mqtt.embedded-c\MQTTPacket\src/MQTTPacket.c ****  * Return the length of the MQTTstring - C string if there is one, otherwise the length delimited s
 239:..\paho.mqtt.embedded-c\MQTTPacket\src/MQTTPacket.c ****  * @param mqttstring the string to return the length of
 240:..\paho.mqtt.embedded-c\MQTTPacket\src/MQTTPacket.c ****  * @return the length of the string
 241:..\paho.mqtt.embedded-c\MQTTPacket\src/MQTTPacket.c ****  */
 242:..\paho.mqtt.embedded-c\MQTTPacket\src/MQTTPacket.c **** int MQTTstrlen(MQTTString mqttstring)
 243:..\paho.mqtt.embedded-c\MQTTPacket\src/MQTTPacket.c **** {
 244:..\paho.mqtt.embedded-c\MQTTPacket\src/MQTTPacket.c **** 	int rc = 0;
 245:..\paho.mqtt.embedded-c\MQTTPacket\src/MQTTPacket.c **** 
 246:..\paho.mqtt.embedded-c\MQTTPacket\src/MQTTPacket.c **** 	if (mqttstring.cstring)
 247:..\paho.mqtt.embedded-c\MQTTPacket\src/MQTTPacket.c **** 		rc = strlen(mqttstring.cstring);
 248:..\paho.mqtt.embedded-c\MQTTPacket\src/MQTTPacket.c **** 	else
 249:..\paho.mqtt.embedded-c\MQTTPacket\src/MQTTPacket.c **** 		rc = mqttstring.lenstring.len;
 250:..\paho.mqtt.embedded-c\MQTTPacket\src/MQTTPacket.c **** 	return rc;
 251:..\paho.mqtt.embedded-c\MQTTPacket\src/MQTTPacket.c **** }
 252:..\paho.mqtt.embedded-c\MQTTPacket\src/MQTTPacket.c **** 
 253:..\paho.mqtt.embedded-c\MQTTPacket\src/MQTTPacket.c **** 
 254:..\paho.mqtt.embedded-c\MQTTPacket\src/MQTTPacket.c **** /**
 255:..\paho.mqtt.embedded-c\MQTTPacket\src/MQTTPacket.c ****  * Compares an MQTTString to a C string
 256:..\paho.mqtt.embedded-c\MQTTPacket\src/MQTTPacket.c ****  * @param a the MQTTString to compare
 257:..\paho.mqtt.embedded-c\MQTTPacket\src/MQTTPacket.c ****  * @param bptr the C string to compare
 258:..\paho.mqtt.embedded-c\MQTTPacket\src/MQTTPacket.c ****  * @return boolean - equal or not
 259:..\paho.mqtt.embedded-c\MQTTPacket\src/MQTTPacket.c ****  */
 260:..\paho.mqtt.embedded-c\MQTTPacket\src/MQTTPacket.c **** int MQTTPacket_equals(MQTTString* a, char* bptr)
 261:..\paho.mqtt.embedded-c\MQTTPacket\src/MQTTPacket.c **** {
ARM GAS  C:\Users\samue\AppData\Local\Temp\cc1TpScf.s 			page 7


 262:..\paho.mqtt.embedded-c\MQTTPacket\src/MQTTPacket.c **** 	int alen = 0,
 263:..\paho.mqtt.embedded-c\MQTTPacket\src/MQTTPacket.c **** 		blen = 0;
 264:..\paho.mqtt.embedded-c\MQTTPacket\src/MQTTPacket.c **** 	char *aptr;
 265:..\paho.mqtt.embedded-c\MQTTPacket\src/MQTTPacket.c **** 	
 266:..\paho.mqtt.embedded-c\MQTTPacket\src/MQTTPacket.c **** 	if (a->cstring)
 267:..\paho.mqtt.embedded-c\MQTTPacket\src/MQTTPacket.c **** 	{
 268:..\paho.mqtt.embedded-c\MQTTPacket\src/MQTTPacket.c **** 		aptr = a->cstring;
 269:..\paho.mqtt.embedded-c\MQTTPacket\src/MQTTPacket.c **** 		alen = strlen(a->cstring);
 270:..\paho.mqtt.embedded-c\MQTTPacket\src/MQTTPacket.c **** 	}
 271:..\paho.mqtt.embedded-c\MQTTPacket\src/MQTTPacket.c **** 	else
 272:..\paho.mqtt.embedded-c\MQTTPacket\src/MQTTPacket.c **** 	{
 273:..\paho.mqtt.embedded-c\MQTTPacket\src/MQTTPacket.c **** 		aptr = a->lenstring.data;
 274:..\paho.mqtt.embedded-c\MQTTPacket\src/MQTTPacket.c **** 		alen = a->lenstring.len;
 275:..\paho.mqtt.embedded-c\MQTTPacket\src/MQTTPacket.c **** 	}
 276:..\paho.mqtt.embedded-c\MQTTPacket\src/MQTTPacket.c **** 	blen = strlen(bptr);
 277:..\paho.mqtt.embedded-c\MQTTPacket\src/MQTTPacket.c **** 	
 278:..\paho.mqtt.embedded-c\MQTTPacket\src/MQTTPacket.c **** 	return (alen == blen) && (strncmp(aptr, bptr, alen) == 0);
 279:..\paho.mqtt.embedded-c\MQTTPacket\src/MQTTPacket.c **** }
 280:..\paho.mqtt.embedded-c\MQTTPacket\src/MQTTPacket.c **** 
 281:..\paho.mqtt.embedded-c\MQTTPacket\src/MQTTPacket.c **** 
 282:..\paho.mqtt.embedded-c\MQTTPacket\src/MQTTPacket.c **** /**
 283:..\paho.mqtt.embedded-c\MQTTPacket\src/MQTTPacket.c ****  * Helper function to read packet data from some source into a buffer
 284:..\paho.mqtt.embedded-c\MQTTPacket\src/MQTTPacket.c ****  * @param buf the buffer into which the packet will be serialized
 285:..\paho.mqtt.embedded-c\MQTTPacket\src/MQTTPacket.c ****  * @param buflen the length in bytes of the supplied buffer
 286:..\paho.mqtt.embedded-c\MQTTPacket\src/MQTTPacket.c ****  * @param getfn pointer to a function which will read any number of bytes from the needed source
 287:..\paho.mqtt.embedded-c\MQTTPacket\src/MQTTPacket.c ****  * @return integer MQTT packet type, or -1 on error
 288:..\paho.mqtt.embedded-c\MQTTPacket\src/MQTTPacket.c ****  * @note  the whole message must fit into the caller's buffer
 289:..\paho.mqtt.embedded-c\MQTTPacket\src/MQTTPacket.c ****  */
 290:..\paho.mqtt.embedded-c\MQTTPacket\src/MQTTPacket.c **** int MQTTPacket_read(unsigned char* buf, int buflen, int (*getfn)(unsigned char*, int))
 291:..\paho.mqtt.embedded-c\MQTTPacket\src/MQTTPacket.c **** {
 292:..\paho.mqtt.embedded-c\MQTTPacket\src/MQTTPacket.c **** 	int rc = -1;
 293:..\paho.mqtt.embedded-c\MQTTPacket\src/MQTTPacket.c **** 	MQTTHeader header = {0};
 294:..\paho.mqtt.embedded-c\MQTTPacket\src/MQTTPacket.c **** 	int len = 0;
 295:..\paho.mqtt.embedded-c\MQTTPacket\src/MQTTPacket.c **** 	int rem_len = 0;
 296:..\paho.mqtt.embedded-c\MQTTPacket\src/MQTTPacket.c **** 
 297:..\paho.mqtt.embedded-c\MQTTPacket\src/MQTTPacket.c **** 	/* 1. read the header byte.  This has the packet type in it */
 298:..\paho.mqtt.embedded-c\MQTTPacket\src/MQTTPacket.c **** 	if ((*getfn)(buf, 1) != 1)
 299:..\paho.mqtt.embedded-c\MQTTPacket\src/MQTTPacket.c **** 		goto exit;
 300:..\paho.mqtt.embedded-c\MQTTPacket\src/MQTTPacket.c **** 
 301:..\paho.mqtt.embedded-c\MQTTPacket\src/MQTTPacket.c **** 	len = 1;
 302:..\paho.mqtt.embedded-c\MQTTPacket\src/MQTTPacket.c **** 	/* 2. read the remaining length.  This is variable in itself */
 303:..\paho.mqtt.embedded-c\MQTTPacket\src/MQTTPacket.c **** 	MQTTPacket_decode(getfn, &rem_len);
 304:..\paho.mqtt.embedded-c\MQTTPacket\src/MQTTPacket.c **** 	len += MQTTPacket_encode(buf + 1, rem_len); /* put the original remaining length back into the buf
 305:..\paho.mqtt.embedded-c\MQTTPacket\src/MQTTPacket.c **** 
 306:..\paho.mqtt.embedded-c\MQTTPacket\src/MQTTPacket.c **** 	/* 3. read the rest of the buffer using a callback to supply the rest of the data */
 307:..\paho.mqtt.embedded-c\MQTTPacket\src/MQTTPacket.c **** 	if((rem_len + len) > buflen)
 308:..\paho.mqtt.embedded-c\MQTTPacket\src/MQTTPacket.c **** 		goto exit;
 309:..\paho.mqtt.embedded-c\MQTTPacket\src/MQTTPacket.c **** 	if (rem_len && ((*getfn)(buf + len, rem_len) != rem_len))
 310:..\paho.mqtt.embedded-c\MQTTPacket\src/MQTTPacket.c **** 		goto exit;
 311:..\paho.mqtt.embedded-c\MQTTPacket\src/MQTTPacket.c **** 
 312:..\paho.mqtt.embedded-c\MQTTPacket\src/MQTTPacket.c **** 	header.byte = buf[0];
 313:..\paho.mqtt.embedded-c\MQTTPacket\src/MQTTPacket.c **** 	rc = header.bits.type;
 314:..\paho.mqtt.embedded-c\MQTTPacket\src/MQTTPacket.c **** exit:
 315:..\paho.mqtt.embedded-c\MQTTPacket\src/MQTTPacket.c **** 	return rc;
 316:..\paho.mqtt.embedded-c\MQTTPacket\src/MQTTPacket.c **** }
 317:..\paho.mqtt.embedded-c\MQTTPacket\src/MQTTPacket.c **** 
 318:..\paho.mqtt.embedded-c\MQTTPacket\src/MQTTPacket.c **** /**
ARM GAS  C:\Users\samue\AppData\Local\Temp\cc1TpScf.s 			page 8


 319:..\paho.mqtt.embedded-c\MQTTPacket\src/MQTTPacket.c ****  * Decodes the message length according to the MQTT algorithm, non-blocking
 320:..\paho.mqtt.embedded-c\MQTTPacket\src/MQTTPacket.c ****  * @param trp pointer to a transport structure holding what is needed to solve getting data from it
 321:..\paho.mqtt.embedded-c\MQTTPacket\src/MQTTPacket.c ****  * @param value the decoded length returned
 322:..\paho.mqtt.embedded-c\MQTTPacket\src/MQTTPacket.c ****  * @return integer the number of bytes read from the socket, 0 for call again, or -1 on error
 323:..\paho.mqtt.embedded-c\MQTTPacket\src/MQTTPacket.c ****  */
 324:..\paho.mqtt.embedded-c\MQTTPacket\src/MQTTPacket.c **** static int MQTTPacket_decodenb(MQTTTransport *trp)
 325:..\paho.mqtt.embedded-c\MQTTPacket\src/MQTTPacket.c **** {
  80              		.loc 1 325 0
  81              		.cfi_startproc
  82              		@ args = 0, pretend = 0, frame = 8
  83              		@ frame_needed = 0, uses_anonymous_args = 0
  84              	.LVL5:
  85 0000 30B5     		push	{r4, r5, lr}
  86              		.cfi_def_cfa_offset 12
  87              		.cfi_offset 4, -12
  88              		.cfi_offset 5, -8
  89              		.cfi_offset 14, -4
  90 0002 83B0     		sub	sp, sp, #12
  91              		.cfi_def_cfa_offset 24
  92 0004 0446     		mov	r4, r0
  93              	.LVL6:
 326:..\paho.mqtt.embedded-c\MQTTPacket\src/MQTTPacket.c **** 	unsigned char c;
 327:..\paho.mqtt.embedded-c\MQTTPacket\src/MQTTPacket.c **** 	int rc = MQTTPACKET_READ_ERROR;
 328:..\paho.mqtt.embedded-c\MQTTPacket\src/MQTTPacket.c **** 
 329:..\paho.mqtt.embedded-c\MQTTPacket\src/MQTTPacket.c **** 	FUNC_ENTRY;
 330:..\paho.mqtt.embedded-c\MQTTPacket\src/MQTTPacket.c **** 	if(trp->len == 0){		/* initialize on first call */
  94              		.loc 1 330 0
  95 0006 0369     		ldr	r3, [r0, #16]
  96 0008 1BB9     		cbnz	r3, .L10
 331:..\paho.mqtt.embedded-c\MQTTPacket\src/MQTTPacket.c **** 		trp->multiplier = 1;
  97              		.loc 1 331 0
  98 000a 0123     		movs	r3, #1
  99 000c 8360     		str	r3, [r0, #8]
 332:..\paho.mqtt.embedded-c\MQTTPacket\src/MQTTPacket.c **** 		trp->rem_len = 0;
 100              		.loc 1 332 0
 101 000e 0023     		movs	r3, #0
 102 0010 C360     		str	r3, [r0, #12]
 103              	.LVL7:
 104              	.L10:
 105              	.LBB2:
 333:..\paho.mqtt.embedded-c\MQTTPacket\src/MQTTPacket.c **** 	}
 334:..\paho.mqtt.embedded-c\MQTTPacket\src/MQTTPacket.c **** 	do {
 335:..\paho.mqtt.embedded-c\MQTTPacket\src/MQTTPacket.c **** 		int frc;
 336:..\paho.mqtt.embedded-c\MQTTPacket\src/MQTTPacket.c **** 		if (trp->len >= MAX_NO_OF_REMAINING_LENGTH_BYTES)
 106              		.loc 1 336 0
 107 0012 2369     		ldr	r3, [r4, #16]
 108 0014 032B     		cmp	r3, #3
 109 0016 1BDC     		bgt	.L11
 337:..\paho.mqtt.embedded-c\MQTTPacket\src/MQTTPacket.c **** 			goto exit;
 338:..\paho.mqtt.embedded-c\MQTTPacket\src/MQTTPacket.c **** 		if ((frc=(*trp->getfn)(trp->sck, &c, 1)) == -1)
 110              		.loc 1 338 0
 111 0018 2368     		ldr	r3, [r4]
 112 001a 0122     		movs	r2, #1
 113 001c 0DF10701 		add	r1, sp, #7
 114 0020 6068     		ldr	r0, [r4, #4]
 115 0022 9847     		blx	r3
 116              	.LVL8:
ARM GAS  C:\Users\samue\AppData\Local\Temp\cc1TpScf.s 			page 9


 117 0024 B0F1FF3F 		cmp	r0, #-1
 118 0028 15D0     		beq	.L12
 339:..\paho.mqtt.embedded-c\MQTTPacket\src/MQTTPacket.c **** 			goto exit;
 340:..\paho.mqtt.embedded-c\MQTTPacket\src/MQTTPacket.c **** 		if (frc == 0){
 119              		.loc 1 340 0
 120 002a B8B1     		cbz	r0, .L13
 341:..\paho.mqtt.embedded-c\MQTTPacket\src/MQTTPacket.c **** 			rc = 0;
 342:..\paho.mqtt.embedded-c\MQTTPacket\src/MQTTPacket.c **** 			goto exit;
 343:..\paho.mqtt.embedded-c\MQTTPacket\src/MQTTPacket.c **** 		}
 344:..\paho.mqtt.embedded-c\MQTTPacket\src/MQTTPacket.c **** 		++(trp->len);
 121              		.loc 1 344 0
 122 002c 2069     		ldr	r0, [r4, #16]
 123              	.LVL9:
 124 002e 0130     		adds	r0, r0, #1
 125 0030 2061     		str	r0, [r4, #16]
 345:..\paho.mqtt.embedded-c\MQTTPacket\src/MQTTPacket.c **** 		trp->rem_len += (c & 127) * trp->multiplier;
 126              		.loc 1 345 0
 127 0032 9DF80710 		ldrb	r1, [sp, #7]	@ zero_extendqisi2
 128 0036 01F07F02 		and	r2, r1, #127
 129 003a A368     		ldr	r3, [r4, #8]
 130 003c E568     		ldr	r5, [r4, #12]
 131 003e 03FB0252 		mla	r2, r3, r2, r5
 132 0042 E260     		str	r2, [r4, #12]
 346:..\paho.mqtt.embedded-c\MQTTPacket\src/MQTTPacket.c **** 		trp->multiplier *= 128;
 133              		.loc 1 346 0
 134 0044 DB01     		lsls	r3, r3, #7
 135 0046 A360     		str	r3, [r4, #8]
 136              	.LBE2:
 347:..\paho.mqtt.embedded-c\MQTTPacket\src/MQTTPacket.c **** 	} while ((c & 128) != 0);
 137              		.loc 1 347 0
 138 0048 11F0800F 		tst	r1, #128
 139 004c E1D1     		bne	.L10
 140 004e 06E0     		b	.L9
 141              	.L11:
 327:..\paho.mqtt.embedded-c\MQTTPacket\src/MQTTPacket.c **** 
 142              		.loc 1 327 0
 143 0050 4FF0FF30 		mov	r0, #-1
 144 0054 03E0     		b	.L9
 145              	.LVL10:
 146              	.L12:
 147 0056 4FF0FF30 		mov	r0, #-1
 148              	.LVL11:
 149 005a 00E0     		b	.L9
 150              	.LVL12:
 151              	.L13:
 152              	.LBB3:
 341:..\paho.mqtt.embedded-c\MQTTPacket\src/MQTTPacket.c **** 			goto exit;
 153              		.loc 1 341 0
 154 005c 0020     		movs	r0, #0
 155              	.LVL13:
 156              	.L9:
 157              	.LBE3:
 348:..\paho.mqtt.embedded-c\MQTTPacket\src/MQTTPacket.c **** 	rc = trp->len;
 349:..\paho.mqtt.embedded-c\MQTTPacket\src/MQTTPacket.c **** exit:
 350:..\paho.mqtt.embedded-c\MQTTPacket\src/MQTTPacket.c **** 	FUNC_EXIT_RC(rc);
 351:..\paho.mqtt.embedded-c\MQTTPacket\src/MQTTPacket.c **** 	return rc;
 352:..\paho.mqtt.embedded-c\MQTTPacket\src/MQTTPacket.c **** }
ARM GAS  C:\Users\samue\AppData\Local\Temp\cc1TpScf.s 			page 10


 158              		.loc 1 352 0
 159 005e 03B0     		add	sp, sp, #12
 160              		.cfi_def_cfa_offset 12
 161              		@ sp needed
 162 0060 30BD     		pop	{r4, r5, pc}
 163              		.cfi_endproc
 164              	.LFE17:
 165              		.size	MQTTPacket_decodenb, .-MQTTPacket_decodenb
 166 0062 00BF     		.section	.text.MQTTPacket_encode,"ax",%progbits
 167              		.align	2
 168              		.global	MQTTPacket_encode
 169              		.thumb
 170              		.thumb_func
 171              		.type	MQTTPacket_encode, %function
 172              	MQTTPacket_encode:
 173              	.LFB1:
  30:..\paho.mqtt.embedded-c\MQTTPacket\src/MQTTPacket.c **** 	int rc = 0;
 174              		.loc 1 30 0
 175              		.cfi_startproc
 176              		@ args = 0, pretend = 0, frame = 0
 177              		@ frame_needed = 0, uses_anonymous_args = 0
 178              		@ link register save eliminated.
 179              	.LVL14:
 180 0000 30B4     		push	{r4, r5}
 181              		.cfi_def_cfa_offset 8
 182              		.cfi_offset 4, -8
 183              		.cfi_offset 5, -4
 184 0002 0546     		mov	r5, r0
 185              	.LVL15:
  31:..\paho.mqtt.embedded-c\MQTTPacket\src/MQTTPacket.c **** 
 186              		.loc 1 31 0
 187 0004 0022     		movs	r2, #0
 188 0006 00E0     		b	.L19
 189              	.LVL16:
 190              	.L20:
 191              	.LBB4:
  41:..\paho.mqtt.embedded-c\MQTTPacket\src/MQTTPacket.c **** 	} while (length > 0);
 192              		.loc 1 41 0
 193 0008 0246     		mov	r2, r0
 194              	.LVL17:
 195              	.L19:
  36:..\paho.mqtt.embedded-c\MQTTPacket\src/MQTTPacket.c **** 		length /= 128;
 196              		.loc 1 36 0
 197 000a 0C4B     		ldr	r3, .L22
 198 000c 0B40     		ands	r3, r3, r1
 199 000e 002B     		cmp	r3, #0
 200 0010 03DA     		bge	.L16
 201 0012 013B     		subs	r3, r3, #1
 202 0014 63F07F03 		orn	r3, r3, #127
 203 0018 0133     		adds	r3, r3, #1
 204              	.L16:
 205 001a DBB2     		uxtb	r3, r3
 206              	.LVL18:
  37:..\paho.mqtt.embedded-c\MQTTPacket\src/MQTTPacket.c **** 		/* if there are more digits to encode, set the top bit of this digit */
 207              		.loc 1 37 0
 208 001c 0C46     		mov	r4, r1
 209 001e 0029     		cmp	r1, #0
ARM GAS  C:\Users\samue\AppData\Local\Temp\cc1TpScf.s 			page 11


 210 0020 01DA     		bge	.L17
 211 0022 01F17F04 		add	r4, r1, #127
 212              	.L17:
 213 0026 E111     		asrs	r1, r4, #7
 214              	.LVL19:
  39:..\paho.mqtt.embedded-c\MQTTPacket\src/MQTTPacket.c **** 			d |= 0x80;
 215              		.loc 1 39 0
 216 0028 0029     		cmp	r1, #0
 217 002a 01DD     		ble	.L18
  40:..\paho.mqtt.embedded-c\MQTTPacket\src/MQTTPacket.c **** 		buf[rc++] = d;
 218              		.loc 1 40 0
 219 002c 43F08003 		orr	r3, r3, #128
 220              	.LVL20:
 221              	.L18:
  41:..\paho.mqtt.embedded-c\MQTTPacket\src/MQTTPacket.c **** 	} while (length > 0);
 222              		.loc 1 41 0
 223 0030 501C     		adds	r0, r2, #1
 224              	.LVL21:
 225 0032 AB54     		strb	r3, [r5, r2]
 226              	.LBE4:
  42:..\paho.mqtt.embedded-c\MQTTPacket\src/MQTTPacket.c **** 	FUNC_EXIT_RC(rc);
 227              		.loc 1 42 0
 228 0034 0029     		cmp	r1, #0
 229 0036 E7DC     		bgt	.L20
  45:..\paho.mqtt.embedded-c\MQTTPacket\src/MQTTPacket.c **** 
 230              		.loc 1 45 0
 231 0038 30BC     		pop	{r4, r5}
 232              		.cfi_restore 5
 233              		.cfi_restore 4
 234              		.cfi_def_cfa_offset 0
 235              	.LVL22:
 236 003a 7047     		bx	lr
 237              	.L23:
 238              		.align	2
 239              	.L22:
 240 003c 7F000080 		.word	-2147483521
 241              		.cfi_endproc
 242              	.LFE1:
 243              		.size	MQTTPacket_encode, .-MQTTPacket_encode
 244              		.section	.text.MQTTPacket_decode,"ax",%progbits
 245              		.align	2
 246              		.global	MQTTPacket_decode
 247              		.thumb
 248              		.thumb_func
 249              		.type	MQTTPacket_decode, %function
 250              	MQTTPacket_decode:
 251              	.LFB2:
  55:..\paho.mqtt.embedded-c\MQTTPacket\src/MQTTPacket.c **** 	unsigned char c;
 252              		.loc 1 55 0
 253              		.cfi_startproc
 254              		@ args = 0, pretend = 0, frame = 8
 255              		@ frame_needed = 0, uses_anonymous_args = 0
 256              	.LVL23:
 257 0000 F0B5     		push	{r4, r5, r6, r7, lr}
 258              		.cfi_def_cfa_offset 20
 259              		.cfi_offset 4, -20
 260              		.cfi_offset 5, -16
ARM GAS  C:\Users\samue\AppData\Local\Temp\cc1TpScf.s 			page 12


 261              		.cfi_offset 6, -12
 262              		.cfi_offset 7, -8
 263              		.cfi_offset 14, -4
 264 0002 83B0     		sub	sp, sp, #12
 265              		.cfi_def_cfa_offset 32
 266 0004 0746     		mov	r7, r0
 267 0006 0E46     		mov	r6, r1
 268              	.LVL24:
  62:..\paho.mqtt.embedded-c\MQTTPacket\src/MQTTPacket.c **** 	do
 269              		.loc 1 62 0
 270 0008 0024     		movs	r4, #0
 271 000a 0C60     		str	r4, [r1]
  57:..\paho.mqtt.embedded-c\MQTTPacket\src/MQTTPacket.c **** 	int len = 0;
 272              		.loc 1 57 0
 273 000c 0125     		movs	r5, #1
 274              	.LVL25:
 275              	.L26:
 276              	.LBB5:
  67:..\paho.mqtt.embedded-c\MQTTPacket\src/MQTTPacket.c **** 		{
 277              		.loc 1 67 0
 278 000e 0134     		adds	r4, r4, #1
 279              	.LVL26:
 280 0010 042C     		cmp	r4, #4
 281 0012 12DC     		bgt	.L25
  72:..\paho.mqtt.embedded-c\MQTTPacket\src/MQTTPacket.c **** 		if (rc != 1)
 282              		.loc 1 72 0
 283 0014 0121     		movs	r1, #1
 284 0016 0DF10700 		add	r0, sp, #7
 285 001a B847     		blx	r7
 286              	.LVL27:
  73:..\paho.mqtt.embedded-c\MQTTPacket\src/MQTTPacket.c **** 			goto exit;
 287              		.loc 1 73 0
 288 001c 0128     		cmp	r0, #1
 289 001e 0CD1     		bne	.L25
  75:..\paho.mqtt.embedded-c\MQTTPacket\src/MQTTPacket.c **** 		multiplier *= 128;
 290              		.loc 1 75 0
 291 0020 9DF80730 		ldrb	r3, [sp, #7]	@ zero_extendqisi2
 292 0024 03F07F03 		and	r3, r3, #127
 293 0028 3268     		ldr	r2, [r6]
 294 002a 03FB0523 		mla	r3, r3, r5, r2
 295 002e 3360     		str	r3, [r6]
  76:..\paho.mqtt.embedded-c\MQTTPacket\src/MQTTPacket.c **** 	} while ((c & 128) != 0);
 296              		.loc 1 76 0
 297 0030 ED01     		lsls	r5, r5, #7
 298              	.LVL28:
 299              	.LBE5:
  77:..\paho.mqtt.embedded-c\MQTTPacket\src/MQTTPacket.c **** exit:
 300              		.loc 1 77 0
 301 0032 9DF90730 		ldrsb	r3, [sp, #7]
 302 0036 002B     		cmp	r3, #0
 303 0038 E9DB     		blt	.L26
 304              	.LVL29:
 305              	.L25:
  81:..\paho.mqtt.embedded-c\MQTTPacket\src/MQTTPacket.c **** 
 306              		.loc 1 81 0
 307 003a 2046     		mov	r0, r4
 308 003c 03B0     		add	sp, sp, #12
ARM GAS  C:\Users\samue\AppData\Local\Temp\cc1TpScf.s 			page 13


 309              		.cfi_def_cfa_offset 20
 310              		@ sp needed
 311 003e F0BD     		pop	{r4, r5, r6, r7, pc}
 312              		.cfi_endproc
 313              	.LFE2:
 314              		.size	MQTTPacket_decode, .-MQTTPacket_decode
 315              		.section	.text.MQTTPacket_len,"ax",%progbits
 316              		.align	2
 317              		.global	MQTTPacket_len
 318              		.thumb
 319              		.thumb_func
 320              		.type	MQTTPacket_len, %function
 321              	MQTTPacket_len:
 322              	.LFB3:
  85:..\paho.mqtt.embedded-c\MQTTPacket\src/MQTTPacket.c **** 	rem_len += 1; /* header byte */
 323              		.loc 1 85 0
 324              		.cfi_startproc
 325              		@ args = 0, pretend = 0, frame = 0
 326              		@ frame_needed = 0, uses_anonymous_args = 0
 327              		@ link register save eliminated.
 328              	.LVL30:
  86:..\paho.mqtt.embedded-c\MQTTPacket\src/MQTTPacket.c **** 
 329              		.loc 1 86 0
 330 0000 431C     		adds	r3, r0, #1
 331              	.LVL31:
  89:..\paho.mqtt.embedded-c\MQTTPacket\src/MQTTPacket.c **** 		rem_len += 1;
 332              		.loc 1 89 0
 333 0002 7F2B     		cmp	r3, #127
 334 0004 01DC     		bgt	.L29
  90:..\paho.mqtt.embedded-c\MQTTPacket\src/MQTTPacket.c **** 	else if (rem_len < 16384)
 335              		.loc 1 90 0
 336 0006 0230     		adds	r0, r0, #2
 337              	.LVL32:
 338 0008 7047     		bx	lr
 339              	.LVL33:
 340              	.L29:
  91:..\paho.mqtt.embedded-c\MQTTPacket\src/MQTTPacket.c **** 		rem_len += 2;
 341              		.loc 1 91 0
 342 000a B3F5804F 		cmp	r3, #16384
 343 000e 01DA     		bge	.L31
  92:..\paho.mqtt.embedded-c\MQTTPacket\src/MQTTPacket.c **** 	else if (rem_len < 2097151)
 344              		.loc 1 92 0
 345 0010 0330     		adds	r0, r0, #3
 346              	.LVL34:
 347 0012 7047     		bx	lr
 348              	.LVL35:
 349              	.L31:
  93:..\paho.mqtt.embedded-c\MQTTPacket\src/MQTTPacket.c **** 		rem_len += 3;
 350              		.loc 1 93 0
 351 0014 034A     		ldr	r2, .L33
 352 0016 9342     		cmp	r3, r2
 353 0018 01DC     		bgt	.L32
  94:..\paho.mqtt.embedded-c\MQTTPacket\src/MQTTPacket.c **** 	else
 354              		.loc 1 94 0
 355 001a 0430     		adds	r0, r0, #4
 356              	.LVL36:
 357 001c 7047     		bx	lr
ARM GAS  C:\Users\samue\AppData\Local\Temp\cc1TpScf.s 			page 14


 358              	.LVL37:
 359              	.L32:
  96:..\paho.mqtt.embedded-c\MQTTPacket\src/MQTTPacket.c **** 	return rem_len;
 360              		.loc 1 96 0
 361 001e 0530     		adds	r0, r0, #5
 362              	.LVL38:
  98:..\paho.mqtt.embedded-c\MQTTPacket\src/MQTTPacket.c **** 
 363              		.loc 1 98 0
 364 0020 7047     		bx	lr
 365              	.L34:
 366 0022 00BF     		.align	2
 367              	.L33:
 368 0024 FEFF1F00 		.word	2097150
 369              		.cfi_endproc
 370              	.LFE3:
 371              		.size	MQTTPacket_len, .-MQTTPacket_len
 372              		.section	.text.MQTTPacket_decodeBuf,"ax",%progbits
 373              		.align	2
 374              		.global	MQTTPacket_decodeBuf
 375              		.thumb
 376              		.thumb_func
 377              		.type	MQTTPacket_decodeBuf, %function
 378              	MQTTPacket_decodeBuf:
 379              	.LFB5:
 114:..\paho.mqtt.embedded-c\MQTTPacket\src/MQTTPacket.c **** 	bufptr = buf;
 380              		.loc 1 114 0
 381              		.cfi_startproc
 382              		@ args = 0, pretend = 0, frame = 0
 383              		@ frame_needed = 0, uses_anonymous_args = 0
 384              	.LVL39:
 385 0000 08B5     		push	{r3, lr}
 386              		.cfi_def_cfa_offset 8
 387              		.cfi_offset 3, -8
 388              		.cfi_offset 14, -4
 115:..\paho.mqtt.embedded-c\MQTTPacket\src/MQTTPacket.c **** 	return MQTTPacket_decode(bufchar, value);
 389              		.loc 1 115 0
 390 0002 034B     		ldr	r3, .L37
 391 0004 1860     		str	r0, [r3]
 116:..\paho.mqtt.embedded-c\MQTTPacket\src/MQTTPacket.c **** }
 392              		.loc 1 116 0
 393 0006 0348     		ldr	r0, .L37+4
 394              	.LVL40:
 395 0008 FFF7FEFF 		bl	MQTTPacket_decode
 396              	.LVL41:
 117:..\paho.mqtt.embedded-c\MQTTPacket\src/MQTTPacket.c **** 
 397              		.loc 1 117 0
 398 000c 08BD     		pop	{r3, pc}
 399              	.L38:
 400 000e 00BF     		.align	2
 401              	.L37:
 402 0010 00000000 		.word	.LANCHOR0
 403 0014 00000000 		.word	bufchar
 404              		.cfi_endproc
 405              	.LFE5:
 406              		.size	MQTTPacket_decodeBuf, .-MQTTPacket_decodeBuf
 407              		.section	.text.readInt,"ax",%progbits
 408              		.align	2
ARM GAS  C:\Users\samue\AppData\Local\Temp\cc1TpScf.s 			page 15


 409              		.global	readInt
 410              		.thumb
 411              		.thumb_func
 412              		.type	readInt, %function
 413              	readInt:
 414              	.LFB6:
 126:..\paho.mqtt.embedded-c\MQTTPacket\src/MQTTPacket.c **** 	unsigned char* ptr = *pptr;
 415              		.loc 1 126 0
 416              		.cfi_startproc
 417              		@ args = 0, pretend = 0, frame = 0
 418              		@ frame_needed = 0, uses_anonymous_args = 0
 419              		@ link register save eliminated.
 420              	.LVL42:
 127:..\paho.mqtt.embedded-c\MQTTPacket\src/MQTTPacket.c **** 	int len = 256*(*ptr) + (*(ptr+1));
 421              		.loc 1 127 0
 422 0000 0368     		ldr	r3, [r0]
 423              	.LVL43:
 128:..\paho.mqtt.embedded-c\MQTTPacket\src/MQTTPacket.c **** 	*pptr += 2;
 424              		.loc 1 128 0
 425 0002 1978     		ldrb	r1, [r3]	@ zero_extendqisi2
 426 0004 5A78     		ldrb	r2, [r3, #1]	@ zero_extendqisi2
 427              	.LVL44:
 129:..\paho.mqtt.embedded-c\MQTTPacket\src/MQTTPacket.c **** 	return len;
 428              		.loc 1 129 0
 429 0006 0233     		adds	r3, r3, #2
 430              	.LVL45:
 431 0008 0360     		str	r3, [r0]
 432              	.LVL46:
 131:..\paho.mqtt.embedded-c\MQTTPacket\src/MQTTPacket.c **** 
 433              		.loc 1 131 0
 434 000a 02EB0120 		add	r0, r2, r1, lsl #8
 435              	.LVL47:
 436 000e 7047     		bx	lr
 437              		.cfi_endproc
 438              	.LFE6:
 439              		.size	readInt, .-readInt
 440              		.section	.text.readChar,"ax",%progbits
 441              		.align	2
 442              		.global	readChar
 443              		.thumb
 444              		.thumb_func
 445              		.type	readChar, %function
 446              	readChar:
 447              	.LFB7:
 140:..\paho.mqtt.embedded-c\MQTTPacket\src/MQTTPacket.c **** 	char c = **pptr;
 448              		.loc 1 140 0
 449              		.cfi_startproc
 450              		@ args = 0, pretend = 0, frame = 0
 451              		@ frame_needed = 0, uses_anonymous_args = 0
 452              		@ link register save eliminated.
 453              	.LVL48:
 454 0000 0246     		mov	r2, r0
 141:..\paho.mqtt.embedded-c\MQTTPacket\src/MQTTPacket.c **** 	(*pptr)++;
 455              		.loc 1 141 0
 456 0002 0368     		ldr	r3, [r0]
 457 0004 13F8010B 		ldrb	r0, [r3], #1	@ zero_extendqisi2
 458              	.LVL49:
ARM GAS  C:\Users\samue\AppData\Local\Temp\cc1TpScf.s 			page 16


 142:..\paho.mqtt.embedded-c\MQTTPacket\src/MQTTPacket.c **** 	return c;
 459              		.loc 1 142 0
 460 0008 1360     		str	r3, [r2]
 144:..\paho.mqtt.embedded-c\MQTTPacket\src/MQTTPacket.c **** 
 461              		.loc 1 144 0
 462 000a 7047     		bx	lr
 463              		.cfi_endproc
 464              	.LFE7:
 465              		.size	readChar, .-readChar
 466              		.section	.text.writeChar,"ax",%progbits
 467              		.align	2
 468              		.global	writeChar
 469              		.thumb
 470              		.thumb_func
 471              		.type	writeChar, %function
 472              	writeChar:
 473              	.LFB8:
 153:..\paho.mqtt.embedded-c\MQTTPacket\src/MQTTPacket.c **** 	**pptr = c;
 474              		.loc 1 153 0
 475              		.cfi_startproc
 476              		@ args = 0, pretend = 0, frame = 0
 477              		@ frame_needed = 0, uses_anonymous_args = 0
 478              		@ link register save eliminated.
 479              	.LVL50:
 154:..\paho.mqtt.embedded-c\MQTTPacket\src/MQTTPacket.c **** 	(*pptr)++;
 480              		.loc 1 154 0
 481 0000 0368     		ldr	r3, [r0]
 482 0002 1970     		strb	r1, [r3]
 155:..\paho.mqtt.embedded-c\MQTTPacket\src/MQTTPacket.c **** }
 483              		.loc 1 155 0
 484 0004 0368     		ldr	r3, [r0]
 485 0006 0133     		adds	r3, r3, #1
 486 0008 0360     		str	r3, [r0]
 487 000a 7047     		bx	lr
 488              		.cfi_endproc
 489              	.LFE8:
 490              		.size	writeChar, .-writeChar
 491              		.section	.text.writeInt,"ax",%progbits
 492              		.align	2
 493              		.global	writeInt
 494              		.thumb
 495              		.thumb_func
 496              		.type	writeInt, %function
 497              	writeInt:
 498              	.LFB9:
 165:..\paho.mqtt.embedded-c\MQTTPacket\src/MQTTPacket.c **** 	**pptr = (unsigned char)(anInt / 256);
 499              		.loc 1 165 0
 500              		.cfi_startproc
 501              		@ args = 0, pretend = 0, frame = 0
 502              		@ frame_needed = 0, uses_anonymous_args = 0
 503              		@ link register save eliminated.
 504              	.LVL51:
 166:..\paho.mqtt.embedded-c\MQTTPacket\src/MQTTPacket.c **** 	(*pptr)++;
 505              		.loc 1 166 0
 506 0000 0268     		ldr	r2, [r0]
 507 0002 0B46     		mov	r3, r1
 508 0004 0029     		cmp	r1, #0
ARM GAS  C:\Users\samue\AppData\Local\Temp\cc1TpScf.s 			page 17


 509 0006 01DA     		bge	.L43
 510 0008 01F1FF03 		add	r3, r1, #255
 511              	.L43:
 512 000c C3F30723 		ubfx	r3, r3, #8, #8
 513 0010 1370     		strb	r3, [r2]
 167:..\paho.mqtt.embedded-c\MQTTPacket\src/MQTTPacket.c **** 	**pptr = (unsigned char)(anInt % 256);
 514              		.loc 1 167 0
 515 0012 0268     		ldr	r2, [r0]
 516 0014 531C     		adds	r3, r2, #1
 517 0016 0360     		str	r3, [r0]
 168:..\paho.mqtt.embedded-c\MQTTPacket\src/MQTTPacket.c **** 	(*pptr)++;
 518              		.loc 1 168 0
 519 0018 064B     		ldr	r3, .L45
 520 001a 0B40     		ands	r3, r3, r1
 521 001c 002B     		cmp	r3, #0
 522 001e 03DA     		bge	.L44
 523 0020 013B     		subs	r3, r3, #1
 524 0022 63F0FF03 		orn	r3, r3, #255
 525 0026 0133     		adds	r3, r3, #1
 526              	.L44:
 527 0028 5370     		strb	r3, [r2, #1]
 169:..\paho.mqtt.embedded-c\MQTTPacket\src/MQTTPacket.c **** }
 528              		.loc 1 169 0
 529 002a 0368     		ldr	r3, [r0]
 530 002c 0133     		adds	r3, r3, #1
 531 002e 0360     		str	r3, [r0]
 532 0030 7047     		bx	lr
 533              	.L46:
 534 0032 00BF     		.align	2
 535              	.L45:
 536 0034 FF000080 		.word	-2147483393
 537              		.cfi_endproc
 538              	.LFE9:
 539              		.size	writeInt, .-writeInt
 540              		.section	.text.writeCString,"ax",%progbits
 541              		.align	2
 542              		.global	writeCString
 543              		.thumb
 544              		.thumb_func
 545              		.type	writeCString, %function
 546              	writeCString:
 547              	.LFB10:
 179:..\paho.mqtt.embedded-c\MQTTPacket\src/MQTTPacket.c **** 	int len = strlen(string);
 548              		.loc 1 179 0
 549              		.cfi_startproc
 550              		@ args = 0, pretend = 0, frame = 0
 551              		@ frame_needed = 0, uses_anonymous_args = 0
 552              	.LVL52:
 553 0000 70B5     		push	{r4, r5, r6, lr}
 554              		.cfi_def_cfa_offset 16
 555              		.cfi_offset 4, -16
 556              		.cfi_offset 5, -12
 557              		.cfi_offset 6, -8
 558              		.cfi_offset 14, -4
 559 0002 0546     		mov	r5, r0
 560 0004 0E46     		mov	r6, r1
 180:..\paho.mqtt.embedded-c\MQTTPacket\src/MQTTPacket.c **** 	writeInt(pptr, len);
ARM GAS  C:\Users\samue\AppData\Local\Temp\cc1TpScf.s 			page 18


 561              		.loc 1 180 0
 562 0006 0846     		mov	r0, r1
 563              	.LVL53:
 564 0008 FFF7FEFF 		bl	strlen
 565              	.LVL54:
 566 000c 0446     		mov	r4, r0
 567              	.LVL55:
 181:..\paho.mqtt.embedded-c\MQTTPacket\src/MQTTPacket.c **** 	memcpy(*pptr, string, len);
 568              		.loc 1 181 0
 569 000e 0146     		mov	r1, r0
 570 0010 2846     		mov	r0, r5
 571              	.LVL56:
 572 0012 FFF7FEFF 		bl	writeInt
 573              	.LVL57:
 182:..\paho.mqtt.embedded-c\MQTTPacket\src/MQTTPacket.c **** 	*pptr += len;
 574              		.loc 1 182 0
 575 0016 2246     		mov	r2, r4
 576 0018 3146     		mov	r1, r6
 577 001a 2868     		ldr	r0, [r5]
 578 001c FFF7FEFF 		bl	memcpy
 579              	.LVL58:
 183:..\paho.mqtt.embedded-c\MQTTPacket\src/MQTTPacket.c **** }
 580              		.loc 1 183 0
 581 0020 2B68     		ldr	r3, [r5]
 582 0022 1C44     		add	r4, r4, r3
 583              	.LVL59:
 584 0024 2C60     		str	r4, [r5]
 585 0026 70BD     		pop	{r4, r5, r6, pc}
 586              		.cfi_endproc
 587              	.LFE10:
 588              		.size	writeCString, .-writeCString
 589              		.section	.text.getLenStringLen,"ax",%progbits
 590              		.align	2
 591              		.global	getLenStringLen
 592              		.thumb
 593              		.thumb_func
 594              		.type	getLenStringLen, %function
 595              	getLenStringLen:
 596              	.LFB11:
 188:..\paho.mqtt.embedded-c\MQTTPacket\src/MQTTPacket.c **** 	int len = 256*((unsigned char)(*ptr)) + (unsigned char)(*(ptr+1));
 597              		.loc 1 188 0
 598              		.cfi_startproc
 599              		@ args = 0, pretend = 0, frame = 0
 600              		@ frame_needed = 0, uses_anonymous_args = 0
 601              		@ link register save eliminated.
 602              	.LVL60:
 189:..\paho.mqtt.embedded-c\MQTTPacket\src/MQTTPacket.c **** 	return len;
 603              		.loc 1 189 0
 604 0000 0278     		ldrb	r2, [r0]	@ zero_extendqisi2
 605 0002 4078     		ldrb	r0, [r0, #1]	@ zero_extendqisi2
 606              	.LVL61:
 191:..\paho.mqtt.embedded-c\MQTTPacket\src/MQTTPacket.c **** 
 607              		.loc 1 191 0
 608 0004 00EB0220 		add	r0, r0, r2, lsl #8
 609              	.LVL62:
 610 0008 7047     		bx	lr
 611              		.cfi_endproc
ARM GAS  C:\Users\samue\AppData\Local\Temp\cc1TpScf.s 			page 19


 612              	.LFE11:
 613              		.size	getLenStringLen, .-getLenStringLen
 614 000a 00BF     		.section	.text.writeMQTTString,"ax",%progbits
 615              		.align	2
 616              		.global	writeMQTTString
 617              		.thumb
 618              		.thumb_func
 619              		.type	writeMQTTString, %function
 620              	writeMQTTString:
 621              	.LFB12:
 195:..\paho.mqtt.embedded-c\MQTTPacket\src/MQTTPacket.c **** 	if (mqttstring.lenstring.len > 0)
 622              		.loc 1 195 0
 623              		.cfi_startproc
 624              		@ args = 0, pretend = 0, frame = 16
 625              		@ frame_needed = 0, uses_anonymous_args = 0
 626              	.LVL63:
 627 0000 30B5     		push	{r4, r5, lr}
 628              		.cfi_def_cfa_offset 12
 629              		.cfi_offset 4, -12
 630              		.cfi_offset 5, -8
 631              		.cfi_offset 14, -4
 632 0002 85B0     		sub	sp, sp, #20
 633              		.cfi_def_cfa_offset 32
 634 0004 0546     		mov	r5, r0
 635 0006 04A8     		add	r0, sp, #16
 636              	.LVL64:
 637 0008 00E90E00 		stmdb	r0, {r1, r2, r3}
 196:..\paho.mqtt.embedded-c\MQTTPacket\src/MQTTPacket.c **** 	{
 638              		.loc 1 196 0
 639 000c 029C     		ldr	r4, [sp, #8]
 640 000e 002C     		cmp	r4, #0
 641 0010 0CDD     		ble	.L51
 198:..\paho.mqtt.embedded-c\MQTTPacket\src/MQTTPacket.c **** 		memcpy(*pptr, mqttstring.lenstring.data, mqttstring.lenstring.len);
 642              		.loc 1 198 0
 643 0012 2146     		mov	r1, r4
 644 0014 2846     		mov	r0, r5
 645 0016 FFF7FEFF 		bl	writeInt
 646              	.LVL65:
 199:..\paho.mqtt.embedded-c\MQTTPacket\src/MQTTPacket.c **** 		*pptr += mqttstring.lenstring.len;
 647              		.loc 1 199 0
 648 001a 2246     		mov	r2, r4
 649 001c 0399     		ldr	r1, [sp, #12]
 650 001e 2868     		ldr	r0, [r5]
 651 0020 FFF7FEFF 		bl	memcpy
 652              	.LVL66:
 200:..\paho.mqtt.embedded-c\MQTTPacket\src/MQTTPacket.c **** 	}
 653              		.loc 1 200 0
 654 0024 2B68     		ldr	r3, [r5]
 655 0026 1C44     		add	r4, r4, r3
 656 0028 2C60     		str	r4, [r5]
 657 002a 09E0     		b	.L50
 658              	.L51:
 202:..\paho.mqtt.embedded-c\MQTTPacket\src/MQTTPacket.c **** 		writeCString(pptr, mqttstring.cstring);
 659              		.loc 1 202 0
 660 002c 0199     		ldr	r1, [sp, #4]
 661 002e 19B1     		cbz	r1, .L53
 203:..\paho.mqtt.embedded-c\MQTTPacket\src/MQTTPacket.c **** 	else
ARM GAS  C:\Users\samue\AppData\Local\Temp\cc1TpScf.s 			page 20


 662              		.loc 1 203 0
 663 0030 2846     		mov	r0, r5
 664 0032 FFF7FEFF 		bl	writeCString
 665              	.LVL67:
 666 0036 03E0     		b	.L50
 667              	.L53:
 205:..\paho.mqtt.embedded-c\MQTTPacket\src/MQTTPacket.c **** }
 668              		.loc 1 205 0
 669 0038 0021     		movs	r1, #0
 670 003a 2846     		mov	r0, r5
 671 003c FFF7FEFF 		bl	writeInt
 672              	.LVL68:
 673              	.L50:
 206:..\paho.mqtt.embedded-c\MQTTPacket\src/MQTTPacket.c **** 
 674              		.loc 1 206 0
 675 0040 05B0     		add	sp, sp, #20
 676              		.cfi_def_cfa_offset 12
 677              		@ sp needed
 678 0042 30BD     		pop	{r4, r5, pc}
 679              		.cfi_endproc
 680              	.LFE12:
 681              		.size	writeMQTTString, .-writeMQTTString
 682              		.section	.text.readMQTTLenString,"ax",%progbits
 683              		.align	2
 684              		.global	readMQTTLenString
 685              		.thumb
 686              		.thumb_func
 687              		.type	readMQTTLenString, %function
 688              	readMQTTLenString:
 689              	.LFB13:
 216:..\paho.mqtt.embedded-c\MQTTPacket\src/MQTTPacket.c **** 	int rc = 0;
 690              		.loc 1 216 0
 691              		.cfi_startproc
 692              		@ args = 0, pretend = 0, frame = 0
 693              		@ frame_needed = 0, uses_anonymous_args = 0
 694              	.LVL69:
 695 0000 70B5     		push	{r4, r5, r6, lr}
 696              		.cfi_def_cfa_offset 16
 697              		.cfi_offset 4, -16
 698              		.cfi_offset 5, -12
 699              		.cfi_offset 6, -8
 700              		.cfi_offset 14, -4
 701 0002 0546     		mov	r5, r0
 702              	.LVL70:
 221:..\paho.mqtt.embedded-c\MQTTPacket\src/MQTTPacket.c **** 	{
 703              		.loc 1 221 0
 704 0004 0B68     		ldr	r3, [r1]
 705 0006 D31A     		subs	r3, r2, r3
 706 0008 012B     		cmp	r3, #1
 707 000a 0FDD     		ble	.L57
 708 000c 0C46     		mov	r4, r1
 709 000e 1646     		mov	r6, r2
 223:..\paho.mqtt.embedded-c\MQTTPacket\src/MQTTPacket.c **** 		if (&(*pptr)[mqttstring->lenstring.len] <= enddata)
 710              		.loc 1 223 0
 711 0010 0846     		mov	r0, r1
 712              	.LVL71:
 713 0012 FFF7FEFF 		bl	readInt
ARM GAS  C:\Users\samue\AppData\Local\Temp\cc1TpScf.s 			page 21


 714              	.LVL72:
 715 0016 6860     		str	r0, [r5, #4]
 224:..\paho.mqtt.embedded-c\MQTTPacket\src/MQTTPacket.c **** 		{
 716              		.loc 1 224 0
 717 0018 2368     		ldr	r3, [r4]
 718 001a 1A18     		adds	r2, r3, r0
 719 001c 9642     		cmp	r6, r2
 720 001e 07D3     		bcc	.L58
 226:..\paho.mqtt.embedded-c\MQTTPacket\src/MQTTPacket.c **** 			*pptr += mqttstring->lenstring.len;
 721              		.loc 1 226 0
 722 0020 AB60     		str	r3, [r5, #8]
 227:..\paho.mqtt.embedded-c\MQTTPacket\src/MQTTPacket.c **** 			rc = 1;
 723              		.loc 1 227 0
 724 0022 2368     		ldr	r3, [r4]
 725 0024 1844     		add	r0, r0, r3
 726 0026 2060     		str	r0, [r4]
 727              	.LVL73:
 228:..\paho.mqtt.embedded-c\MQTTPacket\src/MQTTPacket.c **** 		}
 728              		.loc 1 228 0
 729 0028 0120     		movs	r0, #1
 730 002a 02E0     		b	.L56
 731              	.LVL74:
 732              	.L57:
 217:..\paho.mqtt.embedded-c\MQTTPacket\src/MQTTPacket.c **** 
 733              		.loc 1 217 0
 734 002c 0020     		movs	r0, #0
 735              	.LVL75:
 736 002e 00E0     		b	.L56
 737              	.LVL76:
 738              	.L58:
 739 0030 0020     		movs	r0, #0
 740              	.LVL77:
 741              	.L56:
 231:..\paho.mqtt.embedded-c\MQTTPacket\src/MQTTPacket.c **** 	FUNC_EXIT_RC(rc);
 742              		.loc 1 231 0
 743 0032 0023     		movs	r3, #0
 744 0034 2B60     		str	r3, [r5]
 234:..\paho.mqtt.embedded-c\MQTTPacket\src/MQTTPacket.c **** 
 745              		.loc 1 234 0
 746 0036 70BD     		pop	{r4, r5, r6, pc}
 747              		.cfi_endproc
 748              	.LFE13:
 749              		.size	readMQTTLenString, .-readMQTTLenString
 750              		.section	.text.MQTTstrlen,"ax",%progbits
 751              		.align	2
 752              		.global	MQTTstrlen
 753              		.thumb
 754              		.thumb_func
 755              		.type	MQTTstrlen, %function
 756              	MQTTstrlen:
 757              	.LFB14:
 243:..\paho.mqtt.embedded-c\MQTTPacket\src/MQTTPacket.c **** 	int rc = 0;
 758              		.loc 1 243 0
 759              		.cfi_startproc
 760              		@ args = 0, pretend = 0, frame = 16
 761              		@ frame_needed = 0, uses_anonymous_args = 0
 762 0000 00B5     		push	{lr}
ARM GAS  C:\Users\samue\AppData\Local\Temp\cc1TpScf.s 			page 22


 763              		.cfi_def_cfa_offset 4
 764              		.cfi_offset 14, -4
 765 0002 85B0     		sub	sp, sp, #20
 766              		.cfi_def_cfa_offset 24
 767 0004 04AB     		add	r3, sp, #16
 768 0006 03E90700 		stmdb	r3, {r0, r1, r2}
 769              	.LVL78:
 246:..\paho.mqtt.embedded-c\MQTTPacket\src/MQTTPacket.c **** 		rc = strlen(mqttstring.cstring);
 770              		.loc 1 246 0
 771 000a 0198     		ldr	r0, [sp, #4]
 772 000c 10B1     		cbz	r0, .L61
 247:..\paho.mqtt.embedded-c\MQTTPacket\src/MQTTPacket.c **** 	else
 773              		.loc 1 247 0
 774 000e FFF7FEFF 		bl	strlen
 775              	.LVL79:
 776 0012 00E0     		b	.L62
 777              	.LVL80:
 778              	.L61:
 249:..\paho.mqtt.embedded-c\MQTTPacket\src/MQTTPacket.c **** 	return rc;
 779              		.loc 1 249 0
 780 0014 0298     		ldr	r0, [sp, #8]
 781              	.LVL81:
 782              	.L62:
 251:..\paho.mqtt.embedded-c\MQTTPacket\src/MQTTPacket.c **** 
 783              		.loc 1 251 0
 784 0016 05B0     		add	sp, sp, #20
 785              		.cfi_def_cfa_offset 4
 786              		@ sp needed
 787 0018 5DF804FB 		ldr	pc, [sp], #4
 788              		.cfi_endproc
 789              	.LFE14:
 790              		.size	MQTTstrlen, .-MQTTstrlen
 791              		.section	.text.MQTTPacket_equals,"ax",%progbits
 792              		.align	2
 793              		.global	MQTTPacket_equals
 794              		.thumb
 795              		.thumb_func
 796              		.type	MQTTPacket_equals, %function
 797              	MQTTPacket_equals:
 798              	.LFB15:
 261:..\paho.mqtt.embedded-c\MQTTPacket\src/MQTTPacket.c **** 	int alen = 0,
 799              		.loc 1 261 0
 800              		.cfi_startproc
 801              		@ args = 0, pretend = 0, frame = 0
 802              		@ frame_needed = 0, uses_anonymous_args = 0
 803              	.LVL82:
 804 0000 70B5     		push	{r4, r5, r6, lr}
 805              		.cfi_def_cfa_offset 16
 806              		.cfi_offset 4, -16
 807              		.cfi_offset 5, -12
 808              		.cfi_offset 6, -8
 809              		.cfi_offset 14, -4
 810 0002 0D46     		mov	r5, r1
 811              	.LVL83:
 266:..\paho.mqtt.embedded-c\MQTTPacket\src/MQTTPacket.c **** 	{
 812              		.loc 1 266 0
 813 0004 0468     		ldr	r4, [r0]
ARM GAS  C:\Users\samue\AppData\Local\Temp\cc1TpScf.s 			page 23


 814 0006 24B1     		cbz	r4, .L65
 815              	.LVL84:
 269:..\paho.mqtt.embedded-c\MQTTPacket\src/MQTTPacket.c **** 	}
 816              		.loc 1 269 0
 817 0008 2046     		mov	r0, r4
 818              	.LVL85:
 819 000a FFF7FEFF 		bl	strlen
 820              	.LVL86:
 821 000e 0646     		mov	r6, r0
 822              	.LVL87:
 823 0010 01E0     		b	.L66
 824              	.LVL88:
 825              	.L65:
 273:..\paho.mqtt.embedded-c\MQTTPacket\src/MQTTPacket.c **** 		alen = a->lenstring.len;
 826              		.loc 1 273 0
 827 0012 8468     		ldr	r4, [r0, #8]
 828              	.LVL89:
 274:..\paho.mqtt.embedded-c\MQTTPacket\src/MQTTPacket.c **** 	}
 829              		.loc 1 274 0
 830 0014 4668     		ldr	r6, [r0, #4]
 831              	.LVL90:
 832              	.L66:
 276:..\paho.mqtt.embedded-c\MQTTPacket\src/MQTTPacket.c **** 	
 833              		.loc 1 276 0
 834 0016 2846     		mov	r0, r5
 835 0018 FFF7FEFF 		bl	strlen
 836              	.LVL91:
 278:..\paho.mqtt.embedded-c\MQTTPacket\src/MQTTPacket.c **** }
 837              		.loc 1 278 0
 838 001c 8642     		cmp	r6, r0
 839 001e 07D1     		bne	.L68
 278:..\paho.mqtt.embedded-c\MQTTPacket\src/MQTTPacket.c **** }
 840              		.loc 1 278 0 is_stmt 0 discriminator 1
 841 0020 3246     		mov	r2, r6
 842 0022 2946     		mov	r1, r5
 843 0024 2046     		mov	r0, r4
 844              	.LVL92:
 845 0026 FFF7FEFF 		bl	strncmp
 846              	.LVL93:
 847 002a 18B1     		cbz	r0, .L69
 278:..\paho.mqtt.embedded-c\MQTTPacket\src/MQTTPacket.c **** }
 848              		.loc 1 278 0
 849 002c 0020     		movs	r0, #0
 850 002e 70BD     		pop	{r4, r5, r6, pc}
 851              	.LVL94:
 852              	.L68:
 853 0030 0020     		movs	r0, #0
 854              	.LVL95:
 855 0032 70BD     		pop	{r4, r5, r6, pc}
 856              	.LVL96:
 857              	.L69:
 858 0034 0120     		movs	r0, #1
 279:..\paho.mqtt.embedded-c\MQTTPacket\src/MQTTPacket.c **** 
 859              		.loc 1 279 0 is_stmt 1
 860 0036 70BD     		pop	{r4, r5, r6, pc}
 861              		.cfi_endproc
 862              	.LFE15:
ARM GAS  C:\Users\samue\AppData\Local\Temp\cc1TpScf.s 			page 24


 863              		.size	MQTTPacket_equals, .-MQTTPacket_equals
 864              		.section	.text.MQTTPacket_read,"ax",%progbits
 865              		.align	2
 866              		.global	MQTTPacket_read
 867              		.thumb
 868              		.thumb_func
 869              		.type	MQTTPacket_read, %function
 870              	MQTTPacket_read:
 871              	.LFB16:
 291:..\paho.mqtt.embedded-c\MQTTPacket\src/MQTTPacket.c **** 	int rc = -1;
 872              		.loc 1 291 0
 873              		.cfi_startproc
 874              		@ args = 0, pretend = 0, frame = 8
 875              		@ frame_needed = 0, uses_anonymous_args = 0
 876              	.LVL97:
 877 0000 70B5     		push	{r4, r5, r6, lr}
 878              		.cfi_def_cfa_offset 16
 879              		.cfi_offset 4, -16
 880              		.cfi_offset 5, -12
 881              		.cfi_offset 6, -8
 882              		.cfi_offset 14, -4
 883 0002 82B0     		sub	sp, sp, #8
 884              		.cfi_def_cfa_offset 24
 885 0004 0546     		mov	r5, r0
 886 0006 0E46     		mov	r6, r1
 887 0008 1446     		mov	r4, r2
 888              	.LVL98:
 295:..\paho.mqtt.embedded-c\MQTTPacket\src/MQTTPacket.c **** 
 889              		.loc 1 295 0
 890 000a 0023     		movs	r3, #0
 891 000c 0193     		str	r3, [sp, #4]
 298:..\paho.mqtt.embedded-c\MQTTPacket\src/MQTTPacket.c **** 		goto exit;
 892              		.loc 1 298 0
 893 000e 0121     		movs	r1, #1
 894              	.LVL99:
 895 0010 9047     		blx	r2
 896              	.LVL100:
 897 0012 0128     		cmp	r0, #1
 898 0014 15D1     		bne	.L74
 899              	.LVL101:
 303:..\paho.mqtt.embedded-c\MQTTPacket\src/MQTTPacket.c **** 	len += MQTTPacket_encode(buf + 1, rem_len); /* put the original remaining length back into the buf
 900              		.loc 1 303 0
 901 0016 01A9     		add	r1, sp, #4
 902 0018 2046     		mov	r0, r4
 903 001a FFF7FEFF 		bl	MQTTPacket_decode
 904              	.LVL102:
 304:..\paho.mqtt.embedded-c\MQTTPacket\src/MQTTPacket.c **** 
 905              		.loc 1 304 0
 906 001e 0199     		ldr	r1, [sp, #4]
 907 0020 681C     		adds	r0, r5, #1
 908 0022 FFF7FEFF 		bl	MQTTPacket_encode
 909              	.LVL103:
 910 0026 0130     		adds	r0, r0, #1
 911              	.LVL104:
 307:..\paho.mqtt.embedded-c\MQTTPacket\src/MQTTPacket.c **** 		goto exit;
 912              		.loc 1 307 0
 913 0028 0199     		ldr	r1, [sp, #4]
ARM GAS  C:\Users\samue\AppData\Local\Temp\cc1TpScf.s 			page 25


 914 002a 4318     		adds	r3, r0, r1
 915 002c B342     		cmp	r3, r6
 916 002e 0BDC     		bgt	.L75
 309:..\paho.mqtt.embedded-c\MQTTPacket\src/MQTTPacket.c **** 		goto exit;
 917              		.loc 1 309 0
 918 0030 21B1     		cbz	r1, .L73
 309:..\paho.mqtt.embedded-c\MQTTPacket\src/MQTTPacket.c **** 		goto exit;
 919              		.loc 1 309 0 is_stmt 0 discriminator 1
 920 0032 2844     		add	r0, r0, r5
 921              	.LVL105:
 922 0034 A047     		blx	r4
 923              	.LVL106:
 924 0036 019B     		ldr	r3, [sp, #4]
 925 0038 9842     		cmp	r0, r3
 926 003a 08D1     		bne	.L76
 927              	.L73:
 312:..\paho.mqtt.embedded-c\MQTTPacket\src/MQTTPacket.c **** 	rc = header.bits.type;
 928              		.loc 1 312 0 is_stmt 1
 929 003c 2878     		ldrb	r0, [r5]	@ zero_extendqisi2
 313:..\paho.mqtt.embedded-c\MQTTPacket\src/MQTTPacket.c **** exit:
 930              		.loc 1 313 0
 931 003e 0009     		lsrs	r0, r0, #4
 932              	.LVL107:
 933 0040 07E0     		b	.L72
 934              	.LVL108:
 935              	.L74:
 292:..\paho.mqtt.embedded-c\MQTTPacket\src/MQTTPacket.c **** 	MQTTHeader header = {0};
 936              		.loc 1 292 0
 937 0042 4FF0FF30 		mov	r0, #-1
 938 0046 04E0     		b	.L72
 939              	.LVL109:
 940              	.L75:
 941 0048 4FF0FF30 		mov	r0, #-1
 942              	.LVL110:
 943 004c 01E0     		b	.L72
 944              	.L76:
 945 004e 4FF0FF30 		mov	r0, #-1
 946              	.LVL111:
 947              	.L72:
 316:..\paho.mqtt.embedded-c\MQTTPacket\src/MQTTPacket.c **** 
 948              		.loc 1 316 0
 949 0052 02B0     		add	sp, sp, #8
 950              		.cfi_def_cfa_offset 16
 951              		@ sp needed
 952 0054 70BD     		pop	{r4, r5, r6, pc}
 953              		.cfi_endproc
 954              	.LFE16:
 955              		.size	MQTTPacket_read, .-MQTTPacket_read
 956 0056 00BF     		.section	.text.MQTTPacket_readnb,"ax",%progbits
 957              		.align	2
 958              		.global	MQTTPacket_readnb
 959              		.thumb
 960              		.thumb_func
 961              		.type	MQTTPacket_readnb, %function
 962              	MQTTPacket_readnb:
 963              	.LFB18:
 353:..\paho.mqtt.embedded-c\MQTTPacket\src/MQTTPacket.c **** 
ARM GAS  C:\Users\samue\AppData\Local\Temp\cc1TpScf.s 			page 26


 354:..\paho.mqtt.embedded-c\MQTTPacket\src/MQTTPacket.c **** /**
 355:..\paho.mqtt.embedded-c\MQTTPacket\src/MQTTPacket.c ****  * Helper function to read packet data from some source into a buffer, non-blocking
 356:..\paho.mqtt.embedded-c\MQTTPacket\src/MQTTPacket.c ****  * @param buf the buffer into which the packet will be serialized
 357:..\paho.mqtt.embedded-c\MQTTPacket\src/MQTTPacket.c ****  * @param buflen the length in bytes of the supplied buffer
 358:..\paho.mqtt.embedded-c\MQTTPacket\src/MQTTPacket.c ****  * @param trp pointer to a transport structure holding what is needed to solve getting data from it
 359:..\paho.mqtt.embedded-c\MQTTPacket\src/MQTTPacket.c ****  * @return integer MQTT packet type, 0 for call again, or -1 on error
 360:..\paho.mqtt.embedded-c\MQTTPacket\src/MQTTPacket.c ****  * @note  the whole message must fit into the caller's buffer
 361:..\paho.mqtt.embedded-c\MQTTPacket\src/MQTTPacket.c ****  */
 362:..\paho.mqtt.embedded-c\MQTTPacket\src/MQTTPacket.c **** int MQTTPacket_readnb(unsigned char* buf, int buflen, MQTTTransport *trp)
 363:..\paho.mqtt.embedded-c\MQTTPacket\src/MQTTPacket.c **** {
 964              		.loc 1 363 0
 965              		.cfi_startproc
 966              		@ args = 0, pretend = 0, frame = 0
 967              		@ frame_needed = 0, uses_anonymous_args = 0
 968              	.LVL112:
 969 0000 70B5     		push	{r4, r5, r6, lr}
 970              		.cfi_def_cfa_offset 16
 971              		.cfi_offset 4, -16
 972              		.cfi_offset 5, -12
 973              		.cfi_offset 6, -8
 974              		.cfi_offset 14, -4
 975 0002 0546     		mov	r5, r0
 976 0004 0E46     		mov	r6, r1
 977 0006 1446     		mov	r4, r2
 978              	.LVL113:
 364:..\paho.mqtt.embedded-c\MQTTPacket\src/MQTTPacket.c **** 	int rc = -1, frc;
 365:..\paho.mqtt.embedded-c\MQTTPacket\src/MQTTPacket.c **** 	MQTTHeader header = {0};
 366:..\paho.mqtt.embedded-c\MQTTPacket\src/MQTTPacket.c **** 
 367:..\paho.mqtt.embedded-c\MQTTPacket\src/MQTTPacket.c **** 	switch(trp->state){
 979              		.loc 1 367 0
 980 0008 137D     		ldrb	r3, [r2, #20]	@ zero_extendqisi2
 981 000a 012B     		cmp	r3, #1
 982 000c 13D0     		beq	.L80
 983 000e 1BB1     		cbz	r3, .L81
 984 0010 022B     		cmp	r3, #2
 985 0012 25D0     		beq	.L82
 368:..\paho.mqtt.embedded-c\MQTTPacket\src/MQTTPacket.c **** 	default:
 369:..\paho.mqtt.embedded-c\MQTTPacket\src/MQTTPacket.c **** 		trp->state = 0;
 986              		.loc 1 369 0
 987 0014 0023     		movs	r3, #0
 988 0016 1375     		strb	r3, [r2, #20]
 989              	.L81:
 370:..\paho.mqtt.embedded-c\MQTTPacket\src/MQTTPacket.c **** 		/*FALLTHROUGH*/
 371:..\paho.mqtt.embedded-c\MQTTPacket\src/MQTTPacket.c **** 	case 0:
 372:..\paho.mqtt.embedded-c\MQTTPacket\src/MQTTPacket.c **** 		/* read the header byte.  This has the packet type in it */
 373:..\paho.mqtt.embedded-c\MQTTPacket\src/MQTTPacket.c **** 		if ((frc=(*trp->getfn)(trp->sck, buf, 1)) == -1)
 990              		.loc 1 373 0
 991 0018 2368     		ldr	r3, [r4]
 992 001a 0122     		movs	r2, #1
 993              	.LVL114:
 994 001c 2946     		mov	r1, r5
 995              	.LVL115:
 996 001e 6068     		ldr	r0, [r4, #4]
 997              	.LVL116:
 998 0020 9847     		blx	r3
 999              	.LVL117:
 1000 0022 B0F1FF3F 		cmp	r0, #-1
ARM GAS  C:\Users\samue\AppData\Local\Temp\cc1TpScf.s 			page 27


 1001 0026 30D0     		beq	.L86
 374:..\paho.mqtt.embedded-c\MQTTPacket\src/MQTTPacket.c **** 			goto exit;
 375:..\paho.mqtt.embedded-c\MQTTPacket\src/MQTTPacket.c **** 		if (frc == 0)
 1002              		.loc 1 375 0
 1003 0028 0028     		cmp	r0, #0
 1004 002a 3CD0     		beq	.L87
 376:..\paho.mqtt.embedded-c\MQTTPacket\src/MQTTPacket.c **** 			return 0;
 377:..\paho.mqtt.embedded-c\MQTTPacket\src/MQTTPacket.c **** 		trp->len = 0;
 1005              		.loc 1 377 0
 1006 002c 0023     		movs	r3, #0
 1007 002e 2361     		str	r3, [r4, #16]
 378:..\paho.mqtt.embedded-c\MQTTPacket\src/MQTTPacket.c **** 		++trp->state;
 1008              		.loc 1 378 0
 1009 0030 237D     		ldrb	r3, [r4, #20]	@ zero_extendqisi2
 1010 0032 0133     		adds	r3, r3, #1
 1011 0034 2375     		strb	r3, [r4, #20]
 1012              	.LVL118:
 1013              	.L80:
 379:..\paho.mqtt.embedded-c\MQTTPacket\src/MQTTPacket.c **** 		/*FALLTHROUGH*/
 380:..\paho.mqtt.embedded-c\MQTTPacket\src/MQTTPacket.c **** 		/* read the remaining length.  This is variable in itself */
 381:..\paho.mqtt.embedded-c\MQTTPacket\src/MQTTPacket.c **** 	case 1:
 382:..\paho.mqtt.embedded-c\MQTTPacket\src/MQTTPacket.c **** 		if((frc=MQTTPacket_decodenb(trp)) == MQTTPACKET_READ_ERROR)
 1014              		.loc 1 382 0
 1015 0036 2046     		mov	r0, r4
 1016 0038 FFF7FEFF 		bl	MQTTPacket_decodenb
 1017              	.LVL119:
 1018 003c B0F1FF3F 		cmp	r0, #-1
 1019 0040 26D0     		beq	.L88
 383:..\paho.mqtt.embedded-c\MQTTPacket\src/MQTTPacket.c **** 			goto exit;
 384:..\paho.mqtt.embedded-c\MQTTPacket\src/MQTTPacket.c **** 		if(frc == 0)
 1020              		.loc 1 384 0
 1021 0042 0028     		cmp	r0, #0
 1022 0044 31D0     		beq	.L89
 385:..\paho.mqtt.embedded-c\MQTTPacket\src/MQTTPacket.c **** 			return 0;
 386:..\paho.mqtt.embedded-c\MQTTPacket\src/MQTTPacket.c **** 		trp->len = 1 + MQTTPacket_encode(buf + 1, trp->rem_len); /* put the original remaining length bac
 1023              		.loc 1 386 0
 1024 0046 E168     		ldr	r1, [r4, #12]
 1025 0048 681C     		adds	r0, r5, #1
 1026              	.LVL120:
 1027 004a FFF7FEFF 		bl	MQTTPacket_encode
 1028              	.LVL121:
 1029 004e 0130     		adds	r0, r0, #1
 1030 0050 2061     		str	r0, [r4, #16]
 387:..\paho.mqtt.embedded-c\MQTTPacket\src/MQTTPacket.c **** 		if((trp->rem_len + trp->len) > buflen)
 1031              		.loc 1 387 0
 1032 0052 E368     		ldr	r3, [r4, #12]
 1033 0054 0344     		add	r3, r3, r0
 1034 0056 B342     		cmp	r3, r6
 1035 0058 1DDC     		bgt	.L90
 388:..\paho.mqtt.embedded-c\MQTTPacket\src/MQTTPacket.c **** 			goto exit;
 389:..\paho.mqtt.embedded-c\MQTTPacket\src/MQTTPacket.c **** 		++trp->state;
 1036              		.loc 1 389 0
 1037 005a 237D     		ldrb	r3, [r4, #20]	@ zero_extendqisi2
 1038 005c 0133     		adds	r3, r3, #1
 1039 005e 2375     		strb	r3, [r4, #20]
 1040              	.L82:
 390:..\paho.mqtt.embedded-c\MQTTPacket\src/MQTTPacket.c **** 		/*FALLTHROUGH*/
ARM GAS  C:\Users\samue\AppData\Local\Temp\cc1TpScf.s 			page 28


 391:..\paho.mqtt.embedded-c\MQTTPacket\src/MQTTPacket.c **** 	case 2:
 392:..\paho.mqtt.embedded-c\MQTTPacket\src/MQTTPacket.c **** 		if(trp->rem_len){
 1041              		.loc 1 392 0
 1042 0060 E268     		ldr	r2, [r4, #12]
 1043 0062 7AB1     		cbz	r2, .L85
 393:..\paho.mqtt.embedded-c\MQTTPacket\src/MQTTPacket.c **** 			/* read the rest of the buffer using a callback to supply the rest of the data */
 394:..\paho.mqtt.embedded-c\MQTTPacket\src/MQTTPacket.c **** 			if ((frc=(*trp->getfn)(trp->sck, buf + trp->len, trp->rem_len)) == -1)
 1044              		.loc 1 394 0
 1045 0064 2368     		ldr	r3, [r4]
 1046 0066 2169     		ldr	r1, [r4, #16]
 1047 0068 2944     		add	r1, r1, r5
 1048 006a 6068     		ldr	r0, [r4, #4]
 1049 006c 9847     		blx	r3
 1050              	.LVL122:
 1051 006e B0F1FF3F 		cmp	r0, #-1
 1052 0072 13D0     		beq	.L91
 395:..\paho.mqtt.embedded-c\MQTTPacket\src/MQTTPacket.c **** 				goto exit;
 396:..\paho.mqtt.embedded-c\MQTTPacket\src/MQTTPacket.c **** 			if (frc == 0)
 1053              		.loc 1 396 0
 1054 0074 D8B1     		cbz	r0, .L92
 397:..\paho.mqtt.embedded-c\MQTTPacket\src/MQTTPacket.c **** 				return 0;
 398:..\paho.mqtt.embedded-c\MQTTPacket\src/MQTTPacket.c **** 			trp->rem_len -= frc;
 1055              		.loc 1 398 0
 1056 0076 E368     		ldr	r3, [r4, #12]
 1057 0078 1B1A     		subs	r3, r3, r0
 1058 007a E360     		str	r3, [r4, #12]
 399:..\paho.mqtt.embedded-c\MQTTPacket\src/MQTTPacket.c **** 			trp->len += frc;
 1059              		.loc 1 399 0
 1060 007c 2269     		ldr	r2, [r4, #16]
 1061 007e 1044     		add	r0, r0, r2
 1062              	.LVL123:
 1063 0080 2061     		str	r0, [r4, #16]
 400:..\paho.mqtt.embedded-c\MQTTPacket\src/MQTTPacket.c **** 			if(trp->rem_len)
 1064              		.loc 1 400 0
 1065 0082 B3B9     		cbnz	r3, .L93
 1066              	.L85:
 401:..\paho.mqtt.embedded-c\MQTTPacket\src/MQTTPacket.c **** 				return 0;
 402:..\paho.mqtt.embedded-c\MQTTPacket\src/MQTTPacket.c **** 		}
 403:..\paho.mqtt.embedded-c\MQTTPacket\src/MQTTPacket.c **** 		header.byte = buf[0];
 1067              		.loc 1 403 0
 1068 0084 2878     		ldrb	r0, [r5]	@ zero_extendqisi2
 404:..\paho.mqtt.embedded-c\MQTTPacket\src/MQTTPacket.c **** 		rc = header.bits.type;
 1069              		.loc 1 404 0
 1070 0086 0009     		lsrs	r0, r0, #4
 1071              	.LVL124:
 405:..\paho.mqtt.embedded-c\MQTTPacket\src/MQTTPacket.c **** 		break;
 1072              		.loc 1 405 0
 1073 0088 0AE0     		b	.L83
 1074              	.LVL125:
 1075              	.L86:
 364:..\paho.mqtt.embedded-c\MQTTPacket\src/MQTTPacket.c **** 	MQTTHeader header = {0};
 1076              		.loc 1 364 0
 1077 008a 4FF0FF30 		mov	r0, #-1
 1078              	.LVL126:
 1079 008e 07E0     		b	.L83
 1080              	.LVL127:
 1081              	.L88:
ARM GAS  C:\Users\samue\AppData\Local\Temp\cc1TpScf.s 			page 29


 1082 0090 4FF0FF30 		mov	r0, #-1
 1083              	.LVL128:
 1084 0094 04E0     		b	.L83
 1085              	.L90:
 1086 0096 4FF0FF30 		mov	r0, #-1
 1087 009a 01E0     		b	.L83
 1088              	.LVL129:
 1089              	.L91:
 1090 009c 4FF0FF30 		mov	r0, #-1
 1091              	.LVL130:
 1092              	.L83:
 406:..\paho.mqtt.embedded-c\MQTTPacket\src/MQTTPacket.c **** 	}
 407:..\paho.mqtt.embedded-c\MQTTPacket\src/MQTTPacket.c **** 
 408:..\paho.mqtt.embedded-c\MQTTPacket\src/MQTTPacket.c **** exit:
 409:..\paho.mqtt.embedded-c\MQTTPacket\src/MQTTPacket.c **** 	trp->state = 0;
 1093              		.loc 1 409 0
 1094 00a0 0023     		movs	r3, #0
 1095 00a2 2375     		strb	r3, [r4, #20]
 410:..\paho.mqtt.embedded-c\MQTTPacket\src/MQTTPacket.c **** 	return rc;
 1096              		.loc 1 410 0
 1097 00a4 70BD     		pop	{r4, r5, r6, pc}
 1098              	.LVL131:
 1099              	.L87:
 376:..\paho.mqtt.embedded-c\MQTTPacket\src/MQTTPacket.c **** 		trp->len = 0;
 1100              		.loc 1 376 0
 1101 00a6 0020     		movs	r0, #0
 1102              	.LVL132:
 1103 00a8 70BD     		pop	{r4, r5, r6, pc}
 1104              	.LVL133:
 1105              	.L89:
 385:..\paho.mqtt.embedded-c\MQTTPacket\src/MQTTPacket.c **** 		trp->len = 1 + MQTTPacket_encode(buf + 1, trp->rem_len); /* put the original remaining length bac
 1106              		.loc 1 385 0
 1107 00aa 0020     		movs	r0, #0
 1108              	.LVL134:
 1109 00ac 70BD     		pop	{r4, r5, r6, pc}
 1110              	.LVL135:
 1111              	.L92:
 397:..\paho.mqtt.embedded-c\MQTTPacket\src/MQTTPacket.c **** 			trp->rem_len -= frc;
 1112              		.loc 1 397 0
 1113 00ae 0020     		movs	r0, #0
 1114              	.LVL136:
 1115 00b0 70BD     		pop	{r4, r5, r6, pc}
 1116              	.LVL137:
 1117              	.L93:
 401:..\paho.mqtt.embedded-c\MQTTPacket\src/MQTTPacket.c **** 		}
 1118              		.loc 1 401 0
 1119 00b2 0020     		movs	r0, #0
 411:..\paho.mqtt.embedded-c\MQTTPacket\src/MQTTPacket.c **** }
 1120              		.loc 1 411 0
 1121 00b4 70BD     		pop	{r4, r5, r6, pc}
 1122              		.cfi_endproc
 1123              	.LFE18:
 1124              		.size	MQTTPacket_readnb, .-MQTTPacket_readnb
 1125 00b6 00BF     		.bss
 1126              		.align	2
 1127              		.set	.LANCHOR0,. + 0
 1128              		.type	bufptr, %object
ARM GAS  C:\Users\samue\AppData\Local\Temp\cc1TpScf.s 			page 30


 1129              		.size	bufptr, 4
 1130              	bufptr:
 1131 0000 00000000 		.space	4
 1132              		.text
 1133              	.Letext0:
 1134              		.file 2 "..\\paho.mqtt.embedded-c\\MQTTPacket\\src\\MQTTPacket.h"
 1135              		.file 3 "c:\\program files (x86)\\cypress\\psoc creator\\4.2\\psoc creator\\import\\gnu\\arm\\5.4.