ARM GAS  C:\Users\samue\AppData\Local\Temp\cceSkA8k.s 			page 1


   1              		.syntax unified
   2              		.cpu cortex-m3
   3              		.fpu softvfp
   4              		.eabi_attribute 20, 1
   5              		.eabi_attribute 21, 1
   6              		.eabi_attribute 23, 3
   7              		.eabi_attribute 24, 1
   8              		.eabi_attribute 25, 1
   9              		.eabi_attribute 26, 1
  10              		.eabi_attribute 30, 1
  11              		.eabi_attribute 34, 1
  12              		.eabi_attribute 18, 4
  13              		.thumb
  14              		.syntax unified
  15              		.file	"MQTTSerializePublish.c"
  16              		.text
  17              	.Ltext0:
  18              		.cfi_sections	.debug_frame
  19              		.section	.text.MQTTSerialize_publishLength,"ax",%progbits
  20              		.align	2
  21              		.global	MQTTSerialize_publishLength
  22              		.thumb
  23              		.thumb_func
  24              		.type	MQTTSerialize_publishLength, %function
  25              	MQTTSerialize_publishLength:
  26              	.LFB1:
  27              		.file 1 "..\\paho.mqtt.embedded-c\\MQTTPacket\\src\\MQTTSerializePublish.c"
   1:..\paho.mqtt.embedded-c\MQTTPacket\src/MQTTSerializePublish.c **** /*******************************************************************************
   2:..\paho.mqtt.embedded-c\MQTTPacket\src/MQTTSerializePublish.c ****  * Copyright (c) 2014 IBM Corp.
   3:..\paho.mqtt.embedded-c\MQTTPacket\src/MQTTSerializePublish.c ****  *
   4:..\paho.mqtt.embedded-c\MQTTPacket\src/MQTTSerializePublish.c ****  * All rights reserved. This program and the accompanying materials
   5:..\paho.mqtt.embedded-c\MQTTPacket\src/MQTTSerializePublish.c ****  * are made available under the terms of the Eclipse Public License v1.0
   6:..\paho.mqtt.embedded-c\MQTTPacket\src/MQTTSerializePublish.c ****  * and Eclipse Distribution License v1.0 which accompany this distribution.
   7:..\paho.mqtt.embedded-c\MQTTPacket\src/MQTTSerializePublish.c ****  *
   8:..\paho.mqtt.embedded-c\MQTTPacket\src/MQTTSerializePublish.c ****  * The Eclipse Public License is available at
   9:..\paho.mqtt.embedded-c\MQTTPacket\src/MQTTSerializePublish.c ****  *    http://www.eclipse.org/legal/epl-v10.html
  10:..\paho.mqtt.embedded-c\MQTTPacket\src/MQTTSerializePublish.c ****  * and the Eclipse Distribution License is available at
  11:..\paho.mqtt.embedded-c\MQTTPacket\src/MQTTSerializePublish.c ****  *   http://www.eclipse.org/org/documents/edl-v10.php.
  12:..\paho.mqtt.embedded-c\MQTTPacket\src/MQTTSerializePublish.c ****  *
  13:..\paho.mqtt.embedded-c\MQTTPacket\src/MQTTSerializePublish.c ****  * Contributors:
  14:..\paho.mqtt.embedded-c\MQTTPacket\src/MQTTSerializePublish.c ****  *    Ian Craggs - initial API and implementation and/or initial documentation
  15:..\paho.mqtt.embedded-c\MQTTPacket\src/MQTTSerializePublish.c ****  *    Ian Craggs - fix for https://bugs.eclipse.org/bugs/show_bug.cgi?id=453144
  16:..\paho.mqtt.embedded-c\MQTTPacket\src/MQTTSerializePublish.c ****  *******************************************************************************/
  17:..\paho.mqtt.embedded-c\MQTTPacket\src/MQTTSerializePublish.c **** 
  18:..\paho.mqtt.embedded-c\MQTTPacket\src/MQTTSerializePublish.c **** #include "MQTTPacket.h"
  19:..\paho.mqtt.embedded-c\MQTTPacket\src/MQTTSerializePublish.c **** #include "StackTrace.h"
  20:..\paho.mqtt.embedded-c\MQTTPacket\src/MQTTSerializePublish.c **** 
  21:..\paho.mqtt.embedded-c\MQTTPacket\src/MQTTSerializePublish.c **** #include <string.h>
  22:..\paho.mqtt.embedded-c\MQTTPacket\src/MQTTSerializePublish.c **** 
  23:..\paho.mqtt.embedded-c\MQTTPacket\src/MQTTSerializePublish.c **** 
  24:..\paho.mqtt.embedded-c\MQTTPacket\src/MQTTSerializePublish.c **** /**
  25:..\paho.mqtt.embedded-c\MQTTPacket\src/MQTTSerializePublish.c ****   * Determines the length of the MQTT publish packet that would be produced using the supplied para
  26:..\paho.mqtt.embedded-c\MQTTPacket\src/MQTTSerializePublish.c ****   * @param qos the MQTT QoS of the publish (packetid is omitted for QoS 0)
  27:..\paho.mqtt.embedded-c\MQTTPacket\src/MQTTSerializePublish.c ****   * @param topicName the topic name to be used in the publish  
  28:..\paho.mqtt.embedded-c\MQTTPacket\src/MQTTSerializePublish.c ****   * @param payloadlen the length of the payload to be sent
  29:..\paho.mqtt.embedded-c\MQTTPacket\src/MQTTSerializePublish.c ****   * @return the length of buffer needed to contain the serialized version of the packet
  30:..\paho.mqtt.embedded-c\MQTTPacket\src/MQTTSerializePublish.c ****   */
ARM GAS  C:\Users\samue\AppData\Local\Temp\cceSkA8k.s 			page 2


  31:..\paho.mqtt.embedded-c\MQTTPacket\src/MQTTSerializePublish.c **** int MQTTSerialize_publishLength(int qos, MQTTString topicName, int payloadlen)
  32:..\paho.mqtt.embedded-c\MQTTPacket\src/MQTTSerializePublish.c **** {
  28              		.loc 1 32 0
  29              		.cfi_startproc
  30              		@ args = 4, pretend = 0, frame = 16
  31              		@ frame_needed = 0, uses_anonymous_args = 0
  32              	.LVL0:
  33 0000 10B5     		push	{r4, lr}
  34              		.cfi_def_cfa_offset 8
  35              		.cfi_offset 4, -8
  36              		.cfi_offset 14, -4
  37 0002 84B0     		sub	sp, sp, #16
  38              		.cfi_def_cfa_offset 24
  39 0004 0446     		mov	r4, r0
  40 0006 01A8     		add	r0, sp, #4
  41              	.LVL1:
  42 0008 80E80E00 		stmia	r0, {r1, r2, r3}
  43              	.LVL2:
  33:..\paho.mqtt.embedded-c\MQTTPacket\src/MQTTSerializePublish.c **** 	int len = 0;
  34:..\paho.mqtt.embedded-c\MQTTPacket\src/MQTTSerializePublish.c **** 
  35:..\paho.mqtt.embedded-c\MQTTPacket\src/MQTTSerializePublish.c **** 	len += 2 + MQTTstrlen(topicName) + payloadlen;
  44              		.loc 1 35 0
  45 000c 07C8     		ldmia	r0, {r0, r1, r2}
  46 000e FFF7FEFF 		bl	MQTTstrlen
  47              	.LVL3:
  48 0012 0230     		adds	r0, r0, #2
  49 0014 069B     		ldr	r3, [sp, #24]
  50 0016 1844     		add	r0, r0, r3
  51              	.LVL4:
  36:..\paho.mqtt.embedded-c\MQTTPacket\src/MQTTSerializePublish.c **** 	if (qos > 0)
  52              		.loc 1 36 0
  53 0018 002C     		cmp	r4, #0
  54 001a 00DD     		ble	.L2
  37:..\paho.mqtt.embedded-c\MQTTPacket\src/MQTTSerializePublish.c **** 		len += 2; /* packetid */
  55              		.loc 1 37 0
  56 001c 0230     		adds	r0, r0, #2
  57              	.LVL5:
  58              	.L2:
  38:..\paho.mqtt.embedded-c\MQTTPacket\src/MQTTSerializePublish.c **** 	return len;
  39:..\paho.mqtt.embedded-c\MQTTPacket\src/MQTTSerializePublish.c **** }
  59              		.loc 1 39 0
  60 001e 04B0     		add	sp, sp, #16
  61              		.cfi_def_cfa_offset 8
  62              		@ sp needed
  63 0020 10BD     		pop	{r4, pc}
  64              		.cfi_endproc
  65              	.LFE1:
  66              		.size	MQTTSerialize_publishLength, .-MQTTSerialize_publishLength
  67 0022 00BF     		.section	.text.MQTTSerialize_publish,"ax",%progbits
  68              		.align	2
  69              		.global	MQTTSerialize_publish
  70              		.thumb
  71              		.thumb_func
  72              		.type	MQTTSerialize_publish, %function
  73              	MQTTSerialize_publish:
  74              	.LFB2:
  40:..\paho.mqtt.embedded-c\MQTTPacket\src/MQTTSerializePublish.c **** 
ARM GAS  C:\Users\samue\AppData\Local\Temp\cceSkA8k.s 			page 3


  41:..\paho.mqtt.embedded-c\MQTTPacket\src/MQTTSerializePublish.c **** 
  42:..\paho.mqtt.embedded-c\MQTTPacket\src/MQTTSerializePublish.c **** /**
  43:..\paho.mqtt.embedded-c\MQTTPacket\src/MQTTSerializePublish.c ****   * Serializes the supplied publish data into the supplied buffer, ready for sending
  44:..\paho.mqtt.embedded-c\MQTTPacket\src/MQTTSerializePublish.c ****   * @param buf the buffer into which the packet will be serialized
  45:..\paho.mqtt.embedded-c\MQTTPacket\src/MQTTSerializePublish.c ****   * @param buflen the length in bytes of the supplied buffer
  46:..\paho.mqtt.embedded-c\MQTTPacket\src/MQTTSerializePublish.c ****   * @param dup integer - the MQTT dup flag
  47:..\paho.mqtt.embedded-c\MQTTPacket\src/MQTTSerializePublish.c ****   * @param qos integer - the MQTT QoS value
  48:..\paho.mqtt.embedded-c\MQTTPacket\src/MQTTSerializePublish.c ****   * @param retained integer - the MQTT retained flag
  49:..\paho.mqtt.embedded-c\MQTTPacket\src/MQTTSerializePublish.c ****   * @param packetid integer - the MQTT packet identifier
  50:..\paho.mqtt.embedded-c\MQTTPacket\src/MQTTSerializePublish.c ****   * @param topicName MQTTString - the MQTT topic in the publish
  51:..\paho.mqtt.embedded-c\MQTTPacket\src/MQTTSerializePublish.c ****   * @param payload byte buffer - the MQTT publish payload
  52:..\paho.mqtt.embedded-c\MQTTPacket\src/MQTTSerializePublish.c ****   * @param payloadlen integer - the length of the MQTT payload
  53:..\paho.mqtt.embedded-c\MQTTPacket\src/MQTTSerializePublish.c ****   * @return the length of the serialized data.  <= 0 indicates error
  54:..\paho.mqtt.embedded-c\MQTTPacket\src/MQTTSerializePublish.c ****   */
  55:..\paho.mqtt.embedded-c\MQTTPacket\src/MQTTSerializePublish.c **** int MQTTSerialize_publish(unsigned char* buf, int buflen, unsigned char dup, int qos, unsigned char
  56:..\paho.mqtt.embedded-c\MQTTPacket\src/MQTTSerializePublish.c **** 		MQTTString topicName, unsigned char* payload, int payloadlen)
  57:..\paho.mqtt.embedded-c\MQTTPacket\src/MQTTSerializePublish.c **** {
  75              		.loc 1 57 0
  76              		.cfi_startproc
  77              		@ args = 28, pretend = 0, frame = 8
  78              		@ frame_needed = 0, uses_anonymous_args = 0
  79              	.LVL6:
  80 0000 2DE9F047 		push	{r4, r5, r6, r7, r8, r9, r10, lr}
  81              		.cfi_def_cfa_offset 32
  82              		.cfi_offset 4, -32
  83              		.cfi_offset 5, -28
  84              		.cfi_offset 6, -24
  85              		.cfi_offset 7, -20
  86              		.cfi_offset 8, -16
  87              		.cfi_offset 9, -12
  88              		.cfi_offset 10, -8
  89              		.cfi_offset 14, -4
  90 0004 84B0     		sub	sp, sp, #16
  91              		.cfi_def_cfa_offset 48
  92 0006 0746     		mov	r7, r0
  93 0008 8846     		mov	r8, r1
  94 000a 9246     		mov	r10, r2
  95 000c 1E46     		mov	r6, r3
  96 000e 129C     		ldr	r4, [sp, #72]
  58:..\paho.mqtt.embedded-c\MQTTPacket\src/MQTTSerializePublish.c **** 	unsigned char *ptr = buf;
  97              		.loc 1 58 0
  98 0010 0390     		str	r0, [sp, #12]
  99              	.LVL7:
  59:..\paho.mqtt.embedded-c\MQTTPacket\src/MQTTSerializePublish.c **** 	MQTTHeader header = {0};
  60:..\paho.mqtt.embedded-c\MQTTPacket\src/MQTTSerializePublish.c **** 	int rem_len = 0;
  61:..\paho.mqtt.embedded-c\MQTTPacket\src/MQTTSerializePublish.c **** 	int rc = 0;
  62:..\paho.mqtt.embedded-c\MQTTPacket\src/MQTTSerializePublish.c **** 
  63:..\paho.mqtt.embedded-c\MQTTPacket\src/MQTTSerializePublish.c **** 	FUNC_ENTRY;
  64:..\paho.mqtt.embedded-c\MQTTPacket\src/MQTTSerializePublish.c **** 	if (MQTTPacket_len(rem_len = MQTTSerialize_publishLength(qos, topicName, payloadlen)) > buflen)
 100              		.loc 1 64 0
 101 0012 0094     		str	r4, [sp]
 102 0014 0EAB     		add	r3, sp, #56
 103              	.LVL8:
 104 0016 0ECB     		ldmia	r3, {r1, r2, r3}
 105              	.LVL9:
 106 0018 3046     		mov	r0, r6
 107              	.LVL10:
ARM GAS  C:\Users\samue\AppData\Local\Temp\cceSkA8k.s 			page 4


 108 001a FFF7FEFF 		bl	MQTTSerialize_publishLength
 109              	.LVL11:
 110 001e 8146     		mov	r9, r0
 111              	.LVL12:
 112 0020 FFF7FEFF 		bl	MQTTPacket_len
 113              	.LVL13:
 114 0024 4045     		cmp	r0, r8
 115 0026 2BDC     		bgt	.L7
 116 0028 0025     		movs	r5, #0
 117              	.LVL14:
  65:..\paho.mqtt.embedded-c\MQTTPacket\src/MQTTSerializePublish.c **** 	{
  66:..\paho.mqtt.embedded-c\MQTTPacket\src/MQTTSerializePublish.c **** 		rc = MQTTPACKET_BUFFER_TOO_SHORT;
  67:..\paho.mqtt.embedded-c\MQTTPacket\src/MQTTSerializePublish.c **** 		goto exit;
  68:..\paho.mqtt.embedded-c\MQTTPacket\src/MQTTSerializePublish.c **** 	}
  69:..\paho.mqtt.embedded-c\MQTTPacket\src/MQTTSerializePublish.c **** 
  70:..\paho.mqtt.embedded-c\MQTTPacket\src/MQTTSerializePublish.c **** 	header.bits.type = PUBLISH;
 118              		.loc 1 70 0
 119 002a 0323     		movs	r3, #3
 120 002c 63F30715 		bfi	r5, r3, #4, #4
 121              	.LVL15:
  71:..\paho.mqtt.embedded-c\MQTTPacket\src/MQTTSerializePublish.c **** 	header.bits.dup = dup;
 122              		.loc 1 71 0
 123 0030 6AF3C305 		bfi	r5, r10, #3, #1
  72:..\paho.mqtt.embedded-c\MQTTPacket\src/MQTTSerializePublish.c **** 	header.bits.qos = qos;
 124              		.loc 1 72 0
 125 0034 66F34205 		bfi	r5, r6, #1, #2
  73:..\paho.mqtt.embedded-c\MQTTPacket\src/MQTTSerializePublish.c **** 	header.bits.retain = retained;
 126              		.loc 1 73 0
 127 0038 9DF83030 		ldrb	r3, [sp, #48]	@ zero_extendqisi2
 128 003c 63F30005 		bfi	r5, r3, #0, #1
  74:..\paho.mqtt.embedded-c\MQTTPacket\src/MQTTSerializePublish.c **** 	writeChar(&ptr, header.byte); /* write header */
 129              		.loc 1 74 0
 130 0040 E9B2     		uxtb	r1, r5
 131 0042 03A8     		add	r0, sp, #12
 132 0044 FFF7FEFF 		bl	writeChar
 133              	.LVL16:
  75:..\paho.mqtt.embedded-c\MQTTPacket\src/MQTTSerializePublish.c **** 
  76:..\paho.mqtt.embedded-c\MQTTPacket\src/MQTTSerializePublish.c **** 	ptr += MQTTPacket_encode(ptr, rem_len); /* write remaining length */;
 134              		.loc 1 76 0
 135 0048 4946     		mov	r1, r9
 136 004a 0398     		ldr	r0, [sp, #12]
 137 004c FFF7FEFF 		bl	MQTTPacket_encode
 138              	.LVL17:
 139 0050 039B     		ldr	r3, [sp, #12]
 140 0052 1844     		add	r0, r0, r3
 141 0054 0390     		str	r0, [sp, #12]
  77:..\paho.mqtt.embedded-c\MQTTPacket\src/MQTTSerializePublish.c **** 
  78:..\paho.mqtt.embedded-c\MQTTPacket\src/MQTTSerializePublish.c **** 	writeMQTTString(&ptr, topicName);
 142              		.loc 1 78 0
 143 0056 0EAB     		add	r3, sp, #56
 144 0058 0ECB     		ldmia	r3, {r1, r2, r3}
 145 005a 03A8     		add	r0, sp, #12
 146 005c FFF7FEFF 		bl	writeMQTTString
 147              	.LVL18:
  79:..\paho.mqtt.embedded-c\MQTTPacket\src/MQTTSerializePublish.c **** 
  80:..\paho.mqtt.embedded-c\MQTTPacket\src/MQTTSerializePublish.c **** 	if (qos > 0)
 148              		.loc 1 80 0
ARM GAS  C:\Users\samue\AppData\Local\Temp\cceSkA8k.s 			page 5


 149 0060 002E     		cmp	r6, #0
 150 0062 04DD     		ble	.L6
  81:..\paho.mqtt.embedded-c\MQTTPacket\src/MQTTSerializePublish.c **** 		writeInt(&ptr, packetid);
 151              		.loc 1 81 0
 152 0064 BDF83410 		ldrh	r1, [sp, #52]
 153 0068 03A8     		add	r0, sp, #12
 154 006a FFF7FEFF 		bl	writeInt
 155              	.LVL19:
 156              	.L6:
  82:..\paho.mqtt.embedded-c\MQTTPacket\src/MQTTSerializePublish.c **** 
  83:..\paho.mqtt.embedded-c\MQTTPacket\src/MQTTSerializePublish.c **** 	memcpy(ptr, payload, payloadlen);
 157              		.loc 1 83 0
 158 006e 2246     		mov	r2, r4
 159 0070 1199     		ldr	r1, [sp, #68]
 160 0072 0398     		ldr	r0, [sp, #12]
 161 0074 FFF7FEFF 		bl	memcpy
 162              	.LVL20:
  84:..\paho.mqtt.embedded-c\MQTTPacket\src/MQTTSerializePublish.c **** 	ptr += payloadlen;
 163              		.loc 1 84 0
 164 0078 0398     		ldr	r0, [sp, #12]
 165 007a 2044     		add	r0, r0, r4
 166              	.LVL21:
  85:..\paho.mqtt.embedded-c\MQTTPacket\src/MQTTSerializePublish.c **** 
  86:..\paho.mqtt.embedded-c\MQTTPacket\src/MQTTSerializePublish.c **** 	rc = ptr - buf;
 167              		.loc 1 86 0
 168 007c C01B     		subs	r0, r0, r7
 169              	.LVL22:
 170 007e 01E0     		b	.L5
 171              	.LVL23:
 172              	.L7:
  66:..\paho.mqtt.embedded-c\MQTTPacket\src/MQTTSerializePublish.c **** 		goto exit;
 173              		.loc 1 66 0
 174 0080 6FF00100 		mvn	r0, #1
 175              	.LVL24:
 176              	.L5:
  87:..\paho.mqtt.embedded-c\MQTTPacket\src/MQTTSerializePublish.c **** 
  88:..\paho.mqtt.embedded-c\MQTTPacket\src/MQTTSerializePublish.c **** exit:
  89:..\paho.mqtt.embedded-c\MQTTPacket\src/MQTTSerializePublish.c **** 	FUNC_EXIT_RC(rc);
  90:..\paho.mqtt.embedded-c\MQTTPacket\src/MQTTSerializePublish.c **** 	return rc;
  91:..\paho.mqtt.embedded-c\MQTTPacket\src/MQTTSerializePublish.c **** }
 177              		.loc 1 91 0
 178 0084 04B0     		add	sp, sp, #16
 179              		.cfi_def_cfa_offset 32
 180              		@ sp needed
 181 0086 BDE8F087 		pop	{r4, r5, r6, r7, r8, r9, r10, pc}
 182              		.cfi_endproc
 183              	.LFE2:
 184              		.size	MQTTSerialize_publish, .-MQTTSerialize_publish
 185 008a 00BF     		.section	.text.MQTTSerialize_ack,"ax",%progbits
 186              		.align	2
 187              		.global	MQTTSerialize_ack
 188              		.thumb
 189              		.thumb_func
 190              		.type	MQTTSerialize_ack, %function
 191              	MQTTSerialize_ack:
 192              	.LFB3:
  92:..\paho.mqtt.embedded-c\MQTTPacket\src/MQTTSerializePublish.c **** 
ARM GAS  C:\Users\samue\AppData\Local\Temp\cceSkA8k.s 			page 6


  93:..\paho.mqtt.embedded-c\MQTTPacket\src/MQTTSerializePublish.c **** 
  94:..\paho.mqtt.embedded-c\MQTTPacket\src/MQTTSerializePublish.c **** 
  95:..\paho.mqtt.embedded-c\MQTTPacket\src/MQTTSerializePublish.c **** /**
  96:..\paho.mqtt.embedded-c\MQTTPacket\src/MQTTSerializePublish.c ****   * Serializes the ack packet into the supplied buffer.
  97:..\paho.mqtt.embedded-c\MQTTPacket\src/MQTTSerializePublish.c ****   * @param buf the buffer into which the packet will be serialized
  98:..\paho.mqtt.embedded-c\MQTTPacket\src/MQTTSerializePublish.c ****   * @param buflen the length in bytes of the supplied buffer
  99:..\paho.mqtt.embedded-c\MQTTPacket\src/MQTTSerializePublish.c ****   * @param type the MQTT packet type
 100:..\paho.mqtt.embedded-c\MQTTPacket\src/MQTTSerializePublish.c ****   * @param dup the MQTT dup flag
 101:..\paho.mqtt.embedded-c\MQTTPacket\src/MQTTSerializePublish.c ****   * @param packetid the MQTT packet identifier
 102:..\paho.mqtt.embedded-c\MQTTPacket\src/MQTTSerializePublish.c ****   * @return serialized length, or error if 0
 103:..\paho.mqtt.embedded-c\MQTTPacket\src/MQTTSerializePublish.c ****   */
 104:..\paho.mqtt.embedded-c\MQTTPacket\src/MQTTSerializePublish.c **** int MQTTSerialize_ack(unsigned char* buf, int buflen, unsigned char packettype, unsigned char dup, 
 105:..\paho.mqtt.embedded-c\MQTTPacket\src/MQTTSerializePublish.c **** {
 193              		.loc 1 105 0
 194              		.cfi_startproc
 195              		@ args = 4, pretend = 0, frame = 8
 196              		@ frame_needed = 0, uses_anonymous_args = 0
 197              	.LVL25:
 198 0000 30B5     		push	{r4, r5, lr}
 199              		.cfi_def_cfa_offset 12
 200              		.cfi_offset 4, -12
 201              		.cfi_offset 5, -8
 202              		.cfi_offset 14, -4
 203 0002 83B0     		sub	sp, sp, #12
 204              		.cfi_def_cfa_offset 24
 205              	.LVL26:
 106:..\paho.mqtt.embedded-c\MQTTPacket\src/MQTTSerializePublish.c **** 	MQTTHeader header = {0};
 107:..\paho.mqtt.embedded-c\MQTTPacket\src/MQTTSerializePublish.c **** 	int rc = 0;
 108:..\paho.mqtt.embedded-c\MQTTPacket\src/MQTTSerializePublish.c **** 	unsigned char *ptr = buf;
 206              		.loc 1 108 0
 207 0004 0190     		str	r0, [sp, #4]
 109:..\paho.mqtt.embedded-c\MQTTPacket\src/MQTTSerializePublish.c **** 
 110:..\paho.mqtt.embedded-c\MQTTPacket\src/MQTTSerializePublish.c **** 	FUNC_ENTRY;
 111:..\paho.mqtt.embedded-c\MQTTPacket\src/MQTTSerializePublish.c **** 	if (buflen < 4)
 208              		.loc 1 111 0
 209 0006 0329     		cmp	r1, #3
 210 0008 1EDD     		ble	.L11
 211 000a 0025     		movs	r5, #0
 212              	.LVL27:
 213 000c 0446     		mov	r4, r0
 112:..\paho.mqtt.embedded-c\MQTTPacket\src/MQTTSerializePublish.c **** 	{
 113:..\paho.mqtt.embedded-c\MQTTPacket\src/MQTTSerializePublish.c **** 		rc = MQTTPACKET_BUFFER_TOO_SHORT;
 114:..\paho.mqtt.embedded-c\MQTTPacket\src/MQTTSerializePublish.c **** 		goto exit;
 115:..\paho.mqtt.embedded-c\MQTTPacket\src/MQTTSerializePublish.c **** 	}
 116:..\paho.mqtt.embedded-c\MQTTPacket\src/MQTTSerializePublish.c **** 	header.bits.type = packettype;
 214              		.loc 1 116 0
 215 000e 62F30715 		bfi	r5, r2, #4, #4
 216              	.LVL28:
 117:..\paho.mqtt.embedded-c\MQTTPacket\src/MQTTSerializePublish.c **** 	header.bits.dup = dup;
 217              		.loc 1 117 0
 218 0012 63F3C305 		bfi	r5, r3, #3, #1
 118:..\paho.mqtt.embedded-c\MQTTPacket\src/MQTTSerializePublish.c **** 	header.bits.qos = (packettype == PUBREL) ? 1 : 0;
 219              		.loc 1 118 0
 220 0016 062A     		cmp	r2, #6
 221 0018 14BF     		ite	ne
 222 001a 0022     		movne	r2, #0
 223              	.LVL29:
ARM GAS  C:\Users\samue\AppData\Local\Temp\cceSkA8k.s 			page 7


 224 001c 0122     		moveq	r2, #1
 225 001e 62F34205 		bfi	r5, r2, #1, #2
 119:..\paho.mqtt.embedded-c\MQTTPacket\src/MQTTSerializePublish.c **** 	writeChar(&ptr, header.byte); /* write header */
 226              		.loc 1 119 0
 227 0022 E9B2     		uxtb	r1, r5
 228              	.LVL30:
 229 0024 01A8     		add	r0, sp, #4
 230              	.LVL31:
 231 0026 FFF7FEFF 		bl	writeChar
 232              	.LVL32:
 120:..\paho.mqtt.embedded-c\MQTTPacket\src/MQTTSerializePublish.c **** 
 121:..\paho.mqtt.embedded-c\MQTTPacket\src/MQTTSerializePublish.c **** 	ptr += MQTTPacket_encode(ptr, 2); /* write remaining length */
 233              		.loc 1 121 0
 234 002a 0221     		movs	r1, #2
 235 002c 0198     		ldr	r0, [sp, #4]
 236 002e FFF7FEFF 		bl	MQTTPacket_encode
 237              	.LVL33:
 238 0032 019B     		ldr	r3, [sp, #4]
 239 0034 1844     		add	r0, r0, r3
 240 0036 0190     		str	r0, [sp, #4]
 122:..\paho.mqtt.embedded-c\MQTTPacket\src/MQTTSerializePublish.c **** 	writeInt(&ptr, packetid);
 241              		.loc 1 122 0
 242 0038 BDF81810 		ldrh	r1, [sp, #24]
 243 003c 01A8     		add	r0, sp, #4
 244 003e FFF7FEFF 		bl	writeInt
 245              	.LVL34:
 123:..\paho.mqtt.embedded-c\MQTTPacket\src/MQTTSerializePublish.c **** 	rc = ptr - buf;
 246              		.loc 1 123 0
 247 0042 0198     		ldr	r0, [sp, #4]
 248 0044 001B     		subs	r0, r0, r4
 249              	.LVL35:
 250 0046 01E0     		b	.L10
 251              	.LVL36:
 252              	.L11:
 113:..\paho.mqtt.embedded-c\MQTTPacket\src/MQTTSerializePublish.c **** 		goto exit;
 253              		.loc 1 113 0
 254 0048 6FF00100 		mvn	r0, #1
 255              	.LVL37:
 256              	.L10:
 124:..\paho.mqtt.embedded-c\MQTTPacket\src/MQTTSerializePublish.c **** exit:
 125:..\paho.mqtt.embedded-c\MQTTPacket\src/MQTTSerializePublish.c **** 	FUNC_EXIT_RC(rc);
 126:..\paho.mqtt.embedded-c\MQTTPacket\src/MQTTSerializePublish.c **** 	return rc;
 127:..\paho.mqtt.embedded-c\MQTTPacket\src/MQTTSerializePublish.c **** }
 257              		.loc 1 127 0
 258 004c 03B0     		add	sp, sp, #12
 259              		.cfi_def_cfa_offset 12
 260              		@ sp needed
 261 004e 30BD     		pop	{r4, r5, pc}
 262              		.cfi_endproc
 263              	.LFE3:
 264              		.size	MQTTSerialize_ack, .-MQTTSerialize_ack
 265              		.section	.text.MQTTSerialize_puback,"ax",%progbits
 266              		.align	2
 267              		.global	MQTTSerialize_puback
 268              		.thumb
 269              		.thumb_func
 270              		.type	MQTTSerialize_puback, %function
ARM GAS  C:\Users\samue\AppData\Local\Temp\cceSkA8k.s 			page 8


 271              	MQTTSerialize_puback:
 272              	.LFB4:
 128:..\paho.mqtt.embedded-c\MQTTPacket\src/MQTTSerializePublish.c **** 
 129:..\paho.mqtt.embedded-c\MQTTPacket\src/MQTTSerializePublish.c **** 
 130:..\paho.mqtt.embedded-c\MQTTPacket\src/MQTTSerializePublish.c **** /**
 131:..\paho.mqtt.embedded-c\MQTTPacket\src/MQTTSerializePublish.c ****   * Serializes a puback packet into the supplied buffer.
 132:..\paho.mqtt.embedded-c\MQTTPacket\src/MQTTSerializePublish.c ****   * @param buf the buffer into which the packet will be serialized
 133:..\paho.mqtt.embedded-c\MQTTPacket\src/MQTTSerializePublish.c ****   * @param buflen the length in bytes of the supplied buffer
 134:..\paho.mqtt.embedded-c\MQTTPacket\src/MQTTSerializePublish.c ****   * @param packetid integer - the MQTT packet identifier
 135:..\paho.mqtt.embedded-c\MQTTPacket\src/MQTTSerializePublish.c ****   * @return serialized length, or error if 0
 136:..\paho.mqtt.embedded-c\MQTTPacket\src/MQTTSerializePublish.c ****   */
 137:..\paho.mqtt.embedded-c\MQTTPacket\src/MQTTSerializePublish.c **** int MQTTSerialize_puback(unsigned char* buf, int buflen, unsigned short packetid)
 138:..\paho.mqtt.embedded-c\MQTTPacket\src/MQTTSerializePublish.c **** {
 273              		.loc 1 138 0
 274              		.cfi_startproc
 275              		@ args = 0, pretend = 0, frame = 0
 276              		@ frame_needed = 0, uses_anonymous_args = 0
 277              	.LVL38:
 278 0000 00B5     		push	{lr}
 279              		.cfi_def_cfa_offset 4
 280              		.cfi_offset 14, -4
 281 0002 83B0     		sub	sp, sp, #12
 282              		.cfi_def_cfa_offset 16
 139:..\paho.mqtt.embedded-c\MQTTPacket\src/MQTTSerializePublish.c **** 	return MQTTSerialize_ack(buf, buflen, PUBACK, 0, packetid);
 283              		.loc 1 139 0
 284 0004 0092     		str	r2, [sp]
 285 0006 0023     		movs	r3, #0
 286 0008 0422     		movs	r2, #4
 287              	.LVL39:
 288 000a FFF7FEFF 		bl	MQTTSerialize_ack
 289              	.LVL40:
 140:..\paho.mqtt.embedded-c\MQTTPacket\src/MQTTSerializePublish.c **** }
 290              		.loc 1 140 0
 291 000e 03B0     		add	sp, sp, #12
 292              		.cfi_def_cfa_offset 4
 293              		@ sp needed
 294 0010 5DF804FB 		ldr	pc, [sp], #4
 295              		.cfi_endproc
 296              	.LFE4:
 297              		.size	MQTTSerialize_puback, .-MQTTSerialize_puback
 298              		.section	.text.MQTTSerialize_pubrel,"ax",%progbits
 299              		.align	2
 300              		.global	MQTTSerialize_pubrel
 301              		.thumb
 302              		.thumb_func
 303              		.type	MQTTSerialize_pubrel, %function
 304              	MQTTSerialize_pubrel:
 305              	.LFB5:
 141:..\paho.mqtt.embedded-c\MQTTPacket\src/MQTTSerializePublish.c **** 
 142:..\paho.mqtt.embedded-c\MQTTPacket\src/MQTTSerializePublish.c **** 
 143:..\paho.mqtt.embedded-c\MQTTPacket\src/MQTTSerializePublish.c **** /**
 144:..\paho.mqtt.embedded-c\MQTTPacket\src/MQTTSerializePublish.c ****   * Serializes a pubrel packet into the supplied buffer.
 145:..\paho.mqtt.embedded-c\MQTTPacket\src/MQTTSerializePublish.c ****   * @param buf the buffer into which the packet will be serialized
 146:..\paho.mqtt.embedded-c\MQTTPacket\src/MQTTSerializePublish.c ****   * @param buflen the length in bytes of the supplied buffer
 147:..\paho.mqtt.embedded-c\MQTTPacket\src/MQTTSerializePublish.c ****   * @param dup integer - the MQTT dup flag
 148:..\paho.mqtt.embedded-c\MQTTPacket\src/MQTTSerializePublish.c ****   * @param packetid integer - the MQTT packet identifier
 149:..\paho.mqtt.embedded-c\MQTTPacket\src/MQTTSerializePublish.c ****   * @return serialized length, or error if 0
ARM GAS  C:\Users\samue\AppData\Local\Temp\cceSkA8k.s 			page 9


 150:..\paho.mqtt.embedded-c\MQTTPacket\src/MQTTSerializePublish.c ****   */
 151:..\paho.mqtt.embedded-c\MQTTPacket\src/MQTTSerializePublish.c **** int MQTTSerialize_pubrel(unsigned char* buf, int buflen, unsigned char dup, unsigned short packetid
 152:..\paho.mqtt.embedded-c\MQTTPacket\src/MQTTSerializePublish.c **** {
 306              		.loc 1 152 0
 307              		.cfi_startproc
 308              		@ args = 0, pretend = 0, frame = 0
 309              		@ frame_needed = 0, uses_anonymous_args = 0
 310              	.LVL41:
 311 0000 00B5     		push	{lr}
 312              		.cfi_def_cfa_offset 4
 313              		.cfi_offset 14, -4
 314 0002 83B0     		sub	sp, sp, #12
 315              		.cfi_def_cfa_offset 16
 153:..\paho.mqtt.embedded-c\MQTTPacket\src/MQTTSerializePublish.c **** 	return MQTTSerialize_ack(buf, buflen, PUBREL, dup, packetid);
 316              		.loc 1 153 0
 317 0004 0093     		str	r3, [sp]
 318 0006 1346     		mov	r3, r2
 319              	.LVL42:
 320 0008 0622     		movs	r2, #6
 321              	.LVL43:
 322 000a FFF7FEFF 		bl	MQTTSerialize_ack
 323              	.LVL44:
 154:..\paho.mqtt.embedded-c\MQTTPacket\src/MQTTSerializePublish.c **** }
 324              		.loc 1 154 0
 325 000e 03B0     		add	sp, sp, #12
 326              		.cfi_def_cfa_offset 4
 327              		@ sp needed
 328 0010 5DF804FB 		ldr	pc, [sp], #4
 329              		.cfi_endproc
 330              	.LFE5:
 331              		.size	MQTTSerialize_pubrel, .-MQTTSerialize_pubrel
 332              		.section	.text.MQTTSerialize_pubcomp,"ax",%progbits
 333              		.align	2
 334              		.global	MQTTSerialize_pubcomp
 335              		.thumb
 336              		.thumb_func
 337              		.type	MQTTSerialize_pubcomp, %function
 338              	MQTTSerialize_pubcomp:
 339              	.LFB6:
 155:..\paho.mqtt.embedded-c\MQTTPacket\src/MQTTSerializePublish.c **** 
 156:..\paho.mqtt.embedded-c\MQTTPacket\src/MQTTSerializePublish.c **** 
 157:..\paho.mqtt.embedded-c\MQTTPacket\src/MQTTSerializePublish.c **** /**
 158:..\paho.mqtt.embedded-c\MQTTPacket\src/MQTTSerializePublish.c ****   * Serializes a pubrel packet into the supplied buffer.
 159:..\paho.mqtt.embedded-c\MQTTPacket\src/MQTTSerializePublish.c ****   * @param buf the buffer into which the packet will be serialized
 160:..\paho.mqtt.embedded-c\MQTTPacket\src/MQTTSerializePublish.c ****   * @param buflen the length in bytes of the supplied buffer
 161:..\paho.mqtt.embedded-c\MQTTPacket\src/MQTTSerializePublish.c ****   * @param packetid integer - the MQTT packet identifier
 162:..\paho.mqtt.embedded-c\MQTTPacket\src/MQTTSerializePublish.c ****   * @return serialized length, or error if 0
 163:..\paho.mqtt.embedded-c\MQTTPacket\src/MQTTSerializePublish.c ****   */
 164:..\paho.mqtt.embedded-c\MQTTPacket\src/MQTTSerializePublish.c **** int MQTTSerialize_pubcomp(unsigned char* buf, int buflen, unsigned short packetid)
 165:..\paho.mqtt.embedded-c\MQTTPacket\src/MQTTSerializePublish.c **** {
 340              		.loc 1 165 0
 341              		.cfi_startproc
 342              		@ args = 0, pretend = 0, frame = 0
 343              		@ frame_needed = 0, uses_anonymous_args = 0
 344              	.LVL45:
 345 0000 00B5     		push	{lr}
 346              		.cfi_def_cfa_offset 4
ARM GAS  C:\Users\samue\AppData\Local\Temp\cceSkA8k.s 			page 10


 347              		.cfi_offset 14, -4
 348 0002 83B0     		sub	sp, sp, #12
 349              		.cfi_def_cfa_offset 16
 166:..\paho.mqtt.embedded-c\MQTTPacket\src/MQTTSerializePublish.c **** 	return MQTTSerialize_ack(buf, buflen, PUBCOMP, 0, packetid);
 350              		.loc 1 166 0
 351 0004 0092     		str	r2, [sp]
 352 0006 0023     		movs	r3, #0
 353 0008 0722     		movs	r2, #7
 354              	.LVL46:
 355 000a FFF7FEFF 		bl	MQTTSerialize_ack
 356              	.LVL47:
 167:..\paho.mqtt.embedded-c\MQTTPacket\src/MQTTSerializePublish.c **** }
 357              		.loc 1 167 0
 358 000e 03B0     		add	sp, sp, #12
 359              		.cfi_def_cfa_offset 4
 360              		@ sp needed
 361 0010 5DF804FB 		ldr	pc, [sp], #4
 362              		.cfi_endproc
 363              	.LFE6:
 364              		.size	MQTTSerialize_pubcomp, .-MQTTSerialize_pubcomp
 365              		.text
 366              	.Letext0:
 367              		.file 2 "..\\paho.mqtt.embedded-c\\MQTTPacket\\src\\MQTTPacket.h"