ARM GAS  C:\Users\samue\AppData\Local\Temp\ccsduBhf.s 			page 1


   1              		.syntax unified
   2              		.cpu cortex-m3
   3              		.fpu softvfp
   4              		.eabi_attribute 20, 1
   5              		.eabi_attribute 21, 1
   6              		.eabi_attribute 23, 3
   7              		.eabi_attribute 24, 1
   8              		.eabi_attribute 25, 1
   9              		.eabi_attribute 26, 1
  10              		.eabi_attribute 30, 1
  11              		.eabi_attribute 34, 1
  12              		.eabi_attribute 18, 4
  13              		.thumb
  14              		.syntax unified
  15              		.file	"Nunchuk.c"
  16              		.text
  17              	.Ltext0:
  18              		.cfi_sections	.debug_frame
  19              		.section	.text.nunchuk_start,"ax",%progbits
  20              		.align	2
  21              		.global	nunchuk_start
  22              		.thumb
  23              		.thumb_func
  24              		.type	nunchuk_start, %function
  25              	nunchuk_start:
  26              	.LFB69:
  27              		.file 1 "ZumoLibrary\\Nunchuk.c"
   1:ZumoLibrary/Nunchuk.c **** /**
   2:ZumoLibrary/Nunchuk.c ****  * @file    Nunchuk.c
   3:ZumoLibrary/Nunchuk.c ****  * @brief   Basic methods for operating wii nunchuck. For more details, please refer to Nunchuk.h f
   4:ZumoLibrary/Nunchuk.c ****  * @details 
   5:ZumoLibrary/Nunchuk.c **** */
   6:ZumoLibrary/Nunchuk.c **** #include "FreeRTOS.h"
   7:ZumoLibrary/Nunchuk.c **** #include "task.h"
   8:ZumoLibrary/Nunchuk.c **** #include "Nunchuk.h"
   9:ZumoLibrary/Nunchuk.c **** 
  10:ZumoLibrary/Nunchuk.c **** static int x,y,z;
  11:ZumoLibrary/Nunchuk.c **** 
  12:ZumoLibrary/Nunchuk.c **** /**
  13:ZumoLibrary/Nunchuk.c **** * @brief    Start Nunchuk
  14:ZumoLibrary/Nunchuk.c **** * @details
  15:ZumoLibrary/Nunchuk.c **** */
  16:ZumoLibrary/Nunchuk.c **** void nunchuk_start()
  17:ZumoLibrary/Nunchuk.c **** {
  28              		.loc 1 17 0
  29              		.cfi_startproc
  30              		@ args = 0, pretend = 0, frame = 0
  31              		@ frame_needed = 0, uses_anonymous_args = 0
  32 0000 08B5     		push	{r3, lr}
  33              		.cfi_def_cfa_offset 8
  34              		.cfi_offset 3, -8
  35              		.cfi_offset 14, -4
  18:ZumoLibrary/Nunchuk.c ****     I2C_Start();
  36              		.loc 1 18 0
  37 0002 FFF7FEFF 		bl	I2C_Start
  38              	.LVL0:
  39 0006 08BD     		pop	{r3, pc}
ARM GAS  C:\Users\samue\AppData\Local\Temp\ccsduBhf.s 			page 2


  40              		.cfi_endproc
  41              	.LFE69:
  42              		.size	nunchuk_start, .-nunchuk_start
  43              		.section	.text.nunchuk_init,"ax",%progbits
  44              		.align	2
  45              		.global	nunchuk_init
  46              		.thumb
  47              		.thumb_func
  48              		.type	nunchuk_init, %function
  49              	nunchuk_init:
  50              	.LFB70:
  19:ZumoLibrary/Nunchuk.c **** }
  20:ZumoLibrary/Nunchuk.c **** 
  21:ZumoLibrary/Nunchuk.c **** 
  22:ZumoLibrary/Nunchuk.c **** /**
  23:ZumoLibrary/Nunchuk.c **** * @brief    Initializing Nunchuk
  24:ZumoLibrary/Nunchuk.c **** * @details  write value(0x00) to register(address - 0x40) to initialize nunchuk
  25:ZumoLibrary/Nunchuk.c **** */
  26:ZumoLibrary/Nunchuk.c **** void nunchuk_init()
  27:ZumoLibrary/Nunchuk.c **** {
  51              		.loc 1 27 0
  52              		.cfi_startproc
  53              		@ args = 0, pretend = 0, frame = 8
  54              		@ frame_needed = 0, uses_anonymous_args = 0
  55 0000 10B5     		push	{r4, lr}
  56              		.cfi_def_cfa_offset 8
  57              		.cfi_offset 4, -8
  58              		.cfi_offset 14, -4
  59 0002 82B0     		sub	sp, sp, #8
  60              		.cfi_def_cfa_offset 16
  28:ZumoLibrary/Nunchuk.c ****     uint8_t buf[2] = { 0x40, 0x00 };
  61              		.loc 1 28 0
  62 0004 4023     		movs	r3, #64
  63 0006 8DF80430 		strb	r3, [sp, #4]
  64 000a 0024     		movs	r4, #0
  65 000c 8DF80540 		strb	r4, [sp, #5]
  29:ZumoLibrary/Nunchuk.c ****     uint8_t status;
  30:ZumoLibrary/Nunchuk.c ****     I2C_MasterClearStatus();
  66              		.loc 1 30 0
  67 0010 FFF7FEFF 		bl	I2C_MasterClearStatus
  68              	.LVL1:
  31:ZumoLibrary/Nunchuk.c ****     vTaskDelay(100);
  69              		.loc 1 31 0
  70 0014 6420     		movs	r0, #100
  71 0016 FFF7FEFF 		bl	vTaskDelay
  72              	.LVL2:
  32:ZumoLibrary/Nunchuk.c ****     status = I2C_MasterWriteBuf(0x52, buf, 2, I2C_MODE_COMPLETE_XFER);
  73              		.loc 1 32 0
  74 001a 2346     		mov	r3, r4
  75 001c 0222     		movs	r2, #2
  76 001e 01A9     		add	r1, sp, #4
  77 0020 5220     		movs	r0, #82
  78 0022 FFF7FEFF 		bl	I2C_MasterWriteBuf
  79              	.LVL3:
  80              	.L4:
  33:ZumoLibrary/Nunchuk.c ****     while(((status = I2C_MasterStatus()) & I2C_MSTAT_WR_CMPLT) == 0);
  81              		.loc 1 33 0 discriminator 1
ARM GAS  C:\Users\samue\AppData\Local\Temp\ccsduBhf.s 			page 3


  82 0026 FFF7FEFF 		bl	I2C_MasterStatus
  83              	.LVL4:
  84 002a 10F0020F 		tst	r0, #2
  85 002e FAD0     		beq	.L4
  34:ZumoLibrary/Nunchuk.c ****     vTaskDelay(100);
  86              		.loc 1 34 0
  87 0030 6420     		movs	r0, #100
  88              	.LVL5:
  89 0032 FFF7FEFF 		bl	vTaskDelay
  90              	.LVL6:
  35:ZumoLibrary/Nunchuk.c **** }    
  91              		.loc 1 35 0
  92 0036 02B0     		add	sp, sp, #8
  93              		.cfi_def_cfa_offset 8
  94              		@ sp needed
  95 0038 10BD     		pop	{r4, pc}
  96              		.cfi_endproc
  97              	.LFE70:
  98              		.size	nunchuk_init, .-nunchuk_init
  99 003a 00BF     		.section	.text.nunchuk_read,"ax",%progbits
 100              		.align	2
 101              		.global	nunchuk_read
 102              		.thumb
 103              		.thumb_func
 104              		.type	nunchuk_read, %function
 105              	nunchuk_read:
 106              	.LFB71:
  36:ZumoLibrary/Nunchuk.c **** 
  37:ZumoLibrary/Nunchuk.c **** 
  38:ZumoLibrary/Nunchuk.c **** /**
  39:ZumoLibrary/Nunchuk.c **** * @brief    Reading Nunchuk value
  40:ZumoLibrary/Nunchuk.c **** * @details  Reading nunchuk value and getting joystick and accelerometer values
  41:ZumoLibrary/Nunchuk.c **** */
  42:ZumoLibrary/Nunchuk.c **** void nunchuk_read()
  43:ZumoLibrary/Nunchuk.c **** {
 107              		.loc 1 43 0
 108              		.cfi_startproc
 109              		@ args = 0, pretend = 0, frame = 8
 110              		@ frame_needed = 0, uses_anonymous_args = 0
 111 0000 00B5     		push	{lr}
 112              		.cfi_def_cfa_offset 4
 113              		.cfi_offset 14, -4
 114 0002 83B0     		sub	sp, sp, #12
 115              		.cfi_def_cfa_offset 16
  44:ZumoLibrary/Nunchuk.c ****     uint8_t status;
  45:ZumoLibrary/Nunchuk.c ****     uint8_t buf[6];
  46:ZumoLibrary/Nunchuk.c ****     
  47:ZumoLibrary/Nunchuk.c ****     // send conversion command    buf[0] = 0x00;
  48:ZumoLibrary/Nunchuk.c ****     I2C_MasterClearStatus();
 116              		.loc 1 48 0
 117 0004 FFF7FEFF 		bl	I2C_MasterClearStatus
 118              	.LVL7:
  49:ZumoLibrary/Nunchuk.c ****     status = I2C_MasterWriteBuf(0x52, buf, 1, I2C_MODE_COMPLETE_XFER);
 119              		.loc 1 49 0
 120 0008 0023     		movs	r3, #0
 121 000a 0122     		movs	r2, #1
 122 000c 6946     		mov	r1, sp
ARM GAS  C:\Users\samue\AppData\Local\Temp\ccsduBhf.s 			page 4


 123 000e 5220     		movs	r0, #82
 124 0010 FFF7FEFF 		bl	I2C_MasterWriteBuf
 125              	.LVL8:
 126              	.L7:
  50:ZumoLibrary/Nunchuk.c ****     while(((status = I2C_MasterStatus()) & I2C_MSTAT_WR_CMPLT) == 0);
 127              		.loc 1 50 0 discriminator 1
 128 0014 FFF7FEFF 		bl	I2C_MasterStatus
 129              	.LVL9:
 130 0018 10F0020F 		tst	r0, #2
 131 001c FAD0     		beq	.L7
  51:ZumoLibrary/Nunchuk.c ****     
  52:ZumoLibrary/Nunchuk.c ****     // wait for conversion to complete
  53:ZumoLibrary/Nunchuk.c ****     vTaskDelay(50); // todo: check if shorter wait would work
 132              		.loc 1 53 0
 133 001e 3220     		movs	r0, #50
 134              	.LVL10:
 135 0020 FFF7FEFF 		bl	vTaskDelay
 136              	.LVL11:
  54:ZumoLibrary/Nunchuk.c ****    
  55:ZumoLibrary/Nunchuk.c ****     // read values
  56:ZumoLibrary/Nunchuk.c ****     I2C_MasterClearStatus();
 137              		.loc 1 56 0
 138 0024 FFF7FEFF 		bl	I2C_MasterClearStatus
 139              	.LVL12:
  57:ZumoLibrary/Nunchuk.c ****     status = I2C_MasterReadBuf(0x52, buf, 6, I2C_MODE_COMPLETE_XFER);
 140              		.loc 1 57 0
 141 0028 0023     		movs	r3, #0
 142 002a 0622     		movs	r2, #6
 143 002c 6946     		mov	r1, sp
 144 002e 5220     		movs	r0, #82
 145 0030 FFF7FEFF 		bl	I2C_MasterReadBuf
 146              	.LVL13:
 147              	.L8:
  58:ZumoLibrary/Nunchuk.c ****     while(((status = I2C_MasterStatus()) & I2C_MSTAT_RD_CMPLT) == 0);
 148              		.loc 1 58 0 discriminator 1
 149 0034 FFF7FEFF 		bl	I2C_MasterStatus
 150              	.LVL14:
 151 0038 10F0010F 		tst	r0, #1
 152 003c FAD0     		beq	.L8
 153 003e 0023     		movs	r3, #0
 154 0040 00E0     		b	.L9
 155              	.LVL15:
 156              	.L10:
  59:ZumoLibrary/Nunchuk.c ****     
  60:ZumoLibrary/Nunchuk.c ****     int i;
  61:ZumoLibrary/Nunchuk.c ****     // decrypt data
  62:ZumoLibrary/Nunchuk.c ****     for(i = 0; i < 6; i++) buf[i] = (buf[i] ^ 0x17) + 0x17;
 157              		.loc 1 62 0 discriminator 3
 158 0042 0133     		adds	r3, r3, #1
 159              	.LVL16:
 160              	.L9:
 161              		.loc 1 62 0 is_stmt 0 discriminator 1
 162 0044 052B     		cmp	r3, #5
 163 0046 FCDD     		ble	.L10
  63:ZumoLibrary/Nunchuk.c ****     // accelerometer values
  64:ZumoLibrary/Nunchuk.c ****     x = (buf[2] << 2) | ((buf[5] >> 2) & 0x03);
  65:ZumoLibrary/Nunchuk.c ****     y = (buf[3] << 2) | ((buf[5] >> 4) & 0x03);
ARM GAS  C:\Users\samue\AppData\Local\Temp\ccsduBhf.s 			page 5


  66:ZumoLibrary/Nunchuk.c ****     z = (buf[4] << 2) | ((buf[5] >> 6) & 0x03);
  67:ZumoLibrary/Nunchuk.c ****     
  68:ZumoLibrary/Nunchuk.c ****     //If you want to print out the value  
  69:ZumoLibrary/Nunchuk.c ****     //printf("%3d %3d, %d, %d, %4d %4d %4d\r\n", buf[0], buf[1], (buf[5] >> 1) & 1, buf[5] & 1, x, 
  70:ZumoLibrary/Nunchuk.c **** }
 164              		.loc 1 70 0 is_stmt 1
 165 0048 03B0     		add	sp, sp, #12
 166              		.cfi_def_cfa_offset 4
 167              		@ sp needed
 168 004a 5DF804FB 		ldr	pc, [sp], #4
 169              		.cfi_endproc
 170              	.LFE71:
 171              		.size	nunchuk_read, .-nunchuk_read
 172 004e 00BF     		.text
 173              	.Letext0:
 174              		.file 2 "c:\\program files (x86)\\cypress\\psoc creator\\4.2\\psoc creator\\import\\gnu\\arm\\5.4.
 175              		.file 3 "c:\\program files (x86)\\cypress\\psoc creator\\4.2\\psoc creator\\import\\gnu\\arm\\5.4.
 176              		.file 4 "Generated_Source\\PSoC5/I2C.h"
 177              		.file 5 "..\\FreeRTOS\\Source\\include/task.h"
 178              		.file 6 "Generated_Source\\PSoC5/core_cm3.h"