ARM GAS  C:\Users\samue\AppData\Local\Temp\ccIol5QH.s 			page 1


   1              		.syntax unified
   2              		.cpu cortex-m3
   3              		.fpu softvfp
   4              		.eabi_attribute 20, 1
   5              		.eabi_attribute 21, 1
   6              		.eabi_attribute 23, 3
   7              		.eabi_attribute 24, 1
   8              		.eabi_attribute 25, 1
   9              		.eabi_attribute 26, 1
  10              		.eabi_attribute 30, 1
  11              		.eabi_attribute 34, 1
  12              		.eabi_attribute 18, 4
  13              		.thumb
  14              		.syntax unified
  15              		.file	"Reflectance.c"
  16              		.text
  17              	.Ltext0:
  18              		.cfi_sections	.debug_frame
  19              		.section	.text.ReflectanceTask,"ax",%progbits
  20              		.align	2
  21              		.global	ReflectanceTask
  22              		.thumb
  23              		.thumb_func
  24              		.type	ReflectanceTask, %function
  25              	ReflectanceTask:
  26              	.LFB69:
  27              		.file 1 "ZumoLibrary\\Reflectance.c"
   1:ZumoLibrary/Reflectance.c **** /**
   2:ZumoLibrary/Reflectance.c ****  * @file    Reflectance.c
   3:ZumoLibrary/Reflectance.c ****  * @brief   Basic methods for operating reflectance sensor. For more details, please refer to Refle
   4:ZumoLibrary/Reflectance.c ****  * @details included in Zumo shield
   5:ZumoLibrary/Reflectance.c **** */
   6:ZumoLibrary/Reflectance.c **** #include <stdio.h>
   7:ZumoLibrary/Reflectance.c **** #include <stdbool.h>
   8:ZumoLibrary/Reflectance.c **** #include "project.h"
   9:ZumoLibrary/Reflectance.c **** #include "FreeRTOS.h"
  10:ZumoLibrary/Reflectance.c **** #include "task.h"
  11:ZumoLibrary/Reflectance.c **** 
  12:ZumoLibrary/Reflectance.c **** #include "Reflectance.h"
  13:ZumoLibrary/Reflectance.c **** 
  14:ZumoLibrary/Reflectance.c **** static volatile struct sensors_ sensors;
  15:ZumoLibrary/Reflectance.c **** static volatile struct sensors_  digital_sensor_value;
  16:ZumoLibrary/Reflectance.c **** static struct sensors_ threshold = { 10000, 10000, 10000, 10000, 10000, 10000};
  17:ZumoLibrary/Reflectance.c **** static TaskHandle_t ReflectanceHandle = NULL;
  18:ZumoLibrary/Reflectance.c **** 
  19:ZumoLibrary/Reflectance.c **** /**
  20:ZumoLibrary/Reflectance.c **** * @brief    Reflectance Sensor handler is called from FreeRTOS systick hook
  21:ZumoLibrary/Reflectance.c **** * @details  Measuring each sensors' time to recognition of white or black
  22:ZumoLibrary/Reflectance.c **** */
  23:ZumoLibrary/Reflectance.c **** void ReflectanceTask( void *pvParameters )
  24:ZumoLibrary/Reflectance.c **** {
  28              		.loc 1 24 0
  29              		.cfi_startproc
  30              		@ args = 0, pretend = 0, frame = 8
  31              		@ frame_needed = 0, uses_anonymous_args = 0
  32              	.LVL0:
  33 0000 2DE9F043 		push	{r4, r5, r6, r7, r8, r9, lr}
ARM GAS  C:\Users\samue\AppData\Local\Temp\ccIol5QH.s 			page 2


  34              		.cfi_def_cfa_offset 28
  35              		.cfi_offset 4, -28
  36              		.cfi_offset 5, -24
  37              		.cfi_offset 6, -20
  38              		.cfi_offset 7, -16
  39              		.cfi_offset 8, -12
  40              		.cfi_offset 9, -8
  41              		.cfi_offset 14, -4
  42 0004 83B0     		sub	sp, sp, #12
  43              		.cfi_def_cfa_offset 40
  25:ZumoLibrary/Reflectance.c ****     (void) pvParameters;
  26:ZumoLibrary/Reflectance.c ****     
  27:ZumoLibrary/Reflectance.c ****     TickType_t prev;
  28:ZumoLibrary/Reflectance.c ****     uint32_t statusR1;
  29:ZumoLibrary/Reflectance.c ****     uint32_t statusR2;
  30:ZumoLibrary/Reflectance.c ****     uint32_t statusR3;
  31:ZumoLibrary/Reflectance.c ****     uint32_t statusL3;
  32:ZumoLibrary/Reflectance.c ****     uint32_t statusL2;
  33:ZumoLibrary/Reflectance.c ****     uint32_t statusL1;
  34:ZumoLibrary/Reflectance.c ****     
  35:ZumoLibrary/Reflectance.c ****     prev = xTaskGetTickCount();
  44              		.loc 1 35 0
  45 0006 FFF7FEFF 		bl	xTaskGetTickCount
  46              	.LVL1:
  47 000a 0190     		str	r0, [sp, #4]
  48              	.L14:
  36:ZumoLibrary/Reflectance.c ****     
  37:ZumoLibrary/Reflectance.c ****     while(1) {
  38:ZumoLibrary/Reflectance.c ****         statusR1 = Timer_R1_ReadStatusRegister();
  49              		.loc 1 38 0
  50 000c FFF7FEFF 		bl	Timer_R1_ReadStatusRegister
  51              	.LVL2:
  52 0010 0446     		mov	r4, r0
  53              	.LVL3:
  39:ZumoLibrary/Reflectance.c ****         statusR2 = Timer_R2_ReadStatusRegister();
  54              		.loc 1 39 0
  55 0012 FFF7FEFF 		bl	Timer_R2_ReadStatusRegister
  56              	.LVL4:
  57 0016 8046     		mov	r8, r0
  58              	.LVL5:
  40:ZumoLibrary/Reflectance.c ****         statusR3 = Timer_R3_ReadStatusRegister();
  59              		.loc 1 40 0
  60 0018 FFF7FEFF 		bl	Timer_R3_ReadStatusRegister
  61              	.LVL6:
  62 001c 0646     		mov	r6, r0
  63              	.LVL7:
  41:ZumoLibrary/Reflectance.c ****         statusL3 = Timer_L3_ReadStatusRegister();
  64              		.loc 1 41 0
  65 001e FFF7FEFF 		bl	Timer_L3_ReadStatusRegister
  66              	.LVL8:
  67 0022 0546     		mov	r5, r0
  68              	.LVL9:
  42:ZumoLibrary/Reflectance.c ****         statusL2 = Timer_L2_ReadStatusRegister();
  69              		.loc 1 42 0
  70 0024 FFF7FEFF 		bl	Timer_L2_ReadStatusRegister
  71              	.LVL10:
  72 0028 0746     		mov	r7, r0
ARM GAS  C:\Users\samue\AppData\Local\Temp\ccIol5QH.s 			page 3


  73              	.LVL11:
  43:ZumoLibrary/Reflectance.c ****         statusL1 = Timer_L1_ReadStatusRegister();
  74              		.loc 1 43 0
  75 002a FFF7FEFF 		bl	Timer_L1_ReadStatusRegister
  76              	.LVL12:
  77 002e 8146     		mov	r9, r0
  78              	.LVL13:
  44:ZumoLibrary/Reflectance.c **** 
  45:ZumoLibrary/Reflectance.c ****         if(statusR1 & Timer_R1_STATUS_CAPTURE) {
  79              		.loc 1 45 0
  80 0030 14F0400F 		tst	r4, #64
  81 0034 09D0     		beq	.L2
  46:ZumoLibrary/Reflectance.c ****             sensors.r1 = Timer_R1_ReadPeriod() - Timer_R1_ReadCapture();
  82              		.loc 1 46 0
  83 0036 FFF7FEFF 		bl	Timer_R1_ReadPeriod
  84              	.LVL14:
  85 003a 0446     		mov	r4, r0
  86              	.LVL15:
  87 003c FFF7FEFF 		bl	Timer_R1_ReadCapture
  88              	.LVL16:
  89 0040 201A     		subs	r0, r4, r0
  90 0042 80B2     		uxth	r0, r0
  91 0044 5E4B     		ldr	r3, .L16
  92 0046 D880     		strh	r0, [r3, #6]	@ movhi
  93 0048 08E0     		b	.L3
  94              	.LVL17:
  95              	.L2:
  47:ZumoLibrary/Reflectance.c ****         }
  48:ZumoLibrary/Reflectance.c ****         else {
  49:ZumoLibrary/Reflectance.c ****             sensors.r1 = Timer_R1_ReadPeriod() - Timer_R1_ReadCounter();
  96              		.loc 1 49 0
  97 004a FFF7FEFF 		bl	Timer_R1_ReadPeriod
  98              	.LVL18:
  99 004e 0446     		mov	r4, r0
 100              	.LVL19:
 101 0050 FFF7FEFF 		bl	Timer_R1_ReadCounter
 102              	.LVL20:
 103 0054 201A     		subs	r0, r4, r0
 104 0056 80B2     		uxth	r0, r0
 105 0058 594B     		ldr	r3, .L16
 106 005a D880     		strh	r0, [r3, #6]	@ movhi
 107              	.L3:
  50:ZumoLibrary/Reflectance.c ****         }
  51:ZumoLibrary/Reflectance.c ****         
  52:ZumoLibrary/Reflectance.c ****         if(statusL1 & Timer_L1_STATUS_CAPTURE) {
 108              		.loc 1 52 0
 109 005c 19F0400F 		tst	r9, #64
 110 0060 09D0     		beq	.L4
  53:ZumoLibrary/Reflectance.c ****             sensors.l1 = Timer_L1_ReadPeriod() - Timer_L1_ReadCapture();
 111              		.loc 1 53 0
 112 0062 FFF7FEFF 		bl	Timer_L1_ReadPeriod
 113              	.LVL21:
 114 0066 0446     		mov	r4, r0
 115 0068 FFF7FEFF 		bl	Timer_L1_ReadCapture
 116              	.LVL22:
 117 006c 201A     		subs	r0, r4, r0
 118 006e 80B2     		uxth	r0, r0
ARM GAS  C:\Users\samue\AppData\Local\Temp\ccIol5QH.s 			page 4


 119 0070 534B     		ldr	r3, .L16
 120 0072 9880     		strh	r0, [r3, #4]	@ movhi
 121 0074 08E0     		b	.L5
 122              	.L4:
  54:ZumoLibrary/Reflectance.c ****         }
  55:ZumoLibrary/Reflectance.c ****         else {
  56:ZumoLibrary/Reflectance.c ****             sensors.l1 = Timer_L1_ReadPeriod() - Timer_L1_ReadCounter();
 123              		.loc 1 56 0
 124 0076 FFF7FEFF 		bl	Timer_L1_ReadPeriod
 125              	.LVL23:
 126 007a 0446     		mov	r4, r0
 127 007c FFF7FEFF 		bl	Timer_L1_ReadCounter
 128              	.LVL24:
 129 0080 201A     		subs	r0, r4, r0
 130 0082 80B2     		uxth	r0, r0
 131 0084 4E4B     		ldr	r3, .L16
 132 0086 9880     		strh	r0, [r3, #4]	@ movhi
 133              	.L5:
  57:ZumoLibrary/Reflectance.c ****         }
  58:ZumoLibrary/Reflectance.c **** 
  59:ZumoLibrary/Reflectance.c ****         if(statusR2 & Timer_R2_STATUS_CAPTURE) {
 134              		.loc 1 59 0
 135 0088 18F0020F 		tst	r8, #2
 136 008c 09D0     		beq	.L6
  60:ZumoLibrary/Reflectance.c ****             sensors.r2 = Timer_R2_ReadPeriod() - Timer_R2_ReadCapture();
 137              		.loc 1 60 0
 138 008e FFF7FEFF 		bl	Timer_R2_ReadPeriod
 139              	.LVL25:
 140 0092 0446     		mov	r4, r0
 141 0094 FFF7FEFF 		bl	Timer_R2_ReadCapture
 142              	.LVL26:
 143 0098 201A     		subs	r0, r4, r0
 144 009a 80B2     		uxth	r0, r0
 145 009c 484B     		ldr	r3, .L16
 146 009e 1881     		strh	r0, [r3, #8]	@ movhi
 147 00a0 08E0     		b	.L7
 148              	.L6:
  61:ZumoLibrary/Reflectance.c ****         }
  62:ZumoLibrary/Reflectance.c ****         else {
  63:ZumoLibrary/Reflectance.c ****             sensors.r2 = Timer_R2_ReadPeriod() - Timer_R2_ReadCounter();
 149              		.loc 1 63 0
 150 00a2 FFF7FEFF 		bl	Timer_R2_ReadPeriod
 151              	.LVL27:
 152 00a6 0446     		mov	r4, r0
 153 00a8 FFF7FEFF 		bl	Timer_R2_ReadCounter
 154              	.LVL28:
 155 00ac 201A     		subs	r0, r4, r0
 156 00ae 80B2     		uxth	r0, r0
 157 00b0 434B     		ldr	r3, .L16
 158 00b2 1881     		strh	r0, [r3, #8]	@ movhi
 159              	.L7:
  64:ZumoLibrary/Reflectance.c ****         }
  65:ZumoLibrary/Reflectance.c ****         
  66:ZumoLibrary/Reflectance.c ****         if(statusL2 & Timer_L2_STATUS_CAPTURE) {
 160              		.loc 1 66 0
 161 00b4 17F0020F 		tst	r7, #2
 162 00b8 09D0     		beq	.L8
ARM GAS  C:\Users\samue\AppData\Local\Temp\ccIol5QH.s 			page 5


  67:ZumoLibrary/Reflectance.c ****             sensors.l2 = Timer_L2_ReadPeriod() - Timer_L2_ReadCapture();
 163              		.loc 1 67 0
 164 00ba FFF7FEFF 		bl	Timer_L2_ReadPeriod
 165              	.LVL29:
 166 00be 0446     		mov	r4, r0
 167 00c0 FFF7FEFF 		bl	Timer_L2_ReadCapture
 168              	.LVL30:
 169 00c4 201A     		subs	r0, r4, r0
 170 00c6 80B2     		uxth	r0, r0
 171 00c8 3D4B     		ldr	r3, .L16
 172 00ca 5880     		strh	r0, [r3, #2]	@ movhi
 173 00cc 08E0     		b	.L9
 174              	.L8:
  68:ZumoLibrary/Reflectance.c ****         }
  69:ZumoLibrary/Reflectance.c ****         else {
  70:ZumoLibrary/Reflectance.c ****             sensors.l2 = Timer_L2_ReadPeriod() - Timer_L2_ReadCounter();
 175              		.loc 1 70 0
 176 00ce FFF7FEFF 		bl	Timer_L2_ReadPeriod
 177              	.LVL31:
 178 00d2 0446     		mov	r4, r0
 179 00d4 FFF7FEFF 		bl	Timer_L2_ReadCounter
 180              	.LVL32:
 181 00d8 201A     		subs	r0, r4, r0
 182 00da 80B2     		uxth	r0, r0
 183 00dc 384B     		ldr	r3, .L16
 184 00de 5880     		strh	r0, [r3, #2]	@ movhi
 185              	.L9:
  71:ZumoLibrary/Reflectance.c ****         }
  72:ZumoLibrary/Reflectance.c ****         
  73:ZumoLibrary/Reflectance.c ****         if(statusR3 & Timer_R3_STATUS_CAPTURE) {
 186              		.loc 1 73 0
 187 00e0 16F0400F 		tst	r6, #64
 188 00e4 09D0     		beq	.L10
  74:ZumoLibrary/Reflectance.c ****             sensors.r3 = Timer_R3_ReadPeriod() - Timer_R3_ReadCapture();
 189              		.loc 1 74 0
 190 00e6 FFF7FEFF 		bl	Timer_R3_ReadPeriod
 191              	.LVL33:
 192 00ea 0446     		mov	r4, r0
 193 00ec FFF7FEFF 		bl	Timer_R3_ReadCapture
 194              	.LVL34:
 195 00f0 201A     		subs	r0, r4, r0
 196 00f2 80B2     		uxth	r0, r0
 197 00f4 324B     		ldr	r3, .L16
 198 00f6 5881     		strh	r0, [r3, #10]	@ movhi
 199 00f8 08E0     		b	.L11
 200              	.L10:
  75:ZumoLibrary/Reflectance.c ****         }
  76:ZumoLibrary/Reflectance.c ****         else {
  77:ZumoLibrary/Reflectance.c ****             sensors.r3 = Timer_R3_ReadPeriod() - Timer_R3_ReadCounter();
 201              		.loc 1 77 0
 202 00fa FFF7FEFF 		bl	Timer_R3_ReadPeriod
 203              	.LVL35:
 204 00fe 0446     		mov	r4, r0
 205 0100 FFF7FEFF 		bl	Timer_R3_ReadCounter
 206              	.LVL36:
 207 0104 201A     		subs	r0, r4, r0
 208 0106 80B2     		uxth	r0, r0
ARM GAS  C:\Users\samue\AppData\Local\Temp\ccIol5QH.s 			page 6


 209 0108 2D4B     		ldr	r3, .L16
 210 010a 5881     		strh	r0, [r3, #10]	@ movhi
 211              	.L11:
  78:ZumoLibrary/Reflectance.c ****         }
  79:ZumoLibrary/Reflectance.c ****         
  80:ZumoLibrary/Reflectance.c ****         if(statusL3 & Timer_L3_STATUS_CAPTURE) {
 212              		.loc 1 80 0
 213 010c 15F0400F 		tst	r5, #64
 214 0110 09D0     		beq	.L12
  81:ZumoLibrary/Reflectance.c ****             sensors.l3 = Timer_L3_ReadPeriod() - Timer_L3_ReadCapture();
 215              		.loc 1 81 0
 216 0112 FFF7FEFF 		bl	Timer_L3_ReadPeriod
 217              	.LVL37:
 218 0116 0446     		mov	r4, r0
 219 0118 FFF7FEFF 		bl	Timer_L3_ReadCapture
 220              	.LVL38:
 221 011c 201A     		subs	r0, r4, r0
 222 011e 80B2     		uxth	r0, r0
 223 0120 274B     		ldr	r3, .L16
 224 0122 1880     		strh	r0, [r3]	@ movhi
 225 0124 08E0     		b	.L13
 226              	.L12:
  82:ZumoLibrary/Reflectance.c ****         }
  83:ZumoLibrary/Reflectance.c ****         else {
  84:ZumoLibrary/Reflectance.c ****             sensors.l3 = Timer_L3_ReadPeriod() - Timer_L3_ReadCounter();
 227              		.loc 1 84 0
 228 0126 FFF7FEFF 		bl	Timer_L3_ReadPeriod
 229              	.LVL39:
 230 012a 0446     		mov	r4, r0
 231 012c FFF7FEFF 		bl	Timer_L3_ReadCounter
 232              	.LVL40:
 233 0130 201A     		subs	r0, r4, r0
 234 0132 80B2     		uxth	r0, r0
 235 0134 224B     		ldr	r3, .L16
 236 0136 1880     		strh	r0, [r3]	@ movhi
 237              	.L13:
  85:ZumoLibrary/Reflectance.c ****         }
  86:ZumoLibrary/Reflectance.c ****         
  87:ZumoLibrary/Reflectance.c ****         
  88:ZumoLibrary/Reflectance.c ****         Timer_Reset_Write(1);
 238              		.loc 1 88 0
 239 0138 0120     		movs	r0, #1
 240 013a FFF7FEFF 		bl	Timer_Reset_Write
 241              	.LVL41:
  89:ZumoLibrary/Reflectance.c ****         
  90:ZumoLibrary/Reflectance.c ****         R1_SetDriveMode(PIN_DM_STRONG);
 242              		.loc 1 90 0
 243 013e 0C20     		movs	r0, #12
 244 0140 FFF7FEFF 		bl	R1_SetDriveMode
 245              	.LVL42:
  91:ZumoLibrary/Reflectance.c ****         R1_Write(1);
 246              		.loc 1 91 0
 247 0144 0120     		movs	r0, #1
 248 0146 FFF7FEFF 		bl	R1_Write
 249              	.LVL43:
  92:ZumoLibrary/Reflectance.c ****         R2_SetDriveMode(PIN_DM_STRONG);
 250              		.loc 1 92 0
ARM GAS  C:\Users\samue\AppData\Local\Temp\ccIol5QH.s 			page 7


 251 014a 0C20     		movs	r0, #12
 252 014c FFF7FEFF 		bl	R2_SetDriveMode
 253              	.LVL44:
  93:ZumoLibrary/Reflectance.c ****         R2_Write(1);
 254              		.loc 1 93 0
 255 0150 0120     		movs	r0, #1
 256 0152 FFF7FEFF 		bl	R2_Write
 257              	.LVL45:
  94:ZumoLibrary/Reflectance.c ****         R3_SetDriveMode(PIN_DM_STRONG);
 258              		.loc 1 94 0
 259 0156 0C20     		movs	r0, #12
 260 0158 FFF7FEFF 		bl	R3_SetDriveMode
 261              	.LVL46:
  95:ZumoLibrary/Reflectance.c ****         R3_Write(1);
 262              		.loc 1 95 0
 263 015c 0120     		movs	r0, #1
 264 015e FFF7FEFF 		bl	R3_Write
 265              	.LVL47:
  96:ZumoLibrary/Reflectance.c ****         L3_SetDriveMode(PIN_DM_STRONG);
 266              		.loc 1 96 0
 267 0162 0C20     		movs	r0, #12
 268 0164 FFF7FEFF 		bl	L3_SetDriveMode
 269              	.LVL48:
  97:ZumoLibrary/Reflectance.c ****         L3_Write(1);
 270              		.loc 1 97 0
 271 0168 0120     		movs	r0, #1
 272 016a FFF7FEFF 		bl	L3_Write
 273              	.LVL49:
  98:ZumoLibrary/Reflectance.c ****         L2_SetDriveMode(PIN_DM_STRONG);
 274              		.loc 1 98 0
 275 016e 0C20     		movs	r0, #12
 276 0170 FFF7FEFF 		bl	L2_SetDriveMode
 277              	.LVL50:
  99:ZumoLibrary/Reflectance.c ****         L2_Write(1);
 278              		.loc 1 99 0
 279 0174 0120     		movs	r0, #1
 280 0176 FFF7FEFF 		bl	L2_Write
 281              	.LVL51:
 100:ZumoLibrary/Reflectance.c ****         L1_SetDriveMode(PIN_DM_STRONG);
 282              		.loc 1 100 0
 283 017a 0C20     		movs	r0, #12
 284 017c FFF7FEFF 		bl	L1_SetDriveMode
 285              	.LVL52:
 101:ZumoLibrary/Reflectance.c ****         L1_Write(1);
 286              		.loc 1 101 0
 287 0180 0120     		movs	r0, #1
 288 0182 FFF7FEFF 		bl	L1_Write
 289              	.LVL53:
 102:ZumoLibrary/Reflectance.c ****         Timer_Reset_Write(0);
 290              		.loc 1 102 0
 291 0186 0020     		movs	r0, #0
 292 0188 FFF7FEFF 		bl	Timer_Reset_Write
 293              	.LVL54:
 103:ZumoLibrary/Reflectance.c **** 
 104:ZumoLibrary/Reflectance.c ****         CyDelayUs(10);
 294              		.loc 1 104 0
 295 018c 0A20     		movs	r0, #10
ARM GAS  C:\Users\samue\AppData\Local\Temp\ccIol5QH.s 			page 8


 296 018e FFF7FEFF 		bl	CyDelayUs
 297              	.LVL55:
 105:ZumoLibrary/Reflectance.c ****         R1_SetDriveMode(PIN_DM_DIG_HIZ);
 298              		.loc 1 105 0
 299 0192 0220     		movs	r0, #2
 300 0194 FFF7FEFF 		bl	R1_SetDriveMode
 301              	.LVL56:
 106:ZumoLibrary/Reflectance.c ****         R2_SetDriveMode(PIN_DM_DIG_HIZ);
 302              		.loc 1 106 0
 303 0198 0220     		movs	r0, #2
 304 019a FFF7FEFF 		bl	R2_SetDriveMode
 305              	.LVL57:
 107:ZumoLibrary/Reflectance.c ****         R3_SetDriveMode(PIN_DM_DIG_HIZ);
 306              		.loc 1 107 0
 307 019e 0220     		movs	r0, #2
 308 01a0 FFF7FEFF 		bl	R3_SetDriveMode
 309              	.LVL58:
 108:ZumoLibrary/Reflectance.c ****         L3_SetDriveMode(PIN_DM_DIG_HIZ);
 310              		.loc 1 108 0
 311 01a4 0220     		movs	r0, #2
 312 01a6 FFF7FEFF 		bl	L3_SetDriveMode
 313              	.LVL59:
 109:ZumoLibrary/Reflectance.c ****         L2_SetDriveMode(PIN_DM_DIG_HIZ);
 314              		.loc 1 109 0
 315 01aa 0220     		movs	r0, #2
 316 01ac FFF7FEFF 		bl	L2_SetDriveMode
 317              	.LVL60:
 110:ZumoLibrary/Reflectance.c ****         L1_SetDriveMode(PIN_DM_DIG_HIZ);
 318              		.loc 1 110 0
 319 01b0 0220     		movs	r0, #2
 320 01b2 FFF7FEFF 		bl	L1_SetDriveMode
 321              	.LVL61:
 111:ZumoLibrary/Reflectance.c ****         vTaskDelayUntil(&prev, 1);
 322              		.loc 1 111 0
 323 01b6 0121     		movs	r1, #1
 324 01b8 01A8     		add	r0, sp, #4
 325 01ba FFF7FEFF 		bl	vTaskDelayUntil
 326              	.LVL62:
 112:ZumoLibrary/Reflectance.c ****     }
 327              		.loc 1 112 0
 328 01be 25E7     		b	.L14
 329              	.L17:
 330              		.align	2
 331              	.L16:
 332 01c0 00000000 		.word	.LANCHOR0
 333              		.cfi_endproc
 334              	.LFE69:
 335              		.size	ReflectanceTask, .-ReflectanceTask
 336              		.section	.text.reflectance_start,"ax",%progbits
 337              		.align	2
 338              		.global	reflectance_start
 339              		.thumb
 340              		.thumb_func
 341              		.type	reflectance_start, %function
 342              	reflectance_start:
 343              	.LFB70:
 113:ZumoLibrary/Reflectance.c **** }
ARM GAS  C:\Users\samue\AppData\Local\Temp\ccIol5QH.s 			page 9


 114:ZumoLibrary/Reflectance.c **** 
 115:ZumoLibrary/Reflectance.c **** 
 116:ZumoLibrary/Reflectance.c **** /**
 117:ZumoLibrary/Reflectance.c **** * @brief    Starting Reflectance Sensor
 118:ZumoLibrary/Reflectance.c **** * @details 
 119:ZumoLibrary/Reflectance.c **** */
 120:ZumoLibrary/Reflectance.c **** void reflectance_start()
 121:ZumoLibrary/Reflectance.c **** {
 344              		.loc 1 121 0
 345              		.cfi_startproc
 346              		@ args = 0, pretend = 0, frame = 0
 347              		@ frame_needed = 0, uses_anonymous_args = 0
 122:ZumoLibrary/Reflectance.c ****     if(ReflectanceHandle == NULL) {
 348              		.loc 1 122 0
 349 0000 104B     		ldr	r3, .L22
 350 0002 DB68     		ldr	r3, [r3, #12]
 351 0004 EBB9     		cbnz	r3, .L21
 121:ZumoLibrary/Reflectance.c ****     if(ReflectanceHandle == NULL) {
 352              		.loc 1 121 0
 353 0006 00B5     		push	{lr}
 354              		.cfi_def_cfa_offset 4
 355              		.cfi_offset 14, -4
 356 0008 83B0     		sub	sp, sp, #12
 357              		.cfi_def_cfa_offset 16
 123:ZumoLibrary/Reflectance.c ****         Refl_led_Write(1);
 358              		.loc 1 123 0
 359 000a 0120     		movs	r0, #1
 360 000c FFF7FEFF 		bl	Refl_led_Write
 361              	.LVL63:
 124:ZumoLibrary/Reflectance.c **** 
 125:ZumoLibrary/Reflectance.c ****         Timer_R1_Start();
 362              		.loc 1 125 0
 363 0010 FFF7FEFF 		bl	Timer_R1_Start
 364              	.LVL64:
 126:ZumoLibrary/Reflectance.c ****         Timer_R2_Start();
 365              		.loc 1 126 0
 366 0014 FFF7FEFF 		bl	Timer_R2_Start
 367              	.LVL65:
 127:ZumoLibrary/Reflectance.c ****         Timer_R3_Start();
 368              		.loc 1 127 0
 369 0018 FFF7FEFF 		bl	Timer_R3_Start
 370              	.LVL66:
 128:ZumoLibrary/Reflectance.c ****         Timer_L3_Start();
 371              		.loc 1 128 0
 372 001c FFF7FEFF 		bl	Timer_L3_Start
 373              	.LVL67:
 129:ZumoLibrary/Reflectance.c ****         Timer_L2_Start();
 374              		.loc 1 129 0
 375 0020 FFF7FEFF 		bl	Timer_L2_Start
 376              	.LVL68:
 130:ZumoLibrary/Reflectance.c ****         Timer_L1_Start();
 377              		.loc 1 130 0
 378 0024 FFF7FEFF 		bl	Timer_L1_Start
 379              	.LVL69:
 131:ZumoLibrary/Reflectance.c ****         // task runs at highest priority and wakes up every millisecond but uses very little CPU ti
 132:ZumoLibrary/Reflectance.c ****         xTaskCreate( ReflectanceTask, "Reflectance", configMINIMAL_STACK_SIZE, NULL, tskIDLE_PRIORI
 380              		.loc 1 132 0
ARM GAS  C:\Users\samue\AppData\Local\Temp\ccIol5QH.s 			page 10


 381 0028 074B     		ldr	r3, .L22+4
 382 002a 0193     		str	r3, [sp, #4]
 383 002c 0323     		movs	r3, #3
 384 002e 0093     		str	r3, [sp]
 385 0030 0023     		movs	r3, #0
 386 0032 6422     		movs	r2, #100
 387 0034 0549     		ldr	r1, .L22+8
 388 0036 0648     		ldr	r0, .L22+12
 389 0038 FFF7FEFF 		bl	xTaskCreate
 390              	.LVL70:
 133:ZumoLibrary/Reflectance.c ****     }
 134:ZumoLibrary/Reflectance.c **** }
 391              		.loc 1 134 0
 392 003c 03B0     		add	sp, sp, #12
 393              		.cfi_def_cfa_offset 4
 394              		@ sp needed
 395 003e 5DF804FB 		ldr	pc, [sp], #4
 396              	.L21:
 397              		.cfi_def_cfa_offset 0
 398              		.cfi_restore 14
 399 0042 7047     		bx	lr
 400              	.L23:
 401              		.align	2
 402              	.L22:
 403 0044 00000000 		.word	.LANCHOR0
 404 0048 0C000000 		.word	.LANCHOR0+12
 405 004c 00000000 		.word	.LC0
 406 0050 00000000 		.word	ReflectanceTask
 407              		.cfi_endproc
 408              	.LFE70:
 409              		.size	reflectance_start, .-reflectance_start
 410              		.section	.text.reflectance_read,"ax",%progbits
 411              		.align	2
 412              		.global	reflectance_read
 413              		.thumb
 414              		.thumb_func
 415              		.type	reflectance_read, %function
 416              	reflectance_read:
 417              	.LFB71:
 135:ZumoLibrary/Reflectance.c **** 
 136:ZumoLibrary/Reflectance.c **** 
 137:ZumoLibrary/Reflectance.c **** /**
 138:ZumoLibrary/Reflectance.c **** * @brief    Read reflectance sensor values
 139:ZumoLibrary/Reflectance.c **** * @details
 140:ZumoLibrary/Reflectance.c **** */
 141:ZumoLibrary/Reflectance.c **** void reflectance_read(struct sensors_ *values)
 142:ZumoLibrary/Reflectance.c **** {
 418              		.loc 1 142 0
 419              		.cfi_startproc
 420              		@ args = 0, pretend = 0, frame = 0
 421              		@ frame_needed = 0, uses_anonymous_args = 0
 422              		@ link register save eliminated.
 423              	.LVL71:
 424 0000 10B4     		push	{r4}
 425              		.cfi_def_cfa_offset 4
 426              		.cfi_offset 4, -4
 427 0002 0446     		mov	r4, r0
ARM GAS  C:\Users\samue\AppData\Local\Temp\ccIol5QH.s 			page 11


 143:ZumoLibrary/Reflectance.c ****     *values = sensors;
 428              		.loc 1 143 0
 429 0004 034B     		ldr	r3, .L26
 430 0006 07CB     		ldmia	r3!, {r0, r1, r2}
 431              	.LVL72:
 432 0008 2060     		str	r0, [r4]	@ unaligned
 433 000a 6160     		str	r1, [r4, #4]	@ unaligned
 434 000c A260     		str	r2, [r4, #8]	@ unaligned
 144:ZumoLibrary/Reflectance.c **** }
 435              		.loc 1 144 0
 436 000e 10BC     		pop	{r4}
 437              		.cfi_restore 4
 438              		.cfi_def_cfa_offset 0
 439              	.LVL73:
 440 0010 7047     		bx	lr
 441              	.L27:
 442 0012 00BF     		.align	2
 443              	.L26:
 444 0014 00000000 		.word	.LANCHOR0
 445              		.cfi_endproc
 446              	.LFE71:
 447              		.size	reflectance_read, .-reflectance_read
 448              		.section	.text.reflectance_digital,"ax",%progbits
 449              		.align	2
 450              		.global	reflectance_digital
 451              		.thumb
 452              		.thumb_func
 453              		.type	reflectance_digital, %function
 454              	reflectance_digital:
 455              	.LFB72:
 145:ZumoLibrary/Reflectance.c **** 
 146:ZumoLibrary/Reflectance.c **** 
 147:ZumoLibrary/Reflectance.c **** /**
 148:ZumoLibrary/Reflectance.c **** * @brief    Making Reflectance Sensor's period to digital
 149:ZumoLibrary/Reflectance.c **** * @details
 150:ZumoLibrary/Reflectance.c **** */
 151:ZumoLibrary/Reflectance.c **** void reflectance_digital(struct sensors_ *digital)
 152:ZumoLibrary/Reflectance.c **** {
 456              		.loc 1 152 0
 457              		.cfi_startproc
 458              		@ args = 0, pretend = 0, frame = 0
 459              		@ frame_needed = 0, uses_anonymous_args = 0
 460              		@ link register save eliminated.
 461              	.LVL74:
 153:ZumoLibrary/Reflectance.c ****     //if the results of reflectance_period function is over threshold, set digital_sensor_value to 
 154:ZumoLibrary/Reflectance.c ****     if(sensors.l3 < threshold.l3)
 462              		.loc 1 154 0
 463 0000 244B     		ldr	r3, .L41
 464 0002 1B88     		ldrh	r3, [r3]
 465 0004 9BB2     		uxth	r3, r3
 466 0006 244A     		ldr	r2, .L41+4
 467 0008 1288     		ldrh	r2, [r2]
 468 000a 9342     		cmp	r3, r2
 469 000c 02D2     		bcs	.L29
 155:ZumoLibrary/Reflectance.c ****         digital->l3 = 0;
 470              		.loc 1 155 0
 471 000e 0023     		movs	r3, #0
ARM GAS  C:\Users\samue\AppData\Local\Temp\ccIol5QH.s 			page 12


 472 0010 0380     		strh	r3, [r0]	@ movhi
 473 0012 01E0     		b	.L30
 474              	.L29:
 156:ZumoLibrary/Reflectance.c ****     else
 157:ZumoLibrary/Reflectance.c ****         digital->l3 = 1;
 475              		.loc 1 157 0
 476 0014 0123     		movs	r3, #1
 477 0016 0380     		strh	r3, [r0]	@ movhi
 478              	.L30:
 158:ZumoLibrary/Reflectance.c ****     
 159:ZumoLibrary/Reflectance.c ****     if(sensors.l2 < threshold.l2)
 479              		.loc 1 159 0
 480 0018 1E4B     		ldr	r3, .L41
 481 001a 5B88     		ldrh	r3, [r3, #2]
 482 001c 9BB2     		uxth	r3, r3
 483 001e 1E4A     		ldr	r2, .L41+4
 484 0020 5288     		ldrh	r2, [r2, #2]
 485 0022 9342     		cmp	r3, r2
 486 0024 02D2     		bcs	.L31
 160:ZumoLibrary/Reflectance.c ****         digital->l2 = 0;
 487              		.loc 1 160 0
 488 0026 0023     		movs	r3, #0
 489 0028 4380     		strh	r3, [r0, #2]	@ movhi
 490 002a 01E0     		b	.L32
 491              	.L31:
 161:ZumoLibrary/Reflectance.c ****     else
 162:ZumoLibrary/Reflectance.c ****         digital->l2 = 1;
 492              		.loc 1 162 0
 493 002c 0123     		movs	r3, #1
 494 002e 4380     		strh	r3, [r0, #2]	@ movhi
 495              	.L32:
 163:ZumoLibrary/Reflectance.c ****     
 164:ZumoLibrary/Reflectance.c ****     if(sensors.l1 < threshold.l1)
 496              		.loc 1 164 0
 497 0030 184B     		ldr	r3, .L41
 498 0032 9B88     		ldrh	r3, [r3, #4]
 499 0034 9BB2     		uxth	r3, r3
 500 0036 184A     		ldr	r2, .L41+4
 501 0038 9288     		ldrh	r2, [r2, #4]
 502 003a 9342     		cmp	r3, r2
 503 003c 02D2     		bcs	.L33
 165:ZumoLibrary/Reflectance.c ****         digital->l1 = 0;
 504              		.loc 1 165 0
 505 003e 0023     		movs	r3, #0
 506 0040 8380     		strh	r3, [r0, #4]	@ movhi
 507 0042 01E0     		b	.L34
 508              	.L33:
 166:ZumoLibrary/Reflectance.c ****     else
 167:ZumoLibrary/Reflectance.c ****         digital->l1 = 1;
 509              		.loc 1 167 0
 510 0044 0123     		movs	r3, #1
 511 0046 8380     		strh	r3, [r0, #4]	@ movhi
 512              	.L34:
 168:ZumoLibrary/Reflectance.c ****     
 169:ZumoLibrary/Reflectance.c ****     if(sensors.r1 < threshold.r1)
 513              		.loc 1 169 0
 514 0048 124B     		ldr	r3, .L41
ARM GAS  C:\Users\samue\AppData\Local\Temp\ccIol5QH.s 			page 13


 515 004a DB88     		ldrh	r3, [r3, #6]
 516 004c 9BB2     		uxth	r3, r3
 517 004e 124A     		ldr	r2, .L41+4
 518 0050 D288     		ldrh	r2, [r2, #6]
 519 0052 9342     		cmp	r3, r2
 520 0054 02D2     		bcs	.L35
 170:ZumoLibrary/Reflectance.c ****         digital->r1 = 0;
 521              		.loc 1 170 0
 522 0056 0023     		movs	r3, #0
 523 0058 C380     		strh	r3, [r0, #6]	@ movhi
 524 005a 01E0     		b	.L36
 525              	.L35:
 171:ZumoLibrary/Reflectance.c ****     else
 172:ZumoLibrary/Reflectance.c ****         digital->r1 = 1;
 526              		.loc 1 172 0
 527 005c 0123     		movs	r3, #1
 528 005e C380     		strh	r3, [r0, #6]	@ movhi
 529              	.L36:
 173:ZumoLibrary/Reflectance.c ****     
 174:ZumoLibrary/Reflectance.c ****     if(sensors.r2 < threshold.r2)
 530              		.loc 1 174 0
 531 0060 0C4B     		ldr	r3, .L41
 532 0062 1B89     		ldrh	r3, [r3, #8]
 533 0064 9BB2     		uxth	r3, r3
 534 0066 0C4A     		ldr	r2, .L41+4
 535 0068 1289     		ldrh	r2, [r2, #8]
 536 006a 9342     		cmp	r3, r2
 537 006c 02D2     		bcs	.L37
 175:ZumoLibrary/Reflectance.c ****         digital->r2 = 0;
 538              		.loc 1 175 0
 539 006e 0023     		movs	r3, #0
 540 0070 0381     		strh	r3, [r0, #8]	@ movhi
 541 0072 01E0     		b	.L38
 542              	.L37:
 176:ZumoLibrary/Reflectance.c ****     else
 177:ZumoLibrary/Reflectance.c ****         digital->r2 = 1;
 543              		.loc 1 177 0
 544 0074 0123     		movs	r3, #1
 545 0076 0381     		strh	r3, [r0, #8]	@ movhi
 546              	.L38:
 178:ZumoLibrary/Reflectance.c ****     
 179:ZumoLibrary/Reflectance.c ****     if(sensors.r3 < threshold.r3)
 547              		.loc 1 179 0
 548 0078 064B     		ldr	r3, .L41
 549 007a 5B89     		ldrh	r3, [r3, #10]
 550 007c 9BB2     		uxth	r3, r3
 551 007e 064A     		ldr	r2, .L41+4
 552 0080 5289     		ldrh	r2, [r2, #10]
 553 0082 9342     		cmp	r3, r2
 554 0084 02D2     		bcs	.L39
 180:ZumoLibrary/Reflectance.c ****         digital->r3 = 0;
 555              		.loc 1 180 0
 556 0086 0023     		movs	r3, #0
 557 0088 4381     		strh	r3, [r0, #10]	@ movhi
 558 008a 7047     		bx	lr
 559              	.L39:
 181:ZumoLibrary/Reflectance.c ****     else
ARM GAS  C:\Users\samue\AppData\Local\Temp\ccIol5QH.s 			page 14


 182:ZumoLibrary/Reflectance.c ****         digital->r3 = 1;
 560              		.loc 1 182 0
 561 008c 0123     		movs	r3, #1
 562 008e 4381     		strh	r3, [r0, #10]	@ movhi
 563 0090 7047     		bx	lr
 564              	.L42:
 565 0092 00BF     		.align	2
 566              	.L41:
 567 0094 00000000 		.word	.LANCHOR0
 568 0098 00000000 		.word	.LANCHOR1
 569              		.cfi_endproc
 570              	.LFE72:
 571              		.size	reflectance_digital, .-reflectance_digital
 572              		.section	.text.reflectance_set_threshold,"ax",%progbits
 573              		.align	2
 574              		.global	reflectance_set_threshold
 575              		.thumb
 576              		.thumb_func
 577              		.type	reflectance_set_threshold, %function
 578              	reflectance_set_threshold:
 579              	.LFB73:
 183:ZumoLibrary/Reflectance.c ****         
 184:ZumoLibrary/Reflectance.c **** }
 185:ZumoLibrary/Reflectance.c **** 
 186:ZumoLibrary/Reflectance.c **** void reflectance_set_threshold(uint16_t l3, uint16_t l2, uint16_t l1, uint16_t r1, uint16_t r2, uin
 187:ZumoLibrary/Reflectance.c **** {
 580              		.loc 1 187 0
 581              		.cfi_startproc
 582              		@ args = 8, pretend = 0, frame = 0
 583              		@ frame_needed = 0, uses_anonymous_args = 0
 584              		@ link register save eliminated.
 585              	.LVL75:
 586 0000 10B4     		push	{r4}
 587              		.cfi_def_cfa_offset 4
 588              		.cfi_offset 4, -4
 188:ZumoLibrary/Reflectance.c ****     threshold.l3 = l3;
 589              		.loc 1 188 0
 590 0002 064C     		ldr	r4, .L45
 591 0004 2080     		strh	r0, [r4]	@ movhi
 189:ZumoLibrary/Reflectance.c ****     threshold.l2 = l2;
 592              		.loc 1 189 0
 593 0006 6180     		strh	r1, [r4, #2]	@ movhi
 190:ZumoLibrary/Reflectance.c ****     threshold.l1 = l1;
 594              		.loc 1 190 0
 595 0008 A280     		strh	r2, [r4, #4]	@ movhi
 191:ZumoLibrary/Reflectance.c ****     threshold.r3 = r3;
 596              		.loc 1 191 0
 597 000a BDF80820 		ldrh	r2, [sp, #8]
 598              	.LVL76:
 599 000e 6281     		strh	r2, [r4, #10]	@ movhi
 192:ZumoLibrary/Reflectance.c ****     threshold.r2 = r2;
 600              		.loc 1 192 0
 601 0010 BDF80420 		ldrh	r2, [sp, #4]
 602 0014 2281     		strh	r2, [r4, #8]	@ movhi
 193:ZumoLibrary/Reflectance.c ****     threshold.r1 = r1;
 603              		.loc 1 193 0
 604 0016 E380     		strh	r3, [r4, #6]	@ movhi
ARM GAS  C:\Users\samue\AppData\Local\Temp\ccIol5QH.s 			page 15


 194:ZumoLibrary/Reflectance.c **** }
 605              		.loc 1 194 0
 606 0018 10BC     		pop	{r4}
 607              		.cfi_restore 4
 608              		.cfi_def_cfa_offset 0
 609              	.LVL77:
 610 001a 7047     		bx	lr
 611              	.L46:
 612              		.align	2
 613              	.L45:
 614 001c 00000000 		.word	.LANCHOR1
 615              		.cfi_endproc
 616              	.LFE73:
 617              		.size	reflectance_set_threshold, .-reflectance_set_threshold
 618              		.data
 619              		.align	2
 620              		.set	.LANCHOR1,. + 0
 621              		.type	threshold, %object
 622              		.size	threshold, 12
 623              	threshold:
 624 0000 1027     		.short	10000
 625 0002 1027     		.short	10000
 626 0004 1027     		.short	10000
 627 0006 1027     		.short	10000
 628 0008 1027     		.short	10000
 629 000a 1027     		.short	10000
 630              		.section	.rodata.str1.4,"aMS",%progbits,1
 631              		.align	2
 632              	.LC0:
 633 0000 5265666C 		.ascii	"Reflectance\000"
 633      65637461 
 633      6E636500 
 634              		.bss
 635              		.align	2
 636              		.set	.LANCHOR0,. + 0
 637              		.type	sensors, %object
 638              		.size	sensors, 12
 639              	sensors:
 640 0000 00000000 		.space	12
 640      00000000 
 640      00000000 
 641              		.type	ReflectanceHandle, %object
 642              		.size	ReflectanceHandle, 4
 643              	ReflectanceHandle:
 644 000c 00000000 		.space	4
 645              		.type	digital_sensor_value, %object
 646              		.size	digital_sensor_value, 12
 647              	digital_sensor_value:
 648 0010 00000000 		.space	12
 648      00000000 
 648      00000000 
 649              		.text
 650              	.Letext0:
 651              		.file 2 "c:\\program files (x86)\\cypress\\psoc creator\\4.2\\psoc creator\\import\\gnu\\arm\\5.4.
 652              		.file 3 "c:\\program files (x86)\\cypress\\psoc creator\\4.2\\psoc creator\\import\\gnu\\arm\\5.4.
 653              		.file 4 "Generated_Source\\PSoC5/cytypes.h"
 654              		.file 5 "..\\FreeRTOS\\Source\\portable\\GCC\\ARM_CM3/portmacro.h"
ARM GAS  C:\Users\samue\AppData\Local\Temp\ccIol5QH.s 			page 16


 655              		.file 6 "..\\FreeRTOS\\Source\\include/task.h"
 656              		.file 7 "ZumoLibrary\\Reflectance.h"
 657              		.file 8 "Generated_Source\\PSoC5/Timer_R1.h"
 658              		.file 9 "Generated_Source\\PSoC5/Timer_R2.h"
 659              		.file 10 "Generated_Source\\PSoC5/Timer_R3.h"
 660              		.file 11 "Generated_Source\\PSoC5/Timer_L3.h"
 661              		.file 12 "Generated_Source\\PSoC5/Timer_L2.h"
 662              		.file 13 "Generated_Source\\PSoC5/Timer_L1.h"
 663              		.file 14 "Generated_Source\\PSoC5/Timer_Reset.h"
 664              		.file 15 "Generated_Source\\PSoC5/R1.h"
 665              		.file 16 "Generated_Source\\PSoC5/R2.h"
 666              		.file 17 "Generated_Source\\PSoC5/R3.h"
 667              		.file 18 "Generated_Source\\PSoC5/L3.h"
 668              		.file 19 "Generated_Source\\PSoC5/L2.h"
 669              		.file 20 "Generated_Source\\PSoC5/L1.h"
 670              		.file 21 "Generated_Source\\PSoC5/CyLib.h"
 671              		.file 22 "Generated_Source\\PSoC5/Refl_led.h"
 672              		.file 23 "Generated_Source\\PSoC5/core_cm3.h"