ARM GAS  C:\Users\samue\AppData\Local\Temp\ccu2gjJI.s 			page 1


   1              		.syntax unified
   2              		.cpu cortex-m3
   3              		.fpu softvfp
   4              		.eabi_attribute 20, 1
   5              		.eabi_attribute 21, 1
   6              		.eabi_attribute 23, 3
   7              		.eabi_attribute 24, 1
   8              		.eabi_attribute 25, 1
   9              		.eabi_attribute 26, 1
  10              		.eabi_attribute 30, 1
  11              		.eabi_attribute 34, 1
  12              		.eabi_attribute 18, 4
  13              		.thumb
  14              		.syntax unified
  15              		.file	"Retarget.c"
  16              		.text
  17              	.Ltext0:
  18              		.cfi_sections	.debug_frame
  19              		.section	.text.RetargetInit,"ax",%progbits
  20              		.align	2
  21              		.global	RetargetInit
  22              		.thumb
  23              		.thumb_func
  24              		.type	RetargetInit, %function
  25              	RetargetInit:
  26              	.LFB69:
  27              		.file 1 "ZumoLibrary\\Retarget.c"
   1:ZumoLibrary/Retarget.c **** #include <stdio.h>
   2:ZumoLibrary/Retarget.c **** #include "FreeRTOS.h"
   3:ZumoLibrary/Retarget.c **** #include "task.h"
   4:ZumoLibrary/Retarget.c **** #include "semphr.h"
   5:ZumoLibrary/Retarget.c **** #include "project.h"
   6:ZumoLibrary/Retarget.c **** #include "serial1.h"
   7:ZumoLibrary/Retarget.c **** 
   8:ZumoLibrary/Retarget.c **** static xSemaphoreHandle readMutex;
   9:ZumoLibrary/Retarget.c **** 
  10:ZumoLibrary/Retarget.c **** void RetargetInit(void)
  11:ZumoLibrary/Retarget.c **** {
  28              		.loc 1 11 0
  29              		.cfi_startproc
  30              		@ args = 0, pretend = 0, frame = 0
  31              		@ frame_needed = 0, uses_anonymous_args = 0
  32 0000 08B5     		push	{r3, lr}
  33              		.cfi_def_cfa_offset 8
  34              		.cfi_offset 3, -8
  35              		.cfi_offset 14, -4
  12:ZumoLibrary/Retarget.c ****     readMutex = xSemaphoreCreateMutex();;
  36              		.loc 1 12 0
  37 0002 0120     		movs	r0, #1
  38 0004 FFF7FEFF 		bl	xQueueCreateMutex
  39              	.LVL0:
  40 0008 014B     		ldr	r3, .L3
  41 000a 1860     		str	r0, [r3]
  42 000c 08BD     		pop	{r3, pc}
  43              	.L4:
  44 000e 00BF     		.align	2
  45              	.L3:
ARM GAS  C:\Users\samue\AppData\Local\Temp\ccu2gjJI.s 			page 2


  46 0010 00000000 		.word	.LANCHOR0
  47              		.cfi_endproc
  48              	.LFE69:
  49              		.size	RetargetInit, .-RetargetInit
  50              		.section	.text._write,"ax",%progbits
  51              		.align	2
  52              		.global	_write
  53              		.thumb
  54              		.thumb_func
  55              		.type	_write, %function
  56              	_write:
  57              	.LFB70:
  13:ZumoLibrary/Retarget.c **** }
  14:ZumoLibrary/Retarget.c **** 
  15:ZumoLibrary/Retarget.c **** 
  16:ZumoLibrary/Retarget.c **** /* Don't remove the functions below */
  17:ZumoLibrary/Retarget.c **** // writing is handled in debug_uart task
  18:ZumoLibrary/Retarget.c **** int _write(int file, char *ptr, int len)
  19:ZumoLibrary/Retarget.c **** {
  58              		.loc 1 19 0
  59              		.cfi_startproc
  60              		@ args = 0, pretend = 0, frame = 0
  61              		@ frame_needed = 0, uses_anonymous_args = 0
  62              	.LVL1:
  63 0000 F8B5     		push	{r3, r4, r5, r6, r7, lr}
  64              		.cfi_def_cfa_offset 24
  65              		.cfi_offset 3, -24
  66              		.cfi_offset 4, -20
  67              		.cfi_offset 5, -16
  68              		.cfi_offset 6, -12
  69              		.cfi_offset 7, -8
  70              		.cfi_offset 14, -4
  71 0002 0C46     		mov	r4, r1
  72 0004 1746     		mov	r7, r2
  73              	.LVL2:
  20:ZumoLibrary/Retarget.c ****     (void)file; /* Parameter is not used, suppress unused argument warning */
  21:ZumoLibrary/Retarget.c **** 	int n;
  22:ZumoLibrary/Retarget.c **** 	for(n = 0; n < len; n++) {
  74              		.loc 1 22 0
  75 0006 0025     		movs	r5, #0
  76 0008 0FE0     		b	.L6
  77              	.LVL3:
  78              	.L8:
  23:ZumoLibrary/Retarget.c ****         if(*ptr == '\n') xSerial1PutChar('\r', portMAX_DELAY);
  79              		.loc 1 23 0
  80 000a 2378     		ldrb	r3, [r4]	@ zero_extendqisi2
  81 000c 0A2B     		cmp	r3, #10
  82 000e 04D1     		bne	.L7
  83              		.loc 1 23 0 is_stmt 0 discriminator 1
  84 0010 4FF0FF31 		mov	r1, #-1
  85 0014 0D20     		movs	r0, #13
  86 0016 FFF7FEFF 		bl	xSerial1PutChar
  87              	.LVL4:
  88              	.L7:
  24:ZumoLibrary/Retarget.c **** 		xSerial1PutChar(*ptr++, portMAX_DELAY);
  89              		.loc 1 24 0 is_stmt 1 discriminator 2
  90 001a 661C     		adds	r6, r4, #1
ARM GAS  C:\Users\samue\AppData\Local\Temp\ccu2gjJI.s 			page 3


  91              	.LVL5:
  92 001c 4FF0FF31 		mov	r1, #-1
  93 0020 2078     		ldrb	r0, [r4]	@ zero_extendqisi2
  94 0022 FFF7FEFF 		bl	xSerial1PutChar
  95              	.LVL6:
  22:ZumoLibrary/Retarget.c ****         if(*ptr == '\n') xSerial1PutChar('\r', portMAX_DELAY);
  96              		.loc 1 22 0 discriminator 2
  97 0026 0135     		adds	r5, r5, #1
  98              	.LVL7:
  99              		.loc 1 24 0 discriminator 2
 100 0028 3446     		mov	r4, r6
 101              	.LVL8:
 102              	.L6:
  22:ZumoLibrary/Retarget.c ****         if(*ptr == '\n') xSerial1PutChar('\r', portMAX_DELAY);
 103              		.loc 1 22 0 discriminator 1
 104 002a BD42     		cmp	r5, r7
 105 002c EDDB     		blt	.L8
  25:ZumoLibrary/Retarget.c **** 	}
  26:ZumoLibrary/Retarget.c **** 	return len;
  27:ZumoLibrary/Retarget.c **** }
 106              		.loc 1 27 0
 107 002e 3846     		mov	r0, r7
 108 0030 F8BD     		pop	{r3, r4, r5, r6, r7, pc}
 109              		.cfi_endproc
 110              	.LFE70:
 111              		.size	_write, .-_write
 112 0032 00BF     		.section	.text._read,"ax",%progbits
 113              		.align	2
 114              		.global	_read
 115              		.thumb
 116              		.thumb_func
 117              		.type	_read, %function
 118              	_read:
 119              	.LFB71:
  28:ZumoLibrary/Retarget.c **** 
  29:ZumoLibrary/Retarget.c **** #if 1
  30:ZumoLibrary/Retarget.c **** int _read (int file, char *ptr, int count)
  31:ZumoLibrary/Retarget.c **** {
 120              		.loc 1 31 0
 121              		.cfi_startproc
 122              		@ args = 0, pretend = 0, frame = 8
 123              		@ frame_needed = 0, uses_anonymous_args = 0
 124              	.LVL9:
 125 0000 70B5     		push	{r4, r5, r6, lr}
 126              		.cfi_def_cfa_offset 16
 127              		.cfi_offset 4, -16
 128              		.cfi_offset 5, -12
 129              		.cfi_offset 6, -8
 130              		.cfi_offset 14, -4
 131 0002 82B0     		sub	sp, sp, #8
 132              		.cfi_def_cfa_offset 24
 133 0004 0D46     		mov	r5, r1
 134 0006 1646     		mov	r6, r2
 135              	.LVL10:
  32:ZumoLibrary/Retarget.c ****     int chs = 0;
  33:ZumoLibrary/Retarget.c ****     char ch;
  34:ZumoLibrary/Retarget.c ****     static char buf[128];
ARM GAS  C:\Users\samue\AppData\Local\Temp\ccu2gjJI.s 			page 4


  35:ZumoLibrary/Retarget.c ****     static unsigned int cnt = 0;
  36:ZumoLibrary/Retarget.c ****     static unsigned int head = 0;
  37:ZumoLibrary/Retarget.c ****     static unsigned int tail = 0;
  38:ZumoLibrary/Retarget.c ****     static unsigned int lf = 0;
  39:ZumoLibrary/Retarget.c ****  
  40:ZumoLibrary/Retarget.c ****     (void)file; /* Parameter is not used, suppress unused argument warning */
  41:ZumoLibrary/Retarget.c ****     
  42:ZumoLibrary/Retarget.c ****     /* When _impure_ptr is switched on per task basis then scanf doesn't automatically flush buffer
  43:ZumoLibrary/Retarget.c ****      * This needs to be investigated further - may require digging into newlib/newlibnano sources 
  44:ZumoLibrary/Retarget.c ****     */
  45:ZumoLibrary/Retarget.c ****     fflush(stdout); /* krl: kludge to flush buffers on read - see note above */
 136              		.loc 1 45 0
 137 0008 3E4B     		ldr	r3, .L24
 138 000a 1B68     		ldr	r3, [r3]
 139 000c 9868     		ldr	r0, [r3, #8]
 140              	.LVL11:
 141 000e FFF7FEFF 		bl	fflush
 142              	.LVL12:
  46:ZumoLibrary/Retarget.c ****     
  47:ZumoLibrary/Retarget.c ****     if(xSemaphoreTake(readMutex, portMAX_DELAY) == pdFALSE) return 0;
 143              		.loc 1 47 0
 144 0012 4FF0FF31 		mov	r1, #-1
 145 0016 3C4B     		ldr	r3, .L24+4
 146 0018 1868     		ldr	r0, [r3]
 147 001a FFF7FEFF 		bl	xQueueSemaphoreTake
 148              	.LVL13:
 149 001e 0028     		cmp	r0, #0
 150 0020 6DD0     		beq	.L22
 151 0022 0024     		movs	r4, #0
 152 0024 60E0     		b	.L17
 153              	.LVL14:
 154              	.L21:
  48:ZumoLibrary/Retarget.c ****     
  49:ZumoLibrary/Retarget.c ****     while(count > 0) {
  50:ZumoLibrary/Retarget.c ****         //ch = UART_1_GetChar();
  51:ZumoLibrary/Retarget.c ****         if(xSerial1GetChar(&ch, 10)) {
 155              		.loc 1 51 0
 156 0026 0A21     		movs	r1, #10
 157 0028 0DF10700 		add	r0, sp, #7
 158 002c FFF7FEFF 		bl	xSerial1GetChar
 159              	.LVL15:
 160 0030 0028     		cmp	r0, #0
 161 0032 35D0     		beq	.L13
  52:ZumoLibrary/Retarget.c ****             xSerial1PutChar(ch, portMAX_DELAY);
 162              		.loc 1 52 0
 163 0034 4FF0FF31 		mov	r1, #-1
 164 0038 9DF80700 		ldrb	r0, [sp, #7]	@ zero_extendqisi2
 165 003c FFF7FEFF 		bl	xSerial1PutChar
 166              	.LVL16:
  53:ZumoLibrary/Retarget.c ****             if(ch == '\r') { /* convert CR to LF for processing, putty sends CR when Enter is press
 167              		.loc 1 53 0
 168 0040 9DF80730 		ldrb	r3, [sp, #7]	@ zero_extendqisi2
 169 0044 0D2B     		cmp	r3, #13
 170 0046 06D1     		bne	.L14
  54:ZumoLibrary/Retarget.c ****                 ch = '\n';
 171              		.loc 1 54 0
 172 0048 0A20     		movs	r0, #10
ARM GAS  C:\Users\samue\AppData\Local\Temp\ccu2gjJI.s 			page 5


 173 004a 8DF80700 		strb	r0, [sp, #7]
  55:ZumoLibrary/Retarget.c ****                 xSerial1PutChar(ch, portMAX_DELAY);
 174              		.loc 1 55 0
 175 004e 4FF0FF31 		mov	r1, #-1
 176 0052 FFF7FEFF 		bl	xSerial1PutChar
 177              	.LVL17:
 178              	.L14:
  56:ZumoLibrary/Retarget.c ****             }
  57:ZumoLibrary/Retarget.c ****             if(ch == 127) { /* backspace handling */
 179              		.loc 1 57 0
 180 0056 9DF80710 		ldrb	r1, [sp, #7]	@ zero_extendqisi2
 181 005a 7F29     		cmp	r1, #127
 182 005c 0BD1     		bne	.L15
  58:ZumoLibrary/Retarget.c ****                 if(cnt > 0) {
 183              		.loc 1 58 0
 184 005e 2A4B     		ldr	r3, .L24+4
 185 0060 5B68     		ldr	r3, [r3, #4]
 186 0062 EBB1     		cbz	r3, .L13
  59:ZumoLibrary/Retarget.c ****                     cnt--;
 187              		.loc 1 59 0
 188 0064 284A     		ldr	r2, .L24+4
 189 0066 013B     		subs	r3, r3, #1
 190 0068 5360     		str	r3, [r2, #4]
  60:ZumoLibrary/Retarget.c ****                     head = (head - 1) & 0x7F;
 191              		.loc 1 60 0
 192 006a 9368     		ldr	r3, [r2, #8]
 193 006c 013B     		subs	r3, r3, #1
 194 006e 03F07F03 		and	r3, r3, #127
 195 0072 9360     		str	r3, [r2, #8]
 196 0074 14E0     		b	.L13
 197              	.L15:
  61:ZumoLibrary/Retarget.c ****                 }
  62:ZumoLibrary/Retarget.c ****             }
  63:ZumoLibrary/Retarget.c ****             else { /* other characters: store and check for LF */
  64:ZumoLibrary/Retarget.c ****                 buf[head] = ch;
 198              		.loc 1 64 0
 199 0076 244A     		ldr	r2, .L24+4
 200 0078 9368     		ldr	r3, [r2, #8]
 201 007a D018     		adds	r0, r2, r3
 202 007c 0173     		strb	r1, [r0, #12]
  65:ZumoLibrary/Retarget.c ****                 head = (head + 1) & 0x7F;
 203              		.loc 1 65 0
 204 007e 0133     		adds	r3, r3, #1
 205 0080 03F07F03 		and	r3, r3, #127
 206 0084 9360     		str	r3, [r2, #8]
  66:ZumoLibrary/Retarget.c ****                 cnt++;
 207              		.loc 1 66 0
 208 0086 5368     		ldr	r3, [r2, #4]
 209 0088 0133     		adds	r3, r3, #1
 210 008a 5360     		str	r3, [r2, #4]
  67:ZumoLibrary/Retarget.c ****                 if(ch == '\n' || cnt >= 128) lf++;
 211              		.loc 1 67 0
 212 008c 0A29     		cmp	r1, #10
 213 008e 01D0     		beq	.L16
 214              		.loc 1 67 0 is_stmt 0 discriminator 2
 215 0090 7F2B     		cmp	r3, #127
 216 0092 05D9     		bls	.L13
ARM GAS  C:\Users\samue\AppData\Local\Temp\ccu2gjJI.s 			page 6


 217              	.L16:
 218              		.loc 1 67 0 discriminator 3
 219 0094 1C4A     		ldr	r2, .L24+4
 220 0096 D2F88C30 		ldr	r3, [r2, #140]
 221 009a 0133     		adds	r3, r3, #1
 222 009c C2F88C30 		str	r3, [r2, #140]
 223              	.L13:
  68:ZumoLibrary/Retarget.c ****             }
  69:ZumoLibrary/Retarget.c ****         }
  70:ZumoLibrary/Retarget.c ****         if(lf > 0) {
 224              		.loc 1 70 0 is_stmt 1
 225 00a0 194B     		ldr	r3, .L24+4
 226 00a2 D3F88C30 		ldr	r3, [r3, #140]
 227 00a6 FBB1     		cbz	r3, .L17
  71:ZumoLibrary/Retarget.c ****             if(cnt > 0) {
 228              		.loc 1 71 0
 229 00a8 174A     		ldr	r2, .L24+4
 230 00aa 5268     		ldr	r2, [r2, #4]
 231 00ac C2B1     		cbz	r2, .L18
  72:ZumoLibrary/Retarget.c ****                 if(buf[tail] == '\n') {
 232              		.loc 1 72 0
 233 00ae 1648     		ldr	r0, .L24+4
 234 00b0 D0F89010 		ldr	r1, [r0, #144]
 235 00b4 0844     		add	r0, r0, r1
 236 00b6 007B     		ldrb	r0, [r0, #12]	@ zero_extendqisi2
 237 00b8 0A28     		cmp	r0, #10
 238 00ba 04D1     		bne	.L19
  73:ZumoLibrary/Retarget.c ****                     lf--;
 239              		.loc 1 73 0
 240 00bc 013B     		subs	r3, r3, #1
 241 00be 124E     		ldr	r6, .L24+4
 242              	.LVL18:
 243 00c0 C6F88C30 		str	r3, [r6, #140]
 244              	.LVL19:
  74:ZumoLibrary/Retarget.c ****                     count = 0;
 245              		.loc 1 74 0
 246 00c4 0026     		movs	r6, #0
 247              	.LVL20:
 248              	.L19:
  75:ZumoLibrary/Retarget.c ****                 }
  76:ZumoLibrary/Retarget.c ****                 *ptr++ = buf[tail];
 249              		.loc 1 76 0
 250 00c6 2870     		strb	r0, [r5]
  77:ZumoLibrary/Retarget.c ****                 tail = (tail + 1) & 0x7F;
 251              		.loc 1 77 0
 252 00c8 0131     		adds	r1, r1, #1
 253 00ca 01F07F01 		and	r1, r1, #127
 254 00ce 0E4B     		ldr	r3, .L24+4
 255 00d0 C3F89010 		str	r1, [r3, #144]
  78:ZumoLibrary/Retarget.c ****                 cnt--;
 256              		.loc 1 78 0
 257 00d4 013A     		subs	r2, r2, #1
 258 00d6 5A60     		str	r2, [r3, #4]
  79:ZumoLibrary/Retarget.c ****                 chs++;
 259              		.loc 1 79 0
 260 00d8 0134     		adds	r4, r4, #1
 261              	.LVL21:
ARM GAS  C:\Users\samue\AppData\Local\Temp\ccu2gjJI.s 			page 7


  80:ZumoLibrary/Retarget.c ****                 count--;
 262              		.loc 1 80 0
 263 00da 013E     		subs	r6, r6, #1
 264              	.LVL22:
  76:ZumoLibrary/Retarget.c ****                 tail = (tail + 1) & 0x7F;
 265              		.loc 1 76 0
 266 00dc 0135     		adds	r5, r5, #1
 267              	.LVL23:
 268 00de 03E0     		b	.L17
 269              	.L18:
  81:ZumoLibrary/Retarget.c ****             }
  82:ZumoLibrary/Retarget.c ****             else {
  83:ZumoLibrary/Retarget.c ****                 lf = 0;
 270              		.loc 1 83 0
 271 00e0 0022     		movs	r2, #0
 272 00e2 094B     		ldr	r3, .L24+4
 273 00e4 C3F88C20 		str	r2, [r3, #140]
 274              	.LVL24:
 275              	.L17:
  49:ZumoLibrary/Retarget.c ****         //ch = UART_1_GetChar();
 276              		.loc 1 49 0
 277 00e8 002E     		cmp	r6, #0
 278 00ea 9CDC     		bgt	.L21
  84:ZumoLibrary/Retarget.c ****             }
  85:ZumoLibrary/Retarget.c ****         }
  86:ZumoLibrary/Retarget.c ****     }
  87:ZumoLibrary/Retarget.c ****     
  88:ZumoLibrary/Retarget.c ****     xSemaphoreGive(readMutex);
 279              		.loc 1 88 0
 280 00ec 0023     		movs	r3, #0
 281 00ee 1A46     		mov	r2, r3
 282 00f0 1946     		mov	r1, r3
 283 00f2 0548     		ldr	r0, .L24+4
 284 00f4 0068     		ldr	r0, [r0]
 285 00f6 FFF7FEFF 		bl	xQueueGenericSend
 286              	.LVL25:
  89:ZumoLibrary/Retarget.c ****     
  90:ZumoLibrary/Retarget.c ****     return chs;
 287              		.loc 1 90 0
 288 00fa 2046     		mov	r0, r4
 289 00fc 00E0     		b	.L11
 290              	.LVL26:
 291              	.L22:
  47:ZumoLibrary/Retarget.c ****     
 292              		.loc 1 47 0
 293 00fe 0020     		movs	r0, #0
 294              	.LVL27:
 295              	.L11:
  91:ZumoLibrary/Retarget.c **** }
 296              		.loc 1 91 0
 297 0100 02B0     		add	sp, sp, #8
 298              		.cfi_def_cfa_offset 16
 299              		@ sp needed
 300 0102 70BD     		pop	{r4, r5, r6, pc}
 301              	.LVL28:
 302              	.L25:
 303              		.align	2
ARM GAS  C:\Users\samue\AppData\Local\Temp\ccu2gjJI.s 			page 8


 304              	.L24:
 305 0104 00000000 		.word	_impure_ptr
 306 0108 00000000 		.word	.LANCHOR0
 307              		.cfi_endproc
 308              	.LFE71:
 309              		.size	_read, .-_read
 310              		.bss
 311              		.align	2
 312              		.set	.LANCHOR0,. + 0
 313              		.type	readMutex, %object
 314              		.size	readMutex, 4
 315              	readMutex:
 316 0000 00000000 		.space	4
 317              		.type	cnt.8430, %object
 318              		.size	cnt.8430, 4
 319              	cnt.8430:
 320 0004 00000000 		.space	4
 321              		.type	head.8431, %object
 322              		.size	head.8431, 4
 323              	head.8431:
 324 0008 00000000 		.space	4
 325              		.type	buf.8429, %object
 326              		.size	buf.8429, 128
 327              	buf.8429:
 328 000c 00000000 		.space	128
 328      00000000 
 328      00000000 
 328      00000000 
 328      00000000 
 329              		.type	lf.8433, %object
 330              		.size	lf.8433, 4
 331              	lf.8433:
 332 008c 00000000 		.space	4
 333              		.type	tail.8432, %object
 334              		.size	tail.8432, 4
 335              	tail.8432:
 336 0090 00000000 		.space	4
 337              		.text
 338              	.Letext0:
 339              		.file 2 "c:\\program files (x86)\\cypress\\psoc creator\\4.2\\psoc creator\\import\\gnu\\arm\\5.4.
 340              		.file 3 "c:\\program files (x86)\\cypress\\psoc creator\\4.2\\psoc creator\\import\\gnu\\arm\\5.4.
 341              		.file 4 "c:\\program files (x86)\\cypress\\psoc creator\\4.2\\psoc creator\\import\\gnu\\arm\\5.4.
 342              		.file 5 "c:\\program files (x86)\\cypress\\psoc creator\\4.2\\psoc creator\\import\\gnu\\arm\\5.4.
 343              		.file 6 "c:\\program files (x86)\\cypress\\psoc creator\\4.2\\psoc creator\\import\\gnu\\arm\\5.4.
 344              		.file 7 "c:\\program files (x86)\\cypress\\psoc creator\\4.2\\psoc creator\\import\\gnu\\arm\\5.4.
 345              		.file 8 "..\\FreeRTOS\\Source\\portable\\GCC\\ARM_CM3/portmacro.h"
 346              		.file 9 "..\\FreeRTOS\\Source\\include/queue.h"
 347              		.file 10 "..\\FreeRTOS\\Source\\include/semphr.h"
 348              		.file 11 "Generated_Source\\PSoC5/core_cm3.h"
 349              		.file 12 "ZumoLibrary\\serial1.h"
 350              		.file 13 "c:\\program files (x86)\\cypress\\psoc creator\\4.2\\psoc creator\\import\\gnu\\arm\\5.4