ARM GAS  C:\Users\samue\AppData\Local\Temp\cc7YDeAP.s 			page 1


   1              		.syntax unified
   2              		.cpu cortex-m3
   3              		.fpu softvfp
   4              		.eabi_attribute 20, 1
   5              		.eabi_attribute 21, 1
   6              		.eabi_attribute 23, 3
   7              		.eabi_attribute 24, 1
   8              		.eabi_attribute 25, 1
   9              		.eabi_attribute 26, 1
  10              		.eabi_attribute 30, 1
  11              		.eabi_attribute 34, 1
  12              		.eabi_attribute 18, 4
  13              		.thumb
  14              		.syntax unified
  15              		.file	"rtos_main.c"
  16              		.text
  17              	.Ltext0:
  18              		.cfi_sections	.debug_frame
  19              		.section	.text.start_zmain,"ax",%progbits
  20              		.align	2
  21              		.thumb
  22              		.thumb_func
  23              		.type	start_zmain, %function
  24              	start_zmain:
  25              	.LFB69:
  26              		.file 1 "ZumoLibrary\\rtos_main.c"
   1:ZumoLibrary/rtos_main.c **** /*
   2:ZumoLibrary/rtos_main.c ****  * FreeRTOS Kernel V10.0.1
   3:ZumoLibrary/rtos_main.c ****  * Copyright (C) 2017 Amazon.com, Inc. or its affiliates.  All Rights Reserved.
   4:ZumoLibrary/rtos_main.c ****  *
   5:ZumoLibrary/rtos_main.c ****  * Permission is hereby granted, free of charge, to any person obtaining a copy of
   6:ZumoLibrary/rtos_main.c ****  * this software and associated documentation files (the "Software"), to deal in
   7:ZumoLibrary/rtos_main.c ****  * the Software without restriction, including without limitation the rights to
   8:ZumoLibrary/rtos_main.c ****  * use, copy, modify, merge, publish, distribute, sublicense, and/or sell copies of
   9:ZumoLibrary/rtos_main.c ****  * the Software, and to permit persons to whom the Software is furnished to do so,
  10:ZumoLibrary/rtos_main.c ****  * subject to the following conditions:
  11:ZumoLibrary/rtos_main.c ****  *
  12:ZumoLibrary/rtos_main.c ****  * The above copyright notice and this permission notice shall be included in all
  13:ZumoLibrary/rtos_main.c ****  * copies or substantial portions of the Software.
  14:ZumoLibrary/rtos_main.c ****  *
  15:ZumoLibrary/rtos_main.c ****  * THE SOFTWARE IS PROVIDED "AS IS", WITHOUT WARRANTY OF ANY KIND, EXPRESS OR
  16:ZumoLibrary/rtos_main.c ****  * IMPLIED, INCLUDING BUT NOT LIMITED TO THE WARRANTIES OF MERCHANTABILITY, FITNESS
  17:ZumoLibrary/rtos_main.c ****  * FOR A PARTICULAR PURPOSE AND NONINFRINGEMENT. IN NO EVENT SHALL THE AUTHORS OR
  18:ZumoLibrary/rtos_main.c ****  * COPYRIGHT HOLDERS BE LIABLE FOR ANY CLAIM, DAMAGES OR OTHER LIABILITY, WHETHER
  19:ZumoLibrary/rtos_main.c ****  * IN AN ACTION OF CONTRACT, TORT OR OTHERWISE, ARISING FROM, OUT OF OR IN
  20:ZumoLibrary/rtos_main.c ****  * CONNECTION WITH THE SOFTWARE OR THE USE OR OTHER DEALINGS IN THE SOFTWARE.
  21:ZumoLibrary/rtos_main.c ****  *
  22:ZumoLibrary/rtos_main.c ****  * http://www.FreeRTOS.org
  23:ZumoLibrary/rtos_main.c ****  * http://aws.amazon.com/freertos
  24:ZumoLibrary/rtos_main.c ****  *
  25:ZumoLibrary/rtos_main.c ****  * 1 tab == 4 spaces!
  26:ZumoLibrary/rtos_main.c ****  */
  27:ZumoLibrary/rtos_main.c **** 
  28:ZumoLibrary/rtos_main.c **** #include <project.h>
  29:ZumoLibrary/rtos_main.c **** #include <stdio.h>
  30:ZumoLibrary/rtos_main.c **** 
  31:ZumoLibrary/rtos_main.c **** /* RTOS includes. */
ARM GAS  C:\Users\samue\AppData\Local\Temp\cc7YDeAP.s 			page 2


  32:ZumoLibrary/rtos_main.c **** #include "FreeRTOS.h"
  33:ZumoLibrary/rtos_main.c **** #include "task.h"
  34:ZumoLibrary/rtos_main.c **** #include "queue.h"
  35:ZumoLibrary/rtos_main.c **** #include "semphr.h"
  36:ZumoLibrary/rtos_main.c **** 
  37:ZumoLibrary/rtos_main.c **** #include "serial.h"
  38:ZumoLibrary/rtos_main.c **** #include "serial1.h"
  39:ZumoLibrary/rtos_main.c **** #include "debug_uart.h"
  40:ZumoLibrary/rtos_main.c **** #include "mqtt_sender.h"
  41:ZumoLibrary/rtos_main.c **** #include "zumo_config.h"
  42:ZumoLibrary/rtos_main.c **** 
  43:ZumoLibrary/rtos_main.c **** #ifndef START_MQTT
  44:ZumoLibrary/rtos_main.c **** #define START_MQTT 0
  45:ZumoLibrary/rtos_main.c **** #endif    
  46:ZumoLibrary/rtos_main.c **** 
  47:ZumoLibrary/rtos_main.c **** 
  48:ZumoLibrary/rtos_main.c **** 
  49:ZumoLibrary/rtos_main.c **** extern void zmain(void);
  50:ZumoLibrary/rtos_main.c **** 
  51:ZumoLibrary/rtos_main.c **** /*
  52:ZumoLibrary/rtos_main.c ****  * Installs the RTOS interrupt handlers and starts the peripherals.
  53:ZumoLibrary/rtos_main.c ****  */
  54:ZumoLibrary/rtos_main.c **** static void prvHardwareSetup( void );
  55:ZumoLibrary/rtos_main.c **** /*---------------------------------------------------------------------------*/
  56:ZumoLibrary/rtos_main.c **** 
  57:ZumoLibrary/rtos_main.c **** static void start_zmain(void *p) {
  27              		.loc 1 57 0
  28              		.cfi_startproc
  29              		@ args = 0, pretend = 0, frame = 0
  30              		@ frame_needed = 0, uses_anonymous_args = 0
  31              	.LVL0:
  32 0000 08B5     		push	{r3, lr}
  33              		.cfi_def_cfa_offset 8
  34              		.cfi_offset 3, -8
  35              		.cfi_offset 14, -4
  58:ZumoLibrary/rtos_main.c ****     (void) p; // we don't use this parameter
  59:ZumoLibrary/rtos_main.c ****     zmain();
  36              		.loc 1 59 0
  37 0002 FFF7FEFF 		bl	zmain
  38              	.LVL1:
  60:ZumoLibrary/rtos_main.c ****     printf("\n\n\nERROR - ZMAIN ENDED!!!\n\n");
  39              		.loc 1 60 0
  40 0006 0348     		ldr	r0, .L3
  41 0008 FFF7FEFF 		bl	puts
  42              	.LVL2:
  61:ZumoLibrary/rtos_main.c ****     vTaskSuspend(NULL);
  43              		.loc 1 61 0
  44 000c 0020     		movs	r0, #0
  45 000e FFF7FEFF 		bl	vTaskSuspend
  46              	.LVL3:
  47 0012 08BD     		pop	{r3, pc}
  48              	.L4:
  49              		.align	2
  50              	.L3:
  51 0014 00000000 		.word	.LC0
  52              		.cfi_endproc
  53              	.LFE69:
ARM GAS  C:\Users\samue\AppData\Local\Temp\cc7YDeAP.s 			page 3


  54              		.size	start_zmain, .-start_zmain
  55              		.section	.text.prvHardwareSetup,"ax",%progbits
  56              		.align	2
  57              		.thumb
  58              		.thumb_func
  59              		.type	prvHardwareSetup, %function
  60              	prvHardwareSetup:
  61              	.LFB71:
  62:ZumoLibrary/rtos_main.c **** }
  63:ZumoLibrary/rtos_main.c **** 
  64:ZumoLibrary/rtos_main.c **** int main( void )
  65:ZumoLibrary/rtos_main.c **** {
  66:ZumoLibrary/rtos_main.c ****     /* Place your initialization/startup code here (e.g. MyInst_Start()) */
  67:ZumoLibrary/rtos_main.c **** 	prvHardwareSetup();
  68:ZumoLibrary/rtos_main.c **** 
  69:ZumoLibrary/rtos_main.c ****     
  70:ZumoLibrary/rtos_main.c ****     /* Task initializations */
  71:ZumoLibrary/rtos_main.c ****     vSerial1PortInitMinimal(256);
  72:ZumoLibrary/rtos_main.c ****     RetargetInit();
  73:ZumoLibrary/rtos_main.c ****     DebugUartTaskInit();
  74:ZumoLibrary/rtos_main.c ****     MQTTSendTaskInit();
  75:ZumoLibrary/rtos_main.c ****     
  76:ZumoLibrary/rtos_main.c **** 	/* Start tasks. */
  77:ZumoLibrary/rtos_main.c ****   	//( void ) xTaskCreate( DebugUartTask, "DbgUart", configMINIMAL_STACK_SIZE, NULL, tskIDLE_PRIORI
  78:ZumoLibrary/rtos_main.c ****   	//( void ) xTaskCreate( DebugCommandTask, "DbgCmd", configMINIMAL_STACK_SIZE * 3, NULL, tskIDLE_
  79:ZumoLibrary/rtos_main.c ****   	( void ) xTaskCreate( start_zmain, "Zumo", configMINIMAL_STACK_SIZE * 10, NULL, tskIDLE_PRIORITY
  80:ZumoLibrary/rtos_main.c **** #if START_MQTT == 1   
  81:ZumoLibrary/rtos_main.c ****   	( void ) xTaskCreate( MQTTSendTask, "MQTT_send", configMINIMAL_STACK_SIZE * 10, NULL, tskIDLE_PR
  82:ZumoLibrary/rtos_main.c **** #endif    
  83:ZumoLibrary/rtos_main.c ****     
  84:ZumoLibrary/rtos_main.c **** 	/* Will only get here if there was insufficient memory to create the idle
  85:ZumoLibrary/rtos_main.c ****     task.  The idle task is created within vTaskStartScheduler(). */
  86:ZumoLibrary/rtos_main.c **** 	vTaskStartScheduler();
  87:ZumoLibrary/rtos_main.c **** 
  88:ZumoLibrary/rtos_main.c **** 	/* Should never reach here as the kernel will now be running.  If
  89:ZumoLibrary/rtos_main.c **** 	vTaskStartScheduler() does return then it is very likely that there was
  90:ZumoLibrary/rtos_main.c **** 	insufficient (FreeRTOS) heap space available to create all the tasks,
  91:ZumoLibrary/rtos_main.c **** 	including the idle task that is created within vTaskStartScheduler() itself. */
  92:ZumoLibrary/rtos_main.c **** 	for( ;; );
  93:ZumoLibrary/rtos_main.c **** }
  94:ZumoLibrary/rtos_main.c **** /*---------------------------------------------------------------------------*/
  95:ZumoLibrary/rtos_main.c **** 
  96:ZumoLibrary/rtos_main.c **** void prvHardwareSetup( void )
  97:ZumoLibrary/rtos_main.c **** {
  62              		.loc 1 97 0
  63              		.cfi_startproc
  64              		@ args = 0, pretend = 0, frame = 0
  65              		@ frame_needed = 0, uses_anonymous_args = 0
  66 0000 08B5     		push	{r3, lr}
  67              		.cfi_def_cfa_offset 8
  68              		.cfi_offset 3, -8
  69              		.cfi_offset 14, -4
  98:ZumoLibrary/rtos_main.c **** /* Port layer functions that need to be copied into the vector table. */
  99:ZumoLibrary/rtos_main.c **** extern void xPortPendSVHandler( void );
 100:ZumoLibrary/rtos_main.c **** extern void xPortSysTickHandler( void );
 101:ZumoLibrary/rtos_main.c **** extern void vPortSVCHandler( void );
 102:ZumoLibrary/rtos_main.c **** extern cyisraddress CyRamVectors[];
ARM GAS  C:\Users\samue\AppData\Local\Temp\cc7YDeAP.s 			page 4


 103:ZumoLibrary/rtos_main.c **** 
 104:ZumoLibrary/rtos_main.c **** 	/* Install the OS Interrupt Handlers. */
 105:ZumoLibrary/rtos_main.c **** 	CyRamVectors[ 11 ] = ( cyisraddress ) vPortSVCHandler;
  70              		.loc 1 105 0
  71 0002 064B     		ldr	r3, .L7
  72 0004 064A     		ldr	r2, .L7+4
  73 0006 DA62     		str	r2, [r3, #44]
 106:ZumoLibrary/rtos_main.c **** 	CyRamVectors[ 14 ] = ( cyisraddress ) xPortPendSVHandler;
  74              		.loc 1 106 0
  75 0008 064A     		ldr	r2, .L7+8
  76 000a 9A63     		str	r2, [r3, #56]
 107:ZumoLibrary/rtos_main.c **** 	CyRamVectors[ 15 ] = ( cyisraddress ) xPortSysTickHandler;
  77              		.loc 1 107 0
  78 000c 064A     		ldr	r2, .L7+12
  79 000e DA63     		str	r2, [r3, #60]
 108:ZumoLibrary/rtos_main.c **** 
 109:ZumoLibrary/rtos_main.c **** 	/* Start-up the peripherals. */
 110:ZumoLibrary/rtos_main.c **** 	UART_1_Start();
  80              		.loc 1 110 0
  81 0010 FFF7FEFF 		bl	UART_1_Start
  82              	.LVL4:
 111:ZumoLibrary/rtos_main.c ****     UART_2_Start();
  83              		.loc 1 111 0
  84 0014 FFF7FEFF 		bl	UART_2_Start
  85              	.LVL5:
  86 0018 08BD     		pop	{r3, pc}
  87              	.L8:
  88 001a 00BF     		.align	2
  89              	.L7:
  90 001c 00000000 		.word	CyRamVectors
  91 0020 00000000 		.word	vPortSVCHandler
  92 0024 00000000 		.word	xPortPendSVHandler
  93 0028 00000000 		.word	xPortSysTickHandler
  94              		.cfi_endproc
  95              	.LFE71:
  96              		.size	prvHardwareSetup, .-prvHardwareSetup
  97              		.section	.text.main,"ax",%progbits
  98              		.align	2
  99              		.global	main
 100              		.thumb
 101              		.thumb_func
 102              		.type	main, %function
 103              	main:
 104              	.LFB70:
  65:ZumoLibrary/rtos_main.c ****     /* Place your initialization/startup code here (e.g. MyInst_Start()) */
 105              		.loc 1 65 0
 106              		.cfi_startproc
 107              		@ Volatile: function does not return.
 108              		@ args = 0, pretend = 0, frame = 0
 109              		@ frame_needed = 0, uses_anonymous_args = 0
 110 0000 00B5     		push	{lr}
 111              		.cfi_def_cfa_offset 4
 112              		.cfi_offset 14, -4
 113 0002 83B0     		sub	sp, sp, #12
 114              		.cfi_def_cfa_offset 16
  67:ZumoLibrary/rtos_main.c **** 
 115              		.loc 1 67 0
ARM GAS  C:\Users\samue\AppData\Local\Temp\cc7YDeAP.s 			page 5


 116 0004 FFF7FEFF 		bl	prvHardwareSetup
 117              	.LVL6:
  71:ZumoLibrary/rtos_main.c ****     RetargetInit();
 118              		.loc 1 71 0
 119 0008 4FF48070 		mov	r0, #256
 120 000c FFF7FEFF 		bl	vSerial1PortInitMinimal
 121              	.LVL7:
  72:ZumoLibrary/rtos_main.c ****     DebugUartTaskInit();
 122              		.loc 1 72 0
 123 0010 FFF7FEFF 		bl	RetargetInit
 124              	.LVL8:
  73:ZumoLibrary/rtos_main.c ****     MQTTSendTaskInit();
 125              		.loc 1 73 0
 126 0014 FFF7FEFF 		bl	DebugUartTaskInit
 127              	.LVL9:
  74:ZumoLibrary/rtos_main.c ****     
 128              		.loc 1 74 0
 129 0018 FFF7FEFF 		bl	MQTTSendTaskInit
 130              	.LVL10:
  79:ZumoLibrary/rtos_main.c **** #if START_MQTT == 1   
 131              		.loc 1 79 0
 132 001c 0024     		movs	r4, #0
 133 001e 0194     		str	r4, [sp, #4]
 134 0020 0123     		movs	r3, #1
 135 0022 0093     		str	r3, [sp]
 136 0024 2346     		mov	r3, r4
 137 0026 4FF47A72 		mov	r2, #1000
 138 002a 0849     		ldr	r1, .L12
 139 002c 0848     		ldr	r0, .L12+4
 140 002e FFF7FEFF 		bl	xTaskCreate
 141              	.LVL11:
  81:ZumoLibrary/rtos_main.c **** #endif    
 142              		.loc 1 81 0
 143 0032 0194     		str	r4, [sp, #4]
 144 0034 0223     		movs	r3, #2
 145 0036 0093     		str	r3, [sp]
 146 0038 2346     		mov	r3, r4
 147 003a 4FF47A72 		mov	r2, #1000
 148 003e 0549     		ldr	r1, .L12+8
 149 0040 0548     		ldr	r0, .L12+12
 150 0042 FFF7FEFF 		bl	xTaskCreate
 151              	.LVL12:
  86:ZumoLibrary/rtos_main.c **** 
 152              		.loc 1 86 0
 153 0046 FFF7FEFF 		bl	vTaskStartScheduler
 154              	.LVL13:
 155              	.L10:
 156 004a FEE7     		b	.L10
 157              	.L13:
 158              		.align	2
 159              	.L12:
 160 004c 1C000000 		.word	.LC1
 161 0050 00000000 		.word	start_zmain
 162 0054 24000000 		.word	.LC2
 163 0058 00000000 		.word	MQTTSendTask
 164              		.cfi_endproc
 165              	.LFE70:
ARM GAS  C:\Users\samue\AppData\Local\Temp\cc7YDeAP.s 			page 6


 166              		.size	main, .-main
 167              		.section	.text.vApplicationStackOverflowHook,"ax",%progbits
 168              		.align	2
 169              		.global	vApplicationStackOverflowHook
 170              		.thumb
 171              		.thumb_func
 172              		.type	vApplicationStackOverflowHook, %function
 173              	vApplicationStackOverflowHook:
 174              	.LFB72:
 112:ZumoLibrary/rtos_main.c **** 
 113:ZumoLibrary/rtos_main.c **** }
 114:ZumoLibrary/rtos_main.c **** /*---------------------------------------------------------------------------*/
 115:ZumoLibrary/rtos_main.c **** 
 116:ZumoLibrary/rtos_main.c **** 
 117:ZumoLibrary/rtos_main.c **** /*---------------------------------------------------------------------------*/
 118:ZumoLibrary/rtos_main.c **** 
 119:ZumoLibrary/rtos_main.c **** void vApplicationStackOverflowHook( TaskHandle_t pxTask, char *pcTaskName )
 120:ZumoLibrary/rtos_main.c **** {
 175              		.loc 1 120 0
 176              		.cfi_startproc
 177              		@ Volatile: function does not return.
 178              		@ args = 0, pretend = 0, frame = 0
 179              		@ frame_needed = 0, uses_anonymous_args = 0
 180              		@ link register save eliminated.
 181              	.LVL14:
 182              	.LBB6:
 183              	.LBB7:
 184              		.file 2 "..\\FreeRTOS\\Source\\portable\\GCC\\ARM_CM3/portmacro.h"
   1:..\FreeRTOS\Source\portable\GCC\ARM_CM3/portmacro.h **** /*
   2:..\FreeRTOS\Source\portable\GCC\ARM_CM3/portmacro.h ****  * FreeRTOS Kernel V10.0.1
   3:..\FreeRTOS\Source\portable\GCC\ARM_CM3/portmacro.h ****  * Copyright (C) 2017 Amazon.com, Inc. or its affiliates.  All Rights Reserved.
   4:..\FreeRTOS\Source\portable\GCC\ARM_CM3/portmacro.h ****  *
   5:..\FreeRTOS\Source\portable\GCC\ARM_CM3/portmacro.h ****  * Permission is hereby granted, free of charge, to any person obtaining a copy of
   6:..\FreeRTOS\Source\portable\GCC\ARM_CM3/portmacro.h ****  * this software and associated documentation files (the "Software"), to deal in
   7:..\FreeRTOS\Source\portable\GCC\ARM_CM3/portmacro.h ****  * the Software without restriction, including without limitation the rights to
   8:..\FreeRTOS\Source\portable\GCC\ARM_CM3/portmacro.h ****  * use, copy, modify, merge, publish, distribute, sublicense, and/or sell copies of
   9:..\FreeRTOS\Source\portable\GCC\ARM_CM3/portmacro.h ****  * the Software, and to permit persons to whom the Software is furnished to do so,
  10:..\FreeRTOS\Source\portable\GCC\ARM_CM3/portmacro.h ****  * subject to the following conditions:
  11:..\FreeRTOS\Source\portable\GCC\ARM_CM3/portmacro.h ****  *
  12:..\FreeRTOS\Source\portable\GCC\ARM_CM3/portmacro.h ****  * The above copyright notice and this permission notice shall be included in all
  13:..\FreeRTOS\Source\portable\GCC\ARM_CM3/portmacro.h ****  * copies or substantial portions of the Software.
  14:..\FreeRTOS\Source\portable\GCC\ARM_CM3/portmacro.h ****  *
  15:..\FreeRTOS\Source\portable\GCC\ARM_CM3/portmacro.h ****  * THE SOFTWARE IS PROVIDED "AS IS", WITHOUT WARRANTY OF ANY KIND, EXPRESS OR
  16:..\FreeRTOS\Source\portable\GCC\ARM_CM3/portmacro.h ****  * IMPLIED, INCLUDING BUT NOT LIMITED TO THE WARRANTIES OF MERCHANTABILITY, FITNESS
  17:..\FreeRTOS\Source\portable\GCC\ARM_CM3/portmacro.h ****  * FOR A PARTICULAR PURPOSE AND NONINFRINGEMENT. IN NO EVENT SHALL THE AUTHORS OR
  18:..\FreeRTOS\Source\portable\GCC\ARM_CM3/portmacro.h ****  * COPYRIGHT HOLDERS BE LIABLE FOR ANY CLAIM, DAMAGES OR OTHER LIABILITY, WHETHER
  19:..\FreeRTOS\Source\portable\GCC\ARM_CM3/portmacro.h ****  * IN AN ACTION OF CONTRACT, TORT OR OTHERWISE, ARISING FROM, OUT OF OR IN
  20:..\FreeRTOS\Source\portable\GCC\ARM_CM3/portmacro.h ****  * CONNECTION WITH THE SOFTWARE OR THE USE OR OTHER DEALINGS IN THE SOFTWARE.
  21:..\FreeRTOS\Source\portable\GCC\ARM_CM3/portmacro.h ****  *
  22:..\FreeRTOS\Source\portable\GCC\ARM_CM3/portmacro.h ****  * http://www.FreeRTOS.org
  23:..\FreeRTOS\Source\portable\GCC\ARM_CM3/portmacro.h ****  * http://aws.amazon.com/freertos
  24:..\FreeRTOS\Source\portable\GCC\ARM_CM3/portmacro.h ****  *
  25:..\FreeRTOS\Source\portable\GCC\ARM_CM3/portmacro.h ****  * 1 tab == 4 spaces!
  26:..\FreeRTOS\Source\portable\GCC\ARM_CM3/portmacro.h ****  */
  27:..\FreeRTOS\Source\portable\GCC\ARM_CM3/portmacro.h **** 
  28:..\FreeRTOS\Source\portable\GCC\ARM_CM3/portmacro.h **** 
  29:..\FreeRTOS\Source\portable\GCC\ARM_CM3/portmacro.h **** #ifndef PORTMACRO_H
ARM GAS  C:\Users\samue\AppData\Local\Temp\cc7YDeAP.s 			page 7


  30:..\FreeRTOS\Source\portable\GCC\ARM_CM3/portmacro.h **** #define PORTMACRO_H
  31:..\FreeRTOS\Source\portable\GCC\ARM_CM3/portmacro.h **** 
  32:..\FreeRTOS\Source\portable\GCC\ARM_CM3/portmacro.h **** #ifdef __cplusplus
  33:..\FreeRTOS\Source\portable\GCC\ARM_CM3/portmacro.h **** extern "C" {
  34:..\FreeRTOS\Source\portable\GCC\ARM_CM3/portmacro.h **** #endif
  35:..\FreeRTOS\Source\portable\GCC\ARM_CM3/portmacro.h **** 
  36:..\FreeRTOS\Source\portable\GCC\ARM_CM3/portmacro.h **** /*-----------------------------------------------------------
  37:..\FreeRTOS\Source\portable\GCC\ARM_CM3/portmacro.h ****  * Port specific definitions.
  38:..\FreeRTOS\Source\portable\GCC\ARM_CM3/portmacro.h ****  *
  39:..\FreeRTOS\Source\portable\GCC\ARM_CM3/portmacro.h ****  * The settings in this file configure FreeRTOS correctly for the
  40:..\FreeRTOS\Source\portable\GCC\ARM_CM3/portmacro.h ****  * given hardware and compiler.
  41:..\FreeRTOS\Source\portable\GCC\ARM_CM3/portmacro.h ****  *
  42:..\FreeRTOS\Source\portable\GCC\ARM_CM3/portmacro.h ****  * These settings should not be altered.
  43:..\FreeRTOS\Source\portable\GCC\ARM_CM3/portmacro.h ****  *-----------------------------------------------------------
  44:..\FreeRTOS\Source\portable\GCC\ARM_CM3/portmacro.h ****  */
  45:..\FreeRTOS\Source\portable\GCC\ARM_CM3/portmacro.h **** 
  46:..\FreeRTOS\Source\portable\GCC\ARM_CM3/portmacro.h **** /* Type definitions. */
  47:..\FreeRTOS\Source\portable\GCC\ARM_CM3/portmacro.h **** #define portCHAR		char
  48:..\FreeRTOS\Source\portable\GCC\ARM_CM3/portmacro.h **** #define portFLOAT		float
  49:..\FreeRTOS\Source\portable\GCC\ARM_CM3/portmacro.h **** #define portDOUBLE		double
  50:..\FreeRTOS\Source\portable\GCC\ARM_CM3/portmacro.h **** #define portLONG		long
  51:..\FreeRTOS\Source\portable\GCC\ARM_CM3/portmacro.h **** #define portSHORT		short
  52:..\FreeRTOS\Source\portable\GCC\ARM_CM3/portmacro.h **** #define portSTACK_TYPE	uint32_t
  53:..\FreeRTOS\Source\portable\GCC\ARM_CM3/portmacro.h **** #define portBASE_TYPE	long
  54:..\FreeRTOS\Source\portable\GCC\ARM_CM3/portmacro.h **** 
  55:..\FreeRTOS\Source\portable\GCC\ARM_CM3/portmacro.h **** typedef portSTACK_TYPE StackType_t;
  56:..\FreeRTOS\Source\portable\GCC\ARM_CM3/portmacro.h **** typedef long BaseType_t;
  57:..\FreeRTOS\Source\portable\GCC\ARM_CM3/portmacro.h **** typedef unsigned long UBaseType_t;
  58:..\FreeRTOS\Source\portable\GCC\ARM_CM3/portmacro.h **** 
  59:..\FreeRTOS\Source\portable\GCC\ARM_CM3/portmacro.h **** #if( configUSE_16_BIT_TICKS == 1 )
  60:..\FreeRTOS\Source\portable\GCC\ARM_CM3/portmacro.h **** 	typedef uint16_t TickType_t;
  61:..\FreeRTOS\Source\portable\GCC\ARM_CM3/portmacro.h **** 	#define portMAX_DELAY ( TickType_t ) 0xffff
  62:..\FreeRTOS\Source\portable\GCC\ARM_CM3/portmacro.h **** #else
  63:..\FreeRTOS\Source\portable\GCC\ARM_CM3/portmacro.h **** 	typedef uint32_t TickType_t;
  64:..\FreeRTOS\Source\portable\GCC\ARM_CM3/portmacro.h **** 	#define portMAX_DELAY ( TickType_t ) 0xffffffffUL
  65:..\FreeRTOS\Source\portable\GCC\ARM_CM3/portmacro.h **** 
  66:..\FreeRTOS\Source\portable\GCC\ARM_CM3/portmacro.h **** 	/* 32-bit tick type on a 32-bit architecture, so reads of the tick count do
  67:..\FreeRTOS\Source\portable\GCC\ARM_CM3/portmacro.h **** 	not need to be guarded with a critical section. */
  68:..\FreeRTOS\Source\portable\GCC\ARM_CM3/portmacro.h **** 	#define portTICK_TYPE_IS_ATOMIC 1
  69:..\FreeRTOS\Source\portable\GCC\ARM_CM3/portmacro.h **** #endif
  70:..\FreeRTOS\Source\portable\GCC\ARM_CM3/portmacro.h **** /*-----------------------------------------------------------*/
  71:..\FreeRTOS\Source\portable\GCC\ARM_CM3/portmacro.h **** 
  72:..\FreeRTOS\Source\portable\GCC\ARM_CM3/portmacro.h **** /* Architecture specifics. */
  73:..\FreeRTOS\Source\portable\GCC\ARM_CM3/portmacro.h **** #define portSTACK_GROWTH			( -1 )
  74:..\FreeRTOS\Source\portable\GCC\ARM_CM3/portmacro.h **** #define portTICK_PERIOD_MS			( ( TickType_t ) 1000 / configTICK_RATE_HZ )
  75:..\FreeRTOS\Source\portable\GCC\ARM_CM3/portmacro.h **** #define portBYTE_ALIGNMENT			8
  76:..\FreeRTOS\Source\portable\GCC\ARM_CM3/portmacro.h **** /*-----------------------------------------------------------*/
  77:..\FreeRTOS\Source\portable\GCC\ARM_CM3/portmacro.h **** 
  78:..\FreeRTOS\Source\portable\GCC\ARM_CM3/portmacro.h **** /* Scheduler utilities. */
  79:..\FreeRTOS\Source\portable\GCC\ARM_CM3/portmacro.h **** #define portYIELD() 															\
  80:..\FreeRTOS\Source\portable\GCC\ARM_CM3/portmacro.h **** {																				\
  81:..\FreeRTOS\Source\portable\GCC\ARM_CM3/portmacro.h **** 	/* Set a PendSV to request a context switch. */								\
  82:..\FreeRTOS\Source\portable\GCC\ARM_CM3/portmacro.h **** 	portNVIC_INT_CTRL_REG = portNVIC_PENDSVSET_BIT;								\
  83:..\FreeRTOS\Source\portable\GCC\ARM_CM3/portmacro.h **** 																				\
  84:..\FreeRTOS\Source\portable\GCC\ARM_CM3/portmacro.h **** 	/* Barriers are normally not required but do ensure the code is completely	\
  85:..\FreeRTOS\Source\portable\GCC\ARM_CM3/portmacro.h **** 	within the specified behaviour for the architecture. */						\
  86:..\FreeRTOS\Source\portable\GCC\ARM_CM3/portmacro.h **** 	__asm volatile( "dsb" ::: "memory" );										\
ARM GAS  C:\Users\samue\AppData\Local\Temp\cc7YDeAP.s 			page 8


  87:..\FreeRTOS\Source\portable\GCC\ARM_CM3/portmacro.h **** 	__asm volatile( "isb" );													\
  88:..\FreeRTOS\Source\portable\GCC\ARM_CM3/portmacro.h **** }
  89:..\FreeRTOS\Source\portable\GCC\ARM_CM3/portmacro.h **** 
  90:..\FreeRTOS\Source\portable\GCC\ARM_CM3/portmacro.h **** #define portNVIC_INT_CTRL_REG		( * ( ( volatile uint32_t * ) 0xe000ed04 ) )
  91:..\FreeRTOS\Source\portable\GCC\ARM_CM3/portmacro.h **** #define portNVIC_PENDSVSET_BIT		( 1UL << 28UL )
  92:..\FreeRTOS\Source\portable\GCC\ARM_CM3/portmacro.h **** #define portEND_SWITCHING_ISR( xSwitchRequired ) if( xSwitchRequired != pdFALSE ) portYIELD()
  93:..\FreeRTOS\Source\portable\GCC\ARM_CM3/portmacro.h **** #define portYIELD_FROM_ISR( x ) portEND_SWITCHING_ISR( x )
  94:..\FreeRTOS\Source\portable\GCC\ARM_CM3/portmacro.h **** /*-----------------------------------------------------------*/
  95:..\FreeRTOS\Source\portable\GCC\ARM_CM3/portmacro.h **** 
  96:..\FreeRTOS\Source\portable\GCC\ARM_CM3/portmacro.h **** /* Critical section management. */
  97:..\FreeRTOS\Source\portable\GCC\ARM_CM3/portmacro.h **** extern void vPortEnterCritical( void );
  98:..\FreeRTOS\Source\portable\GCC\ARM_CM3/portmacro.h **** extern void vPortExitCritical( void );
  99:..\FreeRTOS\Source\portable\GCC\ARM_CM3/portmacro.h **** #define portSET_INTERRUPT_MASK_FROM_ISR()		ulPortRaiseBASEPRI()
 100:..\FreeRTOS\Source\portable\GCC\ARM_CM3/portmacro.h **** #define portCLEAR_INTERRUPT_MASK_FROM_ISR(x)	vPortSetBASEPRI(x)
 101:..\FreeRTOS\Source\portable\GCC\ARM_CM3/portmacro.h **** #define portDISABLE_INTERRUPTS()				vPortRaiseBASEPRI()
 102:..\FreeRTOS\Source\portable\GCC\ARM_CM3/portmacro.h **** #define portENABLE_INTERRUPTS()					vPortSetBASEPRI(0)
 103:..\FreeRTOS\Source\portable\GCC\ARM_CM3/portmacro.h **** #define portENTER_CRITICAL()					vPortEnterCritical()
 104:..\FreeRTOS\Source\portable\GCC\ARM_CM3/portmacro.h **** #define portEXIT_CRITICAL()						vPortExitCritical()
 105:..\FreeRTOS\Source\portable\GCC\ARM_CM3/portmacro.h **** 
 106:..\FreeRTOS\Source\portable\GCC\ARM_CM3/portmacro.h **** /*-----------------------------------------------------------*/
 107:..\FreeRTOS\Source\portable\GCC\ARM_CM3/portmacro.h **** 
 108:..\FreeRTOS\Source\portable\GCC\ARM_CM3/portmacro.h **** /* Task function macros as described on the FreeRTOS.org WEB site.  These are
 109:..\FreeRTOS\Source\portable\GCC\ARM_CM3/portmacro.h **** not necessary for to use this port.  They are defined so the common demo files
 110:..\FreeRTOS\Source\portable\GCC\ARM_CM3/portmacro.h **** (which build with all the ports) will build. */
 111:..\FreeRTOS\Source\portable\GCC\ARM_CM3/portmacro.h **** #define portTASK_FUNCTION_PROTO( vFunction, pvParameters ) void vFunction( void *pvParameters )
 112:..\FreeRTOS\Source\portable\GCC\ARM_CM3/portmacro.h **** #define portTASK_FUNCTION( vFunction, pvParameters ) void vFunction( void *pvParameters )
 113:..\FreeRTOS\Source\portable\GCC\ARM_CM3/portmacro.h **** /*-----------------------------------------------------------*/
 114:..\FreeRTOS\Source\portable\GCC\ARM_CM3/portmacro.h **** 
 115:..\FreeRTOS\Source\portable\GCC\ARM_CM3/portmacro.h **** /* Tickless idle/low power functionality. */
 116:..\FreeRTOS\Source\portable\GCC\ARM_CM3/portmacro.h **** #ifndef portSUPPRESS_TICKS_AND_SLEEP
 117:..\FreeRTOS\Source\portable\GCC\ARM_CM3/portmacro.h **** 	extern void vPortSuppressTicksAndSleep( TickType_t xExpectedIdleTime );
 118:..\FreeRTOS\Source\portable\GCC\ARM_CM3/portmacro.h **** 	#define portSUPPRESS_TICKS_AND_SLEEP( xExpectedIdleTime ) vPortSuppressTicksAndSleep( xExpectedIdl
 119:..\FreeRTOS\Source\portable\GCC\ARM_CM3/portmacro.h **** #endif
 120:..\FreeRTOS\Source\portable\GCC\ARM_CM3/portmacro.h **** /*-----------------------------------------------------------*/
 121:..\FreeRTOS\Source\portable\GCC\ARM_CM3/portmacro.h **** 
 122:..\FreeRTOS\Source\portable\GCC\ARM_CM3/portmacro.h **** /* Architecture specific optimisations. */
 123:..\FreeRTOS\Source\portable\GCC\ARM_CM3/portmacro.h **** #ifndef configUSE_PORT_OPTIMISED_TASK_SELECTION
 124:..\FreeRTOS\Source\portable\GCC\ARM_CM3/portmacro.h **** 	#define configUSE_PORT_OPTIMISED_TASK_SELECTION 1
 125:..\FreeRTOS\Source\portable\GCC\ARM_CM3/portmacro.h **** #endif
 126:..\FreeRTOS\Source\portable\GCC\ARM_CM3/portmacro.h **** 
 127:..\FreeRTOS\Source\portable\GCC\ARM_CM3/portmacro.h **** #if configUSE_PORT_OPTIMISED_TASK_SELECTION == 1
 128:..\FreeRTOS\Source\portable\GCC\ARM_CM3/portmacro.h **** 
 129:..\FreeRTOS\Source\portable\GCC\ARM_CM3/portmacro.h **** 	/* Generic helper function. */
 130:..\FreeRTOS\Source\portable\GCC\ARM_CM3/portmacro.h **** 	__attribute__( ( always_inline ) ) static inline uint8_t ucPortCountLeadingZeros( uint32_t ulBitma
 131:..\FreeRTOS\Source\portable\GCC\ARM_CM3/portmacro.h **** 	{
 132:..\FreeRTOS\Source\portable\GCC\ARM_CM3/portmacro.h **** 	uint8_t ucReturn;
 133:..\FreeRTOS\Source\portable\GCC\ARM_CM3/portmacro.h **** 
 134:..\FreeRTOS\Source\portable\GCC\ARM_CM3/portmacro.h **** 		__asm volatile ( "clz %0, %1" : "=r" ( ucReturn ) : "r" ( ulBitmap ) : "memory" );
 135:..\FreeRTOS\Source\portable\GCC\ARM_CM3/portmacro.h **** 		return ucReturn;
 136:..\FreeRTOS\Source\portable\GCC\ARM_CM3/portmacro.h **** 	}
 137:..\FreeRTOS\Source\portable\GCC\ARM_CM3/portmacro.h **** 
 138:..\FreeRTOS\Source\portable\GCC\ARM_CM3/portmacro.h **** 	/* Check the configuration. */
 139:..\FreeRTOS\Source\portable\GCC\ARM_CM3/portmacro.h **** 	#if( configMAX_PRIORITIES > 32 )
 140:..\FreeRTOS\Source\portable\GCC\ARM_CM3/portmacro.h **** 		#error configUSE_PORT_OPTIMISED_TASK_SELECTION can only be set to 1 when configMAX_PRIORITIES is 
 141:..\FreeRTOS\Source\portable\GCC\ARM_CM3/portmacro.h **** 	#endif
 142:..\FreeRTOS\Source\portable\GCC\ARM_CM3/portmacro.h **** 
 143:..\FreeRTOS\Source\portable\GCC\ARM_CM3/portmacro.h **** 	/* Store/clear the ready priorities in a bit map. */
ARM GAS  C:\Users\samue\AppData\Local\Temp\cc7YDeAP.s 			page 9


 144:..\FreeRTOS\Source\portable\GCC\ARM_CM3/portmacro.h **** 	#define portRECORD_READY_PRIORITY( uxPriority, uxReadyPriorities ) ( uxReadyPriorities ) |= ( 1UL 
 145:..\FreeRTOS\Source\portable\GCC\ARM_CM3/portmacro.h **** 	#define portRESET_READY_PRIORITY( uxPriority, uxReadyPriorities ) ( uxReadyPriorities ) &= ~( 1UL 
 146:..\FreeRTOS\Source\portable\GCC\ARM_CM3/portmacro.h **** 
 147:..\FreeRTOS\Source\portable\GCC\ARM_CM3/portmacro.h **** 	/*-----------------------------------------------------------*/
 148:..\FreeRTOS\Source\portable\GCC\ARM_CM3/portmacro.h **** 
 149:..\FreeRTOS\Source\portable\GCC\ARM_CM3/portmacro.h **** 	#define portGET_HIGHEST_PRIORITY( uxTopPriority, uxReadyPriorities ) uxTopPriority = ( 31UL - ( ui
 150:..\FreeRTOS\Source\portable\GCC\ARM_CM3/portmacro.h **** 
 151:..\FreeRTOS\Source\portable\GCC\ARM_CM3/portmacro.h **** #endif /* configUSE_PORT_OPTIMISED_TASK_SELECTION */
 152:..\FreeRTOS\Source\portable\GCC\ARM_CM3/portmacro.h **** 
 153:..\FreeRTOS\Source\portable\GCC\ARM_CM3/portmacro.h **** /*-----------------------------------------------------------*/
 154:..\FreeRTOS\Source\portable\GCC\ARM_CM3/portmacro.h **** 
 155:..\FreeRTOS\Source\portable\GCC\ARM_CM3/portmacro.h **** #ifdef configASSERT
 156:..\FreeRTOS\Source\portable\GCC\ARM_CM3/portmacro.h **** 	void vPortValidateInterruptPriority( void );
 157:..\FreeRTOS\Source\portable\GCC\ARM_CM3/portmacro.h **** 	#define portASSERT_IF_INTERRUPT_PRIORITY_INVALID() 	vPortValidateInterruptPriority()
 158:..\FreeRTOS\Source\portable\GCC\ARM_CM3/portmacro.h **** #endif
 159:..\FreeRTOS\Source\portable\GCC\ARM_CM3/portmacro.h **** 
 160:..\FreeRTOS\Source\portable\GCC\ARM_CM3/portmacro.h **** /* portNOP() is not required by this port. */
 161:..\FreeRTOS\Source\portable\GCC\ARM_CM3/portmacro.h **** #define portNOP()
 162:..\FreeRTOS\Source\portable\GCC\ARM_CM3/portmacro.h **** 
 163:..\FreeRTOS\Source\portable\GCC\ARM_CM3/portmacro.h **** #define portINLINE	__inline
 164:..\FreeRTOS\Source\portable\GCC\ARM_CM3/portmacro.h **** 
 165:..\FreeRTOS\Source\portable\GCC\ARM_CM3/portmacro.h **** #ifndef portFORCE_INLINE
 166:..\FreeRTOS\Source\portable\GCC\ARM_CM3/portmacro.h **** 	#define portFORCE_INLINE inline __attribute__(( always_inline))
 167:..\FreeRTOS\Source\portable\GCC\ARM_CM3/portmacro.h **** #endif
 168:..\FreeRTOS\Source\portable\GCC\ARM_CM3/portmacro.h **** 
 169:..\FreeRTOS\Source\portable\GCC\ARM_CM3/portmacro.h **** portFORCE_INLINE static BaseType_t xPortIsInsideInterrupt( void )
 170:..\FreeRTOS\Source\portable\GCC\ARM_CM3/portmacro.h **** {
 171:..\FreeRTOS\Source\portable\GCC\ARM_CM3/portmacro.h **** uint32_t ulCurrentInterrupt;
 172:..\FreeRTOS\Source\portable\GCC\ARM_CM3/portmacro.h **** BaseType_t xReturn;
 173:..\FreeRTOS\Source\portable\GCC\ARM_CM3/portmacro.h **** 
 174:..\FreeRTOS\Source\portable\GCC\ARM_CM3/portmacro.h **** 	/* Obtain the number of the currently executing interrupt. */
 175:..\FreeRTOS\Source\portable\GCC\ARM_CM3/portmacro.h **** 	__asm volatile( "mrs %0, ipsr" : "=r"( ulCurrentInterrupt ) :: "memory" );
 176:..\FreeRTOS\Source\portable\GCC\ARM_CM3/portmacro.h **** 
 177:..\FreeRTOS\Source\portable\GCC\ARM_CM3/portmacro.h **** 	if( ulCurrentInterrupt == 0 )
 178:..\FreeRTOS\Source\portable\GCC\ARM_CM3/portmacro.h **** 	{
 179:..\FreeRTOS\Source\portable\GCC\ARM_CM3/portmacro.h **** 		xReturn = pdFALSE;
 180:..\FreeRTOS\Source\portable\GCC\ARM_CM3/portmacro.h **** 	}
 181:..\FreeRTOS\Source\portable\GCC\ARM_CM3/portmacro.h **** 	else
 182:..\FreeRTOS\Source\portable\GCC\ARM_CM3/portmacro.h **** 	{
 183:..\FreeRTOS\Source\portable\GCC\ARM_CM3/portmacro.h **** 		xReturn = pdTRUE;
 184:..\FreeRTOS\Source\portable\GCC\ARM_CM3/portmacro.h **** 	}
 185:..\FreeRTOS\Source\portable\GCC\ARM_CM3/portmacro.h **** 
 186:..\FreeRTOS\Source\portable\GCC\ARM_CM3/portmacro.h **** 	return xReturn;
 187:..\FreeRTOS\Source\portable\GCC\ARM_CM3/portmacro.h **** }
 188:..\FreeRTOS\Source\portable\GCC\ARM_CM3/portmacro.h **** 
 189:..\FreeRTOS\Source\portable\GCC\ARM_CM3/portmacro.h **** /*-----------------------------------------------------------*/
 190:..\FreeRTOS\Source\portable\GCC\ARM_CM3/portmacro.h **** 
 191:..\FreeRTOS\Source\portable\GCC\ARM_CM3/portmacro.h **** portFORCE_INLINE static void vPortRaiseBASEPRI( void )
 192:..\FreeRTOS\Source\portable\GCC\ARM_CM3/portmacro.h **** {
 193:..\FreeRTOS\Source\portable\GCC\ARM_CM3/portmacro.h **** uint32_t ulNewBASEPRI;
 194:..\FreeRTOS\Source\portable\GCC\ARM_CM3/portmacro.h **** 
 195:..\FreeRTOS\Source\portable\GCC\ARM_CM3/portmacro.h **** 	__asm volatile
 185              		.loc 2 195 0
 186              		.syntax unified
 187              	@ 195 "..\FreeRTOS\Source\portable\GCC\ARM_CM3/portmacro.h" 1
 188 0000 4FF0A003 			mov r3, #160												
 189 0004 83F31188 		msr basepri, r3											
ARM GAS  C:\Users\samue\AppData\Local\Temp\cc7YDeAP.s 			page 10


 190 0008 BFF36F8F 		isb														
 191 000c BFF34F8F 		dsb														
 192              	
 193              	@ 0 "" 2
 194              	.LVL15:
 195              		.thumb
 196              		.syntax unified
 197              	.L15:
 198 0010 FEE7     		b	.L15
 199              	.LBE7:
 200              	.LBE6:
 201              		.cfi_endproc
 202              	.LFE72:
 203              		.size	vApplicationStackOverflowHook, .-vApplicationStackOverflowHook
 204 0012 00BF     		.section	.text.vApplicationMallocFailedHook,"ax",%progbits
 205              		.align	2
 206              		.global	vApplicationMallocFailedHook
 207              		.thumb
 208              		.thumb_func
 209              		.type	vApplicationMallocFailedHook, %function
 210              	vApplicationMallocFailedHook:
 211              	.LFB73:
 121:ZumoLibrary/rtos_main.c ****     (void) pxTask;
 122:ZumoLibrary/rtos_main.c ****     (void) pcTaskName;
 123:ZumoLibrary/rtos_main.c **** 	/* The stack space has been execeeded for a task, considering allocating more. */
 124:ZumoLibrary/rtos_main.c **** 	taskDISABLE_INTERRUPTS();
 125:ZumoLibrary/rtos_main.c **** 	for( ;; );
 126:ZumoLibrary/rtos_main.c **** }
 127:ZumoLibrary/rtos_main.c **** /*---------------------------------------------------------------------------*/
 128:ZumoLibrary/rtos_main.c **** 
 129:ZumoLibrary/rtos_main.c **** void vApplicationMallocFailedHook( void )
 130:ZumoLibrary/rtos_main.c **** {
 212              		.loc 1 130 0
 213              		.cfi_startproc
 214              		@ Volatile: function does not return.
 215              		@ args = 0, pretend = 0, frame = 0
 216              		@ frame_needed = 0, uses_anonymous_args = 0
 217              		@ link register save eliminated.
 218              	.LBB8:
 219              	.LBB9:
 220              		.loc 2 195 0
 221              		.syntax unified
 222              	@ 195 "..\FreeRTOS\Source\portable\GCC\ARM_CM3/portmacro.h" 1
 223 0000 4FF0A003 			mov r3, #160												
 224 0004 83F31188 		msr basepri, r3											
 225 0008 BFF36F8F 		isb														
 226 000c BFF34F8F 		dsb														
 227              	
 228              	@ 0 "" 2
 229              	.LVL16:
 230              		.thumb
 231              		.syntax unified
 232              	.L17:
 233 0010 FEE7     		b	.L17
 234              	.LBE9:
 235              	.LBE8:
 236              		.cfi_endproc
ARM GAS  C:\Users\samue\AppData\Local\Temp\cc7YDeAP.s 			page 11


 237              	.LFE73:
 238              		.size	vApplicationMallocFailedHook, .-vApplicationMallocFailedHook
 239 0012 00BF     		.section	.rodata.str1.4,"aMS",%progbits,1
 240              		.align	2
 241              	.LC0:
 242 0000 0A0A0A45 		.ascii	"\012\012\012ERROR - ZMAIN ENDED!!!\012\000"
 242      52524F52 
 242      202D205A 
 242      4D41494E 
 242      20454E44 
 243 001b 00       		.space	1
 244              	.LC1:
 245 001c 5A756D6F 		.ascii	"Zumo\000"
 245      00
 246 0021 000000   		.space	3
 247              	.LC2:
 248 0024 4D515454 		.ascii	"MQTT_send\000"
 248      5F73656E 
 248      6400
 249              		.text
 250              	.Letext0:
 251              		.file 3 "c:\\program files (x86)\\cypress\\psoc creator\\4.2\\psoc creator\\import\\gnu\\arm\\5.4.
 252              		.file 4 "c:\\program files (x86)\\cypress\\psoc creator\\4.2\\psoc creator\\import\\gnu\\arm\\5.4.
 253              		.file 5 "Generated_Source\\PSoC5/cytypes.h"
 254              		.file 6 "..\\FreeRTOS\\Source\\include/task.h"
 255              		.file 7 "Generated_Source\\PSoC5/core_cm3.h"
 256              		.file 8 "Generated_Source\\PSoC5/UART_1.h"
 257              		.file 9 "Generated_Source\\PSoC5/UART_2.h"
 258              		.file 10 "ZumoLibrary\\serial1.h"
 259              		.file 11 "ZumoLibrary\\debug_uart.h"
 260              		.file 12 "ZumoLibrary\\mqtt_sender.h"
 261              		.file 13 "<built-in>"