ARM GAS  C:\Users\samue\AppData\Local\Temp\ccGDktMv.s 			page 1


   1              		.syntax unified
   2              		.cpu cortex-m3
   3              		.fpu softvfp
   4              		.eabi_attribute 20, 1
   5              		.eabi_attribute 21, 1
   6              		.eabi_attribute 23, 3
   7              		.eabi_attribute 24, 1
   8              		.eabi_attribute 25, 1
   9              		.eabi_attribute 26, 1
  10              		.eabi_attribute 30, 1
  11              		.eabi_attribute 34, 1
  12              		.eabi_attribute 18, 4
  13              		.thumb
  14              		.syntax unified
  15              		.file	"serial1.c"
  16              		.text
  17              	.Ltext0:
  18              		.cfi_sections	.debug_frame
  19              		.section	.text.vUart1RxISR,"ax",%progbits
  20              		.align	2
  21              		.global	vUart1RxISR
  22              		.thumb
  23              		.thumb_func
  24              		.type	vUart1RxISR, %function
  25              	vUart1RxISR:
  26              	.LFB72:
  27              		.file 1 "ZumoLibrary\\serial1.c"
   1:ZumoLibrary/serial1.c **** /*
   2:ZumoLibrary/serial1.c ****  * FreeRTOS Kernel V10.0.1
   3:ZumoLibrary/serial1.c ****  * Copyright (C) 2017 Amazon.com, Inc. or its affiliates.  All Rights Reserved.
   4:ZumoLibrary/serial1.c ****  *
   5:ZumoLibrary/serial1.c ****  * Permission is hereby granted, free of charge, to any person obtaining a copy of
   6:ZumoLibrary/serial1.c ****  * this software and associated documentation files (the "Software"), to deal in
   7:ZumoLibrary/serial1.c ****  * the Software without restriction, including without limitation the rights to
   8:ZumoLibrary/serial1.c ****  * use, copy, modify, merge, publish, distribute, sublicense, and/or sell copies of
   9:ZumoLibrary/serial1.c ****  * the Software, and to permit persons to whom the Software is furnished to do so,
  10:ZumoLibrary/serial1.c ****  * subject to the following conditions:
  11:ZumoLibrary/serial1.c ****  *
  12:ZumoLibrary/serial1.c ****  * The above copyright notice and this permission notice shall be included in all
  13:ZumoLibrary/serial1.c ****  * copies or substantial portions of the Software.
  14:ZumoLibrary/serial1.c ****  *
  15:ZumoLibrary/serial1.c ****  * THE SOFTWARE IS PROVIDED "AS IS", WITHOUT WARRANTY OF ANY KIND, EXPRESS OR
  16:ZumoLibrary/serial1.c ****  * IMPLIED, INCLUDING BUT NOT LIMITED TO THE WARRANTIES OF MERCHANTABILITY, FITNESS
  17:ZumoLibrary/serial1.c ****  * FOR A PARTICULAR PURPOSE AND NONINFRINGEMENT. IN NO EVENT SHALL THE AUTHORS OR
  18:ZumoLibrary/serial1.c ****  * COPYRIGHT HOLDERS BE LIABLE FOR ANY CLAIM, DAMAGES OR OTHER LIABILITY, WHETHER
  19:ZumoLibrary/serial1.c ****  * IN AN ACTION OF CONTRACT, TORT OR OTHERWISE, ARISING FROM, OUT OF OR IN
  20:ZumoLibrary/serial1.c ****  * CONNECTION WITH THE SOFTWARE OR THE USE OR OTHER DEALINGS IN THE SOFTWARE.
  21:ZumoLibrary/serial1.c ****  *
  22:ZumoLibrary/serial1.c ****  * http://www.FreeRTOS.org
  23:ZumoLibrary/serial1.c ****  * http://aws.amazon.com/freertos
  24:ZumoLibrary/serial1.c ****  *
  25:ZumoLibrary/serial1.c ****  * 1 tab == 4 spaces!
  26:ZumoLibrary/serial1.c ****  */
  27:ZumoLibrary/serial1.c **** 
  28:ZumoLibrary/serial1.c **** #include <project.h>
  29:ZumoLibrary/serial1.c **** #include "FreeRTOS.h"
  30:ZumoLibrary/serial1.c **** #include "queue.h"
ARM GAS  C:\Users\samue\AppData\Local\Temp\ccGDktMv.s 			page 2


  31:ZumoLibrary/serial1.c **** #include "task.h"
  32:ZumoLibrary/serial1.c **** #include "semphr.h"
  33:ZumoLibrary/serial1.c **** #include "serial1.h"
  34:ZumoLibrary/serial1.c **** /*---------------------------------------------------------------------------*/
  35:ZumoLibrary/serial1.c **** 
  36:ZumoLibrary/serial1.c **** #define serialSTRING_DELAY_TICKS		( portMAX_DELAY )
  37:ZumoLibrary/serial1.c **** /*---------------------------------------------------------------------------*/
  38:ZumoLibrary/serial1.c **** 
  39:ZumoLibrary/serial1.c **** CY_ISR_PROTO( vUart1RxISR );
  40:ZumoLibrary/serial1.c **** CY_ISR_PROTO( vUart1TxISR );
  41:ZumoLibrary/serial1.c **** /*---------------------------------------------------------------------------*/
  42:ZumoLibrary/serial1.c **** 
  43:ZumoLibrary/serial1.c **** static QueueHandle_t xSerialTxQueue = NULL;
  44:ZumoLibrary/serial1.c **** static QueueHandle_t xSerialRxQueue = NULL;
  45:ZumoLibrary/serial1.c **** /*---------------------------------------------------------------------------*/
  46:ZumoLibrary/serial1.c **** 
  47:ZumoLibrary/serial1.c **** void vSerial1PortInitMinimal(unsigned portBASE_TYPE uxQueueLength )
  48:ZumoLibrary/serial1.c **** {
  49:ZumoLibrary/serial1.c ****     /* seems that occasionally receiver gets in a weird state if received data is available when in
  50:ZumoLibrary/serial1.c ****     while(UART_1_ReadRxStatus() & UART_1_RX_STS_FIFO_NOTEMPTY) UART_1_ReadRxData();
  51:ZumoLibrary/serial1.c **** 
  52:ZumoLibrary/serial1.c ****     /* Configure Rx. */
  53:ZumoLibrary/serial1.c **** 	xSerialRxQueue = xQueueCreate( uxQueueLength, sizeof( signed char ) );	
  54:ZumoLibrary/serial1.c **** 	isr_U1_RX_ClearPending();
  55:ZumoLibrary/serial1.c **** 	isr_U1_RX_StartEx(vUart1RxISR);
  56:ZumoLibrary/serial1.c **** 
  57:ZumoLibrary/serial1.c **** 	/* Configure Tx */
  58:ZumoLibrary/serial1.c **** #if 1    
  59:ZumoLibrary/serial1.c **** 	xSerialTxQueue = xQueueCreate( uxQueueLength, sizeof( signed char ) );
  60:ZumoLibrary/serial1.c **** 	isr_U1_TX_ClearPending() ;
  61:ZumoLibrary/serial1.c **** 	isr_U1_TX_StartEx(vUart1TxISR);
  62:ZumoLibrary/serial1.c ****     
  63:ZumoLibrary/serial1.c **** 	/* Clear the interrupt modes for the Tx for the time being. */
  64:ZumoLibrary/serial1.c **** 	UART_1_SetTxInterruptMode( 0 );
  65:ZumoLibrary/serial1.c **** #endif
  66:ZumoLibrary/serial1.c **** 	/* Both configured successfully. */
  67:ZumoLibrary/serial1.c **** 	//return ( xComPortHandle )( xSerialTxQueue && xSerialRxQueue );
  68:ZumoLibrary/serial1.c **** }
  69:ZumoLibrary/serial1.c **** /*---------------------------------------------------------------------------*/
  70:ZumoLibrary/serial1.c **** 
  71:ZumoLibrary/serial1.c **** void vSerial1PutString(const char * const pcString, unsigned short usStringLength )
  72:ZumoLibrary/serial1.c **** {
  73:ZumoLibrary/serial1.c **** unsigned short usIndex = 0;
  74:ZumoLibrary/serial1.c **** 
  75:ZumoLibrary/serial1.c **** 	for( usIndex = 0; usIndex < usStringLength; usIndex++ )
  76:ZumoLibrary/serial1.c **** 	{
  77:ZumoLibrary/serial1.c **** 		/* Check for pre-mature end of line. */
  78:ZumoLibrary/serial1.c **** 		if( '\0' == pcString[ usIndex ] )
  79:ZumoLibrary/serial1.c **** 		{
  80:ZumoLibrary/serial1.c **** 			break;
  81:ZumoLibrary/serial1.c **** 		}
  82:ZumoLibrary/serial1.c **** 		
  83:ZumoLibrary/serial1.c **** 		/* Send out, one character at a time. */
  84:ZumoLibrary/serial1.c **** 		if( pdTRUE != xSerial1PutChar(pcString[ usIndex ], serialSTRING_DELAY_TICKS ) )
  85:ZumoLibrary/serial1.c **** 		{
  86:ZumoLibrary/serial1.c **** 			/* Failed to send, this will be picked up in the receive comtest task. */
  87:ZumoLibrary/serial1.c **** 		}
ARM GAS  C:\Users\samue\AppData\Local\Temp\ccGDktMv.s 			page 3


  88:ZumoLibrary/serial1.c **** 	}
  89:ZumoLibrary/serial1.c **** }
  90:ZumoLibrary/serial1.c **** /*---------------------------------------------------------------------------*/
  91:ZumoLibrary/serial1.c **** 
  92:ZumoLibrary/serial1.c **** signed portBASE_TYPE xSerial1GetChar(char *pcRxedChar, TickType_t xBlockTime )
  93:ZumoLibrary/serial1.c **** {
  94:ZumoLibrary/serial1.c **** portBASE_TYPE xReturn = pdFALSE;
  95:ZumoLibrary/serial1.c **** 
  96:ZumoLibrary/serial1.c **** 	if( pdTRUE == xQueueReceive( xSerialRxQueue, pcRxedChar, xBlockTime ) )
  97:ZumoLibrary/serial1.c **** 	{
  98:ZumoLibrary/serial1.c **** 		/* Picked up a character. */
  99:ZumoLibrary/serial1.c **** 		xReturn = pdTRUE;
 100:ZumoLibrary/serial1.c **** 	}
 101:ZumoLibrary/serial1.c **** 	return xReturn;
 102:ZumoLibrary/serial1.c **** }
 103:ZumoLibrary/serial1.c **** /*---------------------------------------------------------------------------*/
 104:ZumoLibrary/serial1.c **** 
 105:ZumoLibrary/serial1.c **** signed portBASE_TYPE xSerial1PutChar(char cOutChar, TickType_t xBlockTime )
 106:ZumoLibrary/serial1.c **** {
 107:ZumoLibrary/serial1.c **** portBASE_TYPE xReturn = pdFALSE;
 108:ZumoLibrary/serial1.c **** 
 109:ZumoLibrary/serial1.c **** 	/* The ISR is processing characters is so just add to the end of the queue. */
 110:ZumoLibrary/serial1.c **** 	if( pdTRUE == xQueueSend( xSerialTxQueue, &cOutChar, xBlockTime ) )
 111:ZumoLibrary/serial1.c **** 	{	
 112:ZumoLibrary/serial1.c **** 		xReturn = pdTRUE;
 113:ZumoLibrary/serial1.c **** 	}
 114:ZumoLibrary/serial1.c **** 	else
 115:ZumoLibrary/serial1.c **** 	{
 116:ZumoLibrary/serial1.c **** 		/* The queue is probably full. */
 117:ZumoLibrary/serial1.c **** 		xReturn = pdFALSE;
 118:ZumoLibrary/serial1.c **** 	}
 119:ZumoLibrary/serial1.c **** 
 120:ZumoLibrary/serial1.c **** 	/* Make sure that the interrupt will fire in the case where:
 121:ZumoLibrary/serial1.c **** 	    Currently sending so the Tx Complete will fire.
 122:ZumoLibrary/serial1.c **** 	    Not sending so the Empty will fire.	*/
 123:ZumoLibrary/serial1.c **** 	taskENTER_CRITICAL();
 124:ZumoLibrary/serial1.c **** 		UART_1_SetTxInterruptMode( UART_1_TX_STS_COMPLETE | UART_1_TX_STS_FIFO_EMPTY );
 125:ZumoLibrary/serial1.c **** 	taskEXIT_CRITICAL();
 126:ZumoLibrary/serial1.c **** 	
 127:ZumoLibrary/serial1.c **** 	return xReturn;
 128:ZumoLibrary/serial1.c **** }
 129:ZumoLibrary/serial1.c **** /*---------------------------------------------------------------------------*/
 130:ZumoLibrary/serial1.c **** 
 131:ZumoLibrary/serial1.c **** 
 132:ZumoLibrary/serial1.c **** CY_ISR(vUart1RxISR)
 133:ZumoLibrary/serial1.c **** {
  28              		.loc 1 133 0
  29              		.cfi_startproc
  30              		@ args = 0, pretend = 0, frame = 8
  31              		@ frame_needed = 0, uses_anonymous_args = 0
  32 0000 00B5     		push	{lr}
  33              		.cfi_def_cfa_offset 4
  34              		.cfi_offset 14, -4
  35 0002 83B0     		sub	sp, sp, #12
  36              		.cfi_def_cfa_offset 16
 134:ZumoLibrary/serial1.c **** BaseType_t xHigherPriorityTaskWoken = pdFALSE;
  37              		.loc 1 134 0
ARM GAS  C:\Users\samue\AppData\Local\Temp\ccGDktMv.s 			page 4


  38 0004 0023     		movs	r3, #0
  39 0006 0193     		str	r3, [sp, #4]
 135:ZumoLibrary/serial1.c **** volatile unsigned char ucStatus = 0;
  40              		.loc 1 135 0
  41 0008 8DF80330 		strb	r3, [sp, #3]
 136:ZumoLibrary/serial1.c **** signed char cInChar = 0;
  42              		.loc 1 136 0
  43 000c 8DF80230 		strb	r3, [sp, #2]
 137:ZumoLibrary/serial1.c **** 
 138:ZumoLibrary/serial1.c **** 	/* Read the status to acknowledge. */
 139:ZumoLibrary/serial1.c **** 	ucStatus = UART_1_ReadRxStatus();
  44              		.loc 1 139 0
  45 0010 FFF7FEFF 		bl	UART_1_ReadRxStatus
  46              	.LVL0:
  47 0014 8DF80300 		strb	r0, [sp, #3]
 140:ZumoLibrary/serial1.c **** 
 141:ZumoLibrary/serial1.c **** 	/* Only interested in a character being received. */
 142:ZumoLibrary/serial1.c **** 	if( 0 != ( ucStatus & UART_1_RX_STS_FIFO_NOTEMPTY ) )
  48              		.loc 1 142 0
  49 0018 9DF80330 		ldrb	r3, [sp, #3]	@ zero_extendqisi2
  50 001c 13F0200F 		tst	r3, #32
  51 0020 0BD0     		beq	.L2
 143:ZumoLibrary/serial1.c **** 	{
 144:ZumoLibrary/serial1.c **** 		/* Get the character. */
 145:ZumoLibrary/serial1.c **** 		cInChar = UART_1_ReadRxData();
  52              		.loc 1 145 0
  53 0022 FFF7FEFF 		bl	UART_1_ReadRxData
  54              	.LVL1:
  55 0026 8DF80200 		strb	r0, [sp, #2]
 146:ZumoLibrary/serial1.c **** 		/* Try to deliver the character. */
 147:ZumoLibrary/serial1.c **** 		if( pdTRUE != xQueueSendFromISR( xSerialRxQueue, &cInChar, &xHigherPriorityTaskWoken ) )
  56              		.loc 1 147 0
  57 002a 0023     		movs	r3, #0
  58 002c 01AA     		add	r2, sp, #4
  59 002e 0DF10201 		add	r1, sp, #2
  60 0032 0848     		ldr	r0, .L5
  61 0034 0068     		ldr	r0, [r0]
  62 0036 FFF7FEFF 		bl	xQueueGenericSendFromISR
  63              	.LVL2:
  64              	.L2:
 148:ZumoLibrary/serial1.c **** 		{
 149:ZumoLibrary/serial1.c **** 			/* Run out of space. */
 150:ZumoLibrary/serial1.c **** 		}
 151:ZumoLibrary/serial1.c **** 	}
 152:ZumoLibrary/serial1.c **** 
 153:ZumoLibrary/serial1.c **** 	/* If we delivered the character then a context switch might be required.
 154:ZumoLibrary/serial1.c **** 	xHigherPriorityTaskWoken was set to pdFALSE on interrupt entry.  If calling 
 155:ZumoLibrary/serial1.c **** 	xQueueSendFromISR() caused a task to unblock, and the unblocked task has
 156:ZumoLibrary/serial1.c **** 	a priority equal to or higher than the currently running task (the task this
 157:ZumoLibrary/serial1.c **** 	ISR interrupted), then xHigherPriorityTaskWoken will have been set to pdTRUE and
 158:ZumoLibrary/serial1.c **** 	portEND_SWITCHING_ISR() will request a context switch to the newly unblocked
 159:ZumoLibrary/serial1.c **** 	task. */
 160:ZumoLibrary/serial1.c **** 	portEND_SWITCHING_ISR( xHigherPriorityTaskWoken );
  65              		.loc 1 160 0
  66 003a 019B     		ldr	r3, [sp, #4]
  67 003c 3BB1     		cbz	r3, .L1
  68              		.loc 1 160 0 is_stmt 0 discriminator 1
ARM GAS  C:\Users\samue\AppData\Local\Temp\ccGDktMv.s 			page 5


  69 003e 4FF08052 		mov	r2, #268435456
  70 0042 054B     		ldr	r3, .L5+4
  71 0044 1A60     		str	r2, [r3]
  72              		.syntax unified
  73              	@ 160 "ZumoLibrary\serial1.c" 1
  74 0046 BFF34F8F 		dsb
  75              	@ 0 "" 2
  76              	@ 160 "ZumoLibrary\serial1.c" 1
  77 004a BFF36F8F 		isb
  78              	@ 0 "" 2
  79              		.thumb
  80              		.syntax unified
  81              	.L1:
 161:ZumoLibrary/serial1.c **** }
  82              		.loc 1 161 0 is_stmt 1
  83 004e 03B0     		add	sp, sp, #12
  84              		.cfi_def_cfa_offset 4
  85              		@ sp needed
  86 0050 5DF804FB 		ldr	pc, [sp], #4
  87              	.L6:
  88              		.align	2
  89              	.L5:
  90 0054 00000000 		.word	.LANCHOR0
  91 0058 04ED00E0 		.word	-536810236
  92              		.cfi_endproc
  93              	.LFE72:
  94              		.size	vUart1RxISR, .-vUart1RxISR
  95              		.section	.text.vUart1TxISR,"ax",%progbits
  96              		.align	2
  97              		.global	vUart1TxISR
  98              		.thumb
  99              		.thumb_func
 100              		.type	vUart1TxISR, %function
 101              	vUart1TxISR:
 102              	.LFB73:
 162:ZumoLibrary/serial1.c **** /*---------------------------------------------------------------------------*/
 163:ZumoLibrary/serial1.c **** 
 164:ZumoLibrary/serial1.c **** CY_ISR(vUart1TxISR)
 165:ZumoLibrary/serial1.c **** {
 103              		.loc 1 165 0
 104              		.cfi_startproc
 105              		@ args = 0, pretend = 0, frame = 8
 106              		@ frame_needed = 0, uses_anonymous_args = 0
 107 0000 00B5     		push	{lr}
 108              		.cfi_def_cfa_offset 4
 109              		.cfi_offset 14, -4
 110 0002 83B0     		sub	sp, sp, #12
 111              		.cfi_def_cfa_offset 16
 166:ZumoLibrary/serial1.c **** BaseType_t xHigherPriorityTaskWoken = pdFALSE;
 112              		.loc 1 166 0
 113 0004 0023     		movs	r3, #0
 114 0006 0193     		str	r3, [sp, #4]
 167:ZumoLibrary/serial1.c **** volatile unsigned char ucStatus = 0;
 115              		.loc 1 167 0
 116 0008 8DF80330 		strb	r3, [sp, #3]
 168:ZumoLibrary/serial1.c **** signed char cOutChar = 0;
 117              		.loc 1 168 0
ARM GAS  C:\Users\samue\AppData\Local\Temp\ccGDktMv.s 			page 6


 118 000c 8DF80230 		strb	r3, [sp, #2]
 169:ZumoLibrary/serial1.c **** 
 170:ZumoLibrary/serial1.c **** 	/* Read the status to acknowledge. */
 171:ZumoLibrary/serial1.c **** 	ucStatus = UART_1_ReadTxStatus();
 119              		.loc 1 171 0
 120 0010 FFF7FEFF 		bl	UART_1_ReadTxStatus
 121              	.LVL3:
 122 0014 8DF80300 		strb	r0, [sp, #3]
 172:ZumoLibrary/serial1.c **** 	
 173:ZumoLibrary/serial1.c **** 	/* Check to see whether this is a genuine interrupt. */
 174:ZumoLibrary/serial1.c **** 	if( 0 != ( ucStatus & UART_1_TX_STS_FIFO_EMPTY ) )
 123              		.loc 1 174 0
 124 0018 9DF80330 		ldrb	r3, [sp, #3]	@ zero_extendqisi2
 125 001c 13F0020F 		tst	r3, #2
 126 0020 15D0     		beq	.L8
 127              	.L10:
 175:ZumoLibrary/serial1.c **** 	{	
 176:ZumoLibrary/serial1.c ****         do
 177:ZumoLibrary/serial1.c **** 		{
 178:ZumoLibrary/serial1.c **** 			if( pdTRUE == xQueueReceiveFromISR( xSerialTxQueue, &cOutChar, &xHigherPriorityTaskWoken ) )
 128              		.loc 1 178 0
 129 0022 01AA     		add	r2, sp, #4
 130 0024 0DF10201 		add	r1, sp, #2
 131 0028 0F4B     		ldr	r3, .L13
 132 002a 5868     		ldr	r0, [r3, #4]
 133 002c FFF7FEFF 		bl	xQueueReceiveFromISR
 134              	.LVL4:
 135 0030 0128     		cmp	r0, #1
 136 0032 09D1     		bne	.L9
 179:ZumoLibrary/serial1.c **** 			{
 180:ZumoLibrary/serial1.c **** 				/* Send the next character. */
 181:ZumoLibrary/serial1.c **** 				UART_1_PutChar( cOutChar );			
 137              		.loc 1 181 0
 138 0034 9DF80200 		ldrb	r0, [sp, #2]	@ zero_extendqisi2
 139 0038 FFF7FEFF 		bl	UART_1_PutChar
 140              	.LVL5:
 182:ZumoLibrary/serial1.c **** 			}
 183:ZumoLibrary/serial1.c **** 			else
 184:ZumoLibrary/serial1.c **** 			{
 185:ZumoLibrary/serial1.c **** 				/* There is no work left so disable the interrupt until the application 
 186:ZumoLibrary/serial1.c **** 				puts more into the queue. */
 187:ZumoLibrary/serial1.c **** 				UART_1_SetTxInterruptMode( 0 );
 188:ZumoLibrary/serial1.c ****                 break;
 189:ZumoLibrary/serial1.c **** 			}
 190:ZumoLibrary/serial1.c **** 		} while((UART_1_ReadTxStatus() & UART_1_TX_STS_FIFO_FULL) == 0);
 141              		.loc 1 190 0
 142 003c FFF7FEFF 		bl	UART_1_ReadTxStatus
 143              	.LVL6:
 144 0040 10F0040F 		tst	r0, #4
 145 0044 EDD0     		beq	.L10
 146 0046 02E0     		b	.L8
 147              	.L9:
 187:ZumoLibrary/serial1.c ****                 break;
 148              		.loc 1 187 0
 149 0048 0020     		movs	r0, #0
 150 004a FFF7FEFF 		bl	UART_1_SetTxInterruptMode
 151              	.LVL7:
ARM GAS  C:\Users\samue\AppData\Local\Temp\ccGDktMv.s 			page 7


 152              	.L8:
 191:ZumoLibrary/serial1.c **** 	}
 192:ZumoLibrary/serial1.c **** 
 193:ZumoLibrary/serial1.c **** 	/* If we delivered the character then a context switch might be required.
 194:ZumoLibrary/serial1.c **** 	xHigherPriorityTaskWoken was set to pdFALSE on interrupt entry.  If calling 
 195:ZumoLibrary/serial1.c **** 	xQueueSendFromISR() caused a task to unblock, and the unblocked task has
 196:ZumoLibrary/serial1.c **** 	a priority equal to or higher than the currently running task (the task this
 197:ZumoLibrary/serial1.c **** 	ISR interrupted), then xHigherPriorityTaskWoken will have been set to pdTRUE and
 198:ZumoLibrary/serial1.c **** 	portEND_SWITCHING_ISR() will request a context switch to the newly unblocked
 199:ZumoLibrary/serial1.c **** 	task. */
 200:ZumoLibrary/serial1.c **** 	portEND_SWITCHING_ISR( xHigherPriorityTaskWoken );
 153              		.loc 1 200 0
 154 004e 019B     		ldr	r3, [sp, #4]
 155 0050 3BB1     		cbz	r3, .L7
 156              		.loc 1 200 0 is_stmt 0 discriminator 1
 157 0052 4FF08052 		mov	r2, #268435456
 158 0056 054B     		ldr	r3, .L13+4
 159 0058 1A60     		str	r2, [r3]
 160              		.syntax unified
 161              	@ 200 "ZumoLibrary\serial1.c" 1
 162 005a BFF34F8F 		dsb
 163              	@ 0 "" 2
 164              	@ 200 "ZumoLibrary\serial1.c" 1
 165 005e BFF36F8F 		isb
 166              	@ 0 "" 2
 167              		.thumb
 168              		.syntax unified
 169              	.L7:
 201:ZumoLibrary/serial1.c **** }
 170              		.loc 1 201 0 is_stmt 1
 171 0062 03B0     		add	sp, sp, #12
 172              		.cfi_def_cfa_offset 4
 173              		@ sp needed
 174 0064 5DF804FB 		ldr	pc, [sp], #4
 175              	.L14:
 176              		.align	2
 177              	.L13:
 178 0068 00000000 		.word	.LANCHOR0
 179 006c 04ED00E0 		.word	-536810236
 180              		.cfi_endproc
 181              	.LFE73:
 182              		.size	vUart1TxISR, .-vUart1TxISR
 183              		.section	.text.vSerial1PortInitMinimal,"ax",%progbits
 184              		.align	2
 185              		.global	vSerial1PortInitMinimal
 186              		.thumb
 187              		.thumb_func
 188              		.type	vSerial1PortInitMinimal, %function
 189              	vSerial1PortInitMinimal:
 190              	.LFB68:
  48:ZumoLibrary/serial1.c ****     /* seems that occasionally receiver gets in a weird state if received data is available when in
 191              		.loc 1 48 0
 192              		.cfi_startproc
 193              		@ args = 0, pretend = 0, frame = 0
 194              		@ frame_needed = 0, uses_anonymous_args = 0
 195              	.LVL8:
 196 0000 38B5     		push	{r3, r4, r5, lr}
ARM GAS  C:\Users\samue\AppData\Local\Temp\ccGDktMv.s 			page 8


 197              		.cfi_def_cfa_offset 16
 198              		.cfi_offset 3, -16
 199              		.cfi_offset 4, -12
 200              		.cfi_offset 5, -8
 201              		.cfi_offset 14, -4
 202 0002 0546     		mov	r5, r0
  50:ZumoLibrary/serial1.c **** 
 203              		.loc 1 50 0
 204 0004 01E0     		b	.L16
 205              	.LVL9:
 206              	.L17:
  50:ZumoLibrary/serial1.c **** 
 207              		.loc 1 50 0 is_stmt 0 discriminator 2
 208 0006 FFF7FEFF 		bl	UART_1_ReadRxData
 209              	.LVL10:
 210              	.L16:
  50:ZumoLibrary/serial1.c **** 
 211              		.loc 1 50 0 discriminator 1
 212 000a FFF7FEFF 		bl	UART_1_ReadRxStatus
 213              	.LVL11:
 214 000e 10F0200F 		tst	r0, #32
 215 0012 F8D1     		bne	.L17
  53:ZumoLibrary/serial1.c **** 	isr_U1_RX_ClearPending();
 216              		.loc 1 53 0 is_stmt 1
 217 0014 0022     		movs	r2, #0
 218 0016 0121     		movs	r1, #1
 219 0018 2846     		mov	r0, r5
 220 001a FFF7FEFF 		bl	xQueueGenericCreate
 221              	.LVL12:
 222 001e 0B4C     		ldr	r4, .L19
 223 0020 2060     		str	r0, [r4]
  54:ZumoLibrary/serial1.c **** 	isr_U1_RX_StartEx(vUart1RxISR);
 224              		.loc 1 54 0
 225 0022 FFF7FEFF 		bl	isr_U1_RX_ClearPending
 226              	.LVL13:
  55:ZumoLibrary/serial1.c **** 
 227              		.loc 1 55 0
 228 0026 0A48     		ldr	r0, .L19+4
 229 0028 FFF7FEFF 		bl	isr_U1_RX_StartEx
 230              	.LVL14:
  59:ZumoLibrary/serial1.c **** 	isr_U1_TX_ClearPending() ;
 231              		.loc 1 59 0
 232 002c 0022     		movs	r2, #0
 233 002e 0121     		movs	r1, #1
 234 0030 2846     		mov	r0, r5
 235 0032 FFF7FEFF 		bl	xQueueGenericCreate
 236              	.LVL15:
 237 0036 6060     		str	r0, [r4, #4]
  60:ZumoLibrary/serial1.c **** 	isr_U1_TX_StartEx(vUart1TxISR);
 238              		.loc 1 60 0
 239 0038 FFF7FEFF 		bl	isr_U1_TX_ClearPending
 240              	.LVL16:
  61:ZumoLibrary/serial1.c ****     
 241              		.loc 1 61 0
 242 003c 0548     		ldr	r0, .L19+8
 243 003e FFF7FEFF 		bl	isr_U1_TX_StartEx
 244              	.LVL17:
ARM GAS  C:\Users\samue\AppData\Local\Temp\ccGDktMv.s 			page 9


  64:ZumoLibrary/serial1.c **** #endif
 245              		.loc 1 64 0
 246 0042 0020     		movs	r0, #0
 247 0044 FFF7FEFF 		bl	UART_1_SetTxInterruptMode
 248              	.LVL18:
 249 0048 38BD     		pop	{r3, r4, r5, pc}
 250              	.LVL19:
 251              	.L20:
 252 004a 00BF     		.align	2
 253              	.L19:
 254 004c 00000000 		.word	.LANCHOR0
 255 0050 00000000 		.word	vUart1RxISR
 256 0054 00000000 		.word	vUart1TxISR
 257              		.cfi_endproc
 258              	.LFE68:
 259              		.size	vSerial1PortInitMinimal, .-vSerial1PortInitMinimal
 260              		.section	.text.xSerial1GetChar,"ax",%progbits
 261              		.align	2
 262              		.global	xSerial1GetChar
 263              		.thumb
 264              		.thumb_func
 265              		.type	xSerial1GetChar, %function
 266              	xSerial1GetChar:
 267              	.LFB70:
  93:ZumoLibrary/serial1.c **** portBASE_TYPE xReturn = pdFALSE;
 268              		.loc 1 93 0
 269              		.cfi_startproc
 270              		@ args = 0, pretend = 0, frame = 0
 271              		@ frame_needed = 0, uses_anonymous_args = 0
 272              	.LVL20:
 273 0000 08B5     		push	{r3, lr}
 274              		.cfi_def_cfa_offset 8
 275              		.cfi_offset 3, -8
 276              		.cfi_offset 14, -4
 277              	.LVL21:
  96:ZumoLibrary/serial1.c **** 	{
 278              		.loc 1 96 0
 279 0002 0A46     		mov	r2, r1
 280 0004 0146     		mov	r1, r0
 281              	.LVL22:
 282 0006 054B     		ldr	r3, .L25
 283 0008 1868     		ldr	r0, [r3]
 284              	.LVL23:
 285 000a FFF7FEFF 		bl	xQueueReceive
 286              	.LVL24:
 287 000e 0128     		cmp	r0, #1
 288 0010 01D0     		beq	.L23
  94:ZumoLibrary/serial1.c **** 
 289              		.loc 1 94 0
 290 0012 0020     		movs	r0, #0
 291 0014 08BD     		pop	{r3, pc}
 292              	.L23:
  99:ZumoLibrary/serial1.c **** 	}
 293              		.loc 1 99 0
 294 0016 0120     		movs	r0, #1
 295              	.LVL25:
 102:ZumoLibrary/serial1.c **** /*---------------------------------------------------------------------------*/
ARM GAS  C:\Users\samue\AppData\Local\Temp\ccGDktMv.s 			page 10


 296              		.loc 1 102 0
 297 0018 08BD     		pop	{r3, pc}
 298              	.L26:
 299 001a 00BF     		.align	2
 300              	.L25:
 301 001c 00000000 		.word	.LANCHOR0
 302              		.cfi_endproc
 303              	.LFE70:
 304              		.size	xSerial1GetChar, .-xSerial1GetChar
 305              		.section	.text.xSerial1PutChar,"ax",%progbits
 306              		.align	2
 307              		.global	xSerial1PutChar
 308              		.thumb
 309              		.thumb_func
 310              		.type	xSerial1PutChar, %function
 311              	xSerial1PutChar:
 312              	.LFB71:
 106:ZumoLibrary/serial1.c **** portBASE_TYPE xReturn = pdFALSE;
 313              		.loc 1 106 0
 314              		.cfi_startproc
 315              		@ args = 0, pretend = 0, frame = 8
 316              		@ frame_needed = 0, uses_anonymous_args = 0
 317              	.LVL26:
 318 0000 10B5     		push	{r4, lr}
 319              		.cfi_def_cfa_offset 8
 320              		.cfi_offset 4, -8
 321              		.cfi_offset 14, -4
 322 0002 82B0     		sub	sp, sp, #8
 323              		.cfi_def_cfa_offset 16
 324 0004 02AC     		add	r4, sp, #8
 325 0006 04F8010D 		strb	r0, [r4, #-1]!
 326              	.LVL27:
 110:ZumoLibrary/serial1.c **** 	{	
 327              		.loc 1 110 0
 328 000a 0023     		movs	r3, #0
 329 000c 0A46     		mov	r2, r1
 330 000e 2146     		mov	r1, r4
 331              	.LVL28:
 332 0010 0948     		ldr	r0, .L31
 333              	.LVL29:
 334 0012 4068     		ldr	r0, [r0, #4]
 335 0014 FFF7FEFF 		bl	xQueueGenericSend
 336              	.LVL30:
 337 0018 0128     		cmp	r0, #1
 338 001a 01D1     		bne	.L29
 112:ZumoLibrary/serial1.c **** 	}
 339              		.loc 1 112 0
 340 001c 0124     		movs	r4, #1
 341              	.LVL31:
 342 001e 00E0     		b	.L28
 343              	.LVL32:
 344              	.L29:
 117:ZumoLibrary/serial1.c **** 	}
 345              		.loc 1 117 0
 346 0020 0024     		movs	r4, #0
 347              	.LVL33:
 348              	.L28:
ARM GAS  C:\Users\samue\AppData\Local\Temp\ccGDktMv.s 			page 11


 123:ZumoLibrary/serial1.c **** 		UART_1_SetTxInterruptMode( UART_1_TX_STS_COMPLETE | UART_1_TX_STS_FIFO_EMPTY );
 349              		.loc 1 123 0
 350 0022 FFF7FEFF 		bl	vPortEnterCritical
 351              	.LVL34:
 124:ZumoLibrary/serial1.c **** 	taskEXIT_CRITICAL();
 352              		.loc 1 124 0
 353 0026 0320     		movs	r0, #3
 354 0028 FFF7FEFF 		bl	UART_1_SetTxInterruptMode
 355              	.LVL35:
 125:ZumoLibrary/serial1.c **** 	
 356              		.loc 1 125 0
 357 002c FFF7FEFF 		bl	vPortExitCritical
 358              	.LVL36:
 128:ZumoLibrary/serial1.c **** /*---------------------------------------------------------------------------*/
 359              		.loc 1 128 0
 360 0030 2046     		mov	r0, r4
 361 0032 02B0     		add	sp, sp, #8
 362              		.cfi_def_cfa_offset 8
 363              	.LVL37:
 364              		@ sp needed
 365 0034 10BD     		pop	{r4, pc}
 366              	.LVL38:
 367              	.L32:
 368 0036 00BF     		.align	2
 369              	.L31:
 370 0038 00000000 		.word	.LANCHOR0
 371              		.cfi_endproc
 372              	.LFE71:
 373              		.size	xSerial1PutChar, .-xSerial1PutChar
 374              		.section	.text.vSerial1PutString,"ax",%progbits
 375              		.align	2
 376              		.global	vSerial1PutString
 377              		.thumb
 378              		.thumb_func
 379              		.type	vSerial1PutString, %function
 380              	vSerial1PutString:
 381              	.LFB69:
  72:ZumoLibrary/serial1.c **** unsigned short usIndex = 0;
 382              		.loc 1 72 0
 383              		.cfi_startproc
 384              		@ args = 0, pretend = 0, frame = 0
 385              		@ frame_needed = 0, uses_anonymous_args = 0
 386              	.LVL39:
 387 0000 70B5     		push	{r4, r5, r6, lr}
 388              		.cfi_def_cfa_offset 16
 389              		.cfi_offset 4, -16
 390              		.cfi_offset 5, -12
 391              		.cfi_offset 6, -8
 392              		.cfi_offset 14, -4
 393 0002 0646     		mov	r6, r0
 394 0004 0D46     		mov	r5, r1
 395              	.LVL40:
  75:ZumoLibrary/serial1.c **** 	{
 396              		.loc 1 75 0
 397 0006 0024     		movs	r4, #0
 398 0008 07E0     		b	.L34
 399              	.LVL41:
ARM GAS  C:\Users\samue\AppData\Local\Temp\ccGDktMv.s 			page 12


 400              	.L36:
  78:ZumoLibrary/serial1.c **** 		{
 401              		.loc 1 78 0
 402 000a 305D     		ldrb	r0, [r6, r4]	@ zero_extendqisi2
 403 000c 38B1     		cbz	r0, .L33
  84:ZumoLibrary/serial1.c **** 		{
 404              		.loc 1 84 0
 405 000e 4FF0FF31 		mov	r1, #-1
 406 0012 FFF7FEFF 		bl	xSerial1PutChar
 407              	.LVL42:
  75:ZumoLibrary/serial1.c **** 	{
 408              		.loc 1 75 0
 409 0016 0134     		adds	r4, r4, #1
 410              	.LVL43:
 411 0018 A4B2     		uxth	r4, r4
 412              	.LVL44:
 413              	.L34:
  75:ZumoLibrary/serial1.c **** 	{
 414              		.loc 1 75 0 is_stmt 0 discriminator 1
 415 001a AC42     		cmp	r4, r5
 416 001c F5D3     		bcc	.L36
 417              	.L33:
 418 001e 70BD     		pop	{r4, r5, r6, pc}
 419              		.cfi_endproc
 420              	.LFE69:
 421              		.size	vSerial1PutString, .-vSerial1PutString
 422              		.bss
 423              		.align	2
 424              		.set	.LANCHOR0,. + 0
 425              		.type	xSerialRxQueue, %object
 426              		.size	xSerialRxQueue, 4
 427              	xSerialRxQueue:
 428 0000 00000000 		.space	4
 429              		.type	xSerialTxQueue, %object
 430              		.size	xSerialTxQueue, 4
 431              	xSerialTxQueue:
 432 0004 00000000 		.space	4
 433              		.text
 434              	.Letext0:
 435              		.file 2 "c:\\program files (x86)\\cypress\\psoc creator\\4.2\\psoc creator\\import\\gnu\\arm\\5.4.
 436              		.file 3 "c:\\program files (x86)\\cypress\\psoc creator\\4.2\\psoc creator\\import\\gnu\\arm\\5.4.
 437              		.file 4 "Generated_Source\\PSoC5/cytypes.h"
 438              		.file 5 "..\\FreeRTOS\\Source\\portable\\GCC\\ARM_CM3/portmacro.h"
 439              		.file 6 "..\\FreeRTOS\\Source\\include/queue.h"
 440              		.file 7 "Generated_Source\\PSoC5/UART_1.h"
 441              		.file 8 "Generated_Source\\PSoC5/isr_U1_RX.h"
 442              		.file 9 "Generated_Source\\PSoC5/isr_U1_TX.h"
 443              		.file 10 "Generated_Source\\PSoC5/core_cm3.h"