ARM GAS  C:\Users\samue\AppData\Local\Temp\cc6oSIFr.s 			page 1


   1              		.syntax unified
   2              		.cpu cortex-m3
   3              		.fpu softvfp
   4              		.eabi_attribute 20, 1
   5              		.eabi_attribute 21, 1
   6              		.eabi_attribute 23, 3
   7              		.eabi_attribute 24, 1
   8              		.eabi_attribute 25, 1
   9              		.eabi_attribute 26, 1
  10              		.eabi_attribute 30, 1
  11              		.eabi_attribute 34, 1
  12              		.eabi_attribute 18, 4
  13              		.thumb
  14              		.syntax unified
  15              		.file	"stream_buffer.c"
  16              		.text
  17              	.Ltext0:
  18              		.cfi_sections	.debug_frame
  19              		.section	.text.prvBytesInBuffer,"ax",%progbits
  20              		.align	2
  21              		.thumb
  22              		.thumb_func
  23              		.type	prvBytesInBuffer, %function
  24              	prvBytesInBuffer:
  25              	.LFB86:
  26              		.file 1 "..\\FreeRTOS\\Source\\stream_buffer.c"
   1:..\FreeRTOS\Source/stream_buffer.c **** /*
   2:..\FreeRTOS\Source/stream_buffer.c ****  * FreeRTOS Kernel V10.0.1
   3:..\FreeRTOS\Source/stream_buffer.c ****  * Copyright (C) 2017 Amazon.com, Inc. or its affiliates.  All Rights Reserved.
   4:..\FreeRTOS\Source/stream_buffer.c ****  *
   5:..\FreeRTOS\Source/stream_buffer.c ****  * Permission is hereby granted, free of charge, to any person obtaining a copy of
   6:..\FreeRTOS\Source/stream_buffer.c ****  * this software and associated documentation files (the "Software"), to deal in
   7:..\FreeRTOS\Source/stream_buffer.c ****  * the Software without restriction, including without limitation the rights to
   8:..\FreeRTOS\Source/stream_buffer.c ****  * use, copy, modify, merge, publish, distribute, sublicense, and/or sell copies of
   9:..\FreeRTOS\Source/stream_buffer.c ****  * the Software, and to permit persons to whom the Software is furnished to do so,
  10:..\FreeRTOS\Source/stream_buffer.c ****  * subject to the following conditions:
  11:..\FreeRTOS\Source/stream_buffer.c ****  *
  12:..\FreeRTOS\Source/stream_buffer.c ****  * The above copyright notice and this permission notice shall be included in all
  13:..\FreeRTOS\Source/stream_buffer.c ****  * copies or substantial portions of the Software.
  14:..\FreeRTOS\Source/stream_buffer.c ****  *
  15:..\FreeRTOS\Source/stream_buffer.c ****  * THE SOFTWARE IS PROVIDED "AS IS", WITHOUT WARRANTY OF ANY KIND, EXPRESS OR
  16:..\FreeRTOS\Source/stream_buffer.c ****  * IMPLIED, INCLUDING BUT NOT LIMITED TO THE WARRANTIES OF MERCHANTABILITY, FITNESS
  17:..\FreeRTOS\Source/stream_buffer.c ****  * FOR A PARTICULAR PURPOSE AND NONINFRINGEMENT. IN NO EVENT SHALL THE AUTHORS OR
  18:..\FreeRTOS\Source/stream_buffer.c ****  * COPYRIGHT HOLDERS BE LIABLE FOR ANY CLAIM, DAMAGES OR OTHER LIABILITY, WHETHER
  19:..\FreeRTOS\Source/stream_buffer.c ****  * IN AN ACTION OF CONTRACT, TORT OR OTHERWISE, ARISING FROM, OUT OF OR IN
  20:..\FreeRTOS\Source/stream_buffer.c ****  * CONNECTION WITH THE SOFTWARE OR THE USE OR OTHER DEALINGS IN THE SOFTWARE.
  21:..\FreeRTOS\Source/stream_buffer.c ****  *
  22:..\FreeRTOS\Source/stream_buffer.c ****  * http://www.FreeRTOS.org
  23:..\FreeRTOS\Source/stream_buffer.c ****  * http://aws.amazon.com/freertos
  24:..\FreeRTOS\Source/stream_buffer.c ****  *
  25:..\FreeRTOS\Source/stream_buffer.c ****  * 1 tab == 4 spaces!
  26:..\FreeRTOS\Source/stream_buffer.c ****  */
  27:..\FreeRTOS\Source/stream_buffer.c **** 
  28:..\FreeRTOS\Source/stream_buffer.c **** /* Standard includes. */
  29:..\FreeRTOS\Source/stream_buffer.c **** #include <stdint.h>
  30:..\FreeRTOS\Source/stream_buffer.c **** #include <string.h>
  31:..\FreeRTOS\Source/stream_buffer.c **** 
ARM GAS  C:\Users\samue\AppData\Local\Temp\cc6oSIFr.s 			page 2


  32:..\FreeRTOS\Source/stream_buffer.c **** /* Defining MPU_WRAPPERS_INCLUDED_FROM_API_FILE prevents task.h from redefining
  33:..\FreeRTOS\Source/stream_buffer.c **** all the API functions to use the MPU wrappers.  That should only be done when
  34:..\FreeRTOS\Source/stream_buffer.c **** task.h is included from an application file. */
  35:..\FreeRTOS\Source/stream_buffer.c **** #define MPU_WRAPPERS_INCLUDED_FROM_API_FILE
  36:..\FreeRTOS\Source/stream_buffer.c **** 
  37:..\FreeRTOS\Source/stream_buffer.c **** /* FreeRTOS includes. */
  38:..\FreeRTOS\Source/stream_buffer.c **** #include "FreeRTOS.h"
  39:..\FreeRTOS\Source/stream_buffer.c **** #include "task.h"
  40:..\FreeRTOS\Source/stream_buffer.c **** #include "stream_buffer.h"
  41:..\FreeRTOS\Source/stream_buffer.c **** 
  42:..\FreeRTOS\Source/stream_buffer.c **** #if( configUSE_TASK_NOTIFICATIONS != 1 )
  43:..\FreeRTOS\Source/stream_buffer.c **** 	#error configUSE_TASK_NOTIFICATIONS must be set to 1 to build stream_buffer.c
  44:..\FreeRTOS\Source/stream_buffer.c **** #endif
  45:..\FreeRTOS\Source/stream_buffer.c **** 
  46:..\FreeRTOS\Source/stream_buffer.c **** /* Lint e961 and e750 are suppressed as a MISRA exception justified because the
  47:..\FreeRTOS\Source/stream_buffer.c **** MPU ports require MPU_WRAPPERS_INCLUDED_FROM_API_FILE to be defined for the
  48:..\FreeRTOS\Source/stream_buffer.c **** header files above, but not in this file, in order to generate the correct
  49:..\FreeRTOS\Source/stream_buffer.c **** privileged Vs unprivileged linkage and placement. */
  50:..\FreeRTOS\Source/stream_buffer.c **** #undef MPU_WRAPPERS_INCLUDED_FROM_API_FILE /*lint !e961 !e750. */
  51:..\FreeRTOS\Source/stream_buffer.c **** 
  52:..\FreeRTOS\Source/stream_buffer.c **** /* If the user has not provided application specific Rx notification macros,
  53:..\FreeRTOS\Source/stream_buffer.c **** or #defined the notification macros away, them provide default implementations
  54:..\FreeRTOS\Source/stream_buffer.c **** that uses task notifications. */
  55:..\FreeRTOS\Source/stream_buffer.c **** /*lint -save -e9026 Function like macros allowed and needed here so they can be overidden. */
  56:..\FreeRTOS\Source/stream_buffer.c **** #ifndef sbRECEIVE_COMPLETED
  57:..\FreeRTOS\Source/stream_buffer.c **** 	#define sbRECEIVE_COMPLETED( pxStreamBuffer )										\
  58:..\FreeRTOS\Source/stream_buffer.c **** 		vTaskSuspendAll();																\
  59:..\FreeRTOS\Source/stream_buffer.c **** 		{																				\
  60:..\FreeRTOS\Source/stream_buffer.c **** 			if( ( pxStreamBuffer )->xTaskWaitingToSend != NULL )						\
  61:..\FreeRTOS\Source/stream_buffer.c **** 			{																			\
  62:..\FreeRTOS\Source/stream_buffer.c **** 				( void ) xTaskNotify( ( pxStreamBuffer )->xTaskWaitingToSend,			\
  63:..\FreeRTOS\Source/stream_buffer.c **** 									  ( uint32_t ) 0,									\
  64:..\FreeRTOS\Source/stream_buffer.c **** 									  eNoAction );										\
  65:..\FreeRTOS\Source/stream_buffer.c **** 				( pxStreamBuffer )->xTaskWaitingToSend = NULL;							\
  66:..\FreeRTOS\Source/stream_buffer.c **** 			}																			\
  67:..\FreeRTOS\Source/stream_buffer.c **** 		}																				\
  68:..\FreeRTOS\Source/stream_buffer.c **** 		( void ) xTaskResumeAll();
  69:..\FreeRTOS\Source/stream_buffer.c **** #endif /* sbRECEIVE_COMPLETED */
  70:..\FreeRTOS\Source/stream_buffer.c **** 
  71:..\FreeRTOS\Source/stream_buffer.c **** #ifndef sbRECEIVE_COMPLETED_FROM_ISR
  72:..\FreeRTOS\Source/stream_buffer.c **** 	#define sbRECEIVE_COMPLETED_FROM_ISR( pxStreamBuffer,								\
  73:..\FreeRTOS\Source/stream_buffer.c **** 										  pxHigherPriorityTaskWoken )					\
  74:..\FreeRTOS\Source/stream_buffer.c **** 	{																					\
  75:..\FreeRTOS\Source/stream_buffer.c **** 	UBaseType_t uxSavedInterruptStatus;													\
  76:..\FreeRTOS\Source/stream_buffer.c **** 																						\
  77:..\FreeRTOS\Source/stream_buffer.c **** 		uxSavedInterruptStatus = ( UBaseType_t ) portSET_INTERRUPT_MASK_FROM_ISR();		\
  78:..\FreeRTOS\Source/stream_buffer.c **** 		{																				\
  79:..\FreeRTOS\Source/stream_buffer.c **** 			if( ( pxStreamBuffer )->xTaskWaitingToSend != NULL )						\
  80:..\FreeRTOS\Source/stream_buffer.c **** 			{																			\
  81:..\FreeRTOS\Source/stream_buffer.c **** 				( void ) xTaskNotifyFromISR( ( pxStreamBuffer )->xTaskWaitingToSend,	\
  82:..\FreeRTOS\Source/stream_buffer.c **** 											 ( uint32_t ) 0,							\
  83:..\FreeRTOS\Source/stream_buffer.c **** 											 eNoAction,									\
  84:..\FreeRTOS\Source/stream_buffer.c **** 											 pxHigherPriorityTaskWoken );				\
  85:..\FreeRTOS\Source/stream_buffer.c **** 				( pxStreamBuffer )->xTaskWaitingToSend = NULL;							\
  86:..\FreeRTOS\Source/stream_buffer.c **** 			}																			\
  87:..\FreeRTOS\Source/stream_buffer.c **** 		}																				\
  88:..\FreeRTOS\Source/stream_buffer.c **** 		portCLEAR_INTERRUPT_MASK_FROM_ISR( uxSavedInterruptStatus );					\
ARM GAS  C:\Users\samue\AppData\Local\Temp\cc6oSIFr.s 			page 3


  89:..\FreeRTOS\Source/stream_buffer.c **** 	}
  90:..\FreeRTOS\Source/stream_buffer.c **** #endif /* sbRECEIVE_COMPLETED_FROM_ISR */
  91:..\FreeRTOS\Source/stream_buffer.c **** 
  92:..\FreeRTOS\Source/stream_buffer.c **** /* If the user has not provided an application specific Tx notification macro,
  93:..\FreeRTOS\Source/stream_buffer.c **** or #defined the notification macro away, them provide a default implementation
  94:..\FreeRTOS\Source/stream_buffer.c **** that uses task notifications. */
  95:..\FreeRTOS\Source/stream_buffer.c **** #ifndef sbSEND_COMPLETED
  96:..\FreeRTOS\Source/stream_buffer.c **** 	#define sbSEND_COMPLETED( pxStreamBuffer )											\
  97:..\FreeRTOS\Source/stream_buffer.c **** 		vTaskSuspendAll();																\
  98:..\FreeRTOS\Source/stream_buffer.c **** 		{																				\
  99:..\FreeRTOS\Source/stream_buffer.c **** 			if( ( pxStreamBuffer )->xTaskWaitingToReceive != NULL )						\
 100:..\FreeRTOS\Source/stream_buffer.c **** 			{																			\
 101:..\FreeRTOS\Source/stream_buffer.c **** 				( void ) xTaskNotify( ( pxStreamBuffer )->xTaskWaitingToReceive,		\
 102:..\FreeRTOS\Source/stream_buffer.c **** 									  ( uint32_t ) 0,									\
 103:..\FreeRTOS\Source/stream_buffer.c **** 									  eNoAction );										\
 104:..\FreeRTOS\Source/stream_buffer.c **** 				( pxStreamBuffer )->xTaskWaitingToReceive = NULL;						\
 105:..\FreeRTOS\Source/stream_buffer.c **** 			}																			\
 106:..\FreeRTOS\Source/stream_buffer.c **** 		}																				\
 107:..\FreeRTOS\Source/stream_buffer.c **** 		( void ) xTaskResumeAll();
 108:..\FreeRTOS\Source/stream_buffer.c **** #endif /* sbSEND_COMPLETED */
 109:..\FreeRTOS\Source/stream_buffer.c **** 
 110:..\FreeRTOS\Source/stream_buffer.c **** #ifndef sbSEND_COMPLETE_FROM_ISR
 111:..\FreeRTOS\Source/stream_buffer.c **** 	#define sbSEND_COMPLETE_FROM_ISR( pxStreamBuffer, pxHigherPriorityTaskWoken )		\
 112:..\FreeRTOS\Source/stream_buffer.c **** 	{																					\
 113:..\FreeRTOS\Source/stream_buffer.c **** 	UBaseType_t uxSavedInterruptStatus;													\
 114:..\FreeRTOS\Source/stream_buffer.c **** 																						\
 115:..\FreeRTOS\Source/stream_buffer.c **** 		uxSavedInterruptStatus = ( UBaseType_t ) portSET_INTERRUPT_MASK_FROM_ISR();		\
 116:..\FreeRTOS\Source/stream_buffer.c **** 		{																				\
 117:..\FreeRTOS\Source/stream_buffer.c **** 			if( ( pxStreamBuffer )->xTaskWaitingToReceive != NULL )						\
 118:..\FreeRTOS\Source/stream_buffer.c **** 			{																			\
 119:..\FreeRTOS\Source/stream_buffer.c **** 				( void ) xTaskNotifyFromISR( ( pxStreamBuffer )->xTaskWaitingToReceive,	\
 120:..\FreeRTOS\Source/stream_buffer.c **** 											 ( uint32_t ) 0,							\
 121:..\FreeRTOS\Source/stream_buffer.c **** 											 eNoAction,									\
 122:..\FreeRTOS\Source/stream_buffer.c **** 											 pxHigherPriorityTaskWoken );				\
 123:..\FreeRTOS\Source/stream_buffer.c **** 				( pxStreamBuffer )->xTaskWaitingToReceive = NULL;						\
 124:..\FreeRTOS\Source/stream_buffer.c **** 			}																			\
 125:..\FreeRTOS\Source/stream_buffer.c **** 		}																				\
 126:..\FreeRTOS\Source/stream_buffer.c **** 		portCLEAR_INTERRUPT_MASK_FROM_ISR( uxSavedInterruptStatus );					\
 127:..\FreeRTOS\Source/stream_buffer.c **** 	}
 128:..\FreeRTOS\Source/stream_buffer.c **** #endif /* sbSEND_COMPLETE_FROM_ISR */
 129:..\FreeRTOS\Source/stream_buffer.c **** /*lint -restore (9026) */
 130:..\FreeRTOS\Source/stream_buffer.c **** 
 131:..\FreeRTOS\Source/stream_buffer.c **** /* The number of bytes used to hold the length of a message in the buffer. */
 132:..\FreeRTOS\Source/stream_buffer.c **** #define sbBYTES_TO_STORE_MESSAGE_LENGTH ( sizeof( size_t ) )
 133:..\FreeRTOS\Source/stream_buffer.c **** 
 134:..\FreeRTOS\Source/stream_buffer.c **** /* Bits stored in the ucFlags field of the stream buffer. */
 135:..\FreeRTOS\Source/stream_buffer.c **** #define sbFLAGS_IS_MESSAGE_BUFFER		( ( uint8_t ) 1 ) /* Set if the stream buffer was created as a m
 136:..\FreeRTOS\Source/stream_buffer.c **** #define sbFLAGS_IS_STATICALLY_ALLOCATED ( ( uint8_t ) 2 ) /* Set if the stream buffer was created u
 137:..\FreeRTOS\Source/stream_buffer.c **** 
 138:..\FreeRTOS\Source/stream_buffer.c **** /*-----------------------------------------------------------*/
 139:..\FreeRTOS\Source/stream_buffer.c **** 
 140:..\FreeRTOS\Source/stream_buffer.c **** /* Structure that hold state information on the buffer. */
 141:..\FreeRTOS\Source/stream_buffer.c **** typedef struct xSTREAM_BUFFER /*lint !e9058 Style convention uses tag. */
 142:..\FreeRTOS\Source/stream_buffer.c **** {
 143:..\FreeRTOS\Source/stream_buffer.c **** 	volatile size_t xTail;				/* Index to the next item to read within the buffer. */
 144:..\FreeRTOS\Source/stream_buffer.c **** 	volatile size_t xHead;				/* Index to the next item to write within the buffer. */
 145:..\FreeRTOS\Source/stream_buffer.c **** 	size_t xLength;						/* The length of the buffer pointed to by pucBuffer. */
ARM GAS  C:\Users\samue\AppData\Local\Temp\cc6oSIFr.s 			page 4


 146:..\FreeRTOS\Source/stream_buffer.c **** 	size_t xTriggerLevelBytes;			/* The number of bytes that must be in the stream buffer before a tas
 147:..\FreeRTOS\Source/stream_buffer.c **** 	volatile TaskHandle_t xTaskWaitingToReceive; /* Holds the handle of a task waiting for data, or NU
 148:..\FreeRTOS\Source/stream_buffer.c **** 	volatile TaskHandle_t xTaskWaitingToSend;	/* Holds the handle of a task waiting to send data to a 
 149:..\FreeRTOS\Source/stream_buffer.c **** 	uint8_t *pucBuffer;					/* Points to the buffer itself - that is - the RAM that stores the data pa
 150:..\FreeRTOS\Source/stream_buffer.c **** 	uint8_t ucFlags;
 151:..\FreeRTOS\Source/stream_buffer.c **** 
 152:..\FreeRTOS\Source/stream_buffer.c **** 	#if ( configUSE_TRACE_FACILITY == 1 )
 153:..\FreeRTOS\Source/stream_buffer.c **** 		UBaseType_t uxStreamBufferNumber;		/* Used for tracing purposes. */
 154:..\FreeRTOS\Source/stream_buffer.c **** 	#endif
 155:..\FreeRTOS\Source/stream_buffer.c **** } StreamBuffer_t;
 156:..\FreeRTOS\Source/stream_buffer.c **** 
 157:..\FreeRTOS\Source/stream_buffer.c **** /*
 158:..\FreeRTOS\Source/stream_buffer.c ****  * The number of bytes available to be read from the buffer.
 159:..\FreeRTOS\Source/stream_buffer.c ****  */
 160:..\FreeRTOS\Source/stream_buffer.c **** static size_t prvBytesInBuffer( const StreamBuffer_t * const pxStreamBuffer ) PRIVILEGED_FUNCTION;
 161:..\FreeRTOS\Source/stream_buffer.c **** 
 162:..\FreeRTOS\Source/stream_buffer.c **** /*
 163:..\FreeRTOS\Source/stream_buffer.c ****  * Add xCount bytes from pucData into the pxStreamBuffer message buffer.
 164:..\FreeRTOS\Source/stream_buffer.c ****  * Returns the number of bytes written, which will either equal xCount in the
 165:..\FreeRTOS\Source/stream_buffer.c ****  * success case, or 0 if there was not enough space in the buffer (in which case
 166:..\FreeRTOS\Source/stream_buffer.c ****  * no data is written into the buffer).
 167:..\FreeRTOS\Source/stream_buffer.c ****  */
 168:..\FreeRTOS\Source/stream_buffer.c **** static size_t prvWriteBytesToBuffer( StreamBuffer_t * const pxStreamBuffer, const uint8_t *pucData,
 169:..\FreeRTOS\Source/stream_buffer.c **** 
 170:..\FreeRTOS\Source/stream_buffer.c **** /*
 171:..\FreeRTOS\Source/stream_buffer.c ****  * If the stream buffer is being used as a message buffer, then reads an entire
 172:..\FreeRTOS\Source/stream_buffer.c ****  * message out of the buffer.  If the stream buffer is being used as a stream
 173:..\FreeRTOS\Source/stream_buffer.c ****  * buffer then read as many bytes as possible from the buffer.
 174:..\FreeRTOS\Source/stream_buffer.c ****  * prvReadBytesFromBuffer() is called to actually extract the bytes from the
 175:..\FreeRTOS\Source/stream_buffer.c ****  * buffer's data storage area.
 176:..\FreeRTOS\Source/stream_buffer.c ****  */
 177:..\FreeRTOS\Source/stream_buffer.c **** static size_t prvReadMessageFromBuffer( StreamBuffer_t *pxStreamBuffer,
 178:..\FreeRTOS\Source/stream_buffer.c **** 										void *pvRxData,
 179:..\FreeRTOS\Source/stream_buffer.c **** 										size_t xBufferLengthBytes,
 180:..\FreeRTOS\Source/stream_buffer.c **** 										size_t xBytesAvailable,
 181:..\FreeRTOS\Source/stream_buffer.c **** 										size_t xBytesToStoreMessageLength ) PRIVILEGED_FUNCTION;
 182:..\FreeRTOS\Source/stream_buffer.c **** 
 183:..\FreeRTOS\Source/stream_buffer.c **** /*
 184:..\FreeRTOS\Source/stream_buffer.c ****  * If the stream buffer is being used as a message buffer, then writes an entire
 185:..\FreeRTOS\Source/stream_buffer.c ****  * message to the buffer.  If the stream buffer is being used as a stream
 186:..\FreeRTOS\Source/stream_buffer.c ****  * buffer then write as many bytes as possible to the buffer.
 187:..\FreeRTOS\Source/stream_buffer.c ****  * prvWriteBytestoBuffer() is called to actually send the bytes to the buffer's
 188:..\FreeRTOS\Source/stream_buffer.c ****  * data storage area.
 189:..\FreeRTOS\Source/stream_buffer.c ****  */
 190:..\FreeRTOS\Source/stream_buffer.c **** static size_t prvWriteMessageToBuffer(  StreamBuffer_t * const pxStreamBuffer,
 191:..\FreeRTOS\Source/stream_buffer.c **** 										const void * pvTxData,
 192:..\FreeRTOS\Source/stream_buffer.c **** 										size_t xDataLengthBytes,
 193:..\FreeRTOS\Source/stream_buffer.c **** 										size_t xSpace,
 194:..\FreeRTOS\Source/stream_buffer.c **** 										size_t xRequiredSpace ) PRIVILEGED_FUNCTION;
 195:..\FreeRTOS\Source/stream_buffer.c **** 
 196:..\FreeRTOS\Source/stream_buffer.c **** /*
 197:..\FreeRTOS\Source/stream_buffer.c ****  * Read xMaxCount bytes from the pxStreamBuffer message buffer and write them
 198:..\FreeRTOS\Source/stream_buffer.c ****  * to pucData.
 199:..\FreeRTOS\Source/stream_buffer.c ****  */
 200:..\FreeRTOS\Source/stream_buffer.c **** static size_t prvReadBytesFromBuffer( StreamBuffer_t *pxStreamBuffer,
 201:..\FreeRTOS\Source/stream_buffer.c **** 									  uint8_t *pucData,
 202:..\FreeRTOS\Source/stream_buffer.c **** 									  size_t xMaxCount,
ARM GAS  C:\Users\samue\AppData\Local\Temp\cc6oSIFr.s 			page 5


 203:..\FreeRTOS\Source/stream_buffer.c **** 									  size_t xBytesAvailable ); PRIVILEGED_FUNCTION
 204:..\FreeRTOS\Source/stream_buffer.c **** 
 205:..\FreeRTOS\Source/stream_buffer.c **** /*
 206:..\FreeRTOS\Source/stream_buffer.c ****  * Called by both pxStreamBufferCreate() and pxStreamBufferCreateStatic() to
 207:..\FreeRTOS\Source/stream_buffer.c ****  * initialise the members of the newly created stream buffer structure.
 208:..\FreeRTOS\Source/stream_buffer.c ****  */
 209:..\FreeRTOS\Source/stream_buffer.c **** static void prvInitialiseNewStreamBuffer( StreamBuffer_t * const pxStreamBuffer,
 210:..\FreeRTOS\Source/stream_buffer.c **** 										  uint8_t * const pucBuffer,
 211:..\FreeRTOS\Source/stream_buffer.c **** 										  size_t xBufferSizeBytes,
 212:..\FreeRTOS\Source/stream_buffer.c **** 										  size_t xTriggerLevelBytes,
 213:..\FreeRTOS\Source/stream_buffer.c **** 										  BaseType_t xIsMessageBuffer ) PRIVILEGED_FUNCTION;
 214:..\FreeRTOS\Source/stream_buffer.c **** 
 215:..\FreeRTOS\Source/stream_buffer.c **** /*-----------------------------------------------------------*/
 216:..\FreeRTOS\Source/stream_buffer.c **** 
 217:..\FreeRTOS\Source/stream_buffer.c **** #if( configSUPPORT_DYNAMIC_ALLOCATION == 1 )
 218:..\FreeRTOS\Source/stream_buffer.c **** 
 219:..\FreeRTOS\Source/stream_buffer.c **** 	StreamBufferHandle_t xStreamBufferGenericCreate( size_t xBufferSizeBytes, size_t xTriggerLevelByte
 220:..\FreeRTOS\Source/stream_buffer.c **** 	{
 221:..\FreeRTOS\Source/stream_buffer.c **** 	uint8_t *pucAllocatedMemory;
 222:..\FreeRTOS\Source/stream_buffer.c **** 
 223:..\FreeRTOS\Source/stream_buffer.c **** 		/* In case the stream buffer is going to be used as a message buffer
 224:..\FreeRTOS\Source/stream_buffer.c **** 		(that is, it will hold discrete messages with a little meta data that
 225:..\FreeRTOS\Source/stream_buffer.c **** 		says how big the next message is) check the buffer will be large enough
 226:..\FreeRTOS\Source/stream_buffer.c **** 		to hold at least one message. */
 227:..\FreeRTOS\Source/stream_buffer.c **** 		configASSERT( xBufferSizeBytes > sbBYTES_TO_STORE_MESSAGE_LENGTH );
 228:..\FreeRTOS\Source/stream_buffer.c **** 		configASSERT( xTriggerLevelBytes <= xBufferSizeBytes );
 229:..\FreeRTOS\Source/stream_buffer.c **** 
 230:..\FreeRTOS\Source/stream_buffer.c **** 		/* A trigger level of 0 would cause a waiting task to unblock even when
 231:..\FreeRTOS\Source/stream_buffer.c **** 		the buffer was empty. */
 232:..\FreeRTOS\Source/stream_buffer.c **** 		if( xTriggerLevelBytes == ( size_t ) 0 )
 233:..\FreeRTOS\Source/stream_buffer.c **** 		{
 234:..\FreeRTOS\Source/stream_buffer.c **** 			xTriggerLevelBytes = ( size_t ) 1; /*lint !e9044 Parameter modified to ensure it doesn't have a 
 235:..\FreeRTOS\Source/stream_buffer.c **** 		}
 236:..\FreeRTOS\Source/stream_buffer.c **** 
 237:..\FreeRTOS\Source/stream_buffer.c **** 		/* A stream buffer requires a StreamBuffer_t structure and a buffer.
 238:..\FreeRTOS\Source/stream_buffer.c **** 		Both are allocated in a single call to pvPortMalloc().  The
 239:..\FreeRTOS\Source/stream_buffer.c **** 		StreamBuffer_t structure is placed at the start of the allocated memory
 240:..\FreeRTOS\Source/stream_buffer.c **** 		and the buffer follows immediately after.  The requested size is
 241:..\FreeRTOS\Source/stream_buffer.c **** 		incremented so the free space is returned as the user would expect -
 242:..\FreeRTOS\Source/stream_buffer.c **** 		this is a quirk of the implementation that means otherwise the free
 243:..\FreeRTOS\Source/stream_buffer.c **** 		space would be reported as one byte smaller than would be logically
 244:..\FreeRTOS\Source/stream_buffer.c **** 		expected. */
 245:..\FreeRTOS\Source/stream_buffer.c **** 		xBufferSizeBytes++;
 246:..\FreeRTOS\Source/stream_buffer.c **** 		pucAllocatedMemory = ( uint8_t * ) pvPortMalloc( xBufferSizeBytes + sizeof( StreamBuffer_t ) ); /
 247:..\FreeRTOS\Source/stream_buffer.c **** 
 248:..\FreeRTOS\Source/stream_buffer.c **** 		if( pucAllocatedMemory != NULL )
 249:..\FreeRTOS\Source/stream_buffer.c **** 		{
 250:..\FreeRTOS\Source/stream_buffer.c **** 			prvInitialiseNewStreamBuffer( ( StreamBuffer_t * ) pucAllocatedMemory, /* Structure at the start
 251:..\FreeRTOS\Source/stream_buffer.c **** 										   pucAllocatedMemory + sizeof( StreamBuffer_t ),  /* Storage area follows. */ /*lint !e9
 252:..\FreeRTOS\Source/stream_buffer.c **** 										   xBufferSizeBytes,
 253:..\FreeRTOS\Source/stream_buffer.c **** 										   xTriggerLevelBytes,
 254:..\FreeRTOS\Source/stream_buffer.c **** 										   xIsMessageBuffer );
 255:..\FreeRTOS\Source/stream_buffer.c **** 
 256:..\FreeRTOS\Source/stream_buffer.c **** 			traceSTREAM_BUFFER_CREATE( ( ( StreamBuffer_t * ) pucAllocatedMemory ), xIsMessageBuffer );
 257:..\FreeRTOS\Source/stream_buffer.c **** 		}
 258:..\FreeRTOS\Source/stream_buffer.c **** 		else
 259:..\FreeRTOS\Source/stream_buffer.c **** 		{
ARM GAS  C:\Users\samue\AppData\Local\Temp\cc6oSIFr.s 			page 6


 260:..\FreeRTOS\Source/stream_buffer.c **** 			traceSTREAM_BUFFER_CREATE_FAILED( xIsMessageBuffer );
 261:..\FreeRTOS\Source/stream_buffer.c **** 		}
 262:..\FreeRTOS\Source/stream_buffer.c **** 
 263:..\FreeRTOS\Source/stream_buffer.c **** 		return ( StreamBufferHandle_t * ) pucAllocatedMemory; /*lint !e9087 !e826 Safe cast as allocated 
 264:..\FreeRTOS\Source/stream_buffer.c **** 	}
 265:..\FreeRTOS\Source/stream_buffer.c **** 
 266:..\FreeRTOS\Source/stream_buffer.c **** #endif /* configSUPPORT_DYNAMIC_ALLOCATION */
 267:..\FreeRTOS\Source/stream_buffer.c **** /*-----------------------------------------------------------*/
 268:..\FreeRTOS\Source/stream_buffer.c **** 
 269:..\FreeRTOS\Source/stream_buffer.c **** #if( configSUPPORT_STATIC_ALLOCATION == 1 )
 270:..\FreeRTOS\Source/stream_buffer.c **** 
 271:..\FreeRTOS\Source/stream_buffer.c **** 	StreamBufferHandle_t xStreamBufferGenericCreateStatic( size_t xBufferSizeBytes,
 272:..\FreeRTOS\Source/stream_buffer.c **** 														   size_t xTriggerLevelBytes,
 273:..\FreeRTOS\Source/stream_buffer.c **** 														   BaseType_t xIsMessageBuffer,
 274:..\FreeRTOS\Source/stream_buffer.c **** 														   uint8_t * const pucStreamBufferStorageArea,
 275:..\FreeRTOS\Source/stream_buffer.c **** 														   StaticStreamBuffer_t * const pxStaticStreamBuffer )
 276:..\FreeRTOS\Source/stream_buffer.c **** 	{
 277:..\FreeRTOS\Source/stream_buffer.c **** 	StreamBuffer_t * const pxStreamBuffer = ( StreamBuffer_t * ) pxStaticStreamBuffer; /*lint !e740 !e
 278:..\FreeRTOS\Source/stream_buffer.c **** 	StreamBufferHandle_t xReturn;
 279:..\FreeRTOS\Source/stream_buffer.c **** 
 280:..\FreeRTOS\Source/stream_buffer.c **** 		configASSERT( pucStreamBufferStorageArea );
 281:..\FreeRTOS\Source/stream_buffer.c **** 		configASSERT( pxStaticStreamBuffer );
 282:..\FreeRTOS\Source/stream_buffer.c **** 		configASSERT( xTriggerLevelBytes <= xBufferSizeBytes );
 283:..\FreeRTOS\Source/stream_buffer.c **** 
 284:..\FreeRTOS\Source/stream_buffer.c **** 		/* A trigger level of 0 would cause a waiting task to unblock even when
 285:..\FreeRTOS\Source/stream_buffer.c **** 		the buffer was empty. */
 286:..\FreeRTOS\Source/stream_buffer.c **** 		if( xTriggerLevelBytes == ( size_t ) 0 )
 287:..\FreeRTOS\Source/stream_buffer.c **** 		{
 288:..\FreeRTOS\Source/stream_buffer.c **** 			xTriggerLevelBytes = ( size_t ) 1; /*lint !e9044 Function parameter deliberately modified to ens
 289:..\FreeRTOS\Source/stream_buffer.c **** 		}
 290:..\FreeRTOS\Source/stream_buffer.c **** 
 291:..\FreeRTOS\Source/stream_buffer.c **** 		/* In case the stream buffer is going to be used as a message buffer
 292:..\FreeRTOS\Source/stream_buffer.c **** 		(that is, it will hold discrete messages with a little meta data that
 293:..\FreeRTOS\Source/stream_buffer.c **** 		says how big the next message is) check the buffer will be large enough
 294:..\FreeRTOS\Source/stream_buffer.c **** 		to hold at least one message. */
 295:..\FreeRTOS\Source/stream_buffer.c **** 		configASSERT( xBufferSizeBytes > sbBYTES_TO_STORE_MESSAGE_LENGTH );
 296:..\FreeRTOS\Source/stream_buffer.c **** 
 297:..\FreeRTOS\Source/stream_buffer.c **** 		#if( configASSERT_DEFINED == 1 )
 298:..\FreeRTOS\Source/stream_buffer.c **** 		{
 299:..\FreeRTOS\Source/stream_buffer.c **** 			/* Sanity check that the size of the structure used to declare a
 300:..\FreeRTOS\Source/stream_buffer.c **** 			variable of type StaticStreamBuffer_t equals the size of the real
 301:..\FreeRTOS\Source/stream_buffer.c **** 			message buffer structure. */
 302:..\FreeRTOS\Source/stream_buffer.c **** 			volatile size_t xSize = sizeof( StaticStreamBuffer_t );
 303:..\FreeRTOS\Source/stream_buffer.c **** 			configASSERT( xSize == sizeof( StreamBuffer_t ) );
 304:..\FreeRTOS\Source/stream_buffer.c **** 		}
 305:..\FreeRTOS\Source/stream_buffer.c **** 		#endif /* configASSERT_DEFINED */
 306:..\FreeRTOS\Source/stream_buffer.c **** 
 307:..\FreeRTOS\Source/stream_buffer.c **** 		if( ( pucStreamBufferStorageArea != NULL ) && ( pxStaticStreamBuffer != NULL ) )
 308:..\FreeRTOS\Source/stream_buffer.c **** 		{
 309:..\FreeRTOS\Source/stream_buffer.c **** 			prvInitialiseNewStreamBuffer( pxStreamBuffer,
 310:..\FreeRTOS\Source/stream_buffer.c **** 										  pucStreamBufferStorageArea,
 311:..\FreeRTOS\Source/stream_buffer.c **** 										  xBufferSizeBytes,
 312:..\FreeRTOS\Source/stream_buffer.c **** 										  xTriggerLevelBytes,
 313:..\FreeRTOS\Source/stream_buffer.c **** 										  xIsMessageBuffer );
 314:..\FreeRTOS\Source/stream_buffer.c **** 
 315:..\FreeRTOS\Source/stream_buffer.c **** 			/* Remember this was statically allocated in case it is ever deleted
 316:..\FreeRTOS\Source/stream_buffer.c **** 			again. */
ARM GAS  C:\Users\samue\AppData\Local\Temp\cc6oSIFr.s 			page 7


 317:..\FreeRTOS\Source/stream_buffer.c **** 			pxStreamBuffer->ucFlags |= sbFLAGS_IS_STATICALLY_ALLOCATED;
 318:..\FreeRTOS\Source/stream_buffer.c **** 
 319:..\FreeRTOS\Source/stream_buffer.c **** 			traceSTREAM_BUFFER_CREATE( pxStreamBuffer, xIsMessageBuffer );
 320:..\FreeRTOS\Source/stream_buffer.c **** 
 321:..\FreeRTOS\Source/stream_buffer.c **** 			xReturn = ( StreamBufferHandle_t ) pxStaticStreamBuffer; /*lint !e9087 Data hiding requires cast
 322:..\FreeRTOS\Source/stream_buffer.c **** 		}
 323:..\FreeRTOS\Source/stream_buffer.c **** 		else
 324:..\FreeRTOS\Source/stream_buffer.c **** 		{
 325:..\FreeRTOS\Source/stream_buffer.c **** 			xReturn = NULL;
 326:..\FreeRTOS\Source/stream_buffer.c **** 			traceSTREAM_BUFFER_CREATE_STATIC_FAILED( xReturn, xIsMessageBuffer );
 327:..\FreeRTOS\Source/stream_buffer.c **** 		}
 328:..\FreeRTOS\Source/stream_buffer.c **** 
 329:..\FreeRTOS\Source/stream_buffer.c **** 		return xReturn;
 330:..\FreeRTOS\Source/stream_buffer.c **** 	}
 331:..\FreeRTOS\Source/stream_buffer.c **** 
 332:..\FreeRTOS\Source/stream_buffer.c **** #endif /* ( configSUPPORT_STATIC_ALLOCATION == 1 ) */
 333:..\FreeRTOS\Source/stream_buffer.c **** /*-----------------------------------------------------------*/
 334:..\FreeRTOS\Source/stream_buffer.c **** 
 335:..\FreeRTOS\Source/stream_buffer.c **** void vStreamBufferDelete( StreamBufferHandle_t xStreamBuffer )
 336:..\FreeRTOS\Source/stream_buffer.c **** {
 337:..\FreeRTOS\Source/stream_buffer.c **** StreamBuffer_t * pxStreamBuffer = ( StreamBuffer_t * ) xStreamBuffer; /*lint !e9087 !e9079 Safe cas
 338:..\FreeRTOS\Source/stream_buffer.c **** 
 339:..\FreeRTOS\Source/stream_buffer.c **** 	configASSERT( pxStreamBuffer );
 340:..\FreeRTOS\Source/stream_buffer.c **** 
 341:..\FreeRTOS\Source/stream_buffer.c **** 	traceSTREAM_BUFFER_DELETE( xStreamBuffer );
 342:..\FreeRTOS\Source/stream_buffer.c **** 
 343:..\FreeRTOS\Source/stream_buffer.c **** 	if( ( pxStreamBuffer->ucFlags & sbFLAGS_IS_STATICALLY_ALLOCATED ) == ( uint8_t ) pdFALSE )
 344:..\FreeRTOS\Source/stream_buffer.c **** 	{
 345:..\FreeRTOS\Source/stream_buffer.c **** 		#if( configSUPPORT_DYNAMIC_ALLOCATION == 1 )
 346:..\FreeRTOS\Source/stream_buffer.c **** 		{
 347:..\FreeRTOS\Source/stream_buffer.c **** 			/* Both the structure and the buffer were allocated using a single call
 348:..\FreeRTOS\Source/stream_buffer.c **** 			to pvPortMalloc(), hence only one call to vPortFree() is required. */
 349:..\FreeRTOS\Source/stream_buffer.c **** 			vPortFree( ( void * ) pxStreamBuffer ); /*lint !e9087 Standard free() semantics require void *, 
 350:..\FreeRTOS\Source/stream_buffer.c **** 		}
 351:..\FreeRTOS\Source/stream_buffer.c **** 		#else
 352:..\FreeRTOS\Source/stream_buffer.c **** 		{
 353:..\FreeRTOS\Source/stream_buffer.c **** 			/* Should not be possible to get here, ucFlags must be corrupt.
 354:..\FreeRTOS\Source/stream_buffer.c **** 			Force an assert. */
 355:..\FreeRTOS\Source/stream_buffer.c **** 			configASSERT( xStreamBuffer == ( StreamBufferHandle_t ) ~0 );
 356:..\FreeRTOS\Source/stream_buffer.c **** 		}
 357:..\FreeRTOS\Source/stream_buffer.c **** 		#endif
 358:..\FreeRTOS\Source/stream_buffer.c **** 	}
 359:..\FreeRTOS\Source/stream_buffer.c **** 	else
 360:..\FreeRTOS\Source/stream_buffer.c **** 	{
 361:..\FreeRTOS\Source/stream_buffer.c **** 		/* The structure and buffer were not allocated dynamically and cannot be
 362:..\FreeRTOS\Source/stream_buffer.c **** 		freed - just scrub the structure so future use will assert. */
 363:..\FreeRTOS\Source/stream_buffer.c **** 		memset( pxStreamBuffer, 0x00, sizeof( StreamBuffer_t ) );
 364:..\FreeRTOS\Source/stream_buffer.c **** 	}
 365:..\FreeRTOS\Source/stream_buffer.c **** }
 366:..\FreeRTOS\Source/stream_buffer.c **** /*-----------------------------------------------------------*/
 367:..\FreeRTOS\Source/stream_buffer.c **** 
 368:..\FreeRTOS\Source/stream_buffer.c **** BaseType_t xStreamBufferReset( StreamBufferHandle_t xStreamBuffer )
 369:..\FreeRTOS\Source/stream_buffer.c **** {
 370:..\FreeRTOS\Source/stream_buffer.c **** StreamBuffer_t * const pxStreamBuffer = ( StreamBuffer_t * ) xStreamBuffer; /*lint !e9087 !e9079 Sa
 371:..\FreeRTOS\Source/stream_buffer.c **** BaseType_t xReturn = pdFAIL, xIsMessageBuffer;
 372:..\FreeRTOS\Source/stream_buffer.c **** 
 373:..\FreeRTOS\Source/stream_buffer.c **** #if( configUSE_TRACE_FACILITY == 1 )
ARM GAS  C:\Users\samue\AppData\Local\Temp\cc6oSIFr.s 			page 8


 374:..\FreeRTOS\Source/stream_buffer.c **** 	UBaseType_t uxStreamBufferNumber;
 375:..\FreeRTOS\Source/stream_buffer.c **** #endif
 376:..\FreeRTOS\Source/stream_buffer.c **** 
 377:..\FreeRTOS\Source/stream_buffer.c **** 	configASSERT( pxStreamBuffer );
 378:..\FreeRTOS\Source/stream_buffer.c **** 
 379:..\FreeRTOS\Source/stream_buffer.c **** 	#if( configUSE_TRACE_FACILITY == 1 )
 380:..\FreeRTOS\Source/stream_buffer.c **** 	{
 381:..\FreeRTOS\Source/stream_buffer.c **** 		/* Store the stream buffer number so it can be restored after the
 382:..\FreeRTOS\Source/stream_buffer.c **** 		reset. */
 383:..\FreeRTOS\Source/stream_buffer.c **** 		uxStreamBufferNumber = pxStreamBuffer->uxStreamBufferNumber;
 384:..\FreeRTOS\Source/stream_buffer.c **** 	}
 385:..\FreeRTOS\Source/stream_buffer.c **** 	#endif
 386:..\FreeRTOS\Source/stream_buffer.c **** 
 387:..\FreeRTOS\Source/stream_buffer.c **** 	/* Can only reset a message buffer if there are no tasks blocked on it. */
 388:..\FreeRTOS\Source/stream_buffer.c **** 	if( pxStreamBuffer->xTaskWaitingToReceive == NULL )
 389:..\FreeRTOS\Source/stream_buffer.c **** 	{
 390:..\FreeRTOS\Source/stream_buffer.c **** 		if( pxStreamBuffer->xTaskWaitingToSend == NULL )
 391:..\FreeRTOS\Source/stream_buffer.c **** 		{
 392:..\FreeRTOS\Source/stream_buffer.c **** 			if( ( pxStreamBuffer->ucFlags & sbFLAGS_IS_MESSAGE_BUFFER ) != ( uint8_t ) 0 )
 393:..\FreeRTOS\Source/stream_buffer.c **** 			{
 394:..\FreeRTOS\Source/stream_buffer.c **** 				xIsMessageBuffer = pdTRUE;
 395:..\FreeRTOS\Source/stream_buffer.c **** 			}
 396:..\FreeRTOS\Source/stream_buffer.c **** 			else
 397:..\FreeRTOS\Source/stream_buffer.c **** 			{
 398:..\FreeRTOS\Source/stream_buffer.c **** 				xIsMessageBuffer = pdFALSE;
 399:..\FreeRTOS\Source/stream_buffer.c **** 			}
 400:..\FreeRTOS\Source/stream_buffer.c **** 
 401:..\FreeRTOS\Source/stream_buffer.c **** 			prvInitialiseNewStreamBuffer( pxStreamBuffer,
 402:..\FreeRTOS\Source/stream_buffer.c **** 										  pxStreamBuffer->pucBuffer,
 403:..\FreeRTOS\Source/stream_buffer.c **** 										  pxStreamBuffer->xLength,
 404:..\FreeRTOS\Source/stream_buffer.c **** 										  pxStreamBuffer->xTriggerLevelBytes,
 405:..\FreeRTOS\Source/stream_buffer.c **** 										  xIsMessageBuffer );
 406:..\FreeRTOS\Source/stream_buffer.c **** 			xReturn = pdPASS;
 407:..\FreeRTOS\Source/stream_buffer.c **** 
 408:..\FreeRTOS\Source/stream_buffer.c **** 			#if( configUSE_TRACE_FACILITY == 1 )
 409:..\FreeRTOS\Source/stream_buffer.c **** 			{
 410:..\FreeRTOS\Source/stream_buffer.c **** 				pxStreamBuffer->uxStreamBufferNumber = uxStreamBufferNumber;
 411:..\FreeRTOS\Source/stream_buffer.c **** 			}
 412:..\FreeRTOS\Source/stream_buffer.c **** 			#endif
 413:..\FreeRTOS\Source/stream_buffer.c **** 
 414:..\FreeRTOS\Source/stream_buffer.c **** 			traceSTREAM_BUFFER_RESET( xStreamBuffer );
 415:..\FreeRTOS\Source/stream_buffer.c **** 		}
 416:..\FreeRTOS\Source/stream_buffer.c **** 	}
 417:..\FreeRTOS\Source/stream_buffer.c **** 
 418:..\FreeRTOS\Source/stream_buffer.c **** 	return xReturn;
 419:..\FreeRTOS\Source/stream_buffer.c **** }
 420:..\FreeRTOS\Source/stream_buffer.c **** /*-----------------------------------------------------------*/
 421:..\FreeRTOS\Source/stream_buffer.c **** 
 422:..\FreeRTOS\Source/stream_buffer.c **** BaseType_t xStreamBufferSetTriggerLevel( StreamBufferHandle_t xStreamBuffer, size_t xTriggerLevel )
 423:..\FreeRTOS\Source/stream_buffer.c **** {
 424:..\FreeRTOS\Source/stream_buffer.c **** StreamBuffer_t * const pxStreamBuffer = ( StreamBuffer_t * ) xStreamBuffer; /*lint !e9087 !e9079 Sa
 425:..\FreeRTOS\Source/stream_buffer.c **** BaseType_t xReturn;
 426:..\FreeRTOS\Source/stream_buffer.c **** 
 427:..\FreeRTOS\Source/stream_buffer.c **** 	configASSERT( pxStreamBuffer );
 428:..\FreeRTOS\Source/stream_buffer.c **** 
 429:..\FreeRTOS\Source/stream_buffer.c **** 	/* It is not valid for the trigger level to be 0. */
 430:..\FreeRTOS\Source/stream_buffer.c **** 	if( xTriggerLevel == ( size_t ) 0 )
ARM GAS  C:\Users\samue\AppData\Local\Temp\cc6oSIFr.s 			page 9


 431:..\FreeRTOS\Source/stream_buffer.c **** 	{
 432:..\FreeRTOS\Source/stream_buffer.c **** 		xTriggerLevel = ( size_t ) 1; /*lint !e9044 Parameter modified to ensure it doesn't have a danger
 433:..\FreeRTOS\Source/stream_buffer.c **** 	}
 434:..\FreeRTOS\Source/stream_buffer.c **** 
 435:..\FreeRTOS\Source/stream_buffer.c **** 	/* The trigger level is the number of bytes that must be in the stream
 436:..\FreeRTOS\Source/stream_buffer.c **** 	buffer before a task that is waiting for data is unblocked. */
 437:..\FreeRTOS\Source/stream_buffer.c **** 	if( xTriggerLevel <= pxStreamBuffer->xLength )
 438:..\FreeRTOS\Source/stream_buffer.c **** 	{
 439:..\FreeRTOS\Source/stream_buffer.c **** 		pxStreamBuffer->xTriggerLevelBytes = xTriggerLevel;
 440:..\FreeRTOS\Source/stream_buffer.c **** 		xReturn = pdPASS;
 441:..\FreeRTOS\Source/stream_buffer.c **** 	}
 442:..\FreeRTOS\Source/stream_buffer.c **** 	else
 443:..\FreeRTOS\Source/stream_buffer.c **** 	{
 444:..\FreeRTOS\Source/stream_buffer.c **** 		xReturn = pdFALSE;
 445:..\FreeRTOS\Source/stream_buffer.c **** 	}
 446:..\FreeRTOS\Source/stream_buffer.c **** 
 447:..\FreeRTOS\Source/stream_buffer.c **** 	return xReturn;
 448:..\FreeRTOS\Source/stream_buffer.c **** }
 449:..\FreeRTOS\Source/stream_buffer.c **** /*-----------------------------------------------------------*/
 450:..\FreeRTOS\Source/stream_buffer.c **** 
 451:..\FreeRTOS\Source/stream_buffer.c **** size_t xStreamBufferSpacesAvailable( StreamBufferHandle_t xStreamBuffer )
 452:..\FreeRTOS\Source/stream_buffer.c **** {
 453:..\FreeRTOS\Source/stream_buffer.c **** const StreamBuffer_t * const pxStreamBuffer = ( StreamBuffer_t * ) xStreamBuffer; /*lint !e9087 !e9
 454:..\FreeRTOS\Source/stream_buffer.c **** size_t xSpace;
 455:..\FreeRTOS\Source/stream_buffer.c **** 
 456:..\FreeRTOS\Source/stream_buffer.c **** 	configASSERT( pxStreamBuffer );
 457:..\FreeRTOS\Source/stream_buffer.c **** 
 458:..\FreeRTOS\Source/stream_buffer.c **** 	xSpace = pxStreamBuffer->xLength + pxStreamBuffer->xTail;
 459:..\FreeRTOS\Source/stream_buffer.c **** 	xSpace -= pxStreamBuffer->xHead;
 460:..\FreeRTOS\Source/stream_buffer.c **** 	xSpace -= ( size_t ) 1;
 461:..\FreeRTOS\Source/stream_buffer.c **** 
 462:..\FreeRTOS\Source/stream_buffer.c **** 	if( xSpace >= pxStreamBuffer->xLength )
 463:..\FreeRTOS\Source/stream_buffer.c **** 	{
 464:..\FreeRTOS\Source/stream_buffer.c **** 		xSpace -= pxStreamBuffer->xLength;
 465:..\FreeRTOS\Source/stream_buffer.c **** 	}
 466:..\FreeRTOS\Source/stream_buffer.c **** 	else
 467:..\FreeRTOS\Source/stream_buffer.c **** 	{
 468:..\FreeRTOS\Source/stream_buffer.c **** 		mtCOVERAGE_TEST_MARKER();
 469:..\FreeRTOS\Source/stream_buffer.c **** 	}
 470:..\FreeRTOS\Source/stream_buffer.c **** 
 471:..\FreeRTOS\Source/stream_buffer.c **** 	return xSpace;
 472:..\FreeRTOS\Source/stream_buffer.c **** }
 473:..\FreeRTOS\Source/stream_buffer.c **** /*-----------------------------------------------------------*/
 474:..\FreeRTOS\Source/stream_buffer.c **** 
 475:..\FreeRTOS\Source/stream_buffer.c **** size_t xStreamBufferBytesAvailable( StreamBufferHandle_t xStreamBuffer )
 476:..\FreeRTOS\Source/stream_buffer.c **** {
 477:..\FreeRTOS\Source/stream_buffer.c **** const StreamBuffer_t * const pxStreamBuffer = ( StreamBuffer_t * ) xStreamBuffer; /*lint !e9087 !e9
 478:..\FreeRTOS\Source/stream_buffer.c **** size_t xReturn;
 479:..\FreeRTOS\Source/stream_buffer.c **** 
 480:..\FreeRTOS\Source/stream_buffer.c **** 	configASSERT( pxStreamBuffer );
 481:..\FreeRTOS\Source/stream_buffer.c **** 
 482:..\FreeRTOS\Source/stream_buffer.c **** 	xReturn = prvBytesInBuffer( pxStreamBuffer );
 483:..\FreeRTOS\Source/stream_buffer.c **** 	return xReturn;
 484:..\FreeRTOS\Source/stream_buffer.c **** }
 485:..\FreeRTOS\Source/stream_buffer.c **** /*-----------------------------------------------------------*/
 486:..\FreeRTOS\Source/stream_buffer.c **** 
 487:..\FreeRTOS\Source/stream_buffer.c **** size_t xStreamBufferSend( StreamBufferHandle_t xStreamBuffer,
ARM GAS  C:\Users\samue\AppData\Local\Temp\cc6oSIFr.s 			page 10


 488:..\FreeRTOS\Source/stream_buffer.c **** 						  const void *pvTxData,
 489:..\FreeRTOS\Source/stream_buffer.c **** 						  size_t xDataLengthBytes,
 490:..\FreeRTOS\Source/stream_buffer.c **** 						  TickType_t xTicksToWait )
 491:..\FreeRTOS\Source/stream_buffer.c **** {
 492:..\FreeRTOS\Source/stream_buffer.c **** StreamBuffer_t * const pxStreamBuffer = ( StreamBuffer_t * ) xStreamBuffer; /*lint !e9087 !e9079 Sa
 493:..\FreeRTOS\Source/stream_buffer.c **** size_t xReturn, xSpace = 0;
 494:..\FreeRTOS\Source/stream_buffer.c **** size_t xRequiredSpace = xDataLengthBytes;
 495:..\FreeRTOS\Source/stream_buffer.c **** TimeOut_t xTimeOut;
 496:..\FreeRTOS\Source/stream_buffer.c **** 
 497:..\FreeRTOS\Source/stream_buffer.c **** 	configASSERT( pvTxData );
 498:..\FreeRTOS\Source/stream_buffer.c **** 	configASSERT( pxStreamBuffer );
 499:..\FreeRTOS\Source/stream_buffer.c **** 
 500:..\FreeRTOS\Source/stream_buffer.c **** 	/* This send function is used to write to both message buffers and stream
 501:..\FreeRTOS\Source/stream_buffer.c **** 	buffers.  If this is a message buffer then the space needed must be
 502:..\FreeRTOS\Source/stream_buffer.c **** 	increased by the amount of bytes needed to store the length of the
 503:..\FreeRTOS\Source/stream_buffer.c **** 	message. */
 504:..\FreeRTOS\Source/stream_buffer.c **** 	if( ( pxStreamBuffer->ucFlags & sbFLAGS_IS_MESSAGE_BUFFER ) != ( uint8_t ) 0 )
 505:..\FreeRTOS\Source/stream_buffer.c **** 	{
 506:..\FreeRTOS\Source/stream_buffer.c **** 		xRequiredSpace += sbBYTES_TO_STORE_MESSAGE_LENGTH;
 507:..\FreeRTOS\Source/stream_buffer.c **** 	}
 508:..\FreeRTOS\Source/stream_buffer.c **** 	else
 509:..\FreeRTOS\Source/stream_buffer.c **** 	{
 510:..\FreeRTOS\Source/stream_buffer.c **** 		mtCOVERAGE_TEST_MARKER();
 511:..\FreeRTOS\Source/stream_buffer.c **** 	}
 512:..\FreeRTOS\Source/stream_buffer.c **** 
 513:..\FreeRTOS\Source/stream_buffer.c **** 	if( xTicksToWait != ( TickType_t ) 0 )
 514:..\FreeRTOS\Source/stream_buffer.c **** 	{
 515:..\FreeRTOS\Source/stream_buffer.c **** 		vTaskSetTimeOutState( &xTimeOut );
 516:..\FreeRTOS\Source/stream_buffer.c **** 
 517:..\FreeRTOS\Source/stream_buffer.c **** 		do
 518:..\FreeRTOS\Source/stream_buffer.c **** 		{
 519:..\FreeRTOS\Source/stream_buffer.c **** 			/* Wait until the required number of bytes are free in the message
 520:..\FreeRTOS\Source/stream_buffer.c **** 			buffer. */
 521:..\FreeRTOS\Source/stream_buffer.c **** 			taskENTER_CRITICAL();
 522:..\FreeRTOS\Source/stream_buffer.c **** 			{
 523:..\FreeRTOS\Source/stream_buffer.c **** 				xSpace = xStreamBufferSpacesAvailable( pxStreamBuffer );
 524:..\FreeRTOS\Source/stream_buffer.c **** 
 525:..\FreeRTOS\Source/stream_buffer.c **** 				if( xSpace < xRequiredSpace )
 526:..\FreeRTOS\Source/stream_buffer.c **** 				{
 527:..\FreeRTOS\Source/stream_buffer.c **** 					/* Clear notification state as going to wait for space. */
 528:..\FreeRTOS\Source/stream_buffer.c **** 					( void ) xTaskNotifyStateClear( NULL );
 529:..\FreeRTOS\Source/stream_buffer.c **** 
 530:..\FreeRTOS\Source/stream_buffer.c **** 					/* Should only be one writer. */
 531:..\FreeRTOS\Source/stream_buffer.c **** 					configASSERT( pxStreamBuffer->xTaskWaitingToSend == NULL );
 532:..\FreeRTOS\Source/stream_buffer.c **** 					pxStreamBuffer->xTaskWaitingToSend = xTaskGetCurrentTaskHandle();
 533:..\FreeRTOS\Source/stream_buffer.c **** 				}
 534:..\FreeRTOS\Source/stream_buffer.c **** 				else
 535:..\FreeRTOS\Source/stream_buffer.c **** 				{
 536:..\FreeRTOS\Source/stream_buffer.c **** 					taskEXIT_CRITICAL();
 537:..\FreeRTOS\Source/stream_buffer.c **** 					break;
 538:..\FreeRTOS\Source/stream_buffer.c **** 				}
 539:..\FreeRTOS\Source/stream_buffer.c **** 			}
 540:..\FreeRTOS\Source/stream_buffer.c **** 			taskEXIT_CRITICAL();
 541:..\FreeRTOS\Source/stream_buffer.c **** 
 542:..\FreeRTOS\Source/stream_buffer.c **** 			traceBLOCKING_ON_STREAM_BUFFER_SEND( xStreamBuffer );
 543:..\FreeRTOS\Source/stream_buffer.c **** 			( void ) xTaskNotifyWait( ( uint32_t ) 0, UINT32_MAX, NULL, xTicksToWait );
 544:..\FreeRTOS\Source/stream_buffer.c **** 			pxStreamBuffer->xTaskWaitingToSend = NULL;
ARM GAS  C:\Users\samue\AppData\Local\Temp\cc6oSIFr.s 			page 11


 545:..\FreeRTOS\Source/stream_buffer.c **** 
 546:..\FreeRTOS\Source/stream_buffer.c **** 		} while( xTaskCheckForTimeOut( &xTimeOut, &xTicksToWait ) == pdFALSE );
 547:..\FreeRTOS\Source/stream_buffer.c **** 	}
 548:..\FreeRTOS\Source/stream_buffer.c **** 	else
 549:..\FreeRTOS\Source/stream_buffer.c **** 	{
 550:..\FreeRTOS\Source/stream_buffer.c **** 		mtCOVERAGE_TEST_MARKER();
 551:..\FreeRTOS\Source/stream_buffer.c **** 	}
 552:..\FreeRTOS\Source/stream_buffer.c **** 
 553:..\FreeRTOS\Source/stream_buffer.c **** 	if( xSpace == ( size_t ) 0 )
 554:..\FreeRTOS\Source/stream_buffer.c **** 	{
 555:..\FreeRTOS\Source/stream_buffer.c **** 		xSpace = xStreamBufferSpacesAvailable( pxStreamBuffer );
 556:..\FreeRTOS\Source/stream_buffer.c **** 	}
 557:..\FreeRTOS\Source/stream_buffer.c **** 	else
 558:..\FreeRTOS\Source/stream_buffer.c **** 	{
 559:..\FreeRTOS\Source/stream_buffer.c **** 		mtCOVERAGE_TEST_MARKER();
 560:..\FreeRTOS\Source/stream_buffer.c **** 	}
 561:..\FreeRTOS\Source/stream_buffer.c **** 
 562:..\FreeRTOS\Source/stream_buffer.c **** 	xReturn = prvWriteMessageToBuffer( pxStreamBuffer, pvTxData, xDataLengthBytes, xSpace, xRequiredSp
 563:..\FreeRTOS\Source/stream_buffer.c **** 
 564:..\FreeRTOS\Source/stream_buffer.c **** 	if( xReturn > ( size_t ) 0 )
 565:..\FreeRTOS\Source/stream_buffer.c **** 	{
 566:..\FreeRTOS\Source/stream_buffer.c **** 		traceSTREAM_BUFFER_SEND( xStreamBuffer, xReturn );
 567:..\FreeRTOS\Source/stream_buffer.c **** 
 568:..\FreeRTOS\Source/stream_buffer.c **** 		/* Was a task waiting for the data? */
 569:..\FreeRTOS\Source/stream_buffer.c **** 		if( prvBytesInBuffer( pxStreamBuffer ) >= pxStreamBuffer->xTriggerLevelBytes )
 570:..\FreeRTOS\Source/stream_buffer.c **** 		{
 571:..\FreeRTOS\Source/stream_buffer.c **** 			sbSEND_COMPLETED( pxStreamBuffer );
 572:..\FreeRTOS\Source/stream_buffer.c **** 		}
 573:..\FreeRTOS\Source/stream_buffer.c **** 		else
 574:..\FreeRTOS\Source/stream_buffer.c **** 		{
 575:..\FreeRTOS\Source/stream_buffer.c **** 			mtCOVERAGE_TEST_MARKER();
 576:..\FreeRTOS\Source/stream_buffer.c **** 		}
 577:..\FreeRTOS\Source/stream_buffer.c **** 	}
 578:..\FreeRTOS\Source/stream_buffer.c **** 	else
 579:..\FreeRTOS\Source/stream_buffer.c **** 	{
 580:..\FreeRTOS\Source/stream_buffer.c **** 		mtCOVERAGE_TEST_MARKER();
 581:..\FreeRTOS\Source/stream_buffer.c **** 		traceSTREAM_BUFFER_SEND_FAILED( xStreamBuffer );
 582:..\FreeRTOS\Source/stream_buffer.c **** 	}
 583:..\FreeRTOS\Source/stream_buffer.c **** 
 584:..\FreeRTOS\Source/stream_buffer.c **** 	return xReturn;
 585:..\FreeRTOS\Source/stream_buffer.c **** }
 586:..\FreeRTOS\Source/stream_buffer.c **** /*-----------------------------------------------------------*/
 587:..\FreeRTOS\Source/stream_buffer.c **** 
 588:..\FreeRTOS\Source/stream_buffer.c **** size_t xStreamBufferSendFromISR( StreamBufferHandle_t xStreamBuffer,
 589:..\FreeRTOS\Source/stream_buffer.c **** 								 const void *pvTxData,
 590:..\FreeRTOS\Source/stream_buffer.c **** 								 size_t xDataLengthBytes,
 591:..\FreeRTOS\Source/stream_buffer.c **** 								 BaseType_t * const pxHigherPriorityTaskWoken )
 592:..\FreeRTOS\Source/stream_buffer.c **** {
 593:..\FreeRTOS\Source/stream_buffer.c **** StreamBuffer_t * const pxStreamBuffer = ( StreamBuffer_t * ) xStreamBuffer; /*lint !e9087 !e9079 Sa
 594:..\FreeRTOS\Source/stream_buffer.c **** size_t xReturn, xSpace;
 595:..\FreeRTOS\Source/stream_buffer.c **** size_t xRequiredSpace = xDataLengthBytes;
 596:..\FreeRTOS\Source/stream_buffer.c **** 
 597:..\FreeRTOS\Source/stream_buffer.c **** 	configASSERT( pvTxData );
 598:..\FreeRTOS\Source/stream_buffer.c **** 	configASSERT( pxStreamBuffer );
 599:..\FreeRTOS\Source/stream_buffer.c **** 
 600:..\FreeRTOS\Source/stream_buffer.c **** 	/* This send function is used to write to both message buffers and stream
 601:..\FreeRTOS\Source/stream_buffer.c **** 	buffers.  If this is a message buffer then the space needed must be
ARM GAS  C:\Users\samue\AppData\Local\Temp\cc6oSIFr.s 			page 12


 602:..\FreeRTOS\Source/stream_buffer.c **** 	increased by the amount of bytes needed to store the length of the
 603:..\FreeRTOS\Source/stream_buffer.c **** 	message. */
 604:..\FreeRTOS\Source/stream_buffer.c **** 	if( ( pxStreamBuffer->ucFlags & sbFLAGS_IS_MESSAGE_BUFFER ) != ( uint8_t ) 0 )
 605:..\FreeRTOS\Source/stream_buffer.c **** 	{
 606:..\FreeRTOS\Source/stream_buffer.c **** 		xRequiredSpace += sbBYTES_TO_STORE_MESSAGE_LENGTH;
 607:..\FreeRTOS\Source/stream_buffer.c **** 	}
 608:..\FreeRTOS\Source/stream_buffer.c **** 	else
 609:..\FreeRTOS\Source/stream_buffer.c **** 	{
 610:..\FreeRTOS\Source/stream_buffer.c **** 		mtCOVERAGE_TEST_MARKER();
 611:..\FreeRTOS\Source/stream_buffer.c **** 	}
 612:..\FreeRTOS\Source/stream_buffer.c **** 
 613:..\FreeRTOS\Source/stream_buffer.c **** 	xSpace = xStreamBufferSpacesAvailable( pxStreamBuffer );
 614:..\FreeRTOS\Source/stream_buffer.c **** 	xReturn = prvWriteMessageToBuffer( pxStreamBuffer, pvTxData, xDataLengthBytes, xSpace, xRequiredSp
 615:..\FreeRTOS\Source/stream_buffer.c **** 
 616:..\FreeRTOS\Source/stream_buffer.c **** 	if( xReturn > ( size_t ) 0 )
 617:..\FreeRTOS\Source/stream_buffer.c **** 	{
 618:..\FreeRTOS\Source/stream_buffer.c **** 		/* Was a task waiting for the data? */
 619:..\FreeRTOS\Source/stream_buffer.c **** 		if( prvBytesInBuffer( pxStreamBuffer ) >= pxStreamBuffer->xTriggerLevelBytes )
 620:..\FreeRTOS\Source/stream_buffer.c **** 		{
 621:..\FreeRTOS\Source/stream_buffer.c **** 			sbSEND_COMPLETE_FROM_ISR( pxStreamBuffer, pxHigherPriorityTaskWoken );
 622:..\FreeRTOS\Source/stream_buffer.c **** 		}
 623:..\FreeRTOS\Source/stream_buffer.c **** 		else
 624:..\FreeRTOS\Source/stream_buffer.c **** 		{
 625:..\FreeRTOS\Source/stream_buffer.c **** 			mtCOVERAGE_TEST_MARKER();
 626:..\FreeRTOS\Source/stream_buffer.c **** 		}
 627:..\FreeRTOS\Source/stream_buffer.c **** 	}
 628:..\FreeRTOS\Source/stream_buffer.c **** 	else
 629:..\FreeRTOS\Source/stream_buffer.c **** 	{
 630:..\FreeRTOS\Source/stream_buffer.c **** 		mtCOVERAGE_TEST_MARKER();
 631:..\FreeRTOS\Source/stream_buffer.c **** 	}
 632:..\FreeRTOS\Source/stream_buffer.c **** 
 633:..\FreeRTOS\Source/stream_buffer.c **** 	traceSTREAM_BUFFER_SEND_FROM_ISR( xStreamBuffer, xReturn );
 634:..\FreeRTOS\Source/stream_buffer.c **** 
 635:..\FreeRTOS\Source/stream_buffer.c **** 	return xReturn;
 636:..\FreeRTOS\Source/stream_buffer.c **** }
 637:..\FreeRTOS\Source/stream_buffer.c **** /*-----------------------------------------------------------*/
 638:..\FreeRTOS\Source/stream_buffer.c **** 
 639:..\FreeRTOS\Source/stream_buffer.c **** static size_t prvWriteMessageToBuffer( StreamBuffer_t * const pxStreamBuffer,
 640:..\FreeRTOS\Source/stream_buffer.c **** 									   const void * pvTxData,
 641:..\FreeRTOS\Source/stream_buffer.c **** 									   size_t xDataLengthBytes,
 642:..\FreeRTOS\Source/stream_buffer.c **** 									   size_t xSpace,
 643:..\FreeRTOS\Source/stream_buffer.c **** 									   size_t xRequiredSpace )
 644:..\FreeRTOS\Source/stream_buffer.c **** {
 645:..\FreeRTOS\Source/stream_buffer.c **** 	BaseType_t xShouldWrite;
 646:..\FreeRTOS\Source/stream_buffer.c **** 	size_t xReturn;
 647:..\FreeRTOS\Source/stream_buffer.c **** 
 648:..\FreeRTOS\Source/stream_buffer.c **** 	if( xSpace == ( size_t ) 0 )
 649:..\FreeRTOS\Source/stream_buffer.c **** 	{
 650:..\FreeRTOS\Source/stream_buffer.c **** 		/* Doesn't matter if this is a stream buffer or a message buffer, there
 651:..\FreeRTOS\Source/stream_buffer.c **** 		is no space to write. */
 652:..\FreeRTOS\Source/stream_buffer.c **** 		xShouldWrite = pdFALSE;
 653:..\FreeRTOS\Source/stream_buffer.c **** 	}
 654:..\FreeRTOS\Source/stream_buffer.c **** 	else if( ( pxStreamBuffer->ucFlags & sbFLAGS_IS_MESSAGE_BUFFER ) == ( uint8_t ) 0 )
 655:..\FreeRTOS\Source/stream_buffer.c **** 	{
 656:..\FreeRTOS\Source/stream_buffer.c **** 		/* This is a stream buffer, as opposed to a message buffer, so writing a
 657:..\FreeRTOS\Source/stream_buffer.c **** 		stream of bytes rather than discrete messages.  Write as many bytes as
 658:..\FreeRTOS\Source/stream_buffer.c **** 		possible. */
ARM GAS  C:\Users\samue\AppData\Local\Temp\cc6oSIFr.s 			page 13


 659:..\FreeRTOS\Source/stream_buffer.c **** 		xShouldWrite = pdTRUE;
 660:..\FreeRTOS\Source/stream_buffer.c **** 		xDataLengthBytes = configMIN( xDataLengthBytes, xSpace ); /*lint !e9044 Function parameter modifi
 661:..\FreeRTOS\Source/stream_buffer.c **** 	}
 662:..\FreeRTOS\Source/stream_buffer.c **** 	else if( xSpace >= xRequiredSpace )
 663:..\FreeRTOS\Source/stream_buffer.c **** 	{
 664:..\FreeRTOS\Source/stream_buffer.c **** 		/* This is a message buffer, as opposed to a stream buffer, and there
 665:..\FreeRTOS\Source/stream_buffer.c **** 		is enough space to write both the message length and the message itself
 666:..\FreeRTOS\Source/stream_buffer.c **** 		into the buffer.  Start by writing the length of the data, the data
 667:..\FreeRTOS\Source/stream_buffer.c **** 		itself will be written later in this function. */
 668:..\FreeRTOS\Source/stream_buffer.c **** 		xShouldWrite = pdTRUE;
 669:..\FreeRTOS\Source/stream_buffer.c **** 		( void ) prvWriteBytesToBuffer( pxStreamBuffer, ( const uint8_t * ) &( xDataLengthBytes ), sbBYTE
 670:..\FreeRTOS\Source/stream_buffer.c **** 	}
 671:..\FreeRTOS\Source/stream_buffer.c **** 	else
 672:..\FreeRTOS\Source/stream_buffer.c **** 	{
 673:..\FreeRTOS\Source/stream_buffer.c **** 		/* There is space available, but not enough space. */
 674:..\FreeRTOS\Source/stream_buffer.c **** 		xShouldWrite = pdFALSE;
 675:..\FreeRTOS\Source/stream_buffer.c **** 	}
 676:..\FreeRTOS\Source/stream_buffer.c **** 
 677:..\FreeRTOS\Source/stream_buffer.c **** 	if( xShouldWrite != pdFALSE )
 678:..\FreeRTOS\Source/stream_buffer.c **** 	{
 679:..\FreeRTOS\Source/stream_buffer.c **** 		/* Writes the data itself. */
 680:..\FreeRTOS\Source/stream_buffer.c **** 		xReturn = prvWriteBytesToBuffer( pxStreamBuffer, ( const uint8_t * ) pvTxData, xDataLengthBytes )
 681:..\FreeRTOS\Source/stream_buffer.c **** 	}
 682:..\FreeRTOS\Source/stream_buffer.c **** 	else
 683:..\FreeRTOS\Source/stream_buffer.c **** 	{
 684:..\FreeRTOS\Source/stream_buffer.c **** 		xReturn = 0;
 685:..\FreeRTOS\Source/stream_buffer.c **** 	}
 686:..\FreeRTOS\Source/stream_buffer.c **** 
 687:..\FreeRTOS\Source/stream_buffer.c **** 	return xReturn;
 688:..\FreeRTOS\Source/stream_buffer.c **** }
 689:..\FreeRTOS\Source/stream_buffer.c **** /*-----------------------------------------------------------*/
 690:..\FreeRTOS\Source/stream_buffer.c **** 
 691:..\FreeRTOS\Source/stream_buffer.c **** size_t xStreamBufferReceive( StreamBufferHandle_t xStreamBuffer,
 692:..\FreeRTOS\Source/stream_buffer.c **** 							 void *pvRxData,
 693:..\FreeRTOS\Source/stream_buffer.c **** 							 size_t xBufferLengthBytes,
 694:..\FreeRTOS\Source/stream_buffer.c **** 							 TickType_t xTicksToWait )
 695:..\FreeRTOS\Source/stream_buffer.c **** {
 696:..\FreeRTOS\Source/stream_buffer.c **** StreamBuffer_t * const pxStreamBuffer = ( StreamBuffer_t * ) xStreamBuffer; /*lint !e9087 !e9079 Sa
 697:..\FreeRTOS\Source/stream_buffer.c **** size_t xReceivedLength = 0, xBytesAvailable, xBytesToStoreMessageLength;
 698:..\FreeRTOS\Source/stream_buffer.c **** 
 699:..\FreeRTOS\Source/stream_buffer.c **** 	configASSERT( pvRxData );
 700:..\FreeRTOS\Source/stream_buffer.c **** 	configASSERT( pxStreamBuffer );
 701:..\FreeRTOS\Source/stream_buffer.c **** 
 702:..\FreeRTOS\Source/stream_buffer.c **** 	/* This receive function is used by both message buffers, which store
 703:..\FreeRTOS\Source/stream_buffer.c **** 	discrete messages, and stream buffers, which store a continuous stream of
 704:..\FreeRTOS\Source/stream_buffer.c **** 	bytes.  Discrete messages include an additional
 705:..\FreeRTOS\Source/stream_buffer.c **** 	sbBYTES_TO_STORE_MESSAGE_LENGTH bytes that hold the length of the
 706:..\FreeRTOS\Source/stream_buffer.c **** 	message. */
 707:..\FreeRTOS\Source/stream_buffer.c **** 	if( ( pxStreamBuffer->ucFlags & sbFLAGS_IS_MESSAGE_BUFFER ) != ( uint8_t ) 0 )
 708:..\FreeRTOS\Source/stream_buffer.c **** 	{
 709:..\FreeRTOS\Source/stream_buffer.c **** 		xBytesToStoreMessageLength = sbBYTES_TO_STORE_MESSAGE_LENGTH;
 710:..\FreeRTOS\Source/stream_buffer.c **** 	}
 711:..\FreeRTOS\Source/stream_buffer.c **** 	else
 712:..\FreeRTOS\Source/stream_buffer.c **** 	{
 713:..\FreeRTOS\Source/stream_buffer.c **** 		xBytesToStoreMessageLength = 0;
 714:..\FreeRTOS\Source/stream_buffer.c **** 	}
 715:..\FreeRTOS\Source/stream_buffer.c **** 
ARM GAS  C:\Users\samue\AppData\Local\Temp\cc6oSIFr.s 			page 14


 716:..\FreeRTOS\Source/stream_buffer.c **** 	if( xTicksToWait != ( TickType_t ) 0 )
 717:..\FreeRTOS\Source/stream_buffer.c **** 	{
 718:..\FreeRTOS\Source/stream_buffer.c **** 		/* Checking if there is data and clearing the notification state must be
 719:..\FreeRTOS\Source/stream_buffer.c **** 		performed atomically. */
 720:..\FreeRTOS\Source/stream_buffer.c **** 		taskENTER_CRITICAL();
 721:..\FreeRTOS\Source/stream_buffer.c **** 		{
 722:..\FreeRTOS\Source/stream_buffer.c **** 			xBytesAvailable = prvBytesInBuffer( pxStreamBuffer );
 723:..\FreeRTOS\Source/stream_buffer.c **** 
 724:..\FreeRTOS\Source/stream_buffer.c **** 			/* If this function was invoked by a message buffer read then
 725:..\FreeRTOS\Source/stream_buffer.c **** 			xBytesToStoreMessageLength holds the number of bytes used to hold
 726:..\FreeRTOS\Source/stream_buffer.c **** 			the length of the next discrete message.  If this function was
 727:..\FreeRTOS\Source/stream_buffer.c **** 			invoked by a stream buffer read then xBytesToStoreMessageLength will
 728:..\FreeRTOS\Source/stream_buffer.c **** 			be 0. */
 729:..\FreeRTOS\Source/stream_buffer.c **** 			if( xBytesAvailable <= xBytesToStoreMessageLength )
 730:..\FreeRTOS\Source/stream_buffer.c **** 			{
 731:..\FreeRTOS\Source/stream_buffer.c **** 				/* Clear notification state as going to wait for data. */
 732:..\FreeRTOS\Source/stream_buffer.c **** 				( void ) xTaskNotifyStateClear( NULL );
 733:..\FreeRTOS\Source/stream_buffer.c **** 
 734:..\FreeRTOS\Source/stream_buffer.c **** 				/* Should only be one reader. */
 735:..\FreeRTOS\Source/stream_buffer.c **** 				configASSERT( pxStreamBuffer->xTaskWaitingToReceive == NULL );
 736:..\FreeRTOS\Source/stream_buffer.c **** 				pxStreamBuffer->xTaskWaitingToReceive = xTaskGetCurrentTaskHandle();
 737:..\FreeRTOS\Source/stream_buffer.c **** 			}
 738:..\FreeRTOS\Source/stream_buffer.c **** 			else
 739:..\FreeRTOS\Source/stream_buffer.c **** 			{
 740:..\FreeRTOS\Source/stream_buffer.c **** 				mtCOVERAGE_TEST_MARKER();
 741:..\FreeRTOS\Source/stream_buffer.c **** 			}
 742:..\FreeRTOS\Source/stream_buffer.c **** 		}
 743:..\FreeRTOS\Source/stream_buffer.c **** 		taskEXIT_CRITICAL();
 744:..\FreeRTOS\Source/stream_buffer.c **** 
 745:..\FreeRTOS\Source/stream_buffer.c **** 		if( xBytesAvailable <= xBytesToStoreMessageLength )
 746:..\FreeRTOS\Source/stream_buffer.c **** 		{
 747:..\FreeRTOS\Source/stream_buffer.c **** 			/* Wait for data to be available. */
 748:..\FreeRTOS\Source/stream_buffer.c **** 			traceBLOCKING_ON_STREAM_BUFFER_RECEIVE( xStreamBuffer );
 749:..\FreeRTOS\Source/stream_buffer.c **** 			( void ) xTaskNotifyWait( ( uint32_t ) 0, UINT32_MAX, NULL, xTicksToWait );
 750:..\FreeRTOS\Source/stream_buffer.c **** 			pxStreamBuffer->xTaskWaitingToReceive = NULL;
 751:..\FreeRTOS\Source/stream_buffer.c **** 
 752:..\FreeRTOS\Source/stream_buffer.c **** 			/* Recheck the data available after blocking. */
 753:..\FreeRTOS\Source/stream_buffer.c **** 			xBytesAvailable = prvBytesInBuffer( pxStreamBuffer );
 754:..\FreeRTOS\Source/stream_buffer.c **** 		}
 755:..\FreeRTOS\Source/stream_buffer.c **** 		else
 756:..\FreeRTOS\Source/stream_buffer.c **** 		{
 757:..\FreeRTOS\Source/stream_buffer.c **** 			mtCOVERAGE_TEST_MARKER();
 758:..\FreeRTOS\Source/stream_buffer.c **** 		}
 759:..\FreeRTOS\Source/stream_buffer.c **** 	}
 760:..\FreeRTOS\Source/stream_buffer.c **** 	else
 761:..\FreeRTOS\Source/stream_buffer.c **** 	{
 762:..\FreeRTOS\Source/stream_buffer.c **** 		xBytesAvailable = prvBytesInBuffer( pxStreamBuffer );
 763:..\FreeRTOS\Source/stream_buffer.c **** 	}
 764:..\FreeRTOS\Source/stream_buffer.c **** 
 765:..\FreeRTOS\Source/stream_buffer.c **** 	/* Whether receiving a discrete message (where xBytesToStoreMessageLength
 766:..\FreeRTOS\Source/stream_buffer.c **** 	holds the number of bytes used to store the message length) or a stream of
 767:..\FreeRTOS\Source/stream_buffer.c **** 	bytes (where xBytesToStoreMessageLength is zero), the number of bytes
 768:..\FreeRTOS\Source/stream_buffer.c **** 	available must be greater than xBytesToStoreMessageLength to be able to
 769:..\FreeRTOS\Source/stream_buffer.c **** 	read bytes from the buffer. */
 770:..\FreeRTOS\Source/stream_buffer.c **** 	if( xBytesAvailable > xBytesToStoreMessageLength )
 771:..\FreeRTOS\Source/stream_buffer.c **** 	{
 772:..\FreeRTOS\Source/stream_buffer.c **** 		xReceivedLength = prvReadMessageFromBuffer( pxStreamBuffer, pvRxData, xBufferLengthBytes, xBytesA
ARM GAS  C:\Users\samue\AppData\Local\Temp\cc6oSIFr.s 			page 15


 773:..\FreeRTOS\Source/stream_buffer.c **** 
 774:..\FreeRTOS\Source/stream_buffer.c **** 		/* Was a task waiting for space in the buffer? */
 775:..\FreeRTOS\Source/stream_buffer.c **** 		if( xReceivedLength != ( size_t ) 0 )
 776:..\FreeRTOS\Source/stream_buffer.c **** 		{
 777:..\FreeRTOS\Source/stream_buffer.c **** 			traceSTREAM_BUFFER_RECEIVE( xStreamBuffer, xReceivedLength );
 778:..\FreeRTOS\Source/stream_buffer.c **** 			sbRECEIVE_COMPLETED( pxStreamBuffer );
 779:..\FreeRTOS\Source/stream_buffer.c **** 		}
 780:..\FreeRTOS\Source/stream_buffer.c **** 		else
 781:..\FreeRTOS\Source/stream_buffer.c **** 		{
 782:..\FreeRTOS\Source/stream_buffer.c **** 			mtCOVERAGE_TEST_MARKER();
 783:..\FreeRTOS\Source/stream_buffer.c **** 		}
 784:..\FreeRTOS\Source/stream_buffer.c **** 	}
 785:..\FreeRTOS\Source/stream_buffer.c **** 	else
 786:..\FreeRTOS\Source/stream_buffer.c **** 	{
 787:..\FreeRTOS\Source/stream_buffer.c **** 		traceSTREAM_BUFFER_RECEIVE_FAILED( xStreamBuffer );
 788:..\FreeRTOS\Source/stream_buffer.c **** 		mtCOVERAGE_TEST_MARKER();
 789:..\FreeRTOS\Source/stream_buffer.c **** 	}
 790:..\FreeRTOS\Source/stream_buffer.c **** 
 791:..\FreeRTOS\Source/stream_buffer.c **** 	return xReceivedLength;
 792:..\FreeRTOS\Source/stream_buffer.c **** }
 793:..\FreeRTOS\Source/stream_buffer.c **** /*-----------------------------------------------------------*/
 794:..\FreeRTOS\Source/stream_buffer.c **** 
 795:..\FreeRTOS\Source/stream_buffer.c **** size_t xStreamBufferReceiveFromISR( StreamBufferHandle_t xStreamBuffer,
 796:..\FreeRTOS\Source/stream_buffer.c **** 									void *pvRxData,
 797:..\FreeRTOS\Source/stream_buffer.c **** 									size_t xBufferLengthBytes,
 798:..\FreeRTOS\Source/stream_buffer.c **** 									BaseType_t * const pxHigherPriorityTaskWoken )
 799:..\FreeRTOS\Source/stream_buffer.c **** {
 800:..\FreeRTOS\Source/stream_buffer.c **** StreamBuffer_t * const pxStreamBuffer = ( StreamBuffer_t * ) xStreamBuffer; /*lint !e9087 !e9079 Sa
 801:..\FreeRTOS\Source/stream_buffer.c **** size_t xReceivedLength = 0, xBytesAvailable, xBytesToStoreMessageLength;
 802:..\FreeRTOS\Source/stream_buffer.c **** 
 803:..\FreeRTOS\Source/stream_buffer.c **** 	configASSERT( pvRxData );
 804:..\FreeRTOS\Source/stream_buffer.c **** 	configASSERT( pxStreamBuffer );
 805:..\FreeRTOS\Source/stream_buffer.c **** 
 806:..\FreeRTOS\Source/stream_buffer.c **** 	/* This receive function is used by both message buffers, which store
 807:..\FreeRTOS\Source/stream_buffer.c **** 	discrete messages, and stream buffers, which store a continuous stream of
 808:..\FreeRTOS\Source/stream_buffer.c **** 	bytes.  Discrete messages include an additional
 809:..\FreeRTOS\Source/stream_buffer.c **** 	sbBYTES_TO_STORE_MESSAGE_LENGTH bytes that hold the length of the
 810:..\FreeRTOS\Source/stream_buffer.c **** 	message. */
 811:..\FreeRTOS\Source/stream_buffer.c **** 	if( ( pxStreamBuffer->ucFlags & sbFLAGS_IS_MESSAGE_BUFFER ) != ( uint8_t ) 0 )
 812:..\FreeRTOS\Source/stream_buffer.c **** 	{
 813:..\FreeRTOS\Source/stream_buffer.c **** 		xBytesToStoreMessageLength = sbBYTES_TO_STORE_MESSAGE_LENGTH;
 814:..\FreeRTOS\Source/stream_buffer.c **** 	}
 815:..\FreeRTOS\Source/stream_buffer.c **** 	else
 816:..\FreeRTOS\Source/stream_buffer.c **** 	{
 817:..\FreeRTOS\Source/stream_buffer.c **** 		xBytesToStoreMessageLength = 0;
 818:..\FreeRTOS\Source/stream_buffer.c **** 	}
 819:..\FreeRTOS\Source/stream_buffer.c **** 
 820:..\FreeRTOS\Source/stream_buffer.c **** 	xBytesAvailable = prvBytesInBuffer( pxStreamBuffer );
 821:..\FreeRTOS\Source/stream_buffer.c **** 
 822:..\FreeRTOS\Source/stream_buffer.c **** 	/* Whether receiving a discrete message (where xBytesToStoreMessageLength
 823:..\FreeRTOS\Source/stream_buffer.c **** 	holds the number of bytes used to store the message length) or a stream of
 824:..\FreeRTOS\Source/stream_buffer.c **** 	bytes (where xBytesToStoreMessageLength is zero), the number of bytes
 825:..\FreeRTOS\Source/stream_buffer.c **** 	available must be greater than xBytesToStoreMessageLength to be able to
 826:..\FreeRTOS\Source/stream_buffer.c **** 	read bytes from the buffer. */
 827:..\FreeRTOS\Source/stream_buffer.c **** 	if( xBytesAvailable > xBytesToStoreMessageLength )
 828:..\FreeRTOS\Source/stream_buffer.c **** 	{
 829:..\FreeRTOS\Source/stream_buffer.c **** 		xReceivedLength = prvReadMessageFromBuffer( pxStreamBuffer, pvRxData, xBufferLengthBytes, xBytesA
ARM GAS  C:\Users\samue\AppData\Local\Temp\cc6oSIFr.s 			page 16


 830:..\FreeRTOS\Source/stream_buffer.c **** 
 831:..\FreeRTOS\Source/stream_buffer.c **** 		/* Was a task waiting for space in the buffer? */
 832:..\FreeRTOS\Source/stream_buffer.c **** 		if( xReceivedLength != ( size_t ) 0 )
 833:..\FreeRTOS\Source/stream_buffer.c **** 		{
 834:..\FreeRTOS\Source/stream_buffer.c **** 			sbRECEIVE_COMPLETED_FROM_ISR( pxStreamBuffer, pxHigherPriorityTaskWoken );
 835:..\FreeRTOS\Source/stream_buffer.c **** 		}
 836:..\FreeRTOS\Source/stream_buffer.c **** 		else
 837:..\FreeRTOS\Source/stream_buffer.c **** 		{
 838:..\FreeRTOS\Source/stream_buffer.c **** 			mtCOVERAGE_TEST_MARKER();
 839:..\FreeRTOS\Source/stream_buffer.c **** 		}
 840:..\FreeRTOS\Source/stream_buffer.c **** 	}
 841:..\FreeRTOS\Source/stream_buffer.c **** 	else
 842:..\FreeRTOS\Source/stream_buffer.c **** 	{
 843:..\FreeRTOS\Source/stream_buffer.c **** 		mtCOVERAGE_TEST_MARKER();
 844:..\FreeRTOS\Source/stream_buffer.c **** 	}
 845:..\FreeRTOS\Source/stream_buffer.c **** 
 846:..\FreeRTOS\Source/stream_buffer.c **** 	traceSTREAM_BUFFER_RECEIVE_FROM_ISR( xStreamBuffer, xReceivedLength );
 847:..\FreeRTOS\Source/stream_buffer.c **** 
 848:..\FreeRTOS\Source/stream_buffer.c **** 	return xReceivedLength;
 849:..\FreeRTOS\Source/stream_buffer.c **** }
 850:..\FreeRTOS\Source/stream_buffer.c **** /*-----------------------------------------------------------*/
 851:..\FreeRTOS\Source/stream_buffer.c **** 
 852:..\FreeRTOS\Source/stream_buffer.c **** static size_t prvReadMessageFromBuffer( StreamBuffer_t *pxStreamBuffer,
 853:..\FreeRTOS\Source/stream_buffer.c **** 										void *pvRxData,
 854:..\FreeRTOS\Source/stream_buffer.c **** 										size_t xBufferLengthBytes,
 855:..\FreeRTOS\Source/stream_buffer.c **** 										size_t xBytesAvailable,
 856:..\FreeRTOS\Source/stream_buffer.c **** 										size_t xBytesToStoreMessageLength )
 857:..\FreeRTOS\Source/stream_buffer.c **** {
 858:..\FreeRTOS\Source/stream_buffer.c **** size_t xOriginalTail, xReceivedLength, xNextMessageLength;
 859:..\FreeRTOS\Source/stream_buffer.c **** 
 860:..\FreeRTOS\Source/stream_buffer.c **** 	if( xBytesToStoreMessageLength != ( size_t ) 0 )
 861:..\FreeRTOS\Source/stream_buffer.c **** 	{
 862:..\FreeRTOS\Source/stream_buffer.c **** 		/* A discrete message is being received.  First receive the length
 863:..\FreeRTOS\Source/stream_buffer.c **** 		of the message.  A copy of the tail is stored so the buffer can be
 864:..\FreeRTOS\Source/stream_buffer.c **** 		returned to its prior state if the length of the message is too
 865:..\FreeRTOS\Source/stream_buffer.c **** 		large for the provided buffer. */
 866:..\FreeRTOS\Source/stream_buffer.c **** 		xOriginalTail = pxStreamBuffer->xTail;
 867:..\FreeRTOS\Source/stream_buffer.c **** 		( void ) prvReadBytesFromBuffer( pxStreamBuffer, ( uint8_t * ) &xNextMessageLength, xBytesToStore
 868:..\FreeRTOS\Source/stream_buffer.c **** 
 869:..\FreeRTOS\Source/stream_buffer.c **** 		/* Reduce the number of bytes available by the number of bytes just
 870:..\FreeRTOS\Source/stream_buffer.c **** 		read out. */
 871:..\FreeRTOS\Source/stream_buffer.c **** 		xBytesAvailable -= xBytesToStoreMessageLength;
 872:..\FreeRTOS\Source/stream_buffer.c **** 
 873:..\FreeRTOS\Source/stream_buffer.c **** 		/* Check there is enough space in the buffer provided by the
 874:..\FreeRTOS\Source/stream_buffer.c **** 		user. */
 875:..\FreeRTOS\Source/stream_buffer.c **** 		if( xNextMessageLength > xBufferLengthBytes )
 876:..\FreeRTOS\Source/stream_buffer.c **** 		{
 877:..\FreeRTOS\Source/stream_buffer.c **** 			/* The user has provided insufficient space to read the message
 878:..\FreeRTOS\Source/stream_buffer.c **** 			so return the buffer to its previous state (so the length of
 879:..\FreeRTOS\Source/stream_buffer.c **** 			the message is in the buffer again). */
 880:..\FreeRTOS\Source/stream_buffer.c **** 			pxStreamBuffer->xTail = xOriginalTail;
 881:..\FreeRTOS\Source/stream_buffer.c **** 			xNextMessageLength = 0;
 882:..\FreeRTOS\Source/stream_buffer.c **** 		}
 883:..\FreeRTOS\Source/stream_buffer.c **** 		else
 884:..\FreeRTOS\Source/stream_buffer.c **** 		{
 885:..\FreeRTOS\Source/stream_buffer.c **** 			mtCOVERAGE_TEST_MARKER();
 886:..\FreeRTOS\Source/stream_buffer.c **** 		}
ARM GAS  C:\Users\samue\AppData\Local\Temp\cc6oSIFr.s 			page 17


 887:..\FreeRTOS\Source/stream_buffer.c **** 	}
 888:..\FreeRTOS\Source/stream_buffer.c **** 	else
 889:..\FreeRTOS\Source/stream_buffer.c **** 	{
 890:..\FreeRTOS\Source/stream_buffer.c **** 		/* A stream of bytes is being received (as opposed to a discrete
 891:..\FreeRTOS\Source/stream_buffer.c **** 		message), so read as many bytes as possible. */
 892:..\FreeRTOS\Source/stream_buffer.c **** 		xNextMessageLength = xBufferLengthBytes;
 893:..\FreeRTOS\Source/stream_buffer.c **** 	}
 894:..\FreeRTOS\Source/stream_buffer.c **** 
 895:..\FreeRTOS\Source/stream_buffer.c **** 	/* Read the actual data. */
 896:..\FreeRTOS\Source/stream_buffer.c **** 	xReceivedLength = prvReadBytesFromBuffer( pxStreamBuffer, ( uint8_t * ) pvRxData, xNextMessageLeng
 897:..\FreeRTOS\Source/stream_buffer.c **** 
 898:..\FreeRTOS\Source/stream_buffer.c **** 	return xReceivedLength;
 899:..\FreeRTOS\Source/stream_buffer.c **** }
 900:..\FreeRTOS\Source/stream_buffer.c **** /*-----------------------------------------------------------*/
 901:..\FreeRTOS\Source/stream_buffer.c **** 
 902:..\FreeRTOS\Source/stream_buffer.c **** BaseType_t xStreamBufferIsEmpty( StreamBufferHandle_t xStreamBuffer )
 903:..\FreeRTOS\Source/stream_buffer.c **** {
 904:..\FreeRTOS\Source/stream_buffer.c **** const StreamBuffer_t * const pxStreamBuffer = ( StreamBuffer_t * ) xStreamBuffer; /*lint !e9087 !e9
 905:..\FreeRTOS\Source/stream_buffer.c **** BaseType_t xReturn;
 906:..\FreeRTOS\Source/stream_buffer.c **** size_t xTail;
 907:..\FreeRTOS\Source/stream_buffer.c **** 
 908:..\FreeRTOS\Source/stream_buffer.c **** 	configASSERT( pxStreamBuffer );
 909:..\FreeRTOS\Source/stream_buffer.c **** 
 910:..\FreeRTOS\Source/stream_buffer.c **** 	/* True if no bytes are available. */
 911:..\FreeRTOS\Source/stream_buffer.c **** 	xTail = pxStreamBuffer->xTail;
 912:..\FreeRTOS\Source/stream_buffer.c **** 	if( pxStreamBuffer->xHead == xTail )
 913:..\FreeRTOS\Source/stream_buffer.c **** 	{
 914:..\FreeRTOS\Source/stream_buffer.c **** 		xReturn = pdTRUE;
 915:..\FreeRTOS\Source/stream_buffer.c **** 	}
 916:..\FreeRTOS\Source/stream_buffer.c **** 	else
 917:..\FreeRTOS\Source/stream_buffer.c **** 	{
 918:..\FreeRTOS\Source/stream_buffer.c **** 		xReturn = pdFALSE;
 919:..\FreeRTOS\Source/stream_buffer.c **** 	}
 920:..\FreeRTOS\Source/stream_buffer.c **** 
 921:..\FreeRTOS\Source/stream_buffer.c **** 	return xReturn;
 922:..\FreeRTOS\Source/stream_buffer.c **** }
 923:..\FreeRTOS\Source/stream_buffer.c **** /*-----------------------------------------------------------*/
 924:..\FreeRTOS\Source/stream_buffer.c **** 
 925:..\FreeRTOS\Source/stream_buffer.c **** BaseType_t xStreamBufferIsFull( StreamBufferHandle_t xStreamBuffer )
 926:..\FreeRTOS\Source/stream_buffer.c **** {
 927:..\FreeRTOS\Source/stream_buffer.c **** BaseType_t xReturn;
 928:..\FreeRTOS\Source/stream_buffer.c **** size_t xBytesToStoreMessageLength;
 929:..\FreeRTOS\Source/stream_buffer.c **** const StreamBuffer_t * const pxStreamBuffer = ( StreamBuffer_t * ) xStreamBuffer; /*lint !e9087 !e9
 930:..\FreeRTOS\Source/stream_buffer.c **** 
 931:..\FreeRTOS\Source/stream_buffer.c **** 	configASSERT( pxStreamBuffer );
 932:..\FreeRTOS\Source/stream_buffer.c **** 
 933:..\FreeRTOS\Source/stream_buffer.c **** 	/* This generic version of the receive function is used by both message
 934:..\FreeRTOS\Source/stream_buffer.c **** 	buffers, which store discrete messages, and stream buffers, which store a
 935:..\FreeRTOS\Source/stream_buffer.c **** 	continuous stream of bytes.  Discrete messages include an additional
 936:..\FreeRTOS\Source/stream_buffer.c **** 	sbBYTES_TO_STORE_MESSAGE_LENGTH bytes that hold the length of the message. */
 937:..\FreeRTOS\Source/stream_buffer.c **** 	if( ( pxStreamBuffer->ucFlags & sbFLAGS_IS_MESSAGE_BUFFER ) != ( uint8_t ) 0 )
 938:..\FreeRTOS\Source/stream_buffer.c **** 	{
 939:..\FreeRTOS\Source/stream_buffer.c **** 		xBytesToStoreMessageLength = sbBYTES_TO_STORE_MESSAGE_LENGTH;
 940:..\FreeRTOS\Source/stream_buffer.c **** 	}
 941:..\FreeRTOS\Source/stream_buffer.c **** 	else
 942:..\FreeRTOS\Source/stream_buffer.c **** 	{
 943:..\FreeRTOS\Source/stream_buffer.c **** 		xBytesToStoreMessageLength = 0;
ARM GAS  C:\Users\samue\AppData\Local\Temp\cc6oSIFr.s 			page 18


 944:..\FreeRTOS\Source/stream_buffer.c **** 	}
 945:..\FreeRTOS\Source/stream_buffer.c **** 
 946:..\FreeRTOS\Source/stream_buffer.c **** 	/* True if the available space equals zero. */
 947:..\FreeRTOS\Source/stream_buffer.c **** 	if( xStreamBufferSpacesAvailable( xStreamBuffer ) <= xBytesToStoreMessageLength )
 948:..\FreeRTOS\Source/stream_buffer.c **** 	{
 949:..\FreeRTOS\Source/stream_buffer.c **** 		xReturn = pdTRUE;
 950:..\FreeRTOS\Source/stream_buffer.c **** 	}
 951:..\FreeRTOS\Source/stream_buffer.c **** 	else
 952:..\FreeRTOS\Source/stream_buffer.c **** 	{
 953:..\FreeRTOS\Source/stream_buffer.c **** 		xReturn = pdFALSE;
 954:..\FreeRTOS\Source/stream_buffer.c **** 	}
 955:..\FreeRTOS\Source/stream_buffer.c **** 
 956:..\FreeRTOS\Source/stream_buffer.c **** 	return xReturn;
 957:..\FreeRTOS\Source/stream_buffer.c **** }
 958:..\FreeRTOS\Source/stream_buffer.c **** /*-----------------------------------------------------------*/
 959:..\FreeRTOS\Source/stream_buffer.c **** 
 960:..\FreeRTOS\Source/stream_buffer.c **** BaseType_t xStreamBufferSendCompletedFromISR( StreamBufferHandle_t xStreamBuffer, BaseType_t *pxHig
 961:..\FreeRTOS\Source/stream_buffer.c **** {
 962:..\FreeRTOS\Source/stream_buffer.c **** StreamBuffer_t * const pxStreamBuffer = ( StreamBuffer_t * ) xStreamBuffer; /*lint !e9087 !e9079 Sa
 963:..\FreeRTOS\Source/stream_buffer.c **** BaseType_t xReturn;
 964:..\FreeRTOS\Source/stream_buffer.c **** UBaseType_t uxSavedInterruptStatus;
 965:..\FreeRTOS\Source/stream_buffer.c **** 
 966:..\FreeRTOS\Source/stream_buffer.c **** 	configASSERT( pxStreamBuffer );
 967:..\FreeRTOS\Source/stream_buffer.c **** 
 968:..\FreeRTOS\Source/stream_buffer.c **** 	uxSavedInterruptStatus = ( UBaseType_t ) portSET_INTERRUPT_MASK_FROM_ISR();
 969:..\FreeRTOS\Source/stream_buffer.c **** 	{
 970:..\FreeRTOS\Source/stream_buffer.c **** 		if( ( pxStreamBuffer )->xTaskWaitingToReceive != NULL )
 971:..\FreeRTOS\Source/stream_buffer.c **** 		{
 972:..\FreeRTOS\Source/stream_buffer.c **** 			( void ) xTaskNotifyFromISR( ( pxStreamBuffer )->xTaskWaitingToReceive,
 973:..\FreeRTOS\Source/stream_buffer.c **** 										 ( uint32_t ) 0,
 974:..\FreeRTOS\Source/stream_buffer.c **** 										 eNoAction,
 975:..\FreeRTOS\Source/stream_buffer.c **** 										 pxHigherPriorityTaskWoken );
 976:..\FreeRTOS\Source/stream_buffer.c **** 			( pxStreamBuffer )->xTaskWaitingToReceive = NULL;
 977:..\FreeRTOS\Source/stream_buffer.c **** 			xReturn = pdTRUE;
 978:..\FreeRTOS\Source/stream_buffer.c **** 		}
 979:..\FreeRTOS\Source/stream_buffer.c **** 		else
 980:..\FreeRTOS\Source/stream_buffer.c **** 		{
 981:..\FreeRTOS\Source/stream_buffer.c **** 			xReturn = pdFALSE;
 982:..\FreeRTOS\Source/stream_buffer.c **** 		}
 983:..\FreeRTOS\Source/stream_buffer.c **** 	}
 984:..\FreeRTOS\Source/stream_buffer.c **** 	portCLEAR_INTERRUPT_MASK_FROM_ISR( uxSavedInterruptStatus );
 985:..\FreeRTOS\Source/stream_buffer.c **** 
 986:..\FreeRTOS\Source/stream_buffer.c **** 	return xReturn;
 987:..\FreeRTOS\Source/stream_buffer.c **** }
 988:..\FreeRTOS\Source/stream_buffer.c **** /*-----------------------------------------------------------*/
 989:..\FreeRTOS\Source/stream_buffer.c **** 
 990:..\FreeRTOS\Source/stream_buffer.c **** BaseType_t xStreamBufferReceiveCompletedFromISR( StreamBufferHandle_t xStreamBuffer, BaseType_t *px
 991:..\FreeRTOS\Source/stream_buffer.c **** {
 992:..\FreeRTOS\Source/stream_buffer.c **** StreamBuffer_t * const pxStreamBuffer = ( StreamBuffer_t * ) xStreamBuffer; /*lint !e9087 !e9079 Sa
 993:..\FreeRTOS\Source/stream_buffer.c **** BaseType_t xReturn;
 994:..\FreeRTOS\Source/stream_buffer.c **** UBaseType_t uxSavedInterruptStatus;
 995:..\FreeRTOS\Source/stream_buffer.c **** 
 996:..\FreeRTOS\Source/stream_buffer.c **** 	configASSERT( pxStreamBuffer );
 997:..\FreeRTOS\Source/stream_buffer.c **** 
 998:..\FreeRTOS\Source/stream_buffer.c **** 	uxSavedInterruptStatus = ( UBaseType_t ) portSET_INTERRUPT_MASK_FROM_ISR();
 999:..\FreeRTOS\Source/stream_buffer.c **** 	{
1000:..\FreeRTOS\Source/stream_buffer.c **** 		if( ( pxStreamBuffer )->xTaskWaitingToSend != NULL )
ARM GAS  C:\Users\samue\AppData\Local\Temp\cc6oSIFr.s 			page 19


1001:..\FreeRTOS\Source/stream_buffer.c **** 		{
1002:..\FreeRTOS\Source/stream_buffer.c **** 			( void ) xTaskNotifyFromISR( ( pxStreamBuffer )->xTaskWaitingToSend,
1003:..\FreeRTOS\Source/stream_buffer.c **** 										 ( uint32_t ) 0,
1004:..\FreeRTOS\Source/stream_buffer.c **** 										 eNoAction,
1005:..\FreeRTOS\Source/stream_buffer.c **** 										 pxHigherPriorityTaskWoken );
1006:..\FreeRTOS\Source/stream_buffer.c **** 			( pxStreamBuffer )->xTaskWaitingToSend = NULL;
1007:..\FreeRTOS\Source/stream_buffer.c **** 			xReturn = pdTRUE;
1008:..\FreeRTOS\Source/stream_buffer.c **** 		}
1009:..\FreeRTOS\Source/stream_buffer.c **** 		else
1010:..\FreeRTOS\Source/stream_buffer.c **** 		{
1011:..\FreeRTOS\Source/stream_buffer.c **** 			xReturn = pdFALSE;
1012:..\FreeRTOS\Source/stream_buffer.c **** 		}
1013:..\FreeRTOS\Source/stream_buffer.c **** 	}
1014:..\FreeRTOS\Source/stream_buffer.c **** 	portCLEAR_INTERRUPT_MASK_FROM_ISR( uxSavedInterruptStatus );
1015:..\FreeRTOS\Source/stream_buffer.c **** 
1016:..\FreeRTOS\Source/stream_buffer.c **** 	return xReturn;
1017:..\FreeRTOS\Source/stream_buffer.c **** }
1018:..\FreeRTOS\Source/stream_buffer.c **** /*-----------------------------------------------------------*/
1019:..\FreeRTOS\Source/stream_buffer.c **** 
1020:..\FreeRTOS\Source/stream_buffer.c **** static size_t prvWriteBytesToBuffer( StreamBuffer_t * const pxStreamBuffer, const uint8_t *pucData,
1021:..\FreeRTOS\Source/stream_buffer.c **** {
1022:..\FreeRTOS\Source/stream_buffer.c **** size_t xNextHead, xFirstLength;
1023:..\FreeRTOS\Source/stream_buffer.c **** 
1024:..\FreeRTOS\Source/stream_buffer.c **** 	configASSERT( xCount > ( size_t ) 0 );
1025:..\FreeRTOS\Source/stream_buffer.c **** 
1026:..\FreeRTOS\Source/stream_buffer.c **** 	xNextHead = pxStreamBuffer->xHead;
1027:..\FreeRTOS\Source/stream_buffer.c **** 
1028:..\FreeRTOS\Source/stream_buffer.c **** 	/* Calculate the number of bytes that can be added in the first write -
1029:..\FreeRTOS\Source/stream_buffer.c **** 	which may be less than the total number of bytes that need to be added if
1030:..\FreeRTOS\Source/stream_buffer.c **** 	the buffer will wrap back to the beginning. */
1031:..\FreeRTOS\Source/stream_buffer.c **** 	xFirstLength = configMIN( pxStreamBuffer->xLength - xNextHead, xCount );
1032:..\FreeRTOS\Source/stream_buffer.c **** 
1033:..\FreeRTOS\Source/stream_buffer.c **** 	/* Write as many bytes as can be written in the first write. */
1034:..\FreeRTOS\Source/stream_buffer.c **** 	configASSERT( ( xNextHead + xFirstLength ) <= pxStreamBuffer->xLength );
1035:..\FreeRTOS\Source/stream_buffer.c **** 	memcpy( ( void* ) ( &( pxStreamBuffer->pucBuffer[ xNextHead ] ) ), ( const void * ) pucData, xFirs
1036:..\FreeRTOS\Source/stream_buffer.c **** 
1037:..\FreeRTOS\Source/stream_buffer.c **** 	/* If the number of bytes written was less than the number that could be
1038:..\FreeRTOS\Source/stream_buffer.c **** 	written in the first write... */
1039:..\FreeRTOS\Source/stream_buffer.c **** 	if( xCount > xFirstLength )
1040:..\FreeRTOS\Source/stream_buffer.c **** 	{
1041:..\FreeRTOS\Source/stream_buffer.c **** 		/* ...then write the remaining bytes to the start of the buffer. */
1042:..\FreeRTOS\Source/stream_buffer.c **** 		configASSERT( ( xCount - xFirstLength ) <= pxStreamBuffer->xLength );
1043:..\FreeRTOS\Source/stream_buffer.c **** 		memcpy( ( void * ) pxStreamBuffer->pucBuffer, ( const void * ) &( pucData[ xFirstLength ] ), xCou
1044:..\FreeRTOS\Source/stream_buffer.c **** 	}
1045:..\FreeRTOS\Source/stream_buffer.c **** 	else
1046:..\FreeRTOS\Source/stream_buffer.c **** 	{
1047:..\FreeRTOS\Source/stream_buffer.c **** 		mtCOVERAGE_TEST_MARKER();
1048:..\FreeRTOS\Source/stream_buffer.c **** 	}
1049:..\FreeRTOS\Source/stream_buffer.c **** 
1050:..\FreeRTOS\Source/stream_buffer.c **** 	xNextHead += xCount;
1051:..\FreeRTOS\Source/stream_buffer.c **** 	if( xNextHead >= pxStreamBuffer->xLength )
1052:..\FreeRTOS\Source/stream_buffer.c **** 	{
1053:..\FreeRTOS\Source/stream_buffer.c **** 		xNextHead -= pxStreamBuffer->xLength;
1054:..\FreeRTOS\Source/stream_buffer.c **** 	}
1055:..\FreeRTOS\Source/stream_buffer.c **** 	else
1056:..\FreeRTOS\Source/stream_buffer.c **** 	{
1057:..\FreeRTOS\Source/stream_buffer.c **** 		mtCOVERAGE_TEST_MARKER();
ARM GAS  C:\Users\samue\AppData\Local\Temp\cc6oSIFr.s 			page 20


1058:..\FreeRTOS\Source/stream_buffer.c **** 	}
1059:..\FreeRTOS\Source/stream_buffer.c **** 
1060:..\FreeRTOS\Source/stream_buffer.c **** 	pxStreamBuffer->xHead = xNextHead;
1061:..\FreeRTOS\Source/stream_buffer.c **** 
1062:..\FreeRTOS\Source/stream_buffer.c **** 	return xCount;
1063:..\FreeRTOS\Source/stream_buffer.c **** }
1064:..\FreeRTOS\Source/stream_buffer.c **** /*-----------------------------------------------------------*/
1065:..\FreeRTOS\Source/stream_buffer.c **** 
1066:..\FreeRTOS\Source/stream_buffer.c **** static size_t prvReadBytesFromBuffer( StreamBuffer_t *pxStreamBuffer, uint8_t *pucData, size_t xMax
1067:..\FreeRTOS\Source/stream_buffer.c **** {
1068:..\FreeRTOS\Source/stream_buffer.c **** size_t xCount, xFirstLength, xNextTail;
1069:..\FreeRTOS\Source/stream_buffer.c **** 
1070:..\FreeRTOS\Source/stream_buffer.c **** 	/* Use the minimum of the wanted bytes and the available bytes. */
1071:..\FreeRTOS\Source/stream_buffer.c **** 	xCount = configMIN( xBytesAvailable, xMaxCount );
1072:..\FreeRTOS\Source/stream_buffer.c **** 
1073:..\FreeRTOS\Source/stream_buffer.c **** 	if( xCount > ( size_t ) 0 )
1074:..\FreeRTOS\Source/stream_buffer.c **** 	{
1075:..\FreeRTOS\Source/stream_buffer.c **** 		xNextTail = pxStreamBuffer->xTail;
1076:..\FreeRTOS\Source/stream_buffer.c **** 
1077:..\FreeRTOS\Source/stream_buffer.c **** 		/* Calculate the number of bytes that can be read - which may be
1078:..\FreeRTOS\Source/stream_buffer.c **** 		less than the number wanted if the data wraps around to the start of
1079:..\FreeRTOS\Source/stream_buffer.c **** 		the buffer. */
1080:..\FreeRTOS\Source/stream_buffer.c **** 		xFirstLength = configMIN( pxStreamBuffer->xLength - xNextTail, xCount );
1081:..\FreeRTOS\Source/stream_buffer.c **** 
1082:..\FreeRTOS\Source/stream_buffer.c **** 		/* Obtain the number of bytes it is possible to obtain in the first
1083:..\FreeRTOS\Source/stream_buffer.c **** 		read.  Asserts check bounds of read and write. */
1084:..\FreeRTOS\Source/stream_buffer.c **** 		configASSERT( xFirstLength <= xMaxCount );
1085:..\FreeRTOS\Source/stream_buffer.c **** 		configASSERT( ( xNextTail + xFirstLength ) <= pxStreamBuffer->xLength );
1086:..\FreeRTOS\Source/stream_buffer.c **** 		memcpy( ( void * ) pucData, ( const void * ) &( pxStreamBuffer->pucBuffer[ xNextTail ] ), xFirstL
1087:..\FreeRTOS\Source/stream_buffer.c **** 
1088:..\FreeRTOS\Source/stream_buffer.c **** 		/* If the total number of wanted bytes is greater than the number
1089:..\FreeRTOS\Source/stream_buffer.c **** 		that could be read in the first read... */
1090:..\FreeRTOS\Source/stream_buffer.c **** 		if( xCount > xFirstLength )
1091:..\FreeRTOS\Source/stream_buffer.c **** 		{
1092:..\FreeRTOS\Source/stream_buffer.c **** 			/*...then read the remaining bytes from the start of the buffer. */
1093:..\FreeRTOS\Source/stream_buffer.c **** 			configASSERT( xCount <= xMaxCount );
1094:..\FreeRTOS\Source/stream_buffer.c **** 			memcpy( ( void * ) &( pucData[ xFirstLength ] ), ( void * ) ( pxStreamBuffer->pucBuffer ), xCoun
1095:..\FreeRTOS\Source/stream_buffer.c **** 		}
1096:..\FreeRTOS\Source/stream_buffer.c **** 		else
1097:..\FreeRTOS\Source/stream_buffer.c **** 		{
1098:..\FreeRTOS\Source/stream_buffer.c **** 			mtCOVERAGE_TEST_MARKER();
1099:..\FreeRTOS\Source/stream_buffer.c **** 		}
1100:..\FreeRTOS\Source/stream_buffer.c **** 
1101:..\FreeRTOS\Source/stream_buffer.c **** 		/* Move the tail pointer to effectively remove the data read from
1102:..\FreeRTOS\Source/stream_buffer.c **** 		the buffer. */
1103:..\FreeRTOS\Source/stream_buffer.c **** 		xNextTail += xCount;
1104:..\FreeRTOS\Source/stream_buffer.c **** 
1105:..\FreeRTOS\Source/stream_buffer.c **** 		if( xNextTail >= pxStreamBuffer->xLength )
1106:..\FreeRTOS\Source/stream_buffer.c **** 		{
1107:..\FreeRTOS\Source/stream_buffer.c **** 			xNextTail -= pxStreamBuffer->xLength;
1108:..\FreeRTOS\Source/stream_buffer.c **** 		}
1109:..\FreeRTOS\Source/stream_buffer.c **** 
1110:..\FreeRTOS\Source/stream_buffer.c **** 		pxStreamBuffer->xTail = xNextTail;
1111:..\FreeRTOS\Source/stream_buffer.c **** 	}
1112:..\FreeRTOS\Source/stream_buffer.c **** 	else
1113:..\FreeRTOS\Source/stream_buffer.c **** 	{
1114:..\FreeRTOS\Source/stream_buffer.c **** 		mtCOVERAGE_TEST_MARKER();
ARM GAS  C:\Users\samue\AppData\Local\Temp\cc6oSIFr.s 			page 21


1115:..\FreeRTOS\Source/stream_buffer.c **** 	}
1116:..\FreeRTOS\Source/stream_buffer.c **** 
1117:..\FreeRTOS\Source/stream_buffer.c **** 	return xCount;
1118:..\FreeRTOS\Source/stream_buffer.c **** }
1119:..\FreeRTOS\Source/stream_buffer.c **** /*-----------------------------------------------------------*/
1120:..\FreeRTOS\Source/stream_buffer.c **** 
1121:..\FreeRTOS\Source/stream_buffer.c **** static size_t prvBytesInBuffer( const StreamBuffer_t * const pxStreamBuffer )
1122:..\FreeRTOS\Source/stream_buffer.c **** {
  27              		.loc 1 1122 0
  28              		.cfi_startproc
  29              		@ args = 0, pretend = 0, frame = 0
  30              		@ frame_needed = 0, uses_anonymous_args = 0
  31              		@ link register save eliminated.
  32              	.LVL0:
1123:..\FreeRTOS\Source/stream_buffer.c **** /* Returns the distance between xTail and xHead. */
1124:..\FreeRTOS\Source/stream_buffer.c **** size_t xCount;
1125:..\FreeRTOS\Source/stream_buffer.c **** 
1126:..\FreeRTOS\Source/stream_buffer.c **** 	xCount = pxStreamBuffer->xLength + pxStreamBuffer->xHead;
  33              		.loc 1 1126 0
  34 0000 8268     		ldr	r2, [r0, #8]
  35 0002 4368     		ldr	r3, [r0, #4]
  36 0004 1344     		add	r3, r3, r2
  37              	.LVL1:
1127:..\FreeRTOS\Source/stream_buffer.c **** 	xCount -= pxStreamBuffer->xTail;
  38              		.loc 1 1127 0
  39 0006 0068     		ldr	r0, [r0]
  40              	.LVL2:
  41 0008 181A     		subs	r0, r3, r0
  42              	.LVL3:
1128:..\FreeRTOS\Source/stream_buffer.c **** 	if ( xCount >= pxStreamBuffer->xLength )
  43              		.loc 1 1128 0
  44 000a 8242     		cmp	r2, r0
  45 000c 00D8     		bhi	.L2
1129:..\FreeRTOS\Source/stream_buffer.c **** 	{
1130:..\FreeRTOS\Source/stream_buffer.c **** 		xCount -= pxStreamBuffer->xLength;
  46              		.loc 1 1130 0
  47 000e 801A     		subs	r0, r0, r2
  48              	.LVL4:
  49              	.L2:
1131:..\FreeRTOS\Source/stream_buffer.c **** 	}
1132:..\FreeRTOS\Source/stream_buffer.c **** 	else
1133:..\FreeRTOS\Source/stream_buffer.c **** 	{
1134:..\FreeRTOS\Source/stream_buffer.c **** 		mtCOVERAGE_TEST_MARKER();
1135:..\FreeRTOS\Source/stream_buffer.c **** 	}
1136:..\FreeRTOS\Source/stream_buffer.c **** 
1137:..\FreeRTOS\Source/stream_buffer.c **** 	return xCount;
1138:..\FreeRTOS\Source/stream_buffer.c **** }
  50              		.loc 1 1138 0
  51 0010 7047     		bx	lr
  52              		.cfi_endproc
  53              	.LFE86:
  54              		.size	prvBytesInBuffer, .-prvBytesInBuffer
  55 0012 00BF     		.section	.text.prvInitialiseNewStreamBuffer,"ax",%progbits
  56              		.align	2
  57              		.thumb
  58              		.thumb_func
  59              		.type	prvInitialiseNewStreamBuffer, %function
ARM GAS  C:\Users\samue\AppData\Local\Temp\cc6oSIFr.s 			page 22


  60              	prvInitialiseNewStreamBuffer:
  61              	.LFB87:
1139:..\FreeRTOS\Source/stream_buffer.c **** /*-----------------------------------------------------------*/
1140:..\FreeRTOS\Source/stream_buffer.c **** 
1141:..\FreeRTOS\Source/stream_buffer.c **** static void prvInitialiseNewStreamBuffer( StreamBuffer_t * const pxStreamBuffer,
1142:..\FreeRTOS\Source/stream_buffer.c **** 										  uint8_t * const pucBuffer,
1143:..\FreeRTOS\Source/stream_buffer.c **** 										  size_t xBufferSizeBytes,
1144:..\FreeRTOS\Source/stream_buffer.c **** 										  size_t xTriggerLevelBytes,
1145:..\FreeRTOS\Source/stream_buffer.c **** 										  BaseType_t xIsMessageBuffer )
1146:..\FreeRTOS\Source/stream_buffer.c **** {
  62              		.loc 1 1146 0
  63              		.cfi_startproc
  64              		@ args = 4, pretend = 0, frame = 0
  65              		@ frame_needed = 0, uses_anonymous_args = 0
  66              	.LVL5:
  67 0000 F8B5     		push	{r3, r4, r5, r6, r7, lr}
  68              		.cfi_def_cfa_offset 24
  69              		.cfi_offset 3, -24
  70              		.cfi_offset 4, -20
  71              		.cfi_offset 5, -16
  72              		.cfi_offset 6, -12
  73              		.cfi_offset 7, -8
  74              		.cfi_offset 14, -4
  75 0002 0446     		mov	r4, r0
  76 0004 0D46     		mov	r5, r1
  77 0006 1746     		mov	r7, r2
  78 0008 1E46     		mov	r6, r3
1147:..\FreeRTOS\Source/stream_buffer.c **** 	/* Assert here is deliberately writing to the entire buffer to ensure it can
1148:..\FreeRTOS\Source/stream_buffer.c **** 	be written to without generating exceptions, and is setting the buffer to a
1149:..\FreeRTOS\Source/stream_buffer.c **** 	known value to assist in development/debugging. */
1150:..\FreeRTOS\Source/stream_buffer.c **** 	#if( configASSERT_DEFINED == 1 )
1151:..\FreeRTOS\Source/stream_buffer.c **** 	{
1152:..\FreeRTOS\Source/stream_buffer.c **** 		/* The value written just has to be identifiable when looking at the
1153:..\FreeRTOS\Source/stream_buffer.c **** 		memory.  Don't use 0xA5 as that is the stack fill value and could
1154:..\FreeRTOS\Source/stream_buffer.c **** 		result in confusion as to what is actually being observed. */
1155:..\FreeRTOS\Source/stream_buffer.c **** 		const BaseType_t xWriteValue = 0x55;
1156:..\FreeRTOS\Source/stream_buffer.c **** 		configASSERT( memset( pucBuffer, ( int ) xWriteValue, xBufferSizeBytes ) == pucBuffer );
1157:..\FreeRTOS\Source/stream_buffer.c **** 	}
1158:..\FreeRTOS\Source/stream_buffer.c **** 	#endif
1159:..\FreeRTOS\Source/stream_buffer.c **** 
1160:..\FreeRTOS\Source/stream_buffer.c **** 	memset( ( void * ) pxStreamBuffer, 0x00, sizeof( StreamBuffer_t ) ); /*lint !e9087 memset() requir
  79              		.loc 1 1160 0
  80 000a 2422     		movs	r2, #36
  81              	.LVL6:
  82 000c 0021     		movs	r1, #0
  83              	.LVL7:
  84 000e FFF7FEFF 		bl	memset
  85              	.LVL8:
1161:..\FreeRTOS\Source/stream_buffer.c **** 	pxStreamBuffer->pucBuffer = pucBuffer;
  86              		.loc 1 1161 0
  87 0012 A561     		str	r5, [r4, #24]
1162:..\FreeRTOS\Source/stream_buffer.c **** 	pxStreamBuffer->xLength = xBufferSizeBytes;
  88              		.loc 1 1162 0
  89 0014 A760     		str	r7, [r4, #8]
1163:..\FreeRTOS\Source/stream_buffer.c **** 	pxStreamBuffer->xTriggerLevelBytes = xTriggerLevelBytes;
  90              		.loc 1 1163 0
  91 0016 E660     		str	r6, [r4, #12]
ARM GAS  C:\Users\samue\AppData\Local\Temp\cc6oSIFr.s 			page 23


1164:..\FreeRTOS\Source/stream_buffer.c **** 
1165:..\FreeRTOS\Source/stream_buffer.c **** 	if( xIsMessageBuffer != pdFALSE )
  92              		.loc 1 1165 0
  93 0018 069B     		ldr	r3, [sp, #24]
  94 001a 1BB1     		cbz	r3, .L3
1166:..\FreeRTOS\Source/stream_buffer.c **** 	{
1167:..\FreeRTOS\Source/stream_buffer.c **** 		pxStreamBuffer->ucFlags |= sbFLAGS_IS_MESSAGE_BUFFER;
  95              		.loc 1 1167 0
  96 001c 237F     		ldrb	r3, [r4, #28]	@ zero_extendqisi2
  97 001e 43F00103 		orr	r3, r3, #1
  98 0022 2377     		strb	r3, [r4, #28]
  99              	.L3:
 100 0024 F8BD     		pop	{r3, r4, r5, r6, r7, pc}
 101              		.cfi_endproc
 102              	.LFE87:
 103              		.size	prvInitialiseNewStreamBuffer, .-prvInitialiseNewStreamBuffer
 104 0026 00BF     		.section	.text.prvWriteBytesToBuffer,"ax",%progbits
 105              		.align	2
 106              		.thumb
 107              		.thumb_func
 108              		.type	prvWriteBytesToBuffer, %function
 109              	prvWriteBytesToBuffer:
 110              	.LFB84:
1021:..\FreeRTOS\Source/stream_buffer.c **** size_t xNextHead, xFirstLength;
 111              		.loc 1 1021 0
 112              		.cfi_startproc
 113              		@ args = 0, pretend = 0, frame = 0
 114              		@ frame_needed = 0, uses_anonymous_args = 0
 115              	.LVL9:
 116 0000 2DE9F041 		push	{r4, r5, r6, r7, r8, lr}
 117              		.cfi_def_cfa_offset 24
 118              		.cfi_offset 4, -24
 119              		.cfi_offset 5, -20
 120              		.cfi_offset 6, -16
 121              		.cfi_offset 7, -12
 122              		.cfi_offset 8, -8
 123              		.cfi_offset 14, -4
 124 0004 0646     		mov	r6, r0
 125 0006 8846     		mov	r8, r1
 126 0008 1746     		mov	r7, r2
1026:..\FreeRTOS\Source/stream_buffer.c **** 
 127              		.loc 1 1026 0
 128 000a 4468     		ldr	r4, [r0, #4]
 129              	.LVL10:
1031:..\FreeRTOS\Source/stream_buffer.c **** 
 130              		.loc 1 1031 0
 131 000c 8568     		ldr	r5, [r0, #8]
 132 000e 2D1B     		subs	r5, r5, r4
 133 0010 9542     		cmp	r5, r2
 134 0012 28BF     		it	cs
 135 0014 1546     		movcs	r5, r2
 136              	.LVL11:
1035:..\FreeRTOS\Source/stream_buffer.c **** 
 137              		.loc 1 1035 0
 138 0016 8069     		ldr	r0, [r0, #24]
 139              	.LVL12:
 140 0018 2A46     		mov	r2, r5
ARM GAS  C:\Users\samue\AppData\Local\Temp\cc6oSIFr.s 			page 24


 141              	.LVL13:
 142 001a 2044     		add	r0, r0, r4
 143 001c FFF7FEFF 		bl	memcpy
 144              	.LVL14:
1039:..\FreeRTOS\Source/stream_buffer.c **** 	{
 145              		.loc 1 1039 0
 146 0020 AF42     		cmp	r7, r5
 147 0022 05D9     		bls	.L7
1043:..\FreeRTOS\Source/stream_buffer.c **** 	}
 148              		.loc 1 1043 0
 149 0024 7A1B     		subs	r2, r7, r5
 150 0026 08EB0501 		add	r1, r8, r5
 151 002a B069     		ldr	r0, [r6, #24]
 152 002c FFF7FEFF 		bl	memcpy
 153              	.LVL15:
 154              	.L7:
1050:..\FreeRTOS\Source/stream_buffer.c **** 	if( xNextHead >= pxStreamBuffer->xLength )
 155              		.loc 1 1050 0
 156 0030 E319     		adds	r3, r4, r7
 157              	.LVL16:
1051:..\FreeRTOS\Source/stream_buffer.c **** 	{
 158              		.loc 1 1051 0
 159 0032 B268     		ldr	r2, [r6, #8]
 160 0034 9342     		cmp	r3, r2
 161 0036 00D3     		bcc	.L8
1053:..\FreeRTOS\Source/stream_buffer.c **** 	}
 162              		.loc 1 1053 0
 163 0038 9B1A     		subs	r3, r3, r2
 164              	.LVL17:
 165              	.L8:
1060:..\FreeRTOS\Source/stream_buffer.c **** 
 166              		.loc 1 1060 0
 167 003a 7360     		str	r3, [r6, #4]
1063:..\FreeRTOS\Source/stream_buffer.c **** /*-----------------------------------------------------------*/
 168              		.loc 1 1063 0
 169 003c 3846     		mov	r0, r7
 170 003e BDE8F081 		pop	{r4, r5, r6, r7, r8, pc}
 171              		.cfi_endproc
 172              	.LFE84:
 173              		.size	prvWriteBytesToBuffer, .-prvWriteBytesToBuffer
 174 0042 00BF     		.section	.text.prvWriteMessageToBuffer,"ax",%progbits
 175              		.align	2
 176              		.thumb
 177              		.thumb_func
 178              		.type	prvWriteMessageToBuffer, %function
 179              	prvWriteMessageToBuffer:
 180              	.LFB76:
 644:..\FreeRTOS\Source/stream_buffer.c **** 	BaseType_t xShouldWrite;
 181              		.loc 1 644 0
 182              		.cfi_startproc
 183              		@ args = 4, pretend = 0, frame = 8
 184              		@ frame_needed = 0, uses_anonymous_args = 0
 185              	.LVL18:
 186 0000 30B5     		push	{r4, r5, lr}
 187              		.cfi_def_cfa_offset 12
 188              		.cfi_offset 4, -12
 189              		.cfi_offset 5, -8
ARM GAS  C:\Users\samue\AppData\Local\Temp\cc6oSIFr.s 			page 25


 190              		.cfi_offset 14, -4
 191 0002 83B0     		sub	sp, sp, #12
 192              		.cfi_def_cfa_offset 24
 193 0004 0446     		mov	r4, r0
 194 0006 0D46     		mov	r5, r1
 195 0008 0192     		str	r2, [sp, #4]
 648:..\FreeRTOS\Source/stream_buffer.c **** 	{
 196              		.loc 1 648 0
 197 000a ABB1     		cbz	r3, .L14
 198 000c 1A46     		mov	r2, r3
 199              	.LVL19:
 654:..\FreeRTOS\Source/stream_buffer.c **** 	{
 200              		.loc 1 654 0
 201 000e 037F     		ldrb	r3, [r0, #28]	@ zero_extendqisi2
 202              	.LVL20:
 203 0010 13F0010F 		tst	r3, #1
 204 0014 06D1     		bne	.L12
 205              	.LVL21:
 660:..\FreeRTOS\Source/stream_buffer.c **** 	}
 206              		.loc 1 660 0
 207 0016 019B     		ldr	r3, [sp, #4]
 208 0018 9A42     		cmp	r2, r3
 209 001a 28BF     		it	cs
 210 001c 1A46     		movcs	r2, r3
 211              	.LVL22:
 212 001e 0192     		str	r2, [sp, #4]
 213              	.LVL23:
 659:..\FreeRTOS\Source/stream_buffer.c **** 		xDataLengthBytes = configMIN( xDataLengthBytes, xSpace ); /*lint !e9044 Function parameter modifi
 214              		.loc 1 659 0
 215 0020 0123     		movs	r3, #1
 216              	.LVL24:
 217 0022 0CE0     		b	.L11
 218              	.LVL25:
 219              	.L12:
 662:..\FreeRTOS\Source/stream_buffer.c **** 	{
 220              		.loc 1 662 0
 221 0024 069B     		ldr	r3, [sp, #24]
 222 0026 9A42     		cmp	r2, r3
 223 0028 08D3     		bcc	.L15
 224              	.LVL26:
 669:..\FreeRTOS\Source/stream_buffer.c **** 	}
 225              		.loc 1 669 0
 226 002a 0422     		movs	r2, #4
 227              	.LVL27:
 228 002c 0DEB0201 		add	r1, sp, r2
 229              	.LVL28:
 230 0030 FFF7FEFF 		bl	prvWriteBytesToBuffer
 231              	.LVL29:
 668:..\FreeRTOS\Source/stream_buffer.c **** 		( void ) prvWriteBytesToBuffer( pxStreamBuffer, ( const uint8_t * ) &( xDataLengthBytes ), sbBYTE
 232              		.loc 1 668 0
 233 0034 0123     		movs	r3, #1
 234 0036 02E0     		b	.L11
 235              	.LVL30:
 236              	.L14:
 652:..\FreeRTOS\Source/stream_buffer.c **** 	}
 237              		.loc 1 652 0
 238 0038 0023     		movs	r3, #0
ARM GAS  C:\Users\samue\AppData\Local\Temp\cc6oSIFr.s 			page 26


 239              	.LVL31:
 240 003a 00E0     		b	.L11
 241              	.LVL32:
 242              	.L15:
 674:..\FreeRTOS\Source/stream_buffer.c **** 	}
 243              		.loc 1 674 0
 244 003c 0023     		movs	r3, #0
 245              	.LVL33:
 246              	.L11:
 677:..\FreeRTOS\Source/stream_buffer.c **** 	{
 247              		.loc 1 677 0
 248 003e 2BB1     		cbz	r3, .L16
 680:..\FreeRTOS\Source/stream_buffer.c **** 	}
 249              		.loc 1 680 0
 250 0040 019A     		ldr	r2, [sp, #4]
 251 0042 2946     		mov	r1, r5
 252 0044 2046     		mov	r0, r4
 253 0046 FFF7FEFF 		bl	prvWriteBytesToBuffer
 254              	.LVL34:
 255 004a 00E0     		b	.L13
 256              	.LVL35:
 257              	.L16:
 684:..\FreeRTOS\Source/stream_buffer.c **** 	}
 258              		.loc 1 684 0
 259 004c 0020     		movs	r0, #0
 260              	.LVL36:
 261              	.L13:
 688:..\FreeRTOS\Source/stream_buffer.c **** /*-----------------------------------------------------------*/
 262              		.loc 1 688 0
 263 004e 03B0     		add	sp, sp, #12
 264              		.cfi_def_cfa_offset 12
 265              		@ sp needed
 266 0050 30BD     		pop	{r4, r5, pc}
 267              		.cfi_endproc
 268              	.LFE76:
 269              		.size	prvWriteMessageToBuffer, .-prvWriteMessageToBuffer
 270 0052 00BF     		.section	.text.prvReadBytesFromBuffer,"ax",%progbits
 271              		.align	2
 272              		.thumb
 273              		.thumb_func
 274              		.type	prvReadBytesFromBuffer, %function
 275              	prvReadBytesFromBuffer:
 276              	.LFB85:
1067:..\FreeRTOS\Source/stream_buffer.c **** size_t xCount, xFirstLength, xNextTail;
 277              		.loc 1 1067 0
 278              		.cfi_startproc
 279              		@ args = 0, pretend = 0, frame = 0
 280              		@ frame_needed = 0, uses_anonymous_args = 0
 281              	.LVL37:
 282 0000 2DE9F041 		push	{r4, r5, r6, r7, r8, lr}
 283              		.cfi_def_cfa_offset 24
 284              		.cfi_offset 4, -24
 285              		.cfi_offset 5, -20
 286              		.cfi_offset 6, -16
 287              		.cfi_offset 7, -12
 288              		.cfi_offset 8, -8
 289              		.cfi_offset 14, -4
ARM GAS  C:\Users\samue\AppData\Local\Temp\cc6oSIFr.s 			page 27


1071:..\FreeRTOS\Source/stream_buffer.c **** 
 290              		.loc 1 1071 0
 291 0004 9A42     		cmp	r2, r3
 292 0006 28BF     		it	cs
 293 0008 1A46     		movcs	r2, r3
 294              	.LVL38:
 295 000a 1446     		mov	r4, r2
 296              	.LVL39:
1073:..\FreeRTOS\Source/stream_buffer.c **** 	{
 297              		.loc 1 1073 0
 298 000c DAB1     		cbz	r2, .L19
 299 000e 8846     		mov	r8, r1
 300 0010 0546     		mov	r5, r0
1075:..\FreeRTOS\Source/stream_buffer.c **** 
 301              		.loc 1 1075 0
 302 0012 0668     		ldr	r6, [r0]
 303              	.LVL40:
1080:..\FreeRTOS\Source/stream_buffer.c **** 
 304              		.loc 1 1080 0
 305 0014 8768     		ldr	r7, [r0, #8]
 306 0016 BF1B     		subs	r7, r7, r6
 307 0018 9742     		cmp	r7, r2
 308 001a 28BF     		it	cs
 309 001c 1746     		movcs	r7, r2
 310              	.LVL41:
1086:..\FreeRTOS\Source/stream_buffer.c **** 
 311              		.loc 1 1086 0
 312 001e 8169     		ldr	r1, [r0, #24]
 313              	.LVL42:
 314 0020 3A46     		mov	r2, r7
 315              	.LVL43:
 316 0022 3144     		add	r1, r1, r6
 317 0024 4046     		mov	r0, r8
 318              	.LVL44:
 319 0026 FFF7FEFF 		bl	memcpy
 320              	.LVL45:
1090:..\FreeRTOS\Source/stream_buffer.c **** 		{
 321              		.loc 1 1090 0
 322 002a BC42     		cmp	r4, r7
 323 002c 05D9     		bls	.L20
1094:..\FreeRTOS\Source/stream_buffer.c **** 		}
 324              		.loc 1 1094 0
 325 002e E21B     		subs	r2, r4, r7
 326 0030 A969     		ldr	r1, [r5, #24]
 327 0032 08EB0700 		add	r0, r8, r7
 328 0036 FFF7FEFF 		bl	memcpy
 329              	.LVL46:
 330              	.L20:
1103:..\FreeRTOS\Source/stream_buffer.c **** 
 331              		.loc 1 1103 0
 332 003a 2644     		add	r6, r6, r4
 333              	.LVL47:
1105:..\FreeRTOS\Source/stream_buffer.c **** 		{
 334              		.loc 1 1105 0
 335 003c AB68     		ldr	r3, [r5, #8]
 336 003e 9E42     		cmp	r6, r3
 337 0040 00D3     		bcc	.L21
ARM GAS  C:\Users\samue\AppData\Local\Temp\cc6oSIFr.s 			page 28


1107:..\FreeRTOS\Source/stream_buffer.c **** 		}
 338              		.loc 1 1107 0
 339 0042 F61A     		subs	r6, r6, r3
 340              	.LVL48:
 341              	.L21:
1110:..\FreeRTOS\Source/stream_buffer.c **** 	}
 342              		.loc 1 1110 0
 343 0044 2E60     		str	r6, [r5]
 344              	.LVL49:
 345              	.L19:
1118:..\FreeRTOS\Source/stream_buffer.c **** /*-----------------------------------------------------------*/
 346              		.loc 1 1118 0
 347 0046 2046     		mov	r0, r4
 348 0048 BDE8F081 		pop	{r4, r5, r6, r7, r8, pc}
 349              		.cfi_endproc
 350              	.LFE85:
 351              		.size	prvReadBytesFromBuffer, .-prvReadBytesFromBuffer
 352              		.section	.text.prvReadMessageFromBuffer,"ax",%progbits
 353              		.align	2
 354              		.thumb
 355              		.thumb_func
 356              		.type	prvReadMessageFromBuffer, %function
 357              	prvReadMessageFromBuffer:
 358              	.LFB79:
 857:..\FreeRTOS\Source/stream_buffer.c **** size_t xOriginalTail, xReceivedLength, xNextMessageLength;
 359              		.loc 1 857 0
 360              		.cfi_startproc
 361              		@ args = 4, pretend = 0, frame = 8
 362              		@ frame_needed = 0, uses_anonymous_args = 0
 363              	.LVL50:
 364 0000 2DE9F043 		push	{r4, r5, r6, r7, r8, r9, lr}
 365              		.cfi_def_cfa_offset 28
 366              		.cfi_offset 4, -28
 367              		.cfi_offset 5, -24
 368              		.cfi_offset 6, -20
 369              		.cfi_offset 7, -16
 370              		.cfi_offset 8, -12
 371              		.cfi_offset 9, -8
 372              		.cfi_offset 14, -4
 373 0004 83B0     		sub	sp, sp, #12
 374              		.cfi_def_cfa_offset 40
 375 0006 0546     		mov	r5, r0
 376 0008 0F46     		mov	r7, r1
 377 000a 9046     		mov	r8, r2
 378 000c 1C46     		mov	r4, r3
 379 000e 0A9E     		ldr	r6, [sp, #40]
 860:..\FreeRTOS\Source/stream_buffer.c **** 	{
 380              		.loc 1 860 0
 381 0010 76B1     		cbz	r6, .L24
 866:..\FreeRTOS\Source/stream_buffer.c **** 		( void ) prvReadBytesFromBuffer( pxStreamBuffer, ( uint8_t * ) &xNextMessageLength, xBytesToStore
 382              		.loc 1 866 0
 383 0012 D0F80090 		ldr	r9, [r0]
 384              	.LVL51:
 867:..\FreeRTOS\Source/stream_buffer.c **** 
 385              		.loc 1 867 0
 386 0016 3246     		mov	r2, r6
 387              	.LVL52:
ARM GAS  C:\Users\samue\AppData\Local\Temp\cc6oSIFr.s 			page 29


 388 0018 01A9     		add	r1, sp, #4
 389              	.LVL53:
 390 001a FFF7FEFF 		bl	prvReadBytesFromBuffer
 391              	.LVL54:
 871:..\FreeRTOS\Source/stream_buffer.c **** 
 392              		.loc 1 871 0
 393 001e A41B     		subs	r4, r4, r6
 394              	.LVL55:
 875:..\FreeRTOS\Source/stream_buffer.c **** 		{
 395              		.loc 1 875 0
 396 0020 019B     		ldr	r3, [sp, #4]
 397 0022 4345     		cmp	r3, r8
 398 0024 05D9     		bls	.L25
 880:..\FreeRTOS\Source/stream_buffer.c **** 			xNextMessageLength = 0;
 399              		.loc 1 880 0
 400 0026 C5F80090 		str	r9, [r5]
 881:..\FreeRTOS\Source/stream_buffer.c **** 		}
 401              		.loc 1 881 0
 402 002a 0023     		movs	r3, #0
 403 002c 0193     		str	r3, [sp, #4]
 404 002e 00E0     		b	.L25
 405              	.LVL56:
 406              	.L24:
 892:..\FreeRTOS\Source/stream_buffer.c **** 	}
 407              		.loc 1 892 0
 408 0030 0192     		str	r2, [sp, #4]
 409              	.LVL57:
 410              	.L25:
 896:..\FreeRTOS\Source/stream_buffer.c **** 
 411              		.loc 1 896 0
 412 0032 2346     		mov	r3, r4
 413 0034 019A     		ldr	r2, [sp, #4]
 414 0036 3946     		mov	r1, r7
 415 0038 2846     		mov	r0, r5
 416 003a FFF7FEFF 		bl	prvReadBytesFromBuffer
 417              	.LVL58:
 899:..\FreeRTOS\Source/stream_buffer.c **** /*-----------------------------------------------------------*/
 418              		.loc 1 899 0
 419 003e 03B0     		add	sp, sp, #12
 420              		.cfi_def_cfa_offset 28
 421              		@ sp needed
 422 0040 BDE8F083 		pop	{r4, r5, r6, r7, r8, r9, pc}
 423              		.cfi_endproc
 424              	.LFE79:
 425              		.size	prvReadMessageFromBuffer, .-prvReadMessageFromBuffer
 426              		.section	.text.xStreamBufferGenericCreate,"ax",%progbits
 427              		.align	2
 428              		.global	xStreamBufferGenericCreate
 429              		.thumb
 430              		.thumb_func
 431              		.type	xStreamBufferGenericCreate, %function
 432              	xStreamBufferGenericCreate:
 433              	.LFB68:
 220:..\FreeRTOS\Source/stream_buffer.c **** 	uint8_t *pucAllocatedMemory;
 434              		.loc 1 220 0
 435              		.cfi_startproc
 436              		@ args = 0, pretend = 0, frame = 0
ARM GAS  C:\Users\samue\AppData\Local\Temp\cc6oSIFr.s 			page 30


 437              		@ frame_needed = 0, uses_anonymous_args = 0
 438              	.LVL59:
 439 0000 F0B5     		push	{r4, r5, r6, r7, lr}
 440              		.cfi_def_cfa_offset 20
 441              		.cfi_offset 4, -20
 442              		.cfi_offset 5, -16
 443              		.cfi_offset 6, -12
 444              		.cfi_offset 7, -8
 445              		.cfi_offset 14, -4
 446 0002 83B0     		sub	sp, sp, #12
 447              		.cfi_def_cfa_offset 32
 448 0004 1746     		mov	r7, r2
 232:..\FreeRTOS\Source/stream_buffer.c **** 		{
 449              		.loc 1 232 0
 450 0006 0D46     		mov	r5, r1
 451 0008 01B9     		cbnz	r1, .L28
 234:..\FreeRTOS\Source/stream_buffer.c **** 		}
 452              		.loc 1 234 0
 453 000a 0125     		movs	r5, #1
 454              	.L28:
 455              	.LVL60:
 245:..\FreeRTOS\Source/stream_buffer.c **** 		pucAllocatedMemory = ( uint8_t * ) pvPortMalloc( xBufferSizeBytes + sizeof( StreamBuffer_t ) ); /
 456              		.loc 1 245 0
 457 000c 461C     		adds	r6, r0, #1
 458              	.LVL61:
 246:..\FreeRTOS\Source/stream_buffer.c **** 
 459              		.loc 1 246 0
 460 000e 2530     		adds	r0, r0, #37
 461 0010 FFF7FEFF 		bl	pvPortMalloc
 462              	.LVL62:
 248:..\FreeRTOS\Source/stream_buffer.c **** 		{
 463              		.loc 1 248 0
 464 0014 0446     		mov	r4, r0
 465 0016 30B1     		cbz	r0, .L29
 250:..\FreeRTOS\Source/stream_buffer.c **** 										   pucAllocatedMemory + sizeof( StreamBuffer_t ),  /* Storage area follows. */ /*lint !e9
 466              		.loc 1 250 0
 467 0018 0097     		str	r7, [sp]
 468 001a 2B46     		mov	r3, r5
 469 001c 3246     		mov	r2, r6
 470 001e 00F12401 		add	r1, r0, #36
 471 0022 FFF7FEFF 		bl	prvInitialiseNewStreamBuffer
 472              	.LVL63:
 473              	.L29:
 264:..\FreeRTOS\Source/stream_buffer.c **** 
 474              		.loc 1 264 0
 475 0026 2046     		mov	r0, r4
 476 0028 03B0     		add	sp, sp, #12
 477              		.cfi_def_cfa_offset 20
 478              		@ sp needed
 479 002a F0BD     		pop	{r4, r5, r6, r7, pc}
 480              		.cfi_endproc
 481              	.LFE68:
 482              		.size	xStreamBufferGenericCreate, .-xStreamBufferGenericCreate
 483              		.section	.text.vStreamBufferDelete,"ax",%progbits
 484              		.align	2
 485              		.global	vStreamBufferDelete
 486              		.thumb
ARM GAS  C:\Users\samue\AppData\Local\Temp\cc6oSIFr.s 			page 31


 487              		.thumb_func
 488              		.type	vStreamBufferDelete, %function
 489              	vStreamBufferDelete:
 490              	.LFB69:
 336:..\FreeRTOS\Source/stream_buffer.c **** StreamBuffer_t * pxStreamBuffer = ( StreamBuffer_t * ) xStreamBuffer; /*lint !e9087 !e9079 Safe cas
 491              		.loc 1 336 0
 492              		.cfi_startproc
 493              		@ args = 0, pretend = 0, frame = 0
 494              		@ frame_needed = 0, uses_anonymous_args = 0
 495              	.LVL64:
 496 0000 08B5     		push	{r3, lr}
 497              		.cfi_def_cfa_offset 8
 498              		.cfi_offset 3, -8
 499              		.cfi_offset 14, -4
 500              	.LVL65:
 343:..\FreeRTOS\Source/stream_buffer.c **** 	{
 501              		.loc 1 343 0
 502 0002 037F     		ldrb	r3, [r0, #28]	@ zero_extendqisi2
 503 0004 13F0020F 		tst	r3, #2
 504 0008 02D1     		bne	.L33
 349:..\FreeRTOS\Source/stream_buffer.c **** 		}
 505              		.loc 1 349 0
 506 000a FFF7FEFF 		bl	vPortFree
 507              	.LVL66:
 508 000e 08BD     		pop	{r3, pc}
 509              	.LVL67:
 510              	.L33:
 363:..\FreeRTOS\Source/stream_buffer.c **** 	}
 511              		.loc 1 363 0
 512 0010 2422     		movs	r2, #36
 513 0012 0021     		movs	r1, #0
 514 0014 FFF7FEFF 		bl	memset
 515              	.LVL68:
 516 0018 08BD     		pop	{r3, pc}
 517              		.cfi_endproc
 518              	.LFE69:
 519              		.size	vStreamBufferDelete, .-vStreamBufferDelete
 520 001a 00BF     		.section	.text.xStreamBufferReset,"ax",%progbits
 521              		.align	2
 522              		.global	xStreamBufferReset
 523              		.thumb
 524              		.thumb_func
 525              		.type	xStreamBufferReset, %function
 526              	xStreamBufferReset:
 527              	.LFB70:
 369:..\FreeRTOS\Source/stream_buffer.c **** StreamBuffer_t * const pxStreamBuffer = ( StreamBuffer_t * ) xStreamBuffer; /*lint !e9087 !e9079 Sa
 528              		.loc 1 369 0
 529              		.cfi_startproc
 530              		@ args = 0, pretend = 0, frame = 0
 531              		@ frame_needed = 0, uses_anonymous_args = 0
 532              	.LVL69:
 533 0000 30B5     		push	{r4, r5, lr}
 534              		.cfi_def_cfa_offset 12
 535              		.cfi_offset 4, -12
 536              		.cfi_offset 5, -8
 537              		.cfi_offset 14, -4
 538 0002 83B0     		sub	sp, sp, #12
ARM GAS  C:\Users\samue\AppData\Local\Temp\cc6oSIFr.s 			page 32


 539              		.cfi_def_cfa_offset 24
 540              	.LVL70:
 383:..\FreeRTOS\Source/stream_buffer.c **** 	}
 541              		.loc 1 383 0
 542 0004 056A     		ldr	r5, [r0, #32]
 543              	.LVL71:
 388:..\FreeRTOS\Source/stream_buffer.c **** 	{
 544              		.loc 1 388 0
 545 0006 0369     		ldr	r3, [r0, #16]
 546 0008 93B9     		cbnz	r3, .L39
 390:..\FreeRTOS\Source/stream_buffer.c **** 		{
 547              		.loc 1 390 0
 548 000a 4369     		ldr	r3, [r0, #20]
 549 000c 93B9     		cbnz	r3, .L40
 392:..\FreeRTOS\Source/stream_buffer.c **** 			{
 550              		.loc 1 392 0
 551 000e 037F     		ldrb	r3, [r0, #28]	@ zero_extendqisi2
 552 0010 13F0010F 		tst	r3, #1
 553 0014 01D0     		beq	.L41
 394:..\FreeRTOS\Source/stream_buffer.c **** 			}
 554              		.loc 1 394 0
 555 0016 0123     		movs	r3, #1
 556 0018 00E0     		b	.L38
 557              	.L41:
 398:..\FreeRTOS\Source/stream_buffer.c **** 			}
 558              		.loc 1 398 0
 559 001a 0023     		movs	r3, #0
 560              	.L38:
 561 001c 0446     		mov	r4, r0
 562              	.LVL72:
 401:..\FreeRTOS\Source/stream_buffer.c **** 										  pxStreamBuffer->pucBuffer,
 563              		.loc 1 401 0
 564 001e 0093     		str	r3, [sp]
 565 0020 C368     		ldr	r3, [r0, #12]
 566              	.LVL73:
 567 0022 8268     		ldr	r2, [r0, #8]
 568 0024 8169     		ldr	r1, [r0, #24]
 569 0026 FFF7FEFF 		bl	prvInitialiseNewStreamBuffer
 570              	.LVL74:
 410:..\FreeRTOS\Source/stream_buffer.c **** 			}
 571              		.loc 1 410 0
 572 002a 2562     		str	r5, [r4, #32]
 406:..\FreeRTOS\Source/stream_buffer.c **** 
 573              		.loc 1 406 0
 574 002c 0120     		movs	r0, #1
 575 002e 02E0     		b	.L37
 576              	.LVL75:
 577              	.L39:
 371:..\FreeRTOS\Source/stream_buffer.c **** 
 578              		.loc 1 371 0
 579 0030 0020     		movs	r0, #0
 580              	.LVL76:
 581 0032 00E0     		b	.L37
 582              	.LVL77:
 583              	.L40:
 584 0034 0020     		movs	r0, #0
 585              	.LVL78:
ARM GAS  C:\Users\samue\AppData\Local\Temp\cc6oSIFr.s 			page 33


 586              	.L37:
 419:..\FreeRTOS\Source/stream_buffer.c **** /*-----------------------------------------------------------*/
 587              		.loc 1 419 0
 588 0036 03B0     		add	sp, sp, #12
 589              		.cfi_def_cfa_offset 12
 590              		@ sp needed
 591 0038 30BD     		pop	{r4, r5, pc}
 592              		.cfi_endproc
 593              	.LFE70:
 594              		.size	xStreamBufferReset, .-xStreamBufferReset
 595 003a 00BF     		.section	.text.xStreamBufferSetTriggerLevel,"ax",%progbits
 596              		.align	2
 597              		.global	xStreamBufferSetTriggerLevel
 598              		.thumb
 599              		.thumb_func
 600              		.type	xStreamBufferSetTriggerLevel, %function
 601              	xStreamBufferSetTriggerLevel:
 602              	.LFB71:
 423:..\FreeRTOS\Source/stream_buffer.c **** StreamBuffer_t * const pxStreamBuffer = ( StreamBuffer_t * ) xStreamBuffer; /*lint !e9087 !e9079 Sa
 603              		.loc 1 423 0
 604              		.cfi_startproc
 605              		@ args = 0, pretend = 0, frame = 0
 606              		@ frame_needed = 0, uses_anonymous_args = 0
 607              		@ link register save eliminated.
 608              	.LVL79:
 430:..\FreeRTOS\Source/stream_buffer.c **** 	{
 609              		.loc 1 430 0
 610 0000 0B46     		mov	r3, r1
 611 0002 01B9     		cbnz	r1, .L44
 432:..\FreeRTOS\Source/stream_buffer.c **** 	}
 612              		.loc 1 432 0
 613 0004 0123     		movs	r3, #1
 614              	.L44:
 615              	.LVL80:
 437:..\FreeRTOS\Source/stream_buffer.c **** 	{
 616              		.loc 1 437 0
 617 0006 8268     		ldr	r2, [r0, #8]
 618 0008 9342     		cmp	r3, r2
 619 000a 02D8     		bhi	.L47
 439:..\FreeRTOS\Source/stream_buffer.c **** 		xReturn = pdPASS;
 620              		.loc 1 439 0
 621 000c C360     		str	r3, [r0, #12]
 622              	.LVL81:
 440:..\FreeRTOS\Source/stream_buffer.c **** 	}
 623              		.loc 1 440 0
 624 000e 0120     		movs	r0, #1
 625              	.LVL82:
 626 0010 7047     		bx	lr
 627              	.LVL83:
 628              	.L47:
 444:..\FreeRTOS\Source/stream_buffer.c **** 	}
 629              		.loc 1 444 0
 630 0012 0020     		movs	r0, #0
 631              	.LVL84:
 448:..\FreeRTOS\Source/stream_buffer.c **** /*-----------------------------------------------------------*/
 632              		.loc 1 448 0
 633 0014 7047     		bx	lr
ARM GAS  C:\Users\samue\AppData\Local\Temp\cc6oSIFr.s 			page 34


 634              		.cfi_endproc
 635              	.LFE71:
 636              		.size	xStreamBufferSetTriggerLevel, .-xStreamBufferSetTriggerLevel
 637 0016 00BF     		.section	.text.xStreamBufferSpacesAvailable,"ax",%progbits
 638              		.align	2
 639              		.global	xStreamBufferSpacesAvailable
 640              		.thumb
 641              		.thumb_func
 642              		.type	xStreamBufferSpacesAvailable, %function
 643              	xStreamBufferSpacesAvailable:
 644              	.LFB72:
 452:..\FreeRTOS\Source/stream_buffer.c **** const StreamBuffer_t * const pxStreamBuffer = ( StreamBuffer_t * ) xStreamBuffer; /*lint !e9087 !e9
 645              		.loc 1 452 0
 646              		.cfi_startproc
 647              		@ args = 0, pretend = 0, frame = 0
 648              		@ frame_needed = 0, uses_anonymous_args = 0
 649              		@ link register save eliminated.
 650              	.LVL85:
 458:..\FreeRTOS\Source/stream_buffer.c **** 	xSpace -= pxStreamBuffer->xHead;
 651              		.loc 1 458 0
 652 0000 8268     		ldr	r2, [r0, #8]
 653 0002 0368     		ldr	r3, [r0]
 654 0004 1344     		add	r3, r3, r2
 655              	.LVL86:
 459:..\FreeRTOS\Source/stream_buffer.c **** 	xSpace -= ( size_t ) 1;
 656              		.loc 1 459 0
 657 0006 4068     		ldr	r0, [r0, #4]
 658              	.LVL87:
 659 0008 181A     		subs	r0, r3, r0
 660              	.LVL88:
 460:..\FreeRTOS\Source/stream_buffer.c **** 
 661              		.loc 1 460 0
 662 000a 0138     		subs	r0, r0, #1
 663              	.LVL89:
 462:..\FreeRTOS\Source/stream_buffer.c **** 	{
 664              		.loc 1 462 0
 665 000c 8242     		cmp	r2, r0
 666 000e 00D8     		bhi	.L49
 464:..\FreeRTOS\Source/stream_buffer.c **** 	}
 667              		.loc 1 464 0
 668 0010 801A     		subs	r0, r0, r2
 669              	.LVL90:
 670              	.L49:
 472:..\FreeRTOS\Source/stream_buffer.c **** /*-----------------------------------------------------------*/
 671              		.loc 1 472 0
 672 0012 7047     		bx	lr
 673              		.cfi_endproc
 674              	.LFE72:
 675              		.size	xStreamBufferSpacesAvailable, .-xStreamBufferSpacesAvailable
 676              		.section	.text.xStreamBufferBytesAvailable,"ax",%progbits
 677              		.align	2
 678              		.global	xStreamBufferBytesAvailable
 679              		.thumb
 680              		.thumb_func
 681              		.type	xStreamBufferBytesAvailable, %function
 682              	xStreamBufferBytesAvailable:
 683              	.LFB73:
ARM GAS  C:\Users\samue\AppData\Local\Temp\cc6oSIFr.s 			page 35


 476:..\FreeRTOS\Source/stream_buffer.c **** const StreamBuffer_t * const pxStreamBuffer = ( StreamBuffer_t * ) xStreamBuffer; /*lint !e9087 !e9
 684              		.loc 1 476 0
 685              		.cfi_startproc
 686              		@ args = 0, pretend = 0, frame = 0
 687              		@ frame_needed = 0, uses_anonymous_args = 0
 688              	.LVL91:
 689 0000 08B5     		push	{r3, lr}
 690              		.cfi_def_cfa_offset 8
 691              		.cfi_offset 3, -8
 692              		.cfi_offset 14, -4
 693              	.LVL92:
 482:..\FreeRTOS\Source/stream_buffer.c **** 	return xReturn;
 694              		.loc 1 482 0
 695 0002 FFF7FEFF 		bl	prvBytesInBuffer
 696              	.LVL93:
 484:..\FreeRTOS\Source/stream_buffer.c **** /*-----------------------------------------------------------*/
 697              		.loc 1 484 0
 698 0006 08BD     		pop	{r3, pc}
 699              		.cfi_endproc
 700              	.LFE73:
 701              		.size	xStreamBufferBytesAvailable, .-xStreamBufferBytesAvailable
 702              		.section	.text.xStreamBufferSend,"ax",%progbits
 703              		.align	2
 704              		.global	xStreamBufferSend
 705              		.thumb
 706              		.thumb_func
 707              		.type	xStreamBufferSend, %function
 708              	xStreamBufferSend:
 709              	.LFB74:
 491:..\FreeRTOS\Source/stream_buffer.c **** StreamBuffer_t * const pxStreamBuffer = ( StreamBuffer_t * ) xStreamBuffer; /*lint !e9087 !e9079 Sa
 710              		.loc 1 491 0
 711              		.cfi_startproc
 712              		@ args = 0, pretend = 0, frame = 16
 713              		@ frame_needed = 0, uses_anonymous_args = 0
 714              	.LVL94:
 715 0000 2DE9F043 		push	{r4, r5, r6, r7, r8, r9, lr}
 716              		.cfi_def_cfa_offset 28
 717              		.cfi_offset 4, -28
 718              		.cfi_offset 5, -24
 719              		.cfi_offset 6, -20
 720              		.cfi_offset 7, -16
 721              		.cfi_offset 8, -12
 722              		.cfi_offset 9, -8
 723              		.cfi_offset 14, -4
 724 0004 87B0     		sub	sp, sp, #28
 725              		.cfi_def_cfa_offset 56
 726 0006 0446     		mov	r4, r0
 727 0008 8946     		mov	r9, r1
 728 000a 9046     		mov	r8, r2
 729 000c 0393     		str	r3, [sp, #12]
 730              	.LVL95:
 504:..\FreeRTOS\Source/stream_buffer.c **** 	{
 731              		.loc 1 504 0
 732 000e 037F     		ldrb	r3, [r0, #28]	@ zero_extendqisi2
 733              	.LVL96:
 734 0010 13F0010F 		tst	r3, #1
 735 0014 01D0     		beq	.L60
ARM GAS  C:\Users\samue\AppData\Local\Temp\cc6oSIFr.s 			page 36


 506:..\FreeRTOS\Source/stream_buffer.c **** 	}
 736              		.loc 1 506 0
 737 0016 171D     		adds	r7, r2, #4
 738              	.LVL97:
 739 0018 00E0     		b	.L53
 740              	.LVL98:
 741              	.L60:
 494:..\FreeRTOS\Source/stream_buffer.c **** TimeOut_t xTimeOut;
 742              		.loc 1 494 0
 743 001a 1746     		mov	r7, r2
 744              	.LVL99:
 745              	.L53:
 513:..\FreeRTOS\Source/stream_buffer.c **** 	{
 746              		.loc 1 513 0
 747 001c 039B     		ldr	r3, [sp, #12]
 748 001e 3BB3     		cbz	r3, .L61
 515:..\FreeRTOS\Source/stream_buffer.c **** 
 749              		.loc 1 515 0
 750 0020 04A8     		add	r0, sp, #16
 751              	.LVL100:
 752 0022 FFF7FEFF 		bl	vTaskSetTimeOutState
 753              	.LVL101:
 754              	.L56:
 521:..\FreeRTOS\Source/stream_buffer.c **** 			{
 755              		.loc 1 521 0
 756 0026 FFF7FEFF 		bl	vPortEnterCritical
 757              	.LVL102:
 523:..\FreeRTOS\Source/stream_buffer.c **** 
 758              		.loc 1 523 0
 759 002a 2046     		mov	r0, r4
 760 002c FFF7FEFF 		bl	xStreamBufferSpacesAvailable
 761              	.LVL103:
 762 0030 0646     		mov	r6, r0
 763              	.LVL104:
 525:..\FreeRTOS\Source/stream_buffer.c **** 				{
 764              		.loc 1 525 0
 765 0032 8742     		cmp	r7, r0
 766 0034 19D9     		bls	.L55
 528:..\FreeRTOS\Source/stream_buffer.c **** 
 767              		.loc 1 528 0
 768 0036 0020     		movs	r0, #0
 769              	.LVL105:
 770 0038 FFF7FEFF 		bl	xTaskNotifyStateClear
 771              	.LVL106:
 532:..\FreeRTOS\Source/stream_buffer.c **** 				}
 772              		.loc 1 532 0
 773 003c FFF7FEFF 		bl	xTaskGetCurrentTaskHandle
 774              	.LVL107:
 775 0040 6061     		str	r0, [r4, #20]
 540:..\FreeRTOS\Source/stream_buffer.c **** 
 776              		.loc 1 540 0
 777 0042 FFF7FEFF 		bl	vPortExitCritical
 778              	.LVL108:
 543:..\FreeRTOS\Source/stream_buffer.c **** 			pxStreamBuffer->xTaskWaitingToSend = NULL;
 779              		.loc 1 543 0
 780 0046 06AD     		add	r5, sp, #24
 781 0048 55F80C3D 		ldr	r3, [r5, #-12]!
ARM GAS  C:\Users\samue\AppData\Local\Temp\cc6oSIFr.s 			page 37


 782 004c 0022     		movs	r2, #0
 783 004e 4FF0FF31 		mov	r1, #-1
 784 0052 1046     		mov	r0, r2
 785 0054 FFF7FEFF 		bl	xTaskNotifyWait
 786              	.LVL109:
 544:..\FreeRTOS\Source/stream_buffer.c **** 
 787              		.loc 1 544 0
 788 0058 0023     		movs	r3, #0
 789 005a 6361     		str	r3, [r4, #20]
 546:..\FreeRTOS\Source/stream_buffer.c **** 	}
 790              		.loc 1 546 0
 791 005c 2946     		mov	r1, r5
 792 005e 04A8     		add	r0, sp, #16
 793 0060 FFF7FEFF 		bl	xTaskCheckForTimeOut
 794              	.LVL110:
 795 0064 0028     		cmp	r0, #0
 796 0066 DED0     		beq	.L56
 797 0068 03E0     		b	.L54
 798              	.LVL111:
 799              	.L55:
 536:..\FreeRTOS\Source/stream_buffer.c **** 					break;
 800              		.loc 1 536 0
 801 006a FFF7FEFF 		bl	vPortExitCritical
 802              	.LVL112:
 537:..\FreeRTOS\Source/stream_buffer.c **** 				}
 803              		.loc 1 537 0
 804 006e 00E0     		b	.L54
 805              	.LVL113:
 806              	.L61:
 493:..\FreeRTOS\Source/stream_buffer.c **** size_t xRequiredSpace = xDataLengthBytes;
 807              		.loc 1 493 0
 808 0070 0026     		movs	r6, #0
 809              	.LVL114:
 810              	.L54:
 553:..\FreeRTOS\Source/stream_buffer.c **** 	{
 811              		.loc 1 553 0
 812 0072 1EB9     		cbnz	r6, .L57
 555:..\FreeRTOS\Source/stream_buffer.c **** 	}
 813              		.loc 1 555 0
 814 0074 2046     		mov	r0, r4
 815 0076 FFF7FEFF 		bl	xStreamBufferSpacesAvailable
 816              	.LVL115:
 817 007a 0646     		mov	r6, r0
 818              	.LVL116:
 819              	.L57:
 562:..\FreeRTOS\Source/stream_buffer.c **** 
 820              		.loc 1 562 0
 821 007c 0097     		str	r7, [sp]
 822 007e 3346     		mov	r3, r6
 823 0080 4246     		mov	r2, r8
 824 0082 4946     		mov	r1, r9
 825 0084 2046     		mov	r0, r4
 826 0086 FFF7FEFF 		bl	prvWriteMessageToBuffer
 827              	.LVL117:
 564:..\FreeRTOS\Source/stream_buffer.c **** 	{
 828              		.loc 1 564 0
 829 008a 0546     		mov	r5, r0
ARM GAS  C:\Users\samue\AppData\Local\Temp\cc6oSIFr.s 			page 38


 830 008c 98B1     		cbz	r0, .L58
 569:..\FreeRTOS\Source/stream_buffer.c **** 		{
 831              		.loc 1 569 0
 832 008e 2046     		mov	r0, r4
 833              	.LVL118:
 834 0090 FFF7FEFF 		bl	prvBytesInBuffer
 835              	.LVL119:
 836 0094 E368     		ldr	r3, [r4, #12]
 837 0096 9842     		cmp	r0, r3
 838 0098 0DD3     		bcc	.L58
 571:..\FreeRTOS\Source/stream_buffer.c **** 		}
 839              		.loc 1 571 0
 840 009a FFF7FEFF 		bl	vTaskSuspendAll
 841              	.LVL120:
 842 009e 2369     		ldr	r3, [r4, #16]
 843 00a0 3BB1     		cbz	r3, .L59
 571:..\FreeRTOS\Source/stream_buffer.c **** 		}
 844              		.loc 1 571 0 is_stmt 0 discriminator 1
 845 00a2 2069     		ldr	r0, [r4, #16]
 846 00a4 0023     		movs	r3, #0
 847 00a6 1A46     		mov	r2, r3
 848 00a8 1946     		mov	r1, r3
 849 00aa FFF7FEFF 		bl	xTaskGenericNotify
 850              	.LVL121:
 851 00ae 0023     		movs	r3, #0
 852 00b0 2361     		str	r3, [r4, #16]
 853              	.L59:
 571:..\FreeRTOS\Source/stream_buffer.c **** 		}
 854              		.loc 1 571 0 discriminator 3
 855 00b2 FFF7FEFF 		bl	xTaskResumeAll
 856              	.LVL122:
 857              	.L58:
 585:..\FreeRTOS\Source/stream_buffer.c **** /*-----------------------------------------------------------*/
 858              		.loc 1 585 0 is_stmt 1
 859 00b6 2846     		mov	r0, r5
 860 00b8 07B0     		add	sp, sp, #28
 861              		.cfi_def_cfa_offset 28
 862              		@ sp needed
 863 00ba BDE8F083 		pop	{r4, r5, r6, r7, r8, r9, pc}
 864              		.cfi_endproc
 865              	.LFE74:
 866              		.size	xStreamBufferSend, .-xStreamBufferSend
 867 00be 00BF     		.section	.text.xStreamBufferSendFromISR,"ax",%progbits
 868              		.align	2
 869              		.global	xStreamBufferSendFromISR
 870              		.thumb
 871              		.thumb_func
 872              		.type	xStreamBufferSendFromISR, %function
 873              	xStreamBufferSendFromISR:
 874              	.LFB75:
 592:..\FreeRTOS\Source/stream_buffer.c **** StreamBuffer_t * const pxStreamBuffer = ( StreamBuffer_t * ) xStreamBuffer; /*lint !e9087 !e9079 Sa
 875              		.loc 1 592 0
 876              		.cfi_startproc
 877              		@ args = 0, pretend = 0, frame = 0
 878              		@ frame_needed = 0, uses_anonymous_args = 0
 879              	.LVL123:
 880 0000 2DE9F041 		push	{r4, r5, r6, r7, r8, lr}
ARM GAS  C:\Users\samue\AppData\Local\Temp\cc6oSIFr.s 			page 39


 881              		.cfi_def_cfa_offset 24
 882              		.cfi_offset 4, -24
 883              		.cfi_offset 5, -20
 884              		.cfi_offset 6, -16
 885              		.cfi_offset 7, -12
 886              		.cfi_offset 8, -8
 887              		.cfi_offset 14, -4
 888 0004 82B0     		sub	sp, sp, #8
 889              		.cfi_def_cfa_offset 32
 890 0006 0446     		mov	r4, r0
 891 0008 0E46     		mov	r6, r1
 892 000a 1546     		mov	r5, r2
 893 000c 9846     		mov	r8, r3
 894              	.LVL124:
 604:..\FreeRTOS\Source/stream_buffer.c **** 	{
 895              		.loc 1 604 0
 896 000e 037F     		ldrb	r3, [r0, #28]	@ zero_extendqisi2
 897              	.LVL125:
 898 0010 13F0010F 		tst	r3, #1
 899 0014 01D0     		beq	.L67
 606:..\FreeRTOS\Source/stream_buffer.c **** 	}
 900              		.loc 1 606 0
 901 0016 171D     		adds	r7, r2, #4
 902              	.LVL126:
 903 0018 00E0     		b	.L64
 904              	.LVL127:
 905              	.L67:
 595:..\FreeRTOS\Source/stream_buffer.c **** 
 906              		.loc 1 595 0
 907 001a 1746     		mov	r7, r2
 908              	.LVL128:
 909              	.L64:
 613:..\FreeRTOS\Source/stream_buffer.c **** 	xReturn = prvWriteMessageToBuffer( pxStreamBuffer, pvTxData, xDataLengthBytes, xSpace, xRequiredSp
 910              		.loc 1 613 0
 911 001c 2046     		mov	r0, r4
 912              	.LVL129:
 913 001e FFF7FEFF 		bl	xStreamBufferSpacesAvailable
 914              	.LVL130:
 614:..\FreeRTOS\Source/stream_buffer.c **** 
 915              		.loc 1 614 0
 916 0022 0097     		str	r7, [sp]
 917 0024 0346     		mov	r3, r0
 918 0026 2A46     		mov	r2, r5
 919 0028 3146     		mov	r1, r6
 920 002a 2046     		mov	r0, r4
 921              	.LVL131:
 922 002c FFF7FEFF 		bl	prvWriteMessageToBuffer
 923              	.LVL132:
 616:..\FreeRTOS\Source/stream_buffer.c **** 	{
 924              		.loc 1 616 0
 925 0030 0546     		mov	r5, r0
 926              	.LVL133:
 927 0032 E8B1     		cbz	r0, .L65
 619:..\FreeRTOS\Source/stream_buffer.c **** 		{
 928              		.loc 1 619 0
 929 0034 2046     		mov	r0, r4
 930              	.LVL134:
ARM GAS  C:\Users\samue\AppData\Local\Temp\cc6oSIFr.s 			page 40


 931 0036 FFF7FEFF 		bl	prvBytesInBuffer
 932              	.LVL135:
 933 003a E368     		ldr	r3, [r4, #12]
 934 003c 9842     		cmp	r0, r3
 935 003e 17D3     		bcc	.L65
 936              	.LBB20:
 937              	.LBB21:
 938              	.LBB22:
 939              		.file 2 "..\\FreeRTOS\\Source\\portable\\GCC\\ARM_CM3/portmacro.h"
   1:..\FreeRTOS\Source\portable\GCC\ARM_CM3/portmacro.h **** /*
   2:..\FreeRTOS\Source\portable\GCC\ARM_CM3/portmacro.h ****  * FreeRTOS Kernel V10.0.1
   3:..\FreeRTOS\Source\portable\GCC\ARM_CM3/portmacro.h ****  * Copyright (C) 2017 Amazon.com, Inc. or its affiliates.  All Rights Reserved.
   4:..\FreeRTOS\Source\portable\GCC\ARM_CM3/portmacro.h ****  *
   5:..\FreeRTOS\Source\portable\GCC\ARM_CM3/portmacro.h ****  * Permission is hereby granted, free of charge, to any person obtaining a copy of
   6:..\FreeRTOS\Source\portable\GCC\ARM_CM3/portmacro.h ****  * this software and associated documentation files (the "Software"), to deal in
   7:..\FreeRTOS\Source\portable\GCC\ARM_CM3/portmacro.h ****  * the Software without restriction, including without limitation the rights to
   8:..\FreeRTOS\Source\portable\GCC\ARM_CM3/portmacro.h ****  * use, copy, modify, merge, publish, distribute, sublicense, and/or sell copies of
   9:..\FreeRTOS\Source\portable\GCC\ARM_CM3/portmacro.h ****  * the Software, and to permit persons to whom the Software is furnished to do so,
  10:..\FreeRTOS\Source\portable\GCC\ARM_CM3/portmacro.h ****  * subject to the following conditions:
  11:..\FreeRTOS\Source\portable\GCC\ARM_CM3/portmacro.h ****  *
  12:..\FreeRTOS\Source\portable\GCC\ARM_CM3/portmacro.h ****  * The above copyright notice and this permission notice shall be included in all
  13:..\FreeRTOS\Source\portable\GCC\ARM_CM3/portmacro.h ****  * copies or substantial portions of the Software.
  14:..\FreeRTOS\Source\portable\GCC\ARM_CM3/portmacro.h ****  *
  15:..\FreeRTOS\Source\portable\GCC\ARM_CM3/portmacro.h ****  * THE SOFTWARE IS PROVIDED "AS IS", WITHOUT WARRANTY OF ANY KIND, EXPRESS OR
  16:..\FreeRTOS\Source\portable\GCC\ARM_CM3/portmacro.h ****  * IMPLIED, INCLUDING BUT NOT LIMITED TO THE WARRANTIES OF MERCHANTABILITY, FITNESS
  17:..\FreeRTOS\Source\portable\GCC\ARM_CM3/portmacro.h ****  * FOR A PARTICULAR PURPOSE AND NONINFRINGEMENT. IN NO EVENT SHALL THE AUTHORS OR
  18:..\FreeRTOS\Source\portable\GCC\ARM_CM3/portmacro.h ****  * COPYRIGHT HOLDERS BE LIABLE FOR ANY CLAIM, DAMAGES OR OTHER LIABILITY, WHETHER
  19:..\FreeRTOS\Source\portable\GCC\ARM_CM3/portmacro.h ****  * IN AN ACTION OF CONTRACT, TORT OR OTHERWISE, ARISING FROM, OUT OF OR IN
  20:..\FreeRTOS\Source\portable\GCC\ARM_CM3/portmacro.h ****  * CONNECTION WITH THE SOFTWARE OR THE USE OR OTHER DEALINGS IN THE SOFTWARE.
  21:..\FreeRTOS\Source\portable\GCC\ARM_CM3/portmacro.h ****  *
  22:..\FreeRTOS\Source\portable\GCC\ARM_CM3/portmacro.h ****  * http://www.FreeRTOS.org
  23:..\FreeRTOS\Source\portable\GCC\ARM_CM3/portmacro.h ****  * http://aws.amazon.com/freertos
  24:..\FreeRTOS\Source\portable\GCC\ARM_CM3/portmacro.h ****  *
  25:..\FreeRTOS\Source\portable\GCC\ARM_CM3/portmacro.h ****  * 1 tab == 4 spaces!
  26:..\FreeRTOS\Source\portable\GCC\ARM_CM3/portmacro.h ****  */
  27:..\FreeRTOS\Source\portable\GCC\ARM_CM3/portmacro.h **** 
  28:..\FreeRTOS\Source\portable\GCC\ARM_CM3/portmacro.h **** 
  29:..\FreeRTOS\Source\portable\GCC\ARM_CM3/portmacro.h **** #ifndef PORTMACRO_H
  30:..\FreeRTOS\Source\portable\GCC\ARM_CM3/portmacro.h **** #define PORTMACRO_H
  31:..\FreeRTOS\Source\portable\GCC\ARM_CM3/portmacro.h **** 
  32:..\FreeRTOS\Source\portable\GCC\ARM_CM3/portmacro.h **** #ifdef __cplusplus
  33:..\FreeRTOS\Source\portable\GCC\ARM_CM3/portmacro.h **** extern "C" {
  34:..\FreeRTOS\Source\portable\GCC\ARM_CM3/portmacro.h **** #endif
  35:..\FreeRTOS\Source\portable\GCC\ARM_CM3/portmacro.h **** 
  36:..\FreeRTOS\Source\portable\GCC\ARM_CM3/portmacro.h **** /*-----------------------------------------------------------
  37:..\FreeRTOS\Source\portable\GCC\ARM_CM3/portmacro.h ****  * Port specific definitions.
  38:..\FreeRTOS\Source\portable\GCC\ARM_CM3/portmacro.h ****  *
  39:..\FreeRTOS\Source\portable\GCC\ARM_CM3/portmacro.h ****  * The settings in this file configure FreeRTOS correctly for the
  40:..\FreeRTOS\Source\portable\GCC\ARM_CM3/portmacro.h ****  * given hardware and compiler.
  41:..\FreeRTOS\Source\portable\GCC\ARM_CM3/portmacro.h ****  *
  42:..\FreeRTOS\Source\portable\GCC\ARM_CM3/portmacro.h ****  * These settings should not be altered.
  43:..\FreeRTOS\Source\portable\GCC\ARM_CM3/portmacro.h ****  *-----------------------------------------------------------
  44:..\FreeRTOS\Source\portable\GCC\ARM_CM3/portmacro.h ****  */
  45:..\FreeRTOS\Source\portable\GCC\ARM_CM3/portmacro.h **** 
  46:..\FreeRTOS\Source\portable\GCC\ARM_CM3/portmacro.h **** /* Type definitions. */
  47:..\FreeRTOS\Source\portable\GCC\ARM_CM3/portmacro.h **** #define portCHAR		char
  48:..\FreeRTOS\Source\portable\GCC\ARM_CM3/portmacro.h **** #define portFLOAT		float
ARM GAS  C:\Users\samue\AppData\Local\Temp\cc6oSIFr.s 			page 41


  49:..\FreeRTOS\Source\portable\GCC\ARM_CM3/portmacro.h **** #define portDOUBLE		double
  50:..\FreeRTOS\Source\portable\GCC\ARM_CM3/portmacro.h **** #define portLONG		long
  51:..\FreeRTOS\Source\portable\GCC\ARM_CM3/portmacro.h **** #define portSHORT		short
  52:..\FreeRTOS\Source\portable\GCC\ARM_CM3/portmacro.h **** #define portSTACK_TYPE	uint32_t
  53:..\FreeRTOS\Source\portable\GCC\ARM_CM3/portmacro.h **** #define portBASE_TYPE	long
  54:..\FreeRTOS\Source\portable\GCC\ARM_CM3/portmacro.h **** 
  55:..\FreeRTOS\Source\portable\GCC\ARM_CM3/portmacro.h **** typedef portSTACK_TYPE StackType_t;
  56:..\FreeRTOS\Source\portable\GCC\ARM_CM3/portmacro.h **** typedef long BaseType_t;
  57:..\FreeRTOS\Source\portable\GCC\ARM_CM3/portmacro.h **** typedef unsigned long UBaseType_t;
  58:..\FreeRTOS\Source\portable\GCC\ARM_CM3/portmacro.h **** 
  59:..\FreeRTOS\Source\portable\GCC\ARM_CM3/portmacro.h **** #if( configUSE_16_BIT_TICKS == 1 )
  60:..\FreeRTOS\Source\portable\GCC\ARM_CM3/portmacro.h **** 	typedef uint16_t TickType_t;
  61:..\FreeRTOS\Source\portable\GCC\ARM_CM3/portmacro.h **** 	#define portMAX_DELAY ( TickType_t ) 0xffff
  62:..\FreeRTOS\Source\portable\GCC\ARM_CM3/portmacro.h **** #else
  63:..\FreeRTOS\Source\portable\GCC\ARM_CM3/portmacro.h **** 	typedef uint32_t TickType_t;
  64:..\FreeRTOS\Source\portable\GCC\ARM_CM3/portmacro.h **** 	#define portMAX_DELAY ( TickType_t ) 0xffffffffUL
  65:..\FreeRTOS\Source\portable\GCC\ARM_CM3/portmacro.h **** 
  66:..\FreeRTOS\Source\portable\GCC\ARM_CM3/portmacro.h **** 	/* 32-bit tick type on a 32-bit architecture, so reads of the tick count do
  67:..\FreeRTOS\Source\portable\GCC\ARM_CM3/portmacro.h **** 	not need to be guarded with a critical section. */
  68:..\FreeRTOS\Source\portable\GCC\ARM_CM3/portmacro.h **** 	#define portTICK_TYPE_IS_ATOMIC 1
  69:..\FreeRTOS\Source\portable\GCC\ARM_CM3/portmacro.h **** #endif
  70:..\FreeRTOS\Source\portable\GCC\ARM_CM3/portmacro.h **** /*-----------------------------------------------------------*/
  71:..\FreeRTOS\Source\portable\GCC\ARM_CM3/portmacro.h **** 
  72:..\FreeRTOS\Source\portable\GCC\ARM_CM3/portmacro.h **** /* Architecture specifics. */
  73:..\FreeRTOS\Source\portable\GCC\ARM_CM3/portmacro.h **** #define portSTACK_GROWTH			( -1 )
  74:..\FreeRTOS\Source\portable\GCC\ARM_CM3/portmacro.h **** #define portTICK_PERIOD_MS			( ( TickType_t ) 1000 / configTICK_RATE_HZ )
  75:..\FreeRTOS\Source\portable\GCC\ARM_CM3/portmacro.h **** #define portBYTE_ALIGNMENT			8
  76:..\FreeRTOS\Source\portable\GCC\ARM_CM3/portmacro.h **** /*-----------------------------------------------------------*/
  77:..\FreeRTOS\Source\portable\GCC\ARM_CM3/portmacro.h **** 
  78:..\FreeRTOS\Source\portable\GCC\ARM_CM3/portmacro.h **** /* Scheduler utilities. */
  79:..\FreeRTOS\Source\portable\GCC\ARM_CM3/portmacro.h **** #define portYIELD() 															\
  80:..\FreeRTOS\Source\portable\GCC\ARM_CM3/portmacro.h **** {																				\
  81:..\FreeRTOS\Source\portable\GCC\ARM_CM3/portmacro.h **** 	/* Set a PendSV to request a context switch. */								\
  82:..\FreeRTOS\Source\portable\GCC\ARM_CM3/portmacro.h **** 	portNVIC_INT_CTRL_REG = portNVIC_PENDSVSET_BIT;								\
  83:..\FreeRTOS\Source\portable\GCC\ARM_CM3/portmacro.h **** 																				\
  84:..\FreeRTOS\Source\portable\GCC\ARM_CM3/portmacro.h **** 	/* Barriers are normally not required but do ensure the code is completely	\
  85:..\FreeRTOS\Source\portable\GCC\ARM_CM3/portmacro.h **** 	within the specified behaviour for the architecture. */						\
  86:..\FreeRTOS\Source\portable\GCC\ARM_CM3/portmacro.h **** 	__asm volatile( "dsb" ::: "memory" );										\
  87:..\FreeRTOS\Source\portable\GCC\ARM_CM3/portmacro.h **** 	__asm volatile( "isb" );													\
  88:..\FreeRTOS\Source\portable\GCC\ARM_CM3/portmacro.h **** }
  89:..\FreeRTOS\Source\portable\GCC\ARM_CM3/portmacro.h **** 
  90:..\FreeRTOS\Source\portable\GCC\ARM_CM3/portmacro.h **** #define portNVIC_INT_CTRL_REG		( * ( ( volatile uint32_t * ) 0xe000ed04 ) )
  91:..\FreeRTOS\Source\portable\GCC\ARM_CM3/portmacro.h **** #define portNVIC_PENDSVSET_BIT		( 1UL << 28UL )
  92:..\FreeRTOS\Source\portable\GCC\ARM_CM3/portmacro.h **** #define portEND_SWITCHING_ISR( xSwitchRequired ) if( xSwitchRequired != pdFALSE ) portYIELD()
  93:..\FreeRTOS\Source\portable\GCC\ARM_CM3/portmacro.h **** #define portYIELD_FROM_ISR( x ) portEND_SWITCHING_ISR( x )
  94:..\FreeRTOS\Source\portable\GCC\ARM_CM3/portmacro.h **** /*-----------------------------------------------------------*/
  95:..\FreeRTOS\Source\portable\GCC\ARM_CM3/portmacro.h **** 
  96:..\FreeRTOS\Source\portable\GCC\ARM_CM3/portmacro.h **** /* Critical section management. */
  97:..\FreeRTOS\Source\portable\GCC\ARM_CM3/portmacro.h **** extern void vPortEnterCritical( void );
  98:..\FreeRTOS\Source\portable\GCC\ARM_CM3/portmacro.h **** extern void vPortExitCritical( void );
  99:..\FreeRTOS\Source\portable\GCC\ARM_CM3/portmacro.h **** #define portSET_INTERRUPT_MASK_FROM_ISR()		ulPortRaiseBASEPRI()
 100:..\FreeRTOS\Source\portable\GCC\ARM_CM3/portmacro.h **** #define portCLEAR_INTERRUPT_MASK_FROM_ISR(x)	vPortSetBASEPRI(x)
 101:..\FreeRTOS\Source\portable\GCC\ARM_CM3/portmacro.h **** #define portDISABLE_INTERRUPTS()				vPortRaiseBASEPRI()
 102:..\FreeRTOS\Source\portable\GCC\ARM_CM3/portmacro.h **** #define portENABLE_INTERRUPTS()					vPortSetBASEPRI(0)
 103:..\FreeRTOS\Source\portable\GCC\ARM_CM3/portmacro.h **** #define portENTER_CRITICAL()					vPortEnterCritical()
 104:..\FreeRTOS\Source\portable\GCC\ARM_CM3/portmacro.h **** #define portEXIT_CRITICAL()						vPortExitCritical()
 105:..\FreeRTOS\Source\portable\GCC\ARM_CM3/portmacro.h **** 
ARM GAS  C:\Users\samue\AppData\Local\Temp\cc6oSIFr.s 			page 42


 106:..\FreeRTOS\Source\portable\GCC\ARM_CM3/portmacro.h **** /*-----------------------------------------------------------*/
 107:..\FreeRTOS\Source\portable\GCC\ARM_CM3/portmacro.h **** 
 108:..\FreeRTOS\Source\portable\GCC\ARM_CM3/portmacro.h **** /* Task function macros as described on the FreeRTOS.org WEB site.  These are
 109:..\FreeRTOS\Source\portable\GCC\ARM_CM3/portmacro.h **** not necessary for to use this port.  They are defined so the common demo files
 110:..\FreeRTOS\Source\portable\GCC\ARM_CM3/portmacro.h **** (which build with all the ports) will build. */
 111:..\FreeRTOS\Source\portable\GCC\ARM_CM3/portmacro.h **** #define portTASK_FUNCTION_PROTO( vFunction, pvParameters ) void vFunction( void *pvParameters )
 112:..\FreeRTOS\Source\portable\GCC\ARM_CM3/portmacro.h **** #define portTASK_FUNCTION( vFunction, pvParameters ) void vFunction( void *pvParameters )
 113:..\FreeRTOS\Source\portable\GCC\ARM_CM3/portmacro.h **** /*-----------------------------------------------------------*/
 114:..\FreeRTOS\Source\portable\GCC\ARM_CM3/portmacro.h **** 
 115:..\FreeRTOS\Source\portable\GCC\ARM_CM3/portmacro.h **** /* Tickless idle/low power functionality. */
 116:..\FreeRTOS\Source\portable\GCC\ARM_CM3/portmacro.h **** #ifndef portSUPPRESS_TICKS_AND_SLEEP
 117:..\FreeRTOS\Source\portable\GCC\ARM_CM3/portmacro.h **** 	extern void vPortSuppressTicksAndSleep( TickType_t xExpectedIdleTime );
 118:..\FreeRTOS\Source\portable\GCC\ARM_CM3/portmacro.h **** 	#define portSUPPRESS_TICKS_AND_SLEEP( xExpectedIdleTime ) vPortSuppressTicksAndSleep( xExpectedIdl
 119:..\FreeRTOS\Source\portable\GCC\ARM_CM3/portmacro.h **** #endif
 120:..\FreeRTOS\Source\portable\GCC\ARM_CM3/portmacro.h **** /*-----------------------------------------------------------*/
 121:..\FreeRTOS\Source\portable\GCC\ARM_CM3/portmacro.h **** 
 122:..\FreeRTOS\Source\portable\GCC\ARM_CM3/portmacro.h **** /* Architecture specific optimisations. */
 123:..\FreeRTOS\Source\portable\GCC\ARM_CM3/portmacro.h **** #ifndef configUSE_PORT_OPTIMISED_TASK_SELECTION
 124:..\FreeRTOS\Source\portable\GCC\ARM_CM3/portmacro.h **** 	#define configUSE_PORT_OPTIMISED_TASK_SELECTION 1
 125:..\FreeRTOS\Source\portable\GCC\ARM_CM3/portmacro.h **** #endif
 126:..\FreeRTOS\Source\portable\GCC\ARM_CM3/portmacro.h **** 
 127:..\FreeRTOS\Source\portable\GCC\ARM_CM3/portmacro.h **** #if configUSE_PORT_OPTIMISED_TASK_SELECTION == 1
 128:..\FreeRTOS\Source\portable\GCC\ARM_CM3/portmacro.h **** 
 129:..\FreeRTOS\Source\portable\GCC\ARM_CM3/portmacro.h **** 	/* Generic helper function. */
 130:..\FreeRTOS\Source\portable\GCC\ARM_CM3/portmacro.h **** 	__attribute__( ( always_inline ) ) static inline uint8_t ucPortCountLeadingZeros( uint32_t ulBitma
 131:..\FreeRTOS\Source\portable\GCC\ARM_CM3/portmacro.h **** 	{
 132:..\FreeRTOS\Source\portable\GCC\ARM_CM3/portmacro.h **** 	uint8_t ucReturn;
 133:..\FreeRTOS\Source\portable\GCC\ARM_CM3/portmacro.h **** 
 134:..\FreeRTOS\Source\portable\GCC\ARM_CM3/portmacro.h **** 		__asm volatile ( "clz %0, %1" : "=r" ( ucReturn ) : "r" ( ulBitmap ) : "memory" );
 135:..\FreeRTOS\Source\portable\GCC\ARM_CM3/portmacro.h **** 		return ucReturn;
 136:..\FreeRTOS\Source\portable\GCC\ARM_CM3/portmacro.h **** 	}
 137:..\FreeRTOS\Source\portable\GCC\ARM_CM3/portmacro.h **** 
 138:..\FreeRTOS\Source\portable\GCC\ARM_CM3/portmacro.h **** 	/* Check the configuration. */
 139:..\FreeRTOS\Source\portable\GCC\ARM_CM3/portmacro.h **** 	#if( configMAX_PRIORITIES > 32 )
 140:..\FreeRTOS\Source\portable\GCC\ARM_CM3/portmacro.h **** 		#error configUSE_PORT_OPTIMISED_TASK_SELECTION can only be set to 1 when configMAX_PRIORITIES is 
 141:..\FreeRTOS\Source\portable\GCC\ARM_CM3/portmacro.h **** 	#endif
 142:..\FreeRTOS\Source\portable\GCC\ARM_CM3/portmacro.h **** 
 143:..\FreeRTOS\Source\portable\GCC\ARM_CM3/portmacro.h **** 	/* Store/clear the ready priorities in a bit map. */
 144:..\FreeRTOS\Source\portable\GCC\ARM_CM3/portmacro.h **** 	#define portRECORD_READY_PRIORITY( uxPriority, uxReadyPriorities ) ( uxReadyPriorities ) |= ( 1UL 
 145:..\FreeRTOS\Source\portable\GCC\ARM_CM3/portmacro.h **** 	#define portRESET_READY_PRIORITY( uxPriority, uxReadyPriorities ) ( uxReadyPriorities ) &= ~( 1UL 
 146:..\FreeRTOS\Source\portable\GCC\ARM_CM3/portmacro.h **** 
 147:..\FreeRTOS\Source\portable\GCC\ARM_CM3/portmacro.h **** 	/*-----------------------------------------------------------*/
 148:..\FreeRTOS\Source\portable\GCC\ARM_CM3/portmacro.h **** 
 149:..\FreeRTOS\Source\portable\GCC\ARM_CM3/portmacro.h **** 	#define portGET_HIGHEST_PRIORITY( uxTopPriority, uxReadyPriorities ) uxTopPriority = ( 31UL - ( ui
 150:..\FreeRTOS\Source\portable\GCC\ARM_CM3/portmacro.h **** 
 151:..\FreeRTOS\Source\portable\GCC\ARM_CM3/portmacro.h **** #endif /* configUSE_PORT_OPTIMISED_TASK_SELECTION */
 152:..\FreeRTOS\Source\portable\GCC\ARM_CM3/portmacro.h **** 
 153:..\FreeRTOS\Source\portable\GCC\ARM_CM3/portmacro.h **** /*-----------------------------------------------------------*/
 154:..\FreeRTOS\Source\portable\GCC\ARM_CM3/portmacro.h **** 
 155:..\FreeRTOS\Source\portable\GCC\ARM_CM3/portmacro.h **** #ifdef configASSERT
 156:..\FreeRTOS\Source\portable\GCC\ARM_CM3/portmacro.h **** 	void vPortValidateInterruptPriority( void );
 157:..\FreeRTOS\Source\portable\GCC\ARM_CM3/portmacro.h **** 	#define portASSERT_IF_INTERRUPT_PRIORITY_INVALID() 	vPortValidateInterruptPriority()
 158:..\FreeRTOS\Source\portable\GCC\ARM_CM3/portmacro.h **** #endif
 159:..\FreeRTOS\Source\portable\GCC\ARM_CM3/portmacro.h **** 
 160:..\FreeRTOS\Source\portable\GCC\ARM_CM3/portmacro.h **** /* portNOP() is not required by this port. */
 161:..\FreeRTOS\Source\portable\GCC\ARM_CM3/portmacro.h **** #define portNOP()
 162:..\FreeRTOS\Source\portable\GCC\ARM_CM3/portmacro.h **** 
ARM GAS  C:\Users\samue\AppData\Local\Temp\cc6oSIFr.s 			page 43


 163:..\FreeRTOS\Source\portable\GCC\ARM_CM3/portmacro.h **** #define portINLINE	__inline
 164:..\FreeRTOS\Source\portable\GCC\ARM_CM3/portmacro.h **** 
 165:..\FreeRTOS\Source\portable\GCC\ARM_CM3/portmacro.h **** #ifndef portFORCE_INLINE
 166:..\FreeRTOS\Source\portable\GCC\ARM_CM3/portmacro.h **** 	#define portFORCE_INLINE inline __attribute__(( always_inline))
 167:..\FreeRTOS\Source\portable\GCC\ARM_CM3/portmacro.h **** #endif
 168:..\FreeRTOS\Source\portable\GCC\ARM_CM3/portmacro.h **** 
 169:..\FreeRTOS\Source\portable\GCC\ARM_CM3/portmacro.h **** portFORCE_INLINE static BaseType_t xPortIsInsideInterrupt( void )
 170:..\FreeRTOS\Source\portable\GCC\ARM_CM3/portmacro.h **** {
 171:..\FreeRTOS\Source\portable\GCC\ARM_CM3/portmacro.h **** uint32_t ulCurrentInterrupt;
 172:..\FreeRTOS\Source\portable\GCC\ARM_CM3/portmacro.h **** BaseType_t xReturn;
 173:..\FreeRTOS\Source\portable\GCC\ARM_CM3/portmacro.h **** 
 174:..\FreeRTOS\Source\portable\GCC\ARM_CM3/portmacro.h **** 	/* Obtain the number of the currently executing interrupt. */
 175:..\FreeRTOS\Source\portable\GCC\ARM_CM3/portmacro.h **** 	__asm volatile( "mrs %0, ipsr" : "=r"( ulCurrentInterrupt ) :: "memory" );
 176:..\FreeRTOS\Source\portable\GCC\ARM_CM3/portmacro.h **** 
 177:..\FreeRTOS\Source\portable\GCC\ARM_CM3/portmacro.h **** 	if( ulCurrentInterrupt == 0 )
 178:..\FreeRTOS\Source\portable\GCC\ARM_CM3/portmacro.h **** 	{
 179:..\FreeRTOS\Source\portable\GCC\ARM_CM3/portmacro.h **** 		xReturn = pdFALSE;
 180:..\FreeRTOS\Source\portable\GCC\ARM_CM3/portmacro.h **** 	}
 181:..\FreeRTOS\Source\portable\GCC\ARM_CM3/portmacro.h **** 	else
 182:..\FreeRTOS\Source\portable\GCC\ARM_CM3/portmacro.h **** 	{
 183:..\FreeRTOS\Source\portable\GCC\ARM_CM3/portmacro.h **** 		xReturn = pdTRUE;
 184:..\FreeRTOS\Source\portable\GCC\ARM_CM3/portmacro.h **** 	}
 185:..\FreeRTOS\Source\portable\GCC\ARM_CM3/portmacro.h **** 
 186:..\FreeRTOS\Source\portable\GCC\ARM_CM3/portmacro.h **** 	return xReturn;
 187:..\FreeRTOS\Source\portable\GCC\ARM_CM3/portmacro.h **** }
 188:..\FreeRTOS\Source\portable\GCC\ARM_CM3/portmacro.h **** 
 189:..\FreeRTOS\Source\portable\GCC\ARM_CM3/portmacro.h **** /*-----------------------------------------------------------*/
 190:..\FreeRTOS\Source\portable\GCC\ARM_CM3/portmacro.h **** 
 191:..\FreeRTOS\Source\portable\GCC\ARM_CM3/portmacro.h **** portFORCE_INLINE static void vPortRaiseBASEPRI( void )
 192:..\FreeRTOS\Source\portable\GCC\ARM_CM3/portmacro.h **** {
 193:..\FreeRTOS\Source\portable\GCC\ARM_CM3/portmacro.h **** uint32_t ulNewBASEPRI;
 194:..\FreeRTOS\Source\portable\GCC\ARM_CM3/portmacro.h **** 
 195:..\FreeRTOS\Source\portable\GCC\ARM_CM3/portmacro.h **** 	__asm volatile
 196:..\FreeRTOS\Source\portable\GCC\ARM_CM3/portmacro.h **** 	(
 197:..\FreeRTOS\Source\portable\GCC\ARM_CM3/portmacro.h **** 		"	mov %0, %1												\n" \
 198:..\FreeRTOS\Source\portable\GCC\ARM_CM3/portmacro.h **** 		"	msr basepri, %0											\n" \
 199:..\FreeRTOS\Source\portable\GCC\ARM_CM3/portmacro.h **** 		"	isb														\n" \
 200:..\FreeRTOS\Source\portable\GCC\ARM_CM3/portmacro.h **** 		"	dsb														\n" \
 201:..\FreeRTOS\Source\portable\GCC\ARM_CM3/portmacro.h **** 		:"=r" (ulNewBASEPRI) : "i" ( configMAX_SYSCALL_INTERRUPT_PRIORITY ) : "memory"
 202:..\FreeRTOS\Source\portable\GCC\ARM_CM3/portmacro.h **** 	);
 203:..\FreeRTOS\Source\portable\GCC\ARM_CM3/portmacro.h **** }
 204:..\FreeRTOS\Source\portable\GCC\ARM_CM3/portmacro.h **** 
 205:..\FreeRTOS\Source\portable\GCC\ARM_CM3/portmacro.h **** /*-----------------------------------------------------------*/
 206:..\FreeRTOS\Source\portable\GCC\ARM_CM3/portmacro.h **** 
 207:..\FreeRTOS\Source\portable\GCC\ARM_CM3/portmacro.h **** portFORCE_INLINE static uint32_t ulPortRaiseBASEPRI( void )
 208:..\FreeRTOS\Source\portable\GCC\ARM_CM3/portmacro.h **** {
 209:..\FreeRTOS\Source\portable\GCC\ARM_CM3/portmacro.h **** uint32_t ulOriginalBASEPRI, ulNewBASEPRI;
 210:..\FreeRTOS\Source\portable\GCC\ARM_CM3/portmacro.h **** 
 211:..\FreeRTOS\Source\portable\GCC\ARM_CM3/portmacro.h **** 	__asm volatile
 940              		.loc 2 211 0
 941              		.syntax unified
 942              	@ 211 "..\FreeRTOS\Source\portable\GCC\ARM_CM3/portmacro.h" 1
 943 0040 EFF31186 			mrs r6, basepri											
 944 0044 4FF0A003 		mov r3, #160												
 945 0048 83F31188 		msr basepri, r3											
 946 004c BFF36F8F 		isb														
 947 0050 BFF34F8F 		dsb														
ARM GAS  C:\Users\samue\AppData\Local\Temp\cc6oSIFr.s 			page 44


 948              	
 949              	@ 0 "" 2
 950              	.LVL136:
 951              		.thumb
 952              		.syntax unified
 953              	.LBE22:
 954              	.LBE21:
 621:..\FreeRTOS\Source/stream_buffer.c **** 		}
 955              		.loc 1 621 0
 956 0054 2369     		ldr	r3, [r4, #16]
 957 0056 4BB1     		cbz	r3, .L66
 621:..\FreeRTOS\Source/stream_buffer.c **** 		}
 958              		.loc 1 621 0 is_stmt 0 discriminator 1
 959 0058 2069     		ldr	r0, [r4, #16]
 960 005a CDF80080 		str	r8, [sp]
 961 005e 0023     		movs	r3, #0
 962 0060 1A46     		mov	r2, r3
 963 0062 1946     		mov	r1, r3
 964 0064 FFF7FEFF 		bl	xTaskGenericNotifyFromISR
 965              	.LVL137:
 966 0068 0023     		movs	r3, #0
 967 006a 2361     		str	r3, [r4, #16]
 968              	.L66:
 969              	.LVL138:
 970              	.LBB23:
 971              	.LBB24:
 212:..\FreeRTOS\Source\portable\GCC\ARM_CM3/portmacro.h **** 	(
 213:..\FreeRTOS\Source\portable\GCC\ARM_CM3/portmacro.h **** 		"	mrs %0, basepri											\n" \
 214:..\FreeRTOS\Source\portable\GCC\ARM_CM3/portmacro.h **** 		"	mov %1, %2												\n" \
 215:..\FreeRTOS\Source\portable\GCC\ARM_CM3/portmacro.h **** 		"	msr basepri, %1											\n" \
 216:..\FreeRTOS\Source\portable\GCC\ARM_CM3/portmacro.h **** 		"	isb														\n" \
 217:..\FreeRTOS\Source\portable\GCC\ARM_CM3/portmacro.h **** 		"	dsb														\n" \
 218:..\FreeRTOS\Source\portable\GCC\ARM_CM3/portmacro.h **** 		:"=r" (ulOriginalBASEPRI), "=r" (ulNewBASEPRI) : "i" ( configMAX_SYSCALL_INTERRUPT_PRIORITY ) : "
 219:..\FreeRTOS\Source\portable\GCC\ARM_CM3/portmacro.h **** 	);
 220:..\FreeRTOS\Source\portable\GCC\ARM_CM3/portmacro.h **** 
 221:..\FreeRTOS\Source\portable\GCC\ARM_CM3/portmacro.h **** 	/* This return will not be reached but is necessary to prevent compiler
 222:..\FreeRTOS\Source\portable\GCC\ARM_CM3/portmacro.h **** 	warnings. */
 223:..\FreeRTOS\Source\portable\GCC\ARM_CM3/portmacro.h **** 	return ulOriginalBASEPRI;
 224:..\FreeRTOS\Source\portable\GCC\ARM_CM3/portmacro.h **** }
 225:..\FreeRTOS\Source\portable\GCC\ARM_CM3/portmacro.h **** /*-----------------------------------------------------------*/
 226:..\FreeRTOS\Source\portable\GCC\ARM_CM3/portmacro.h **** 
 227:..\FreeRTOS\Source\portable\GCC\ARM_CM3/portmacro.h **** portFORCE_INLINE static void vPortSetBASEPRI( uint32_t ulNewMaskValue )
 228:..\FreeRTOS\Source\portable\GCC\ARM_CM3/portmacro.h **** {
 229:..\FreeRTOS\Source\portable\GCC\ARM_CM3/portmacro.h **** 	__asm volatile
 972              		.loc 2 229 0 is_stmt 1 discriminator 3
 973              		.syntax unified
 974              	@ 229 "..\FreeRTOS\Source\portable\GCC\ARM_CM3/portmacro.h" 1
 975 006c 86F31188 			msr basepri, r6	
 976              	@ 0 "" 2
 977              	.LVL139:
 978              		.thumb
 979              		.syntax unified
 980              	.L65:
 981              	.LBE24:
 982              	.LBE23:
 983              	.LBE20:
 636:..\FreeRTOS\Source/stream_buffer.c **** /*-----------------------------------------------------------*/
ARM GAS  C:\Users\samue\AppData\Local\Temp\cc6oSIFr.s 			page 45


 984              		.loc 1 636 0
 985 0070 2846     		mov	r0, r5
 986 0072 02B0     		add	sp, sp, #8
 987              		.cfi_def_cfa_offset 24
 988              		@ sp needed
 989 0074 BDE8F081 		pop	{r4, r5, r6, r7, r8, pc}
 990              		.cfi_endproc
 991              	.LFE75:
 992              		.size	xStreamBufferSendFromISR, .-xStreamBufferSendFromISR
 993              		.section	.text.xStreamBufferReceive,"ax",%progbits
 994              		.align	2
 995              		.global	xStreamBufferReceive
 996              		.thumb
 997              		.thumb_func
 998              		.type	xStreamBufferReceive, %function
 999              	xStreamBufferReceive:
 1000              	.LFB77:
 695:..\FreeRTOS\Source/stream_buffer.c **** StreamBuffer_t * const pxStreamBuffer = ( StreamBuffer_t * ) xStreamBuffer; /*lint !e9087 !e9079 Sa
 1001              		.loc 1 695 0
 1002              		.cfi_startproc
 1003              		@ args = 0, pretend = 0, frame = 0
 1004              		@ frame_needed = 0, uses_anonymous_args = 0
 1005              	.LVL140:
 1006 0000 2DE9F043 		push	{r4, r5, r6, r7, r8, r9, lr}
 1007              		.cfi_def_cfa_offset 28
 1008              		.cfi_offset 4, -28
 1009              		.cfi_offset 5, -24
 1010              		.cfi_offset 6, -20
 1011              		.cfi_offset 7, -16
 1012              		.cfi_offset 8, -12
 1013              		.cfi_offset 9, -8
 1014              		.cfi_offset 14, -4
 1015 0004 83B0     		sub	sp, sp, #12
 1016              		.cfi_def_cfa_offset 40
 1017 0006 0446     		mov	r4, r0
 1018 0008 8846     		mov	r8, r1
 1019 000a 9146     		mov	r9, r2
 1020 000c 1F46     		mov	r7, r3
 1021              	.LVL141:
 707:..\FreeRTOS\Source/stream_buffer.c **** 	{
 1022              		.loc 1 707 0
 1023 000e 037F     		ldrb	r3, [r0, #28]	@ zero_extendqisi2
 1024              	.LVL142:
 1025 0010 13F0010F 		tst	r3, #1
 1026 0014 01D0     		beq	.L76
 709:..\FreeRTOS\Source/stream_buffer.c **** 	}
 1027              		.loc 1 709 0
 1028 0016 0426     		movs	r6, #4
 1029 0018 00E0     		b	.L70
 1030              	.L76:
 713:..\FreeRTOS\Source/stream_buffer.c **** 	}
 1031              		.loc 1 713 0
 1032 001a 0026     		movs	r6, #0
 1033              	.L70:
 1034              	.LVL143:
 716:..\FreeRTOS\Source/stream_buffer.c **** 	{
 1035              		.loc 1 716 0
ARM GAS  C:\Users\samue\AppData\Local\Temp\cc6oSIFr.s 			page 46


 1036 001c FFB1     		cbz	r7, .L71
 720:..\FreeRTOS\Source/stream_buffer.c **** 		{
 1037              		.loc 1 720 0
 1038 001e FFF7FEFF 		bl	vPortEnterCritical
 1039              	.LVL144:
 722:..\FreeRTOS\Source/stream_buffer.c **** 
 1040              		.loc 1 722 0
 1041 0022 2046     		mov	r0, r4
 1042 0024 FFF7FEFF 		bl	prvBytesInBuffer
 1043              	.LVL145:
 1044 0028 0546     		mov	r5, r0
 1045              	.LVL146:
 729:..\FreeRTOS\Source/stream_buffer.c **** 			{
 1046              		.loc 1 729 0
 1047 002a 8642     		cmp	r6, r0
 1048 002c 05D3     		bcc	.L72
 732:..\FreeRTOS\Source/stream_buffer.c **** 
 1049              		.loc 1 732 0
 1050 002e 0020     		movs	r0, #0
 1051              	.LVL147:
 1052 0030 FFF7FEFF 		bl	xTaskNotifyStateClear
 1053              	.LVL148:
 736:..\FreeRTOS\Source/stream_buffer.c **** 			}
 1054              		.loc 1 736 0
 1055 0034 FFF7FEFF 		bl	xTaskGetCurrentTaskHandle
 1056              	.LVL149:
 1057 0038 2061     		str	r0, [r4, #16]
 1058              	.L72:
 743:..\FreeRTOS\Source/stream_buffer.c **** 
 1059              		.loc 1 743 0
 1060 003a FFF7FEFF 		bl	vPortExitCritical
 1061              	.LVL150:
 745:..\FreeRTOS\Source/stream_buffer.c **** 		{
 1062              		.loc 1 745 0
 1063 003e AE42     		cmp	r6, r5
 1064 0040 11D3     		bcc	.L73
 749:..\FreeRTOS\Source/stream_buffer.c **** 			pxStreamBuffer->xTaskWaitingToReceive = NULL;
 1065              		.loc 1 749 0
 1066 0042 3B46     		mov	r3, r7
 1067 0044 0022     		movs	r2, #0
 1068 0046 4FF0FF31 		mov	r1, #-1
 1069 004a 1046     		mov	r0, r2
 1070 004c FFF7FEFF 		bl	xTaskNotifyWait
 1071              	.LVL151:
 750:..\FreeRTOS\Source/stream_buffer.c **** 
 1072              		.loc 1 750 0
 1073 0050 0023     		movs	r3, #0
 1074 0052 2361     		str	r3, [r4, #16]
 753:..\FreeRTOS\Source/stream_buffer.c **** 		}
 1075              		.loc 1 753 0
 1076 0054 2046     		mov	r0, r4
 1077 0056 FFF7FEFF 		bl	prvBytesInBuffer
 1078              	.LVL152:
 1079 005a 0546     		mov	r5, r0
 1080              	.LVL153:
 1081 005c 03E0     		b	.L73
 1082              	.LVL154:
ARM GAS  C:\Users\samue\AppData\Local\Temp\cc6oSIFr.s 			page 47


 1083              	.L71:
 762:..\FreeRTOS\Source/stream_buffer.c **** 	}
 1084              		.loc 1 762 0
 1085 005e 2046     		mov	r0, r4
 1086              	.LVL155:
 1087 0060 FFF7FEFF 		bl	prvBytesInBuffer
 1088              	.LVL156:
 1089 0064 0546     		mov	r5, r0
 1090              	.LVL157:
 1091              	.L73:
 770:..\FreeRTOS\Source/stream_buffer.c **** 	{
 1092              		.loc 1 770 0
 1093 0066 B542     		cmp	r5, r6
 1094 0068 17D9     		bls	.L77
 772:..\FreeRTOS\Source/stream_buffer.c **** 
 1095              		.loc 1 772 0
 1096 006a 0096     		str	r6, [sp]
 1097 006c 2B46     		mov	r3, r5
 1098 006e 4A46     		mov	r2, r9
 1099 0070 4146     		mov	r1, r8
 1100 0072 2046     		mov	r0, r4
 1101 0074 FFF7FEFF 		bl	prvReadMessageFromBuffer
 1102              	.LVL158:
 775:..\FreeRTOS\Source/stream_buffer.c **** 		{
 1103              		.loc 1 775 0
 1104 0078 0546     		mov	r5, r0
 1105              	.LVL159:
 1106 007a 78B1     		cbz	r0, .L74
 778:..\FreeRTOS\Source/stream_buffer.c **** 		}
 1107              		.loc 1 778 0
 1108 007c FFF7FEFF 		bl	vTaskSuspendAll
 1109              	.LVL160:
 1110 0080 6369     		ldr	r3, [r4, #20]
 1111 0082 3BB1     		cbz	r3, .L75
 778:..\FreeRTOS\Source/stream_buffer.c **** 		}
 1112              		.loc 1 778 0 is_stmt 0 discriminator 1
 1113 0084 6069     		ldr	r0, [r4, #20]
 1114 0086 0023     		movs	r3, #0
 1115 0088 1A46     		mov	r2, r3
 1116 008a 1946     		mov	r1, r3
 1117 008c FFF7FEFF 		bl	xTaskGenericNotify
 1118              	.LVL161:
 1119 0090 0023     		movs	r3, #0
 1120 0092 6361     		str	r3, [r4, #20]
 1121              	.L75:
 778:..\FreeRTOS\Source/stream_buffer.c **** 		}
 1122              		.loc 1 778 0 discriminator 3
 1123 0094 FFF7FEFF 		bl	xTaskResumeAll
 1124              	.LVL162:
 1125 0098 00E0     		b	.L74
 1126              	.LVL163:
 1127              	.L77:
 697:..\FreeRTOS\Source/stream_buffer.c **** 
 1128              		.loc 1 697 0 is_stmt 1
 1129 009a 0025     		movs	r5, #0
 1130              	.LVL164:
 1131              	.L74:
ARM GAS  C:\Users\samue\AppData\Local\Temp\cc6oSIFr.s 			page 48


 792:..\FreeRTOS\Source/stream_buffer.c **** /*-----------------------------------------------------------*/
 1132              		.loc 1 792 0
 1133 009c 2846     		mov	r0, r5
 1134 009e 03B0     		add	sp, sp, #12
 1135              		.cfi_def_cfa_offset 28
 1136              		@ sp needed
 1137 00a0 BDE8F083 		pop	{r4, r5, r6, r7, r8, r9, pc}
 1138              		.cfi_endproc
 1139              	.LFE77:
 1140              		.size	xStreamBufferReceive, .-xStreamBufferReceive
 1141              		.section	.text.xStreamBufferReceiveFromISR,"ax",%progbits
 1142              		.align	2
 1143              		.global	xStreamBufferReceiveFromISR
 1144              		.thumb
 1145              		.thumb_func
 1146              		.type	xStreamBufferReceiveFromISR, %function
 1147              	xStreamBufferReceiveFromISR:
 1148              	.LFB78:
 799:..\FreeRTOS\Source/stream_buffer.c **** StreamBuffer_t * const pxStreamBuffer = ( StreamBuffer_t * ) xStreamBuffer; /*lint !e9087 !e9079 Sa
 1149              		.loc 1 799 0
 1150              		.cfi_startproc
 1151              		@ args = 0, pretend = 0, frame = 0
 1152              		@ frame_needed = 0, uses_anonymous_args = 0
 1153              	.LVL165:
 1154 0000 2DE9F041 		push	{r4, r5, r6, r7, r8, lr}
 1155              		.cfi_def_cfa_offset 24
 1156              		.cfi_offset 4, -24
 1157              		.cfi_offset 5, -20
 1158              		.cfi_offset 6, -16
 1159              		.cfi_offset 7, -12
 1160              		.cfi_offset 8, -8
 1161              		.cfi_offset 14, -4
 1162 0004 82B0     		sub	sp, sp, #8
 1163              		.cfi_def_cfa_offset 32
 1164 0006 0446     		mov	r4, r0
 1165 0008 0E46     		mov	r6, r1
 1166 000a 1746     		mov	r7, r2
 1167 000c 9846     		mov	r8, r3
 1168              	.LVL166:
 811:..\FreeRTOS\Source/stream_buffer.c **** 	{
 1169              		.loc 1 811 0
 1170 000e 037F     		ldrb	r3, [r0, #28]	@ zero_extendqisi2
 1171              	.LVL167:
 1172 0010 13F0010F 		tst	r3, #1
 1173 0014 01D0     		beq	.L83
 813:..\FreeRTOS\Source/stream_buffer.c **** 	}
 1174              		.loc 1 813 0
 1175 0016 0425     		movs	r5, #4
 1176 0018 00E0     		b	.L80
 1177              	.L83:
 817:..\FreeRTOS\Source/stream_buffer.c **** 	}
 1178              		.loc 1 817 0
 1179 001a 0025     		movs	r5, #0
 1180              	.L80:
 1181              	.LVL168:
 820:..\FreeRTOS\Source/stream_buffer.c **** 
 1182              		.loc 1 820 0
ARM GAS  C:\Users\samue\AppData\Local\Temp\cc6oSIFr.s 			page 49


 1183 001c 2046     		mov	r0, r4
 1184              	.LVL169:
 1185 001e FFF7FEFF 		bl	prvBytesInBuffer
 1186              	.LVL170:
 827:..\FreeRTOS\Source/stream_buffer.c **** 	{
 1187              		.loc 1 827 0
 1188 0022 8542     		cmp	r5, r0
 1189 0024 21D2     		bcs	.L84
 829:..\FreeRTOS\Source/stream_buffer.c **** 
 1190              		.loc 1 829 0
 1191 0026 0095     		str	r5, [sp]
 1192 0028 0346     		mov	r3, r0
 1193 002a 3A46     		mov	r2, r7
 1194 002c 3146     		mov	r1, r6
 1195 002e 2046     		mov	r0, r4
 1196              	.LVL171:
 1197 0030 FFF7FEFF 		bl	prvReadMessageFromBuffer
 1198              	.LVL172:
 832:..\FreeRTOS\Source/stream_buffer.c **** 		{
 1199              		.loc 1 832 0
 1200 0034 0546     		mov	r5, r0
 1201              	.LVL173:
 1202 0036 C8B1     		cbz	r0, .L81
 1203              	.LBB25:
 1204              	.LBB26:
 1205              	.LBB27:
 211:..\FreeRTOS\Source\portable\GCC\ARM_CM3/portmacro.h **** 	(
 1206              		.loc 2 211 0
 1207              		.syntax unified
 1208              	@ 211 "..\FreeRTOS\Source\portable\GCC\ARM_CM3/portmacro.h" 1
 1209 0038 EFF31186 			mrs r6, basepri											
 1210 003c 4FF0A003 		mov r3, #160												
 1211 0040 83F31188 		msr basepri, r3											
 1212 0044 BFF36F8F 		isb														
 1213 0048 BFF34F8F 		dsb														
 1214              	
 1215              	@ 0 "" 2
 1216              	.LVL174:
 1217              		.thumb
 1218              		.syntax unified
 1219              	.LBE27:
 1220              	.LBE26:
 834:..\FreeRTOS\Source/stream_buffer.c **** 		}
 1221              		.loc 1 834 0
 1222 004c 6369     		ldr	r3, [r4, #20]
 1223 004e 4BB1     		cbz	r3, .L82
 834:..\FreeRTOS\Source/stream_buffer.c **** 		}
 1224              		.loc 1 834 0 is_stmt 0 discriminator 1
 1225 0050 6069     		ldr	r0, [r4, #20]
 1226              	.LVL175:
 1227 0052 CDF80080 		str	r8, [sp]
 1228 0056 0023     		movs	r3, #0
 1229 0058 1A46     		mov	r2, r3
 1230 005a 1946     		mov	r1, r3
 1231 005c FFF7FEFF 		bl	xTaskGenericNotifyFromISR
 1232              	.LVL176:
 1233 0060 0023     		movs	r3, #0
ARM GAS  C:\Users\samue\AppData\Local\Temp\cc6oSIFr.s 			page 50


 1234 0062 6361     		str	r3, [r4, #20]
 1235              	.L82:
 1236              	.LVL177:
 1237              	.LBB28:
 1238              	.LBB29:
 1239              		.loc 2 229 0 is_stmt 1 discriminator 3
 1240              		.syntax unified
 1241              	@ 229 "..\FreeRTOS\Source\portable\GCC\ARM_CM3/portmacro.h" 1
 1242 0064 86F31188 			msr basepri, r6	
 1243              	@ 0 "" 2
 1244              		.thumb
 1245              		.syntax unified
 1246 0068 00E0     		b	.L81
 1247              	.LVL178:
 1248              	.L84:
 1249              	.LBE29:
 1250              	.LBE28:
 1251              	.LBE25:
 801:..\FreeRTOS\Source/stream_buffer.c **** 
 1252              		.loc 1 801 0
 1253 006a 0025     		movs	r5, #0
 1254              	.LVL179:
 1255              	.L81:
 849:..\FreeRTOS\Source/stream_buffer.c **** /*-----------------------------------------------------------*/
 1256              		.loc 1 849 0
 1257 006c 2846     		mov	r0, r5
 1258 006e 02B0     		add	sp, sp, #8
 1259              		.cfi_def_cfa_offset 24
 1260              		@ sp needed
 1261 0070 BDE8F081 		pop	{r4, r5, r6, r7, r8, pc}
 1262              		.cfi_endproc
 1263              	.LFE78:
 1264              		.size	xStreamBufferReceiveFromISR, .-xStreamBufferReceiveFromISR
 1265              		.section	.text.xStreamBufferIsEmpty,"ax",%progbits
 1266              		.align	2
 1267              		.global	xStreamBufferIsEmpty
 1268              		.thumb
 1269              		.thumb_func
 1270              		.type	xStreamBufferIsEmpty, %function
 1271              	xStreamBufferIsEmpty:
 1272              	.LFB80:
 903:..\FreeRTOS\Source/stream_buffer.c **** const StreamBuffer_t * const pxStreamBuffer = ( StreamBuffer_t * ) xStreamBuffer; /*lint !e9087 !e9
 1273              		.loc 1 903 0
 1274              		.cfi_startproc
 1275              		@ args = 0, pretend = 0, frame = 0
 1276              		@ frame_needed = 0, uses_anonymous_args = 0
 1277              		@ link register save eliminated.
 1278              	.LVL180:
 911:..\FreeRTOS\Source/stream_buffer.c **** 	if( pxStreamBuffer->xHead == xTail )
 1279              		.loc 1 911 0
 1280 0000 0268     		ldr	r2, [r0]
 1281              	.LVL181:
 912:..\FreeRTOS\Source/stream_buffer.c **** 	{
 1282              		.loc 1 912 0
 1283 0002 4368     		ldr	r3, [r0, #4]
 1284 0004 9A42     		cmp	r2, r3
 1285 0006 01D1     		bne	.L88
ARM GAS  C:\Users\samue\AppData\Local\Temp\cc6oSIFr.s 			page 51


 914:..\FreeRTOS\Source/stream_buffer.c **** 	}
 1286              		.loc 1 914 0
 1287 0008 0120     		movs	r0, #1
 1288              	.LVL182:
 1289 000a 7047     		bx	lr
 1290              	.LVL183:
 1291              	.L88:
 918:..\FreeRTOS\Source/stream_buffer.c **** 	}
 1292              		.loc 1 918 0
 1293 000c 0020     		movs	r0, #0
 1294              	.LVL184:
 922:..\FreeRTOS\Source/stream_buffer.c **** /*-----------------------------------------------------------*/
 1295              		.loc 1 922 0
 1296 000e 7047     		bx	lr
 1297              		.cfi_endproc
 1298              	.LFE80:
 1299              		.size	xStreamBufferIsEmpty, .-xStreamBufferIsEmpty
 1300              		.section	.text.xStreamBufferIsFull,"ax",%progbits
 1301              		.align	2
 1302              		.global	xStreamBufferIsFull
 1303              		.thumb
 1304              		.thumb_func
 1305              		.type	xStreamBufferIsFull, %function
 1306              	xStreamBufferIsFull:
 1307              	.LFB81:
 926:..\FreeRTOS\Source/stream_buffer.c **** BaseType_t xReturn;
 1308              		.loc 1 926 0
 1309              		.cfi_startproc
 1310              		@ args = 0, pretend = 0, frame = 0
 1311              		@ frame_needed = 0, uses_anonymous_args = 0
 1312              	.LVL185:
 1313 0000 10B5     		push	{r4, lr}
 1314              		.cfi_def_cfa_offset 8
 1315              		.cfi_offset 4, -8
 1316              		.cfi_offset 14, -4
 1317              	.LVL186:
 937:..\FreeRTOS\Source/stream_buffer.c **** 	{
 1318              		.loc 1 937 0
 1319 0002 037F     		ldrb	r3, [r0, #28]	@ zero_extendqisi2
 1320 0004 13F0010F 		tst	r3, #1
 1321 0008 01D0     		beq	.L92
 939:..\FreeRTOS\Source/stream_buffer.c **** 	}
 1322              		.loc 1 939 0
 1323 000a 0424     		movs	r4, #4
 1324 000c 00E0     		b	.L90
 1325              	.L92:
 943:..\FreeRTOS\Source/stream_buffer.c **** 	}
 1326              		.loc 1 943 0
 1327 000e 0024     		movs	r4, #0
 1328              	.L90:
 1329              	.LVL187:
 947:..\FreeRTOS\Source/stream_buffer.c **** 	{
 1330              		.loc 1 947 0
 1331 0010 FFF7FEFF 		bl	xStreamBufferSpacesAvailable
 1332              	.LVL188:
 1333 0014 8442     		cmp	r4, r0
 1334 0016 01D3     		bcc	.L93
ARM GAS  C:\Users\samue\AppData\Local\Temp\cc6oSIFr.s 			page 52


 949:..\FreeRTOS\Source/stream_buffer.c **** 	}
 1335              		.loc 1 949 0
 1336 0018 0120     		movs	r0, #1
 1337 001a 10BD     		pop	{r4, pc}
 1338              	.LVL189:
 1339              	.L93:
 953:..\FreeRTOS\Source/stream_buffer.c **** 	}
 1340              		.loc 1 953 0
 1341 001c 0020     		movs	r0, #0
 1342              	.LVL190:
 957:..\FreeRTOS\Source/stream_buffer.c **** /*-----------------------------------------------------------*/
 1343              		.loc 1 957 0
 1344 001e 10BD     		pop	{r4, pc}
 1345              		.cfi_endproc
 1346              	.LFE81:
 1347              		.size	xStreamBufferIsFull, .-xStreamBufferIsFull
 1348              		.section	.text.xStreamBufferSendCompletedFromISR,"ax",%progbits
 1349              		.align	2
 1350              		.global	xStreamBufferSendCompletedFromISR
 1351              		.thumb
 1352              		.thumb_func
 1353              		.type	xStreamBufferSendCompletedFromISR, %function
 1354              	xStreamBufferSendCompletedFromISR:
 1355              	.LFB82:
 961:..\FreeRTOS\Source/stream_buffer.c **** StreamBuffer_t * const pxStreamBuffer = ( StreamBuffer_t * ) xStreamBuffer; /*lint !e9087 !e9079 Sa
 1356              		.loc 1 961 0
 1357              		.cfi_startproc
 1358              		@ args = 0, pretend = 0, frame = 0
 1359              		@ frame_needed = 0, uses_anonymous_args = 0
 1360              	.LVL191:
 1361 0000 30B5     		push	{r4, r5, lr}
 1362              		.cfi_def_cfa_offset 12
 1363              		.cfi_offset 4, -12
 1364              		.cfi_offset 5, -8
 1365              		.cfi_offset 14, -4
 1366 0002 83B0     		sub	sp, sp, #12
 1367              		.cfi_def_cfa_offset 24
 1368              	.LVL192:
 1369              	.LBB30:
 1370              	.LBB31:
 211:..\FreeRTOS\Source\portable\GCC\ARM_CM3/portmacro.h **** 	(
 1371              		.loc 2 211 0
 1372              		.syntax unified
 1373              	@ 211 "..\FreeRTOS\Source\portable\GCC\ARM_CM3/portmacro.h" 1
 1374 0004 EFF31185 			mrs r5, basepri											
 1375 0008 4FF0A003 		mov r3, #160												
 1376 000c 83F31188 		msr basepri, r3											
 1377 0010 BFF36F8F 		isb														
 1378 0014 BFF34F8F 		dsb														
 1379              	
 1380              	@ 0 "" 2
 1381              		.thumb
 1382              		.syntax unified
 1383              	.LBE31:
 1384              	.LBE30:
 970:..\FreeRTOS\Source/stream_buffer.c **** 		{
 1385              		.loc 1 970 0
ARM GAS  C:\Users\samue\AppData\Local\Temp\cc6oSIFr.s 			page 53


 1386 0018 0369     		ldr	r3, [r0, #16]
 1387 001a 5BB1     		cbz	r3, .L97
 1388 001c 0446     		mov	r4, r0
 972:..\FreeRTOS\Source/stream_buffer.c **** 										 ( uint32_t ) 0,
 1389              		.loc 1 972 0
 1390 001e 0069     		ldr	r0, [r0, #16]
 1391              	.LVL193:
 1392 0020 0091     		str	r1, [sp]
 1393 0022 0023     		movs	r3, #0
 1394 0024 1A46     		mov	r2, r3
 1395 0026 1946     		mov	r1, r3
 1396              	.LVL194:
 1397 0028 FFF7FEFF 		bl	xTaskGenericNotifyFromISR
 1398              	.LVL195:
 976:..\FreeRTOS\Source/stream_buffer.c **** 			xReturn = pdTRUE;
 1399              		.loc 1 976 0
 1400 002c 0023     		movs	r3, #0
 1401 002e 2361     		str	r3, [r4, #16]
 1402              	.LVL196:
 977:..\FreeRTOS\Source/stream_buffer.c **** 		}
 1403              		.loc 1 977 0
 1404 0030 0120     		movs	r0, #1
 1405 0032 00E0     		b	.L96
 1406              	.LVL197:
 1407              	.L97:
 981:..\FreeRTOS\Source/stream_buffer.c **** 		}
 1408              		.loc 1 981 0
 1409 0034 0020     		movs	r0, #0
 1410              	.LVL198:
 1411              	.L96:
 1412              	.LBB32:
 1413              	.LBB33:
 1414              		.loc 2 229 0
 1415              		.syntax unified
 1416              	@ 229 "..\FreeRTOS\Source\portable\GCC\ARM_CM3/portmacro.h" 1
 1417 0036 85F31188 			msr basepri, r5	
 1418              	@ 0 "" 2
 1419              	.LVL199:
 1420              		.thumb
 1421              		.syntax unified
 1422              	.LBE33:
 1423              	.LBE32:
 987:..\FreeRTOS\Source/stream_buffer.c **** /*-----------------------------------------------------------*/
 1424              		.loc 1 987 0
 1425 003a 03B0     		add	sp, sp, #12
 1426              		.cfi_def_cfa_offset 12
 1427              		@ sp needed
 1428 003c 30BD     		pop	{r4, r5, pc}
 1429              		.cfi_endproc
 1430              	.LFE82:
 1431              		.size	xStreamBufferSendCompletedFromISR, .-xStreamBufferSendCompletedFromISR
 1432 003e 00BF     		.section	.text.xStreamBufferReceiveCompletedFromISR,"ax",%progbits
 1433              		.align	2
 1434              		.global	xStreamBufferReceiveCompletedFromISR
 1435              		.thumb
 1436              		.thumb_func
 1437              		.type	xStreamBufferReceiveCompletedFromISR, %function
ARM GAS  C:\Users\samue\AppData\Local\Temp\cc6oSIFr.s 			page 54


 1438              	xStreamBufferReceiveCompletedFromISR:
 1439              	.LFB83:
 991:..\FreeRTOS\Source/stream_buffer.c **** StreamBuffer_t * const pxStreamBuffer = ( StreamBuffer_t * ) xStreamBuffer; /*lint !e9087 !e9079 Sa
 1440              		.loc 1 991 0
 1441              		.cfi_startproc
 1442              		@ args = 0, pretend = 0, frame = 0
 1443              		@ frame_needed = 0, uses_anonymous_args = 0
 1444              	.LVL200:
 1445 0000 30B5     		push	{r4, r5, lr}
 1446              		.cfi_def_cfa_offset 12
 1447              		.cfi_offset 4, -12
 1448              		.cfi_offset 5, -8
 1449              		.cfi_offset 14, -4
 1450 0002 83B0     		sub	sp, sp, #12
 1451              		.cfi_def_cfa_offset 24
 1452              	.LVL201:
 1453              	.LBB34:
 1454              	.LBB35:
 211:..\FreeRTOS\Source\portable\GCC\ARM_CM3/portmacro.h **** 	(
 1455              		.loc 2 211 0
 1456              		.syntax unified
 1457              	@ 211 "..\FreeRTOS\Source\portable\GCC\ARM_CM3/portmacro.h" 1
 1458 0004 EFF31185 			mrs r5, basepri											
 1459 0008 4FF0A003 		mov r3, #160												
 1460 000c 83F31188 		msr basepri, r3											
 1461 0010 BFF36F8F 		isb														
 1462 0014 BFF34F8F 		dsb														
 1463              	
 1464              	@ 0 "" 2
 1465              		.thumb
 1466              		.syntax unified
 1467              	.LBE35:
 1468              	.LBE34:
1000:..\FreeRTOS\Source/stream_buffer.c **** 		{
 1469              		.loc 1 1000 0
 1470 0018 4369     		ldr	r3, [r0, #20]
 1471 001a 5BB1     		cbz	r3, .L101
 1472 001c 0446     		mov	r4, r0
1002:..\FreeRTOS\Source/stream_buffer.c **** 										 ( uint32_t ) 0,
 1473              		.loc 1 1002 0
 1474 001e 4069     		ldr	r0, [r0, #20]
 1475              	.LVL202:
 1476 0020 0091     		str	r1, [sp]
 1477 0022 0023     		movs	r3, #0
 1478 0024 1A46     		mov	r2, r3
 1479 0026 1946     		mov	r1, r3
 1480              	.LVL203:
 1481 0028 FFF7FEFF 		bl	xTaskGenericNotifyFromISR
 1482              	.LVL204:
1006:..\FreeRTOS\Source/stream_buffer.c **** 			xReturn = pdTRUE;
 1483              		.loc 1 1006 0
 1484 002c 0023     		movs	r3, #0
 1485 002e 6361     		str	r3, [r4, #20]
 1486              	.LVL205:
1007:..\FreeRTOS\Source/stream_buffer.c **** 		}
 1487              		.loc 1 1007 0
 1488 0030 0120     		movs	r0, #1
ARM GAS  C:\Users\samue\AppData\Local\Temp\cc6oSIFr.s 			page 55


 1489 0032 00E0     		b	.L100
 1490              	.LVL206:
 1491              	.L101:
1011:..\FreeRTOS\Source/stream_buffer.c **** 		}
 1492              		.loc 1 1011 0
 1493 0034 0020     		movs	r0, #0
 1494              	.LVL207:
 1495              	.L100:
 1496              	.LBB36:
 1497              	.LBB37:
 1498              		.loc 2 229 0
 1499              		.syntax unified
 1500              	@ 229 "..\FreeRTOS\Source\portable\GCC\ARM_CM3/portmacro.h" 1
 1501 0036 85F31188 			msr basepri, r5	
 1502              	@ 0 "" 2
 1503              	.LVL208:
 1504              		.thumb
 1505              		.syntax unified
 1506              	.LBE37:
 1507              	.LBE36:
1017:..\FreeRTOS\Source/stream_buffer.c **** /*-----------------------------------------------------------*/
 1508              		.loc 1 1017 0
 1509 003a 03B0     		add	sp, sp, #12
 1510              		.cfi_def_cfa_offset 12
 1511              		@ sp needed
 1512 003c 30BD     		pop	{r4, r5, pc}
 1513              		.cfi_endproc
 1514              	.LFE83:
 1515              		.size	xStreamBufferReceiveCompletedFromISR, .-xStreamBufferReceiveCompletedFromISR
 1516 003e 00BF     		.section	.text.uxStreamBufferGetStreamBufferNumber,"ax",%progbits
 1517              		.align	2
 1518              		.global	uxStreamBufferGetStreamBufferNumber
 1519              		.thumb
 1520              		.thumb_func
 1521              		.type	uxStreamBufferGetStreamBufferNumber, %function
 1522              	uxStreamBufferGetStreamBufferNumber:
 1523              	.LFB88:
1168:..\FreeRTOS\Source/stream_buffer.c **** 	}
1169:..\FreeRTOS\Source/stream_buffer.c **** }
1170:..\FreeRTOS\Source/stream_buffer.c **** 
1171:..\FreeRTOS\Source/stream_buffer.c **** #if ( configUSE_TRACE_FACILITY == 1 )
1172:..\FreeRTOS\Source/stream_buffer.c **** 
1173:..\FreeRTOS\Source/stream_buffer.c **** 	UBaseType_t uxStreamBufferGetStreamBufferNumber( StreamBufferHandle_t xStreamBuffer )
1174:..\FreeRTOS\Source/stream_buffer.c **** 	{
 1524              		.loc 1 1174 0
 1525              		.cfi_startproc
 1526              		@ args = 0, pretend = 0, frame = 0
 1527              		@ frame_needed = 0, uses_anonymous_args = 0
 1528              		@ link register save eliminated.
 1529              	.LVL209:
1175:..\FreeRTOS\Source/stream_buffer.c **** 		return ( ( StreamBuffer_t * ) xStreamBuffer )->uxStreamBufferNumber;
1176:..\FreeRTOS\Source/stream_buffer.c **** 	}
 1530              		.loc 1 1176 0
 1531 0000 006A     		ldr	r0, [r0, #32]
 1532              	.LVL210:
 1533 0002 7047     		bx	lr
 1534              		.cfi_endproc
ARM GAS  C:\Users\samue\AppData\Local\Temp\cc6oSIFr.s 			page 56


 1535              	.LFE88:
 1536              		.size	uxStreamBufferGetStreamBufferNumber, .-uxStreamBufferGetStreamBufferNumber
 1537              		.section	.text.vStreamBufferSetStreamBufferNumber,"ax",%progbits
 1538              		.align	2
 1539              		.global	vStreamBufferSetStreamBufferNumber
 1540              		.thumb
 1541              		.thumb_func
 1542              		.type	vStreamBufferSetStreamBufferNumber, %function
 1543              	vStreamBufferSetStreamBufferNumber:
 1544              	.LFB89:
1177:..\FreeRTOS\Source/stream_buffer.c **** 
1178:..\FreeRTOS\Source/stream_buffer.c **** #endif /* configUSE_TRACE_FACILITY */
1179:..\FreeRTOS\Source/stream_buffer.c **** /*-----------------------------------------------------------*/
1180:..\FreeRTOS\Source/stream_buffer.c **** 
1181:..\FreeRTOS\Source/stream_buffer.c **** #if ( configUSE_TRACE_FACILITY == 1 )
1182:..\FreeRTOS\Source/stream_buffer.c **** 
1183:..\FreeRTOS\Source/stream_buffer.c **** 	void vStreamBufferSetStreamBufferNumber( StreamBufferHandle_t xStreamBuffer, UBaseType_t uxStreamB
1184:..\FreeRTOS\Source/stream_buffer.c **** 	{
 1545              		.loc 1 1184 0
 1546              		.cfi_startproc
 1547              		@ args = 0, pretend = 0, frame = 0
 1548              		@ frame_needed = 0, uses_anonymous_args = 0
 1549              		@ link register save eliminated.
 1550              	.LVL211:
1185:..\FreeRTOS\Source/stream_buffer.c **** 		( ( StreamBuffer_t * ) xStreamBuffer )->uxStreamBufferNumber = uxStreamBufferNumber;
 1551              		.loc 1 1185 0
 1552 0000 0162     		str	r1, [r0, #32]
 1553 0002 7047     		bx	lr
 1554              		.cfi_endproc
 1555              	.LFE89:
 1556              		.size	vStreamBufferSetStreamBufferNumber, .-vStreamBufferSetStreamBufferNumber
 1557              		.section	.text.ucStreamBufferGetStreamBufferType,"ax",%progbits
 1558              		.align	2
 1559              		.global	ucStreamBufferGetStreamBufferType
 1560              		.thumb
 1561              		.thumb_func
 1562              		.type	ucStreamBufferGetStreamBufferType, %function
 1563              	ucStreamBufferGetStreamBufferType:
 1564              	.LFB90:
1186:..\FreeRTOS\Source/stream_buffer.c **** 	}
1187:..\FreeRTOS\Source/stream_buffer.c **** 
1188:..\FreeRTOS\Source/stream_buffer.c **** #endif /* configUSE_TRACE_FACILITY */
1189:..\FreeRTOS\Source/stream_buffer.c **** /*-----------------------------------------------------------*/
1190:..\FreeRTOS\Source/stream_buffer.c **** 
1191:..\FreeRTOS\Source/stream_buffer.c **** #if ( configUSE_TRACE_FACILITY == 1 )
1192:..\FreeRTOS\Source/stream_buffer.c **** 
1193:..\FreeRTOS\Source/stream_buffer.c **** 	uint8_t ucStreamBufferGetStreamBufferType( StreamBufferHandle_t xStreamBuffer )
1194:..\FreeRTOS\Source/stream_buffer.c **** 	{
 1565              		.loc 1 1194 0
 1566              		.cfi_startproc
 1567              		@ args = 0, pretend = 0, frame = 0
 1568              		@ frame_needed = 0, uses_anonymous_args = 0
 1569              		@ link register save eliminated.
 1570              	.LVL212:
1195:..\FreeRTOS\Source/stream_buffer.c **** 		return ( ( StreamBuffer_t * )xStreamBuffer )->ucFlags | sbFLAGS_IS_MESSAGE_BUFFER;
 1571              		.loc 1 1195 0
 1572 0000 007F     		ldrb	r0, [r0, #28]	@ zero_extendqisi2
ARM GAS  C:\Users\samue\AppData\Local\Temp\cc6oSIFr.s 			page 57


 1573              	.LVL213:
1196:..\FreeRTOS\Source/stream_buffer.c **** 	}
 1574              		.loc 1 1196 0
 1575 0002 40F00100 		orr	r0, r0, #1
 1576 0006 7047     		bx	lr
 1577              		.cfi_endproc
 1578              	.LFE90:
 1579              		.size	ucStreamBufferGetStreamBufferType, .-ucStreamBufferGetStreamBufferType
 1580              		.text
 1581              	.Letext0:
 1582              		.file 3 "c:\\program files (x86)\\cypress\\psoc creator\\4.2\\psoc creator\\import\\gnu\\arm\\5.4.
 1583              		.file 4 "c:\\program files (x86)\\cypress\\psoc creator\\4.2\\psoc creator\\import\\gnu\\arm\\5.4.
 1584              		.file 5 "c:\\program files (x86)\\cypress\\psoc creator\\4.2\\psoc creator\\import\\gnu\\arm\\5.4.
 1585              		.file 6 "..\\FreeRTOS\\Source\\include/task.h"
 1586              		.file 7 "..\\FreeRTOS\\Source\\include/stream_buffer.h"
 1587              		.file 8 "..\\FreeRTOS\\Source\\include/portable.h"
 1588              		.file 9 "Generated_Source\\PSoC5/core_cm3.h"
 1589              		.section	.debug_info,"",%progbits
 1590              	.Ldebug_info0:
 1591 0000 32120000 		.4byte	0x1232
 1592 0004 0400     		.2byte	0x4
 1593 0006 00000000 		.4byte	.Ldebug_abbrev0
 1594 000a 04       		.byte	0x4
 1595 000b 01       		.uleb128 0x1
 1596 000c 74070000 		.4byte	.LASF114
 1597 0010 0C       		.byte	0xc
 1598 0011 3C030000 		.4byte	.LASF115
 1599 0015 DA050000 		.4byte	.LASF116
 1600 0019 00000000 		.4byte	.Ldebug_ranges0+0
 1601 001d 00000000 		.4byte	0
 1602 0021 00000000 		.4byte	.Ldebug_line0
 1603 0025 02       		.uleb128 0x2
 1604 0026 01       		.byte	0x1
 1605 0027 06       		.byte	0x6
 1606 0028 ED030000 		.4byte	.LASF0
 1607 002c 03       		.uleb128 0x3
 1608 002d FB020000 		.4byte	.LASF4
 1609 0031 03       		.byte	0x3
 1610 0032 1D       		.byte	0x1d
 1611 0033 37000000 		.4byte	0x37
 1612 0037 02       		.uleb128 0x2
 1613 0038 01       		.byte	0x1
 1614 0039 08       		.byte	0x8
 1615 003a 7C030000 		.4byte	.LASF1
 1616 003e 02       		.uleb128 0x2
 1617 003f 02       		.byte	0x2
 1618 0040 05       		.byte	0x5
 1619 0041 A8000000 		.4byte	.LASF2
 1620 0045 02       		.uleb128 0x2
 1621 0046 02       		.byte	0x2
 1622 0047 07       		.byte	0x7
 1623 0048 CD040000 		.4byte	.LASF3
 1624 004c 03       		.uleb128 0x3
 1625 004d BB060000 		.4byte	.LASF5
 1626 0051 03       		.byte	0x3
 1627 0052 3F       		.byte	0x3f
 1628 0053 57000000 		.4byte	0x57
ARM GAS  C:\Users\samue\AppData\Local\Temp\cc6oSIFr.s 			page 58


 1629 0057 02       		.uleb128 0x2
 1630 0058 04       		.byte	0x4
 1631 0059 05       		.byte	0x5
 1632 005a CF020000 		.4byte	.LASF6
 1633 005e 03       		.uleb128 0x3
 1634 005f 55010000 		.4byte	.LASF7
 1635 0063 03       		.byte	0x3
 1636 0064 41       		.byte	0x41
 1637 0065 69000000 		.4byte	0x69
 1638 0069 02       		.uleb128 0x2
 1639 006a 04       		.byte	0x4
 1640 006b 07       		.byte	0x7
 1641 006c 80040000 		.4byte	.LASF8
 1642 0070 02       		.uleb128 0x2
 1643 0071 08       		.byte	0x8
 1644 0072 05       		.byte	0x5
 1645 0073 7B020000 		.4byte	.LASF9
 1646 0077 02       		.uleb128 0x2
 1647 0078 08       		.byte	0x8
 1648 0079 07       		.byte	0x7
 1649 007a 16040000 		.4byte	.LASF10
 1650 007e 04       		.uleb128 0x4
 1651 007f 04       		.byte	0x4
 1652 0080 05       		.byte	0x5
 1653 0081 696E7400 		.ascii	"int\000"
 1654 0085 02       		.uleb128 0x2
 1655 0086 04       		.byte	0x4
 1656 0087 07       		.byte	0x7
 1657 0088 68040000 		.4byte	.LASF11
 1658 008c 03       		.uleb128 0x3
 1659 008d ED060000 		.4byte	.LASF12
 1660 0091 04       		.byte	0x4
 1661 0092 18       		.byte	0x18
 1662 0093 2C000000 		.4byte	0x2c
 1663 0097 03       		.uleb128 0x3
 1664 0098 29050000 		.4byte	.LASF13
 1665 009c 04       		.byte	0x4
 1666 009d 2C       		.byte	0x2c
 1667 009e 4C000000 		.4byte	0x4c
 1668 00a2 03       		.uleb128 0x3
 1669 00a3 46040000 		.4byte	.LASF14
 1670 00a7 04       		.byte	0x4
 1671 00a8 30       		.byte	0x30
 1672 00a9 5E000000 		.4byte	0x5e
 1673 00ad 03       		.uleb128 0x3
 1674 00ae B2000000 		.4byte	.LASF15
 1675 00b2 05       		.byte	0x5
 1676 00b3 D8       		.byte	0xd8
 1677 00b4 85000000 		.4byte	0x85
 1678 00b8 02       		.uleb128 0x2
 1679 00b9 08       		.byte	0x8
 1680 00ba 04       		.byte	0x4
 1681 00bb 68030000 		.4byte	.LASF16
 1682 00bf 02       		.uleb128 0x2
 1683 00c0 04       		.byte	0x4
 1684 00c1 07       		.byte	0x7
 1685 00c2 D6000000 		.4byte	.LASF17
ARM GAS  C:\Users\samue\AppData\Local\Temp\cc6oSIFr.s 			page 59


 1686 00c6 05       		.uleb128 0x5
 1687 00c7 04       		.byte	0x4
 1688 00c8 02       		.uleb128 0x2
 1689 00c9 01       		.byte	0x1
 1690 00ca 08       		.byte	0x8
 1691 00cb 0D050000 		.4byte	.LASF18
 1692 00cf 02       		.uleb128 0x2
 1693 00d0 04       		.byte	0x4
 1694 00d1 04       		.byte	0x4
 1695 00d2 43020000 		.4byte	.LASF19
 1696 00d6 02       		.uleb128 0x2
 1697 00d7 08       		.byte	0x8
 1698 00d8 04       		.byte	0x4
 1699 00d9 B7040000 		.4byte	.LASF20
 1700 00dd 03       		.uleb128 0x3
 1701 00de 75040000 		.4byte	.LASF21
 1702 00e2 02       		.byte	0x2
 1703 00e3 38       		.byte	0x38
 1704 00e4 57000000 		.4byte	0x57
 1705 00e8 03       		.uleb128 0x3
 1706 00e9 0F060000 		.4byte	.LASF22
 1707 00ed 02       		.byte	0x2
 1708 00ee 39       		.byte	0x39
 1709 00ef 69000000 		.4byte	0x69
 1710 00f3 03       		.uleb128 0x3
 1711 00f4 AC040000 		.4byte	.LASF23
 1712 00f8 02       		.byte	0x2
 1713 00f9 3F       		.byte	0x3f
 1714 00fa A2000000 		.4byte	0xa2
 1715 00fe 06       		.uleb128 0x6
 1716 00ff 04       		.byte	0x4
 1717 0100 8C000000 		.4byte	0x8c
 1718 0104 03       		.uleb128 0x3
 1719 0105 F6000000 		.4byte	.LASF24
 1720 0109 06       		.byte	0x6
 1721 010a 3D       		.byte	0x3d
 1722 010b C6000000 		.4byte	0xc6
 1723 010f 07       		.uleb128 0x7
 1724 0110 01       		.byte	0x1
 1725 0111 37000000 		.4byte	0x37
 1726 0115 06       		.byte	0x6
 1727 0116 52       		.byte	0x52
 1728 0117 3A010000 		.4byte	0x13a
 1729 011b 08       		.uleb128 0x8
 1730 011c 32000000 		.4byte	.LASF25
 1731 0120 00       		.byte	0
 1732 0121 08       		.uleb128 0x8
 1733 0122 2C020000 		.4byte	.LASF26
 1734 0126 01       		.byte	0x1
 1735 0127 08       		.uleb128 0x8
 1736 0128 66080000 		.4byte	.LASF27
 1737 012c 02       		.byte	0x2
 1738 012d 08       		.uleb128 0x8
 1739 012e 12050000 		.4byte	.LASF28
 1740 0132 03       		.byte	0x3
 1741 0133 08       		.uleb128 0x8
 1742 0134 8B060000 		.4byte	.LASF29
ARM GAS  C:\Users\samue\AppData\Local\Temp\cc6oSIFr.s 			page 60


 1743 0138 04       		.byte	0x4
 1744 0139 00       		.byte	0
 1745 013a 09       		.uleb128 0x9
 1746 013b 7F000000 		.4byte	.LASF34
 1747 013f 08       		.byte	0x8
 1748 0140 06       		.byte	0x6
 1749 0141 5D       		.byte	0x5d
 1750 0142 5F010000 		.4byte	0x15f
 1751 0146 0A       		.uleb128 0xa
 1752 0147 AB030000 		.4byte	.LASF30
 1753 014b 06       		.byte	0x6
 1754 014c 5F       		.byte	0x5f
 1755 014d DD000000 		.4byte	0xdd
 1756 0151 00       		.byte	0
 1757 0152 0A       		.uleb128 0xa
 1758 0153 8A030000 		.4byte	.LASF31
 1759 0157 06       		.byte	0x6
 1760 0158 60       		.byte	0x60
 1761 0159 F3000000 		.4byte	0xf3
 1762 015d 04       		.byte	0x4
 1763 015e 00       		.byte	0
 1764 015f 03       		.uleb128 0x3
 1765 0160 9E000000 		.4byte	.LASF32
 1766 0164 06       		.byte	0x6
 1767 0165 61       		.byte	0x61
 1768 0166 3A010000 		.4byte	0x13a
 1769 016a 03       		.uleb128 0x3
 1770 016b D8060000 		.4byte	.LASF33
 1771 016f 07       		.byte	0x7
 1772 0170 40       		.byte	0x40
 1773 0171 C6000000 		.4byte	0xc6
 1774 0175 09       		.uleb128 0x9
 1775 0176 8D050000 		.4byte	.LASF35
 1776 017a 24       		.byte	0x24
 1777 017b 01       		.byte	0x1
 1778 017c 8D       		.byte	0x8d
 1779 017d EE010000 		.4byte	0x1ee
 1780 0181 0A       		.uleb128 0xa
 1781 0182 31060000 		.4byte	.LASF36
 1782 0186 01       		.byte	0x1
 1783 0187 8F       		.byte	0x8f
 1784 0188 EE010000 		.4byte	0x1ee
 1785 018c 00       		.byte	0
 1786 018d 0A       		.uleb128 0xa
 1787 018e 38070000 		.4byte	.LASF37
 1788 0192 01       		.byte	0x1
 1789 0193 90       		.byte	0x90
 1790 0194 EE010000 		.4byte	0x1ee
 1791 0198 04       		.byte	0x4
 1792 0199 0A       		.uleb128 0xa
 1793 019a 74030000 		.4byte	.LASF38
 1794 019e 01       		.byte	0x1
 1795 019f 91       		.byte	0x91
 1796 01a0 AD000000 		.4byte	0xad
 1797 01a4 08       		.byte	0x8
 1798 01a5 0A       		.uleb128 0xa
 1799 01a6 7A050000 		.4byte	.LASF39
ARM GAS  C:\Users\samue\AppData\Local\Temp\cc6oSIFr.s 			page 61


 1800 01aa 01       		.byte	0x1
 1801 01ab 92       		.byte	0x92
 1802 01ac AD000000 		.4byte	0xad
 1803 01b0 0C       		.byte	0xc
 1804 01b1 0A       		.uleb128 0xa
 1805 01b2 D7030000 		.4byte	.LASF40
 1806 01b6 01       		.byte	0x1
 1807 01b7 93       		.byte	0x93
 1808 01b8 F3010000 		.4byte	0x1f3
 1809 01bc 10       		.byte	0x10
 1810 01bd 0A       		.uleb128 0xa
 1811 01be C5060000 		.4byte	.LASF41
 1812 01c2 01       		.byte	0x1
 1813 01c3 94       		.byte	0x94
 1814 01c4 F3010000 		.4byte	0x1f3
 1815 01c8 14       		.byte	0x14
 1816 01c9 0A       		.uleb128 0xa
 1817 01ca 71010000 		.4byte	.LASF42
 1818 01ce 01       		.byte	0x1
 1819 01cf 95       		.byte	0x95
 1820 01d0 FE000000 		.4byte	0xfe
 1821 01d4 18       		.byte	0x18
 1822 01d5 0A       		.uleb128 0xa
 1823 01d6 92040000 		.4byte	.LASF43
 1824 01da 01       		.byte	0x1
 1825 01db 96       		.byte	0x96
 1826 01dc 8C000000 		.4byte	0x8c
 1827 01e0 1C       		.byte	0x1c
 1828 01e1 0A       		.uleb128 0xa
 1829 01e2 42050000 		.4byte	.LASF44
 1830 01e6 01       		.byte	0x1
 1831 01e7 99       		.byte	0x99
 1832 01e8 E8000000 		.4byte	0xe8
 1833 01ec 20       		.byte	0x20
 1834 01ed 00       		.byte	0
 1835 01ee 0B       		.uleb128 0xb
 1836 01ef AD000000 		.4byte	0xad
 1837 01f3 0B       		.uleb128 0xb
 1838 01f4 04010000 		.4byte	0x104
 1839 01f8 03       		.uleb128 0x3
 1840 01f9 71080000 		.4byte	.LASF45
 1841 01fd 01       		.byte	0x1
 1842 01fe 9B       		.byte	0x9b
 1843 01ff 75010000 		.4byte	0x175
 1844 0203 0C       		.uleb128 0xc
 1845 0204 19020000 		.4byte	.LASF117
 1846 0208 02       		.byte	0x2
 1847 0209 CF       		.byte	0xcf
 1848 020a A2000000 		.4byte	0xa2
 1849 020e 03       		.byte	0x3
 1850 020f 2A020000 		.4byte	0x22a
 1851 0213 0D       		.uleb128 0xd
 1852 0214 20000000 		.4byte	.LASF46
 1853 0218 02       		.byte	0x2
 1854 0219 D1       		.byte	0xd1
 1855 021a A2000000 		.4byte	0xa2
 1856 021e 0D       		.uleb128 0xd
ARM GAS  C:\Users\samue\AppData\Local\Temp\cc6oSIFr.s 			page 62


 1857 021f 57000000 		.4byte	.LASF47
 1858 0223 02       		.byte	0x2
 1859 0224 D1       		.byte	0xd1
 1860 0225 A2000000 		.4byte	0xa2
 1861 0229 00       		.byte	0
 1862 022a 0E       		.uleb128 0xe
 1863 022b FD040000 		.4byte	.LASF118
 1864 022f 02       		.byte	0x2
 1865 0230 E3       		.byte	0xe3
 1866 0231 03       		.byte	0x3
 1867 0232 42020000 		.4byte	0x242
 1868 0236 0F       		.uleb128 0xf
 1869 0237 59060000 		.4byte	.LASF119
 1870 023b 02       		.byte	0x2
 1871 023c E3       		.byte	0xe3
 1872 023d A2000000 		.4byte	0xa2
 1873 0241 00       		.byte	0
 1874 0242 10       		.uleb128 0x10
 1875 0243 69050000 		.4byte	.LASF51
 1876 0247 01       		.byte	0x1
 1877 0248 6104     		.2byte	0x461
 1878 024a AD000000 		.4byte	0xad
 1879 024e 00000000 		.4byte	.LFB86
 1880 0252 12000000 		.4byte	.LFE86-.LFB86
 1881 0256 01       		.uleb128 0x1
 1882 0257 9C       		.byte	0x9c
 1883 0258 7D020000 		.4byte	0x27d
 1884 025c 11       		.uleb128 0x11
 1885 025d 2D030000 		.4byte	.LASF48
 1886 0261 01       		.byte	0x1
 1887 0262 6104     		.2byte	0x461
 1888 0264 88020000 		.4byte	0x288
 1889 0268 00000000 		.4byte	.LLST0
 1890 026c 12       		.uleb128 0x12
 1891 026d 64000000 		.4byte	.LASF54
 1892 0271 01       		.byte	0x1
 1893 0272 6404     		.2byte	0x464
 1894 0274 AD000000 		.4byte	0xad
 1895 0278 21000000 		.4byte	.LLST1
 1896 027c 00       		.byte	0
 1897 027d 06       		.uleb128 0x6
 1898 027e 04       		.byte	0x4
 1899 027f 83020000 		.4byte	0x283
 1900 0283 13       		.uleb128 0x13
 1901 0284 F8010000 		.4byte	0x1f8
 1902 0288 13       		.uleb128 0x13
 1903 0289 7D020000 		.4byte	0x27d
 1904 028d 14       		.uleb128 0x14
 1905 028e B9000000 		.4byte	.LASF120
 1906 0292 01       		.byte	0x1
 1907 0293 7504     		.2byte	0x475
 1908 0295 00000000 		.4byte	.LFB87
 1909 0299 26000000 		.4byte	.LFE87-.LFB87
 1910 029d 01       		.uleb128 0x1
 1911 029e 9C       		.byte	0x9c
 1912 029f 0E030000 		.4byte	0x30e
 1913 02a3 11       		.uleb128 0x11
ARM GAS  C:\Users\samue\AppData\Local\Temp\cc6oSIFr.s 			page 63


 1914 02a4 2D030000 		.4byte	.LASF48
 1915 02a8 01       		.byte	0x1
 1916 02a9 7504     		.2byte	0x475
 1917 02ab 14030000 		.4byte	0x314
 1918 02af 3F000000 		.4byte	.LLST2
 1919 02b3 11       		.uleb128 0x11
 1920 02b4 71010000 		.4byte	.LASF42
 1921 02b8 01       		.byte	0x1
 1922 02b9 7604     		.2byte	0x476
 1923 02bb 19030000 		.4byte	0x319
 1924 02bf 5D000000 		.4byte	.LLST3
 1925 02c3 11       		.uleb128 0x11
 1926 02c4 9A030000 		.4byte	.LASF49
 1927 02c8 01       		.byte	0x1
 1928 02c9 7704     		.2byte	0x477
 1929 02cb AD000000 		.4byte	0xad
 1930 02cf 7B000000 		.4byte	.LLST4
 1931 02d3 11       		.uleb128 0x11
 1932 02d4 7A050000 		.4byte	.LASF39
 1933 02d8 01       		.byte	0x1
 1934 02d9 7804     		.2byte	0x478
 1935 02db AD000000 		.4byte	0xad
 1936 02df 99000000 		.4byte	.LLST5
 1937 02e3 15       		.uleb128 0x15
 1938 02e4 31050000 		.4byte	.LASF50
 1939 02e8 01       		.byte	0x1
 1940 02e9 7904     		.2byte	0x479
 1941 02eb DD000000 		.4byte	0xdd
 1942 02ef 02       		.uleb128 0x2
 1943 02f0 91       		.byte	0x91
 1944 02f1 00       		.sleb128 0
 1945 02f2 16       		.uleb128 0x16
 1946 02f3 12000000 		.4byte	.LVL8
 1947 02f7 8B110000 		.4byte	0x118b
 1948 02fb 17       		.uleb128 0x17
 1949 02fc 01       		.uleb128 0x1
 1950 02fd 50       		.byte	0x50
 1951 02fe 02       		.uleb128 0x2
 1952 02ff 74       		.byte	0x74
 1953 0300 00       		.sleb128 0
 1954 0301 17       		.uleb128 0x17
 1955 0302 01       		.uleb128 0x1
 1956 0303 51       		.byte	0x51
 1957 0304 01       		.uleb128 0x1
 1958 0305 30       		.byte	0x30
 1959 0306 17       		.uleb128 0x17
 1960 0307 01       		.uleb128 0x1
 1961 0308 52       		.byte	0x52
 1962 0309 02       		.uleb128 0x2
 1963 030a 08       		.byte	0x8
 1964 030b 24       		.byte	0x24
 1965 030c 00       		.byte	0
 1966 030d 00       		.byte	0
 1967 030e 06       		.uleb128 0x6
 1968 030f 04       		.byte	0x4
 1969 0310 F8010000 		.4byte	0x1f8
 1970 0314 13       		.uleb128 0x13
ARM GAS  C:\Users\samue\AppData\Local\Temp\cc6oSIFr.s 			page 64


 1971 0315 0E030000 		.4byte	0x30e
 1972 0319 13       		.uleb128 0x13
 1973 031a FE000000 		.4byte	0xfe
 1974 031e 10       		.uleb128 0x10
 1975 031f 1B060000 		.4byte	.LASF52
 1976 0323 01       		.byte	0x1
 1977 0324 FC03     		.2byte	0x3fc
 1978 0326 AD000000 		.4byte	0xad
 1979 032a 00000000 		.4byte	.LFB84
 1980 032e 42000000 		.4byte	.LFE84-.LFB84
 1981 0332 01       		.uleb128 0x1
 1982 0333 9C       		.byte	0x9c
 1983 0334 BD030000 		.4byte	0x3bd
 1984 0338 11       		.uleb128 0x11
 1985 0339 2D030000 		.4byte	.LASF48
 1986 033d 01       		.byte	0x1
 1987 033e FC03     		.2byte	0x3fc
 1988 0340 14030000 		.4byte	0x314
 1989 0344 B7000000 		.4byte	.LLST6
 1990 0348 11       		.uleb128 0x11
 1991 0349 1C080000 		.4byte	.LASF53
 1992 034d 01       		.byte	0x1
 1993 034e FC03     		.2byte	0x3fc
 1994 0350 BD030000 		.4byte	0x3bd
 1995 0354 D5000000 		.4byte	.LLST7
 1996 0358 11       		.uleb128 0x11
 1997 0359 64000000 		.4byte	.LASF54
 1998 035d 01       		.byte	0x1
 1999 035e FC03     		.2byte	0x3fc
 2000 0360 AD000000 		.4byte	0xad
 2001 0364 F3000000 		.4byte	.LLST8
 2002 0368 12       		.uleb128 0x12
 2003 0369 4B010000 		.4byte	.LASF55
 2004 036d 01       		.byte	0x1
 2005 036e FE03     		.2byte	0x3fe
 2006 0370 AD000000 		.4byte	0xad
 2007 0374 11010000 		.4byte	.LLST9
 2008 0378 18       		.uleb128 0x18
 2009 0379 AD010000 		.4byte	.LASF56
 2010 037d 01       		.byte	0x1
 2011 037e FE03     		.2byte	0x3fe
 2012 0380 AD000000 		.4byte	0xad
 2013 0384 01       		.uleb128 0x1
 2014 0385 55       		.byte	0x55
 2015 0386 19       		.uleb128 0x19
 2016 0387 20000000 		.4byte	.LVL14
 2017 038b 94110000 		.4byte	0x1194
 2018 038f A0030000 		.4byte	0x3a0
 2019 0393 17       		.uleb128 0x17
 2020 0394 01       		.uleb128 0x1
 2021 0395 51       		.byte	0x51
 2022 0396 02       		.uleb128 0x2
 2023 0397 78       		.byte	0x78
 2024 0398 00       		.sleb128 0
 2025 0399 17       		.uleb128 0x17
 2026 039a 01       		.uleb128 0x1
 2027 039b 52       		.byte	0x52
ARM GAS  C:\Users\samue\AppData\Local\Temp\cc6oSIFr.s 			page 65


 2028 039c 02       		.uleb128 0x2
 2029 039d 75       		.byte	0x75
 2030 039e 00       		.sleb128 0
 2031 039f 00       		.byte	0
 2032 03a0 16       		.uleb128 0x16
 2033 03a1 30000000 		.4byte	.LVL15
 2034 03a5 94110000 		.4byte	0x1194
 2035 03a9 17       		.uleb128 0x17
 2036 03aa 01       		.uleb128 0x1
 2037 03ab 51       		.byte	0x51
 2038 03ac 05       		.uleb128 0x5
 2039 03ad 78       		.byte	0x78
 2040 03ae 00       		.sleb128 0
 2041 03af 75       		.byte	0x75
 2042 03b0 00       		.sleb128 0
 2043 03b1 22       		.byte	0x22
 2044 03b2 17       		.uleb128 0x17
 2045 03b3 01       		.uleb128 0x1
 2046 03b4 52       		.byte	0x52
 2047 03b5 05       		.uleb128 0x5
 2048 03b6 77       		.byte	0x77
 2049 03b7 00       		.sleb128 0
 2050 03b8 75       		.byte	0x75
 2051 03b9 00       		.sleb128 0
 2052 03ba 1C       		.byte	0x1c
 2053 03bb 00       		.byte	0
 2054 03bc 00       		.byte	0
 2055 03bd 06       		.uleb128 0x6
 2056 03be 04       		.byte	0x4
 2057 03bf C3030000 		.4byte	0x3c3
 2058 03c3 13       		.uleb128 0x13
 2059 03c4 8C000000 		.4byte	0x8c
 2060 03c8 10       		.uleb128 0x10
 2061 03c9 95010000 		.4byte	.LASF57
 2062 03cd 01       		.byte	0x1
 2063 03ce 7F02     		.2byte	0x27f
 2064 03d0 AD000000 		.4byte	0xad
 2065 03d4 00000000 		.4byte	.LFB76
 2066 03d8 52000000 		.4byte	.LFE76-.LFB76
 2067 03dc 01       		.uleb128 0x1
 2068 03dd 9C       		.byte	0x9c
 2069 03de 81040000 		.4byte	0x481
 2070 03e2 11       		.uleb128 0x11
 2071 03e3 2D030000 		.4byte	.LASF48
 2072 03e7 01       		.byte	0x1
 2073 03e8 7F02     		.2byte	0x27f
 2074 03ea 14030000 		.4byte	0x314
 2075 03ee 2F010000 		.4byte	.LLST10
 2076 03f2 11       		.uleb128 0x11
 2077 03f3 40080000 		.4byte	.LASF58
 2078 03f7 01       		.byte	0x1
 2079 03f8 8002     		.2byte	0x280
 2080 03fa 81040000 		.4byte	0x481
 2081 03fe 63010000 		.4byte	.LLST11
 2082 0402 11       		.uleb128 0x11
 2083 0403 60010000 		.4byte	.LASF59
 2084 0407 01       		.byte	0x1
ARM GAS  C:\Users\samue\AppData\Local\Temp\cc6oSIFr.s 			page 66


 2085 0408 8102     		.2byte	0x281
 2086 040a AD000000 		.4byte	0xad
 2087 040e 97010000 		.4byte	.LLST12
 2088 0412 11       		.uleb128 0x11
 2089 0413 9C050000 		.4byte	.LASF60
 2090 0417 01       		.byte	0x1
 2091 0418 8202     		.2byte	0x282
 2092 041a AD000000 		.4byte	0xad
 2093 041e F2010000 		.4byte	.LLST13
 2094 0422 15       		.uleb128 0x15
 2095 0423 89020000 		.4byte	.LASF61
 2096 0427 01       		.byte	0x1
 2097 0428 8302     		.2byte	0x283
 2098 042a AD000000 		.4byte	0xad
 2099 042e 02       		.uleb128 0x2
 2100 042f 91       		.byte	0x91
 2101 0430 00       		.sleb128 0
 2102 0431 12       		.uleb128 0x12
 2103 0432 00000000 		.4byte	.LASF62
 2104 0436 01       		.byte	0x1
 2105 0437 8502     		.2byte	0x285
 2106 0439 DD000000 		.4byte	0xdd
 2107 043d 69020000 		.4byte	.LLST14
 2108 0441 12       		.uleb128 0x12
 2109 0442 0C070000 		.4byte	.LASF63
 2110 0446 01       		.byte	0x1
 2111 0447 8602     		.2byte	0x286
 2112 0449 AD000000 		.4byte	0xad
 2113 044d 9F020000 		.4byte	.LLST15
 2114 0451 19       		.uleb128 0x19
 2115 0452 34000000 		.4byte	.LVL29
 2116 0456 1E030000 		.4byte	0x31e
 2117 045a 6A040000 		.4byte	0x46a
 2118 045e 17       		.uleb128 0x17
 2119 045f 01       		.uleb128 0x1
 2120 0460 51       		.byte	0x51
 2121 0461 02       		.uleb128 0x2
 2122 0462 91       		.byte	0x91
 2123 0463 6C       		.sleb128 -20
 2124 0464 17       		.uleb128 0x17
 2125 0465 01       		.uleb128 0x1
 2126 0466 52       		.byte	0x52
 2127 0467 01       		.uleb128 0x1
 2128 0468 34       		.byte	0x34
 2129 0469 00       		.byte	0
 2130 046a 16       		.uleb128 0x16
 2131 046b 4A000000 		.4byte	.LVL34
 2132 046f 1E030000 		.4byte	0x31e
 2133 0473 17       		.uleb128 0x17
 2134 0474 01       		.uleb128 0x1
 2135 0475 50       		.byte	0x50
 2136 0476 02       		.uleb128 0x2
 2137 0477 74       		.byte	0x74
 2138 0478 00       		.sleb128 0
 2139 0479 17       		.uleb128 0x17
 2140 047a 01       		.uleb128 0x1
 2141 047b 51       		.byte	0x51
ARM GAS  C:\Users\samue\AppData\Local\Temp\cc6oSIFr.s 			page 67


 2142 047c 02       		.uleb128 0x2
 2143 047d 75       		.byte	0x75
 2144 047e 00       		.sleb128 0
 2145 047f 00       		.byte	0
 2146 0480 00       		.byte	0
 2147 0481 06       		.uleb128 0x6
 2148 0482 04       		.byte	0x4
 2149 0483 87040000 		.4byte	0x487
 2150 0487 1A       		.uleb128 0x1a
 2151 0488 10       		.uleb128 0x10
 2152 0489 DF000000 		.4byte	.LASF64
 2153 048d 01       		.byte	0x1
 2154 048e 2A04     		.2byte	0x42a
 2155 0490 AD000000 		.4byte	0xad
 2156 0494 00000000 		.4byte	.LFB85
 2157 0498 4C000000 		.4byte	.LFE85-.LFB85
 2158 049c 01       		.uleb128 0x1
 2159 049d 9C       		.byte	0x9c
 2160 049e 49050000 		.4byte	0x549
 2161 04a2 11       		.uleb128 0x11
 2162 04a3 2D030000 		.4byte	.LASF48
 2163 04a7 01       		.byte	0x1
 2164 04a8 2A04     		.2byte	0x42a
 2165 04aa 0E030000 		.4byte	0x30e
 2166 04ae BD020000 		.4byte	.LLST16
 2167 04b2 11       		.uleb128 0x11
 2168 04b3 1C080000 		.4byte	.LASF53
 2169 04b7 01       		.byte	0x1
 2170 04b8 2A04     		.2byte	0x42a
 2171 04ba FE000000 		.4byte	0xfe
 2172 04be E9020000 		.4byte	.LLST17
 2173 04c2 11       		.uleb128 0x11
 2174 04c3 0F020000 		.4byte	.LASF65
 2175 04c7 01       		.byte	0x1
 2176 04c8 2A04     		.2byte	0x42a
 2177 04ca AD000000 		.4byte	0xad
 2178 04ce 15030000 		.4byte	.LLST18
 2179 04d2 11       		.uleb128 0x11
 2180 04d3 28010000 		.4byte	.LASF66
 2181 04d7 01       		.byte	0x1
 2182 04d8 2A04     		.2byte	0x42a
 2183 04da AD000000 		.4byte	0xad
 2184 04de 36030000 		.4byte	.LLST19
 2185 04e2 12       		.uleb128 0x12
 2186 04e3 64000000 		.4byte	.LASF54
 2187 04e7 01       		.byte	0x1
 2188 04e8 2C04     		.2byte	0x42c
 2189 04ea AD000000 		.4byte	0xad
 2190 04ee 57030000 		.4byte	.LLST20
 2191 04f2 12       		.uleb128 0x12
 2192 04f3 AD010000 		.4byte	.LASF56
 2193 04f7 01       		.byte	0x1
 2194 04f8 2C04     		.2byte	0x42c
 2195 04fa AD000000 		.4byte	0xad
 2196 04fe 75030000 		.4byte	.LLST21
 2197 0502 12       		.uleb128 0x12
 2198 0503 2E070000 		.4byte	.LASF67
ARM GAS  C:\Users\samue\AppData\Local\Temp\cc6oSIFr.s 			page 68


 2199 0507 01       		.byte	0x1
 2200 0508 2C04     		.2byte	0x42c
 2201 050a AD000000 		.4byte	0xad
 2202 050e 88030000 		.4byte	.LLST22
 2203 0512 19       		.uleb128 0x19
 2204 0513 2A000000 		.4byte	.LVL45
 2205 0517 94110000 		.4byte	0x1194
 2206 051b 2C050000 		.4byte	0x52c
 2207 051f 17       		.uleb128 0x17
 2208 0520 01       		.uleb128 0x1
 2209 0521 50       		.byte	0x50
 2210 0522 02       		.uleb128 0x2
 2211 0523 78       		.byte	0x78
 2212 0524 00       		.sleb128 0
 2213 0525 17       		.uleb128 0x17
 2214 0526 01       		.uleb128 0x1
 2215 0527 52       		.byte	0x52
 2216 0528 02       		.uleb128 0x2
 2217 0529 77       		.byte	0x77
 2218 052a 00       		.sleb128 0
 2219 052b 00       		.byte	0
 2220 052c 16       		.uleb128 0x16
 2221 052d 3A000000 		.4byte	.LVL46
 2222 0531 94110000 		.4byte	0x1194
 2223 0535 17       		.uleb128 0x17
 2224 0536 01       		.uleb128 0x1
 2225 0537 50       		.byte	0x50
 2226 0538 05       		.uleb128 0x5
 2227 0539 78       		.byte	0x78
 2228 053a 00       		.sleb128 0
 2229 053b 77       		.byte	0x77
 2230 053c 00       		.sleb128 0
 2231 053d 22       		.byte	0x22
 2232 053e 17       		.uleb128 0x17
 2233 053f 01       		.uleb128 0x1
 2234 0540 52       		.byte	0x52
 2235 0541 05       		.uleb128 0x5
 2236 0542 74       		.byte	0x74
 2237 0543 00       		.sleb128 0
 2238 0544 77       		.byte	0x77
 2239 0545 00       		.sleb128 0
 2240 0546 1C       		.byte	0x1c
 2241 0547 00       		.byte	0
 2242 0548 00       		.byte	0
 2243 0549 10       		.uleb128 0x10
 2244 054a 2D040000 		.4byte	.LASF68
 2245 054e 01       		.byte	0x1
 2246 054f 5403     		.2byte	0x354
 2247 0551 AD000000 		.4byte	0xad
 2248 0555 00000000 		.4byte	.LFB79
 2249 0559 44000000 		.4byte	.LFE79-.LFB79
 2250 055d 01       		.uleb128 0x1
 2251 055e 9C       		.byte	0x9c
 2252 055f 22060000 		.4byte	0x622
 2253 0563 11       		.uleb128 0x11
 2254 0564 2D030000 		.4byte	.LASF48
 2255 0568 01       		.byte	0x1
ARM GAS  C:\Users\samue\AppData\Local\Temp\cc6oSIFr.s 			page 69


 2256 0569 5403     		.2byte	0x354
 2257 056b 0E030000 		.4byte	0x30e
 2258 056f 9B030000 		.4byte	.LLST23
 2259 0573 11       		.uleb128 0x11
 2260 0574 5F030000 		.4byte	.LASF69
 2261 0578 01       		.byte	0x1
 2262 0579 5503     		.2byte	0x355
 2263 057b C6000000 		.4byte	0xc6
 2264 057f CF030000 		.4byte	.LLST24
 2265 0583 11       		.uleb128 0x11
 2266 0584 0D000000 		.4byte	.LASF70
 2267 0588 01       		.byte	0x1
 2268 0589 5603     		.2byte	0x356
 2269 058b AD000000 		.4byte	0xad
 2270 058f 03040000 		.4byte	.LLST25
 2271 0593 11       		.uleb128 0x11
 2272 0594 28010000 		.4byte	.LASF66
 2273 0598 01       		.byte	0x1
 2274 0599 5703     		.2byte	0x357
 2275 059b AD000000 		.4byte	0xad
 2276 059f 37040000 		.4byte	.LLST26
 2277 05a3 15       		.uleb128 0x15
 2278 05a4 3E070000 		.4byte	.LASF71
 2279 05a8 01       		.byte	0x1
 2280 05a9 5803     		.2byte	0x358
 2281 05ab AD000000 		.4byte	0xad
 2282 05af 02       		.uleb128 0x2
 2283 05b0 91       		.byte	0x91
 2284 05b1 00       		.sleb128 0
 2285 05b2 12       		.uleb128 0x12
 2286 05b3 59070000 		.4byte	.LASF72
 2287 05b7 01       		.byte	0x1
 2288 05b8 5A03     		.2byte	0x35a
 2289 05ba AD000000 		.4byte	0xad
 2290 05be 6B040000 		.4byte	.LLST27
 2291 05c2 18       		.uleb128 0x18
 2292 05c3 FF010000 		.4byte	.LASF73
 2293 05c7 01       		.byte	0x1
 2294 05c8 5A03     		.2byte	0x35a
 2295 05ca AD000000 		.4byte	0xad
 2296 05ce 01       		.uleb128 0x1
 2297 05cf 50       		.byte	0x50
 2298 05d0 18       		.uleb128 0x18
 2299 05d1 38010000 		.4byte	.LASF74
 2300 05d5 01       		.byte	0x1
 2301 05d6 5A03     		.2byte	0x35a
 2302 05d8 AD000000 		.4byte	0xad
 2303 05dc 02       		.uleb128 0x2
 2304 05dd 91       		.byte	0x91
 2305 05de 5C       		.sleb128 -36
 2306 05df 19       		.uleb128 0x19
 2307 05e0 1E000000 		.4byte	.LVL54
 2308 05e4 88040000 		.4byte	0x488
 2309 05e8 05060000 		.4byte	0x605
 2310 05ec 17       		.uleb128 0x17
 2311 05ed 01       		.uleb128 0x1
 2312 05ee 50       		.byte	0x50
ARM GAS  C:\Users\samue\AppData\Local\Temp\cc6oSIFr.s 			page 70


 2313 05ef 02       		.uleb128 0x2
 2314 05f0 75       		.byte	0x75
 2315 05f1 00       		.sleb128 0
 2316 05f2 17       		.uleb128 0x17
 2317 05f3 01       		.uleb128 0x1
 2318 05f4 51       		.byte	0x51
 2319 05f5 02       		.uleb128 0x2
 2320 05f6 91       		.byte	0x91
 2321 05f7 5C       		.sleb128 -36
 2322 05f8 17       		.uleb128 0x17
 2323 05f9 01       		.uleb128 0x1
 2324 05fa 52       		.byte	0x52
 2325 05fb 02       		.uleb128 0x2
 2326 05fc 76       		.byte	0x76
 2327 05fd 00       		.sleb128 0
 2328 05fe 17       		.uleb128 0x17
 2329 05ff 01       		.uleb128 0x1
 2330 0600 53       		.byte	0x53
 2331 0601 02       		.uleb128 0x2
 2332 0602 74       		.byte	0x74
 2333 0603 00       		.sleb128 0
 2334 0604 00       		.byte	0
 2335 0605 16       		.uleb128 0x16
 2336 0606 3E000000 		.4byte	.LVL58
 2337 060a 88040000 		.4byte	0x488
 2338 060e 17       		.uleb128 0x17
 2339 060f 01       		.uleb128 0x1
 2340 0610 50       		.byte	0x50
 2341 0611 02       		.uleb128 0x2
 2342 0612 75       		.byte	0x75
 2343 0613 00       		.sleb128 0
 2344 0614 17       		.uleb128 0x17
 2345 0615 01       		.uleb128 0x1
 2346 0616 51       		.byte	0x51
 2347 0617 02       		.uleb128 0x2
 2348 0618 77       		.byte	0x77
 2349 0619 00       		.sleb128 0
 2350 061a 17       		.uleb128 0x17
 2351 061b 01       		.uleb128 0x1
 2352 061c 53       		.byte	0x53
 2353 061d 02       		.uleb128 0x2
 2354 061e 74       		.byte	0x74
 2355 061f 00       		.sleb128 0
 2356 0620 00       		.byte	0
 2357 0621 00       		.byte	0
 2358 0622 1B       		.uleb128 0x1b
 2359 0623 3C000000 		.4byte	.LASF77
 2360 0627 01       		.byte	0x1
 2361 0628 DB       		.byte	0xdb
 2362 0629 6A010000 		.4byte	0x16a
 2363 062d 00000000 		.4byte	.LFB68
 2364 0631 2C000000 		.4byte	.LFE68-.LFB68
 2365 0635 01       		.uleb128 0x1
 2366 0636 9C       		.byte	0x9c
 2367 0637 B5060000 		.4byte	0x6b5
 2368 063b 1C       		.uleb128 0x1c
 2369 063c 9A030000 		.4byte	.LASF49
ARM GAS  C:\Users\samue\AppData\Local\Temp\cc6oSIFr.s 			page 71


 2370 0640 01       		.byte	0x1
 2371 0641 DB       		.byte	0xdb
 2372 0642 AD000000 		.4byte	0xad
 2373 0646 7E040000 		.4byte	.LLST28
 2374 064a 1C       		.uleb128 0x1c
 2375 064b 7A050000 		.4byte	.LASF39
 2376 064f 01       		.byte	0x1
 2377 0650 DB       		.byte	0xdb
 2378 0651 AD000000 		.4byte	0xad
 2379 0655 9C040000 		.4byte	.LLST29
 2380 0659 1C       		.uleb128 0x1c
 2381 065a 31050000 		.4byte	.LASF50
 2382 065e 01       		.byte	0x1
 2383 065f DB       		.byte	0xdb
 2384 0660 DD000000 		.4byte	0xdd
 2385 0664 BA040000 		.4byte	.LLST30
 2386 0668 1D       		.uleb128 0x1d
 2387 0669 1A030000 		.4byte	.LASF75
 2388 066d 01       		.byte	0x1
 2389 066e DD       		.byte	0xdd
 2390 066f FE000000 		.4byte	0xfe
 2391 0673 D8040000 		.4byte	.LLST31
 2392 0677 19       		.uleb128 0x19
 2393 0678 14000000 		.4byte	.LVL62
 2394 067c 9D110000 		.4byte	0x119d
 2395 0680 8B060000 		.4byte	0x68b
 2396 0684 17       		.uleb128 0x17
 2397 0685 01       		.uleb128 0x1
 2398 0686 50       		.byte	0x50
 2399 0687 02       		.uleb128 0x2
 2400 0688 76       		.byte	0x76
 2401 0689 24       		.sleb128 36
 2402 068a 00       		.byte	0
 2403 068b 16       		.uleb128 0x16
 2404 068c 26000000 		.4byte	.LVL63
 2405 0690 8D020000 		.4byte	0x28d
 2406 0694 17       		.uleb128 0x17
 2407 0695 01       		.uleb128 0x1
 2408 0696 50       		.byte	0x50
 2409 0697 02       		.uleb128 0x2
 2410 0698 74       		.byte	0x74
 2411 0699 00       		.sleb128 0
 2412 069a 17       		.uleb128 0x17
 2413 069b 01       		.uleb128 0x1
 2414 069c 51       		.byte	0x51
 2415 069d 02       		.uleb128 0x2
 2416 069e 74       		.byte	0x74
 2417 069f 24       		.sleb128 36
 2418 06a0 17       		.uleb128 0x17
 2419 06a1 01       		.uleb128 0x1
 2420 06a2 52       		.byte	0x52
 2421 06a3 02       		.uleb128 0x2
 2422 06a4 76       		.byte	0x76
 2423 06a5 00       		.sleb128 0
 2424 06a6 17       		.uleb128 0x17
 2425 06a7 01       		.uleb128 0x1
 2426 06a8 53       		.byte	0x53
ARM GAS  C:\Users\samue\AppData\Local\Temp\cc6oSIFr.s 			page 72


 2427 06a9 02       		.uleb128 0x2
 2428 06aa 75       		.byte	0x75
 2429 06ab 00       		.sleb128 0
 2430 06ac 17       		.uleb128 0x17
 2431 06ad 02       		.uleb128 0x2
 2432 06ae 7D       		.byte	0x7d
 2433 06af 00       		.sleb128 0
 2434 06b0 02       		.uleb128 0x2
 2435 06b1 77       		.byte	0x77
 2436 06b2 00       		.sleb128 0
 2437 06b3 00       		.byte	0
 2438 06b4 00       		.byte	0
 2439 06b5 1E       		.uleb128 0x1e
 2440 06b6 6B000000 		.4byte	.LASF96
 2441 06ba 01       		.byte	0x1
 2442 06bb 4F01     		.2byte	0x14f
 2443 06bd 00000000 		.4byte	.LFB69
 2444 06c1 1A000000 		.4byte	.LFE69-.LFB69
 2445 06c5 01       		.uleb128 0x1
 2446 06c6 9C       		.byte	0x9c
 2447 06c7 16070000 		.4byte	0x716
 2448 06cb 11       		.uleb128 0x11
 2449 06cc 35020000 		.4byte	.LASF76
 2450 06d0 01       		.byte	0x1
 2451 06d1 4F01     		.2byte	0x14f
 2452 06d3 6A010000 		.4byte	0x16a
 2453 06d7 F6040000 		.4byte	.LLST32
 2454 06db 12       		.uleb128 0x12
 2455 06dc 2D030000 		.4byte	.LASF48
 2456 06e0 01       		.byte	0x1
 2457 06e1 5101     		.2byte	0x151
 2458 06e3 0E030000 		.4byte	0x30e
 2459 06e7 30050000 		.4byte	.LLST33
 2460 06eb 19       		.uleb128 0x19
 2461 06ec 0E000000 		.4byte	.LVL66
 2462 06f0 A8110000 		.4byte	0x11a8
 2463 06f4 00070000 		.4byte	0x700
 2464 06f8 17       		.uleb128 0x17
 2465 06f9 01       		.uleb128 0x1
 2466 06fa 50       		.byte	0x50
 2467 06fb 03       		.uleb128 0x3
 2468 06fc F3       		.byte	0xf3
 2469 06fd 01       		.uleb128 0x1
 2470 06fe 50       		.byte	0x50
 2471 06ff 00       		.byte	0
 2472 0700 16       		.uleb128 0x16
 2473 0701 18000000 		.4byte	.LVL68
 2474 0705 8B110000 		.4byte	0x118b
 2475 0709 17       		.uleb128 0x17
 2476 070a 01       		.uleb128 0x1
 2477 070b 51       		.byte	0x51
 2478 070c 01       		.uleb128 0x1
 2479 070d 30       		.byte	0x30
 2480 070e 17       		.uleb128 0x17
 2481 070f 01       		.uleb128 0x1
 2482 0710 52       		.byte	0x52
 2483 0711 02       		.uleb128 0x2
ARM GAS  C:\Users\samue\AppData\Local\Temp\cc6oSIFr.s 			page 73


 2484 0712 08       		.byte	0x8
 2485 0713 24       		.byte	0x24
 2486 0714 00       		.byte	0
 2487 0715 00       		.byte	0
 2488 0716 1F       		.uleb128 0x1f
 2489 0717 A3050000 		.4byte	.LASF78
 2490 071b 01       		.byte	0x1
 2491 071c 7001     		.2byte	0x170
 2492 071e DD000000 		.4byte	0xdd
 2493 0722 00000000 		.4byte	.LFB70
 2494 0726 3A000000 		.4byte	.LFE70-.LFB70
 2495 072a 01       		.uleb128 0x1
 2496 072b 9C       		.byte	0x9c
 2497 072c 8F070000 		.4byte	0x78f
 2498 0730 11       		.uleb128 0x11
 2499 0731 35020000 		.4byte	.LASF76
 2500 0735 01       		.byte	0x1
 2501 0736 7001     		.2byte	0x170
 2502 0738 6A010000 		.4byte	0x16a
 2503 073c 6A050000 		.4byte	.LLST34
 2504 0740 12       		.uleb128 0x12
 2505 0741 2D030000 		.4byte	.LASF48
 2506 0745 01       		.byte	0x1
 2507 0746 7201     		.2byte	0x172
 2508 0748 14030000 		.4byte	0x314
 2509 074c BA050000 		.4byte	.LLST35
 2510 0750 12       		.uleb128 0x12
 2511 0751 0C070000 		.4byte	.LASF63
 2512 0755 01       		.byte	0x1
 2513 0756 7301     		.2byte	0x173
 2514 0758 DD000000 		.4byte	0xdd
 2515 075c 0A060000 		.4byte	.LLST36
 2516 0760 12       		.uleb128 0x12
 2517 0761 31050000 		.4byte	.LASF50
 2518 0765 01       		.byte	0x1
 2519 0766 7301     		.2byte	0x173
 2520 0768 DD000000 		.4byte	0xdd
 2521 076c 41060000 		.4byte	.LLST37
 2522 0770 18       		.uleb128 0x18
 2523 0771 42050000 		.4byte	.LASF44
 2524 0775 01       		.byte	0x1
 2525 0776 7601     		.2byte	0x176
 2526 0778 E8000000 		.4byte	0xe8
 2527 077c 01       		.uleb128 0x1
 2528 077d 55       		.byte	0x55
 2529 077e 16       		.uleb128 0x16
 2530 077f 2A000000 		.4byte	.LVL74
 2531 0783 8D020000 		.4byte	0x28d
 2532 0787 17       		.uleb128 0x17
 2533 0788 01       		.uleb128 0x1
 2534 0789 50       		.byte	0x50
 2535 078a 02       		.uleb128 0x2
 2536 078b 74       		.byte	0x74
 2537 078c 00       		.sleb128 0
 2538 078d 00       		.byte	0
 2539 078e 00       		.byte	0
 2540 078f 1F       		.uleb128 0x1f
ARM GAS  C:\Users\samue\AppData\Local\Temp\cc6oSIFr.s 			page 74


 2541 0790 BA030000 		.4byte	.LASF79
 2542 0794 01       		.byte	0x1
 2543 0795 A601     		.2byte	0x1a6
 2544 0797 DD000000 		.4byte	0xdd
 2545 079b 00000000 		.4byte	.LFB71
 2546 079f 16000000 		.4byte	.LFE71-.LFB71
 2547 07a3 01       		.uleb128 0x1
 2548 07a4 9C       		.byte	0x9c
 2549 07a5 EA070000 		.4byte	0x7ea
 2550 07a9 11       		.uleb128 0x11
 2551 07aa 35020000 		.4byte	.LASF76
 2552 07ae 01       		.byte	0x1
 2553 07af A601     		.2byte	0x1a6
 2554 07b1 6A010000 		.4byte	0x16a
 2555 07b5 60060000 		.4byte	.LLST38
 2556 07b9 11       		.uleb128 0x11
 2557 07ba D8020000 		.4byte	.LASF80
 2558 07be 01       		.byte	0x1
 2559 07bf A601     		.2byte	0x1a6
 2560 07c1 AD000000 		.4byte	0xad
 2561 07c5 9A060000 		.4byte	.LLST39
 2562 07c9 12       		.uleb128 0x12
 2563 07ca 2D030000 		.4byte	.LASF48
 2564 07ce 01       		.byte	0x1
 2565 07cf A801     		.2byte	0x1a8
 2566 07d1 14030000 		.4byte	0x314
 2567 07d5 B8060000 		.4byte	.LLST40
 2568 07d9 12       		.uleb128 0x12
 2569 07da 0C070000 		.4byte	.LASF63
 2570 07de 01       		.byte	0x1
 2571 07df A901     		.2byte	0x1a9
 2572 07e1 DD000000 		.4byte	0xdd
 2573 07e5 F2060000 		.4byte	.LLST41
 2574 07e9 00       		.byte	0
 2575 07ea 1F       		.uleb128 0x1f
 2576 07eb F9030000 		.4byte	.LASF81
 2577 07ef 01       		.byte	0x1
 2578 07f0 C301     		.2byte	0x1c3
 2579 07f2 AD000000 		.4byte	0xad
 2580 07f6 00000000 		.4byte	.LFB72
 2581 07fa 14000000 		.4byte	.LFE72-.LFB72
 2582 07fe 01       		.uleb128 0x1
 2583 07ff 9C       		.byte	0x9c
 2584 0800 35080000 		.4byte	0x835
 2585 0804 11       		.uleb128 0x11
 2586 0805 35020000 		.4byte	.LASF76
 2587 0809 01       		.byte	0x1
 2588 080a C301     		.2byte	0x1c3
 2589 080c 6A010000 		.4byte	0x16a
 2590 0810 11070000 		.4byte	.LLST42
 2591 0814 12       		.uleb128 0x12
 2592 0815 2D030000 		.4byte	.LASF48
 2593 0819 01       		.byte	0x1
 2594 081a C501     		.2byte	0x1c5
 2595 081c 88020000 		.4byte	0x288
 2596 0820 32070000 		.4byte	.LLST43
 2597 0824 12       		.uleb128 0x12
ARM GAS  C:\Users\samue\AppData\Local\Temp\cc6oSIFr.s 			page 75


 2598 0825 9C050000 		.4byte	.LASF60
 2599 0829 01       		.byte	0x1
 2600 082a C601     		.2byte	0x1c6
 2601 082c AD000000 		.4byte	0xad
 2602 0830 53070000 		.4byte	.LLST44
 2603 0834 00       		.byte	0
 2604 0835 1F       		.uleb128 0x1f
 2605 0836 24080000 		.4byte	.LASF82
 2606 083a 01       		.byte	0x1
 2607 083b DB01     		.2byte	0x1db
 2608 083d AD000000 		.4byte	0xad
 2609 0841 00000000 		.4byte	.LFB73
 2610 0845 08000000 		.4byte	.LFE73-.LFB73
 2611 0849 01       		.uleb128 0x1
 2612 084a 9C       		.byte	0x9c
 2613 084b 8F080000 		.4byte	0x88f
 2614 084f 11       		.uleb128 0x11
 2615 0850 35020000 		.4byte	.LASF76
 2616 0854 01       		.byte	0x1
 2617 0855 DB01     		.2byte	0x1db
 2618 0857 6A010000 		.4byte	0x16a
 2619 085b 71070000 		.4byte	.LLST45
 2620 085f 12       		.uleb128 0x12
 2621 0860 2D030000 		.4byte	.LASF48
 2622 0864 01       		.byte	0x1
 2623 0865 DD01     		.2byte	0x1dd
 2624 0867 88020000 		.4byte	0x288
 2625 086b 92070000 		.4byte	.LLST46
 2626 086f 18       		.uleb128 0x18
 2627 0870 0C070000 		.4byte	.LASF63
 2628 0874 01       		.byte	0x1
 2629 0875 DE01     		.2byte	0x1de
 2630 0877 AD000000 		.4byte	0xad
 2631 087b 01       		.uleb128 0x1
 2632 087c 50       		.byte	0x50
 2633 087d 16       		.uleb128 0x16
 2634 087e 06000000 		.4byte	.LVL93
 2635 0882 42020000 		.4byte	0x242
 2636 0886 17       		.uleb128 0x17
 2637 0887 01       		.uleb128 0x1
 2638 0888 50       		.byte	0x50
 2639 0889 03       		.uleb128 0x3
 2640 088a F3       		.byte	0xf3
 2641 088b 01       		.uleb128 0x1
 2642 088c 50       		.byte	0x50
 2643 088d 00       		.byte	0
 2644 088e 00       		.byte	0
 2645 088f 1F       		.uleb128 0x1f
 2646 0890 9A040000 		.4byte	.LASF83
 2647 0894 01       		.byte	0x1
 2648 0895 E701     		.2byte	0x1e7
 2649 0897 AD000000 		.4byte	0xad
 2650 089b 00000000 		.4byte	.LFB74
 2651 089f BE000000 		.4byte	.LFE74-.LFB74
 2652 08a3 01       		.uleb128 0x1
 2653 08a4 9C       		.byte	0x9c
 2654 08a5 540A0000 		.4byte	0xa54
ARM GAS  C:\Users\samue\AppData\Local\Temp\cc6oSIFr.s 			page 76


 2655 08a9 11       		.uleb128 0x11
 2656 08aa 35020000 		.4byte	.LASF76
 2657 08ae 01       		.byte	0x1
 2658 08af E701     		.2byte	0x1e7
 2659 08b1 6A010000 		.4byte	0x16a
 2660 08b5 B3070000 		.4byte	.LLST47
 2661 08b9 11       		.uleb128 0x11
 2662 08ba 40080000 		.4byte	.LASF58
 2663 08be 01       		.byte	0x1
 2664 08bf E801     		.2byte	0x1e8
 2665 08c1 81040000 		.4byte	0x481
 2666 08c5 E7070000 		.4byte	.LLST48
 2667 08c9 11       		.uleb128 0x11
 2668 08ca 60010000 		.4byte	.LASF59
 2669 08ce 01       		.byte	0x1
 2670 08cf E901     		.2byte	0x1e9
 2671 08d1 AD000000 		.4byte	0xad
 2672 08d5 1B080000 		.4byte	.LLST49
 2673 08d9 11       		.uleb128 0x11
 2674 08da BA010000 		.4byte	.LASF84
 2675 08de 01       		.byte	0x1
 2676 08df EA01     		.2byte	0x1ea
 2677 08e1 F3000000 		.4byte	0xf3
 2678 08e5 4F080000 		.4byte	.LLST50
 2679 08e9 12       		.uleb128 0x12
 2680 08ea 2D030000 		.4byte	.LASF48
 2681 08ee 01       		.byte	0x1
 2682 08ef EC01     		.2byte	0x1ec
 2683 08f1 14030000 		.4byte	0x314
 2684 08f5 6E080000 		.4byte	.LLST51
 2685 08f9 12       		.uleb128 0x12
 2686 08fa 0C070000 		.4byte	.LASF63
 2687 08fe 01       		.byte	0x1
 2688 08ff ED01     		.2byte	0x1ed
 2689 0901 AD000000 		.4byte	0xad
 2690 0905 A2080000 		.4byte	.LLST52
 2691 0909 12       		.uleb128 0x12
 2692 090a 9C050000 		.4byte	.LASF60
 2693 090e 01       		.byte	0x1
 2694 090f ED01     		.2byte	0x1ed
 2695 0911 AD000000 		.4byte	0xad
 2696 0915 C0080000 		.4byte	.LLST53
 2697 0919 12       		.uleb128 0x12
 2698 091a 89020000 		.4byte	.LASF61
 2699 091e 01       		.byte	0x1
 2700 091f EE01     		.2byte	0x1ee
 2701 0921 AD000000 		.4byte	0xad
 2702 0925 17090000 		.4byte	.LLST54
 2703 0929 18       		.uleb128 0x18
 2704 092a C7010000 		.4byte	.LASF85
 2705 092e 01       		.byte	0x1
 2706 092f EF01     		.2byte	0x1ef
 2707 0931 5F010000 		.4byte	0x15f
 2708 0935 02       		.uleb128 0x2
 2709 0936 91       		.byte	0x91
 2710 0937 58       		.sleb128 -40
 2711 0938 19       		.uleb128 0x19
ARM GAS  C:\Users\samue\AppData\Local\Temp\cc6oSIFr.s 			page 77


 2712 0939 26000000 		.4byte	.LVL101
 2713 093d B3110000 		.4byte	0x11b3
 2714 0941 4C090000 		.4byte	0x94c
 2715 0945 17       		.uleb128 0x17
 2716 0946 01       		.uleb128 0x1
 2717 0947 50       		.byte	0x50
 2718 0948 02       		.uleb128 0x2
 2719 0949 91       		.byte	0x91
 2720 094a 58       		.sleb128 -40
 2721 094b 00       		.byte	0
 2722 094c 20       		.uleb128 0x20
 2723 094d 2A000000 		.4byte	.LVL102
 2724 0951 BF110000 		.4byte	0x11bf
 2725 0955 19       		.uleb128 0x19
 2726 0956 30000000 		.4byte	.LVL103
 2727 095a EA070000 		.4byte	0x7ea
 2728 095e 69090000 		.4byte	0x969
 2729 0962 17       		.uleb128 0x17
 2730 0963 01       		.uleb128 0x1
 2731 0964 50       		.byte	0x50
 2732 0965 02       		.uleb128 0x2
 2733 0966 74       		.byte	0x74
 2734 0967 00       		.sleb128 0
 2735 0968 00       		.byte	0
 2736 0969 19       		.uleb128 0x19
 2737 096a 3C000000 		.4byte	.LVL106
 2738 096e CA110000 		.4byte	0x11ca
 2739 0972 7C090000 		.4byte	0x97c
 2740 0976 17       		.uleb128 0x17
 2741 0977 01       		.uleb128 0x1
 2742 0978 50       		.byte	0x50
 2743 0979 01       		.uleb128 0x1
 2744 097a 30       		.byte	0x30
 2745 097b 00       		.byte	0
 2746 097c 20       		.uleb128 0x20
 2747 097d 40000000 		.4byte	.LVL107
 2748 0981 D6110000 		.4byte	0x11d6
 2749 0985 20       		.uleb128 0x20
 2750 0986 46000000 		.4byte	.LVL108
 2751 098a E2110000 		.4byte	0x11e2
 2752 098e 19       		.uleb128 0x19
 2753 098f 58000000 		.4byte	.LVL109
 2754 0993 ED110000 		.4byte	0x11ed
 2755 0997 AC090000 		.4byte	0x9ac
 2756 099b 17       		.uleb128 0x17
 2757 099c 01       		.uleb128 0x1
 2758 099d 50       		.byte	0x50
 2759 099e 01       		.uleb128 0x1
 2760 099f 30       		.byte	0x30
 2761 09a0 17       		.uleb128 0x17
 2762 09a1 01       		.uleb128 0x1
 2763 09a2 51       		.byte	0x51
 2764 09a3 02       		.uleb128 0x2
 2765 09a4 09       		.byte	0x9
 2766 09a5 FF       		.byte	0xff
 2767 09a6 17       		.uleb128 0x17
 2768 09a7 01       		.uleb128 0x1
ARM GAS  C:\Users\samue\AppData\Local\Temp\cc6oSIFr.s 			page 78


 2769 09a8 52       		.byte	0x52
 2770 09a9 01       		.uleb128 0x1
 2771 09aa 30       		.byte	0x30
 2772 09ab 00       		.byte	0
 2773 09ac 19       		.uleb128 0x19
 2774 09ad 64000000 		.4byte	.LVL110
 2775 09b1 F9110000 		.4byte	0x11f9
 2776 09b5 C6090000 		.4byte	0x9c6
 2777 09b9 17       		.uleb128 0x17
 2778 09ba 01       		.uleb128 0x1
 2779 09bb 50       		.byte	0x50
 2780 09bc 02       		.uleb128 0x2
 2781 09bd 91       		.byte	0x91
 2782 09be 58       		.sleb128 -40
 2783 09bf 17       		.uleb128 0x17
 2784 09c0 01       		.uleb128 0x1
 2785 09c1 51       		.byte	0x51
 2786 09c2 02       		.uleb128 0x2
 2787 09c3 75       		.byte	0x75
 2788 09c4 00       		.sleb128 0
 2789 09c5 00       		.byte	0
 2790 09c6 20       		.uleb128 0x20
 2791 09c7 6E000000 		.4byte	.LVL112
 2792 09cb E2110000 		.4byte	0x11e2
 2793 09cf 19       		.uleb128 0x19
 2794 09d0 7A000000 		.4byte	.LVL115
 2795 09d4 EA070000 		.4byte	0x7ea
 2796 09d8 E3090000 		.4byte	0x9e3
 2797 09dc 17       		.uleb128 0x17
 2798 09dd 01       		.uleb128 0x1
 2799 09de 50       		.byte	0x50
 2800 09df 02       		.uleb128 0x2
 2801 09e0 74       		.byte	0x74
 2802 09e1 00       		.sleb128 0
 2803 09e2 00       		.byte	0
 2804 09e3 19       		.uleb128 0x19
 2805 09e4 8A000000 		.4byte	.LVL117
 2806 09e8 C8030000 		.4byte	0x3c8
 2807 09ec 100A0000 		.4byte	0xa10
 2808 09f0 17       		.uleb128 0x17
 2809 09f1 01       		.uleb128 0x1
 2810 09f2 50       		.byte	0x50
 2811 09f3 02       		.uleb128 0x2
 2812 09f4 74       		.byte	0x74
 2813 09f5 00       		.sleb128 0
 2814 09f6 17       		.uleb128 0x17
 2815 09f7 01       		.uleb128 0x1
 2816 09f8 51       		.byte	0x51
 2817 09f9 02       		.uleb128 0x2
 2818 09fa 79       		.byte	0x79
 2819 09fb 00       		.sleb128 0
 2820 09fc 17       		.uleb128 0x17
 2821 09fd 01       		.uleb128 0x1
 2822 09fe 52       		.byte	0x52
 2823 09ff 02       		.uleb128 0x2
 2824 0a00 78       		.byte	0x78
 2825 0a01 00       		.sleb128 0
ARM GAS  C:\Users\samue\AppData\Local\Temp\cc6oSIFr.s 			page 79


 2826 0a02 17       		.uleb128 0x17
 2827 0a03 01       		.uleb128 0x1
 2828 0a04 53       		.byte	0x53
 2829 0a05 02       		.uleb128 0x2
 2830 0a06 76       		.byte	0x76
 2831 0a07 00       		.sleb128 0
 2832 0a08 17       		.uleb128 0x17
 2833 0a09 02       		.uleb128 0x2
 2834 0a0a 7D       		.byte	0x7d
 2835 0a0b 00       		.sleb128 0
 2836 0a0c 02       		.uleb128 0x2
 2837 0a0d 77       		.byte	0x77
 2838 0a0e 00       		.sleb128 0
 2839 0a0f 00       		.byte	0
 2840 0a10 19       		.uleb128 0x19
 2841 0a11 94000000 		.4byte	.LVL119
 2842 0a15 42020000 		.4byte	0x242
 2843 0a19 240A0000 		.4byte	0xa24
 2844 0a1d 17       		.uleb128 0x17
 2845 0a1e 01       		.uleb128 0x1
 2846 0a1f 50       		.byte	0x50
 2847 0a20 02       		.uleb128 0x2
 2848 0a21 74       		.byte	0x74
 2849 0a22 00       		.sleb128 0
 2850 0a23 00       		.byte	0
 2851 0a24 20       		.uleb128 0x20
 2852 0a25 9E000000 		.4byte	.LVL120
 2853 0a29 05120000 		.4byte	0x1205
 2854 0a2d 19       		.uleb128 0x19
 2855 0a2e AE000000 		.4byte	.LVL121
 2856 0a32 11120000 		.4byte	0x1211
 2857 0a36 4A0A0000 		.4byte	0xa4a
 2858 0a3a 17       		.uleb128 0x17
 2859 0a3b 01       		.uleb128 0x1
 2860 0a3c 51       		.byte	0x51
 2861 0a3d 01       		.uleb128 0x1
 2862 0a3e 30       		.byte	0x30
 2863 0a3f 17       		.uleb128 0x17
 2864 0a40 01       		.uleb128 0x1
 2865 0a41 52       		.byte	0x52
 2866 0a42 01       		.uleb128 0x1
 2867 0a43 30       		.byte	0x30
 2868 0a44 17       		.uleb128 0x17
 2869 0a45 01       		.uleb128 0x1
 2870 0a46 53       		.byte	0x53
 2871 0a47 01       		.uleb128 0x1
 2872 0a48 30       		.byte	0x30
 2873 0a49 00       		.byte	0
 2874 0a4a 20       		.uleb128 0x20
 2875 0a4b B6000000 		.4byte	.LVL122
 2876 0a4f 1D120000 		.4byte	0x121d
 2877 0a53 00       		.byte	0
 2878 0a54 1F       		.uleb128 0x1f
 2879 0a55 4F040000 		.4byte	.LASF86
 2880 0a59 01       		.byte	0x1
 2881 0a5a 4C02     		.2byte	0x24c
 2882 0a5c AD000000 		.4byte	0xad
ARM GAS  C:\Users\samue\AppData\Local\Temp\cc6oSIFr.s 			page 80


 2883 0a60 00000000 		.4byte	.LFB75
 2884 0a64 78000000 		.4byte	.LFE75-.LFB75
 2885 0a68 01       		.uleb128 0x1
 2886 0a69 9C       		.byte	0x9c
 2887 0a6a BB0B0000 		.4byte	0xbbb
 2888 0a6e 11       		.uleb128 0x11
 2889 0a6f 35020000 		.4byte	.LASF76
 2890 0a73 01       		.byte	0x1
 2891 0a74 4C02     		.2byte	0x24c
 2892 0a76 6A010000 		.4byte	0x16a
 2893 0a7a 4B090000 		.4byte	.LLST55
 2894 0a7e 11       		.uleb128 0x11
 2895 0a7f 40080000 		.4byte	.LASF58
 2896 0a83 01       		.byte	0x1
 2897 0a84 4D02     		.2byte	0x24d
 2898 0a86 81040000 		.4byte	0x481
 2899 0a8a 69090000 		.4byte	.LLST56
 2900 0a8e 11       		.uleb128 0x11
 2901 0a8f 60010000 		.4byte	.LASF59
 2902 0a93 01       		.byte	0x1
 2903 0a94 4E02     		.2byte	0x24e
 2904 0a96 AD000000 		.4byte	0xad
 2905 0a9a 95090000 		.4byte	.LLST57
 2906 0a9e 11       		.uleb128 0x11
 2907 0a9f 14070000 		.4byte	.LASF87
 2908 0aa3 01       		.byte	0x1
 2909 0aa4 4F02     		.2byte	0x24f
 2910 0aa6 C10B0000 		.4byte	0xbc1
 2911 0aaa C1090000 		.4byte	.LLST58
 2912 0aae 12       		.uleb128 0x12
 2913 0aaf 2D030000 		.4byte	.LASF48
 2914 0ab3 01       		.byte	0x1
 2915 0ab4 5102     		.2byte	0x251
 2916 0ab6 14030000 		.4byte	0x314
 2917 0aba DF090000 		.4byte	.LLST59
 2918 0abe 12       		.uleb128 0x12
 2919 0abf 0C070000 		.4byte	.LASF63
 2920 0ac3 01       		.byte	0x1
 2921 0ac4 5202     		.2byte	0x252
 2922 0ac6 AD000000 		.4byte	0xad
 2923 0aca FD090000 		.4byte	.LLST60
 2924 0ace 12       		.uleb128 0x12
 2925 0acf 9C050000 		.4byte	.LASF60
 2926 0ad3 01       		.byte	0x1
 2927 0ad4 5202     		.2byte	0x252
 2928 0ad6 AD000000 		.4byte	0xad
 2929 0ada 1B0A0000 		.4byte	.LLST61
 2930 0ade 12       		.uleb128 0x12
 2931 0adf 89020000 		.4byte	.LASF61
 2932 0ae3 01       		.byte	0x1
 2933 0ae4 5302     		.2byte	0x253
 2934 0ae6 AD000000 		.4byte	0xad
 2935 0aea 390A0000 		.4byte	.LLST62
 2936 0aee 21       		.uleb128 0x21
 2937 0aef 40000000 		.4byte	.LBB20
 2938 0af3 30000000 		.4byte	.LBE20-.LBB20
 2939 0af7 6F0B0000 		.4byte	0xb6f
ARM GAS  C:\Users\samue\AppData\Local\Temp\cc6oSIFr.s 			page 81


 2940 0afb 22       		.uleb128 0x22
 2941 0afc F5060000 		.4byte	.LASF88
 2942 0b00 01       		.byte	0x1
 2943 0b01 6D02     		.2byte	0x26d
 2944 0b03 E8000000 		.4byte	0xe8
 2945 0b07 23       		.uleb128 0x23
 2946 0b08 03020000 		.4byte	0x203
 2947 0b0c 40000000 		.4byte	.LBB21
 2948 0b10 14000000 		.4byte	.LBE21-.LBB21
 2949 0b14 01       		.byte	0x1
 2950 0b15 6D02     		.2byte	0x26d
 2951 0b17 300B0000 		.4byte	0xb30
 2952 0b1b 24       		.uleb128 0x24
 2953 0b1c 40000000 		.4byte	.LBB22
 2954 0b20 14000000 		.4byte	.LBE22-.LBB22
 2955 0b24 25       		.uleb128 0x25
 2956 0b25 13020000 		.4byte	0x213
 2957 0b29 25       		.uleb128 0x25
 2958 0b2a 1E020000 		.4byte	0x21e
 2959 0b2e 00       		.byte	0
 2960 0b2f 00       		.byte	0
 2961 0b30 23       		.uleb128 0x23
 2962 0b31 2A020000 		.4byte	0x22a
 2963 0b35 6C000000 		.4byte	.LBB23
 2964 0b39 04000000 		.4byte	.LBE23-.LBB23
 2965 0b3d 01       		.byte	0x1
 2966 0b3e 6D02     		.2byte	0x26d
 2967 0b40 4E0B0000 		.4byte	0xb4e
 2968 0b44 26       		.uleb128 0x26
 2969 0b45 36020000 		.4byte	0x236
 2970 0b49 6D0A0000 		.4byte	.LLST63
 2971 0b4d 00       		.byte	0
 2972 0b4e 16       		.uleb128 0x16
 2973 0b4f 68000000 		.4byte	.LVL137
 2974 0b53 29120000 		.4byte	0x1229
 2975 0b57 17       		.uleb128 0x17
 2976 0b58 01       		.uleb128 0x1
 2977 0b59 51       		.byte	0x51
 2978 0b5a 01       		.uleb128 0x1
 2979 0b5b 30       		.byte	0x30
 2980 0b5c 17       		.uleb128 0x17
 2981 0b5d 01       		.uleb128 0x1
 2982 0b5e 52       		.byte	0x52
 2983 0b5f 01       		.uleb128 0x1
 2984 0b60 30       		.byte	0x30
 2985 0b61 17       		.uleb128 0x17
 2986 0b62 01       		.uleb128 0x1
 2987 0b63 53       		.byte	0x53
 2988 0b64 01       		.uleb128 0x1
 2989 0b65 30       		.byte	0x30
 2990 0b66 17       		.uleb128 0x17
 2991 0b67 02       		.uleb128 0x2
 2992 0b68 7D       		.byte	0x7d
 2993 0b69 00       		.sleb128 0
 2994 0b6a 02       		.uleb128 0x2
 2995 0b6b 78       		.byte	0x78
 2996 0b6c 00       		.sleb128 0
ARM GAS  C:\Users\samue\AppData\Local\Temp\cc6oSIFr.s 			page 82


 2997 0b6d 00       		.byte	0
 2998 0b6e 00       		.byte	0
 2999 0b6f 19       		.uleb128 0x19
 3000 0b70 22000000 		.4byte	.LVL130
 3001 0b74 EA070000 		.4byte	0x7ea
 3002 0b78 830B0000 		.4byte	0xb83
 3003 0b7c 17       		.uleb128 0x17
 3004 0b7d 01       		.uleb128 0x1
 3005 0b7e 50       		.byte	0x50
 3006 0b7f 02       		.uleb128 0x2
 3007 0b80 74       		.byte	0x74
 3008 0b81 00       		.sleb128 0
 3009 0b82 00       		.byte	0
 3010 0b83 19       		.uleb128 0x19
 3011 0b84 30000000 		.4byte	.LVL132
 3012 0b88 C8030000 		.4byte	0x3c8
 3013 0b8c AA0B0000 		.4byte	0xbaa
 3014 0b90 17       		.uleb128 0x17
 3015 0b91 01       		.uleb128 0x1
 3016 0b92 50       		.byte	0x50
 3017 0b93 02       		.uleb128 0x2
 3018 0b94 74       		.byte	0x74
 3019 0b95 00       		.sleb128 0
 3020 0b96 17       		.uleb128 0x17
 3021 0b97 01       		.uleb128 0x1
 3022 0b98 51       		.byte	0x51
 3023 0b99 02       		.uleb128 0x2
 3024 0b9a 76       		.byte	0x76
 3025 0b9b 00       		.sleb128 0
 3026 0b9c 17       		.uleb128 0x17
 3027 0b9d 01       		.uleb128 0x1
 3028 0b9e 52       		.byte	0x52
 3029 0b9f 02       		.uleb128 0x2
 3030 0ba0 75       		.byte	0x75
 3031 0ba1 00       		.sleb128 0
 3032 0ba2 17       		.uleb128 0x17
 3033 0ba3 02       		.uleb128 0x2
 3034 0ba4 7D       		.byte	0x7d
 3035 0ba5 00       		.sleb128 0
 3036 0ba6 02       		.uleb128 0x2
 3037 0ba7 77       		.byte	0x77
 3038 0ba8 00       		.sleb128 0
 3039 0ba9 00       		.byte	0
 3040 0baa 16       		.uleb128 0x16
 3041 0bab 3A000000 		.4byte	.LVL135
 3042 0baf 42020000 		.4byte	0x242
 3043 0bb3 17       		.uleb128 0x17
 3044 0bb4 01       		.uleb128 0x1
 3045 0bb5 50       		.byte	0x50
 3046 0bb6 02       		.uleb128 0x2
 3047 0bb7 74       		.byte	0x74
 3048 0bb8 00       		.sleb128 0
 3049 0bb9 00       		.byte	0
 3050 0bba 00       		.byte	0
 3051 0bbb 06       		.uleb128 0x6
 3052 0bbc 04       		.byte	0x4
 3053 0bbd DD000000 		.4byte	0xdd
ARM GAS  C:\Users\samue\AppData\Local\Temp\cc6oSIFr.s 			page 83


 3054 0bc1 13       		.uleb128 0x13
 3055 0bc2 BB0B0000 		.4byte	0xbbb
 3056 0bc6 1F       		.uleb128 0x1f
 3057 0bc7 89000000 		.4byte	.LASF89
 3058 0bcb 01       		.byte	0x1
 3059 0bcc B302     		.2byte	0x2b3
 3060 0bce AD000000 		.4byte	0xad
 3061 0bd2 00000000 		.4byte	.LFB77
 3062 0bd6 A4000000 		.4byte	.LFE77-.LFB77
 3063 0bda 01       		.uleb128 0x1
 3064 0bdb 9C       		.byte	0x9c
 3065 0bdc 490D0000 		.4byte	0xd49
 3066 0be0 11       		.uleb128 0x11
 3067 0be1 35020000 		.4byte	.LASF76
 3068 0be5 01       		.byte	0x1
 3069 0be6 B302     		.2byte	0x2b3
 3070 0be8 6A010000 		.4byte	0x16a
 3071 0bec 800A0000 		.4byte	.LLST64
 3072 0bf0 11       		.uleb128 0x11
 3073 0bf1 5F030000 		.4byte	.LASF69
 3074 0bf5 01       		.byte	0x1
 3075 0bf6 B402     		.2byte	0x2b4
 3076 0bf8 C6000000 		.4byte	0xc6
 3077 0bfc B40A0000 		.4byte	.LLST65
 3078 0c00 11       		.uleb128 0x11
 3079 0c01 0D000000 		.4byte	.LASF70
 3080 0c05 01       		.byte	0x1
 3081 0c06 B502     		.2byte	0x2b5
 3082 0c08 AD000000 		.4byte	0xad
 3083 0c0c E80A0000 		.4byte	.LLST66
 3084 0c10 11       		.uleb128 0x11
 3085 0c11 BA010000 		.4byte	.LASF84
 3086 0c15 01       		.byte	0x1
 3087 0c16 B602     		.2byte	0x2b6
 3088 0c18 F3000000 		.4byte	0xf3
 3089 0c1c 1C0B0000 		.4byte	.LLST67
 3090 0c20 12       		.uleb128 0x12
 3091 0c21 2D030000 		.4byte	.LASF48
 3092 0c25 01       		.byte	0x1
 3093 0c26 B802     		.2byte	0x2b8
 3094 0c28 14030000 		.4byte	0x314
 3095 0c2c 3A0B0000 		.4byte	.LLST68
 3096 0c30 12       		.uleb128 0x12
 3097 0c31 FF010000 		.4byte	.LASF73
 3098 0c35 01       		.byte	0x1
 3099 0c36 B902     		.2byte	0x2b9
 3100 0c38 AD000000 		.4byte	0xad
 3101 0c3c 6E0B0000 		.4byte	.LLST69
 3102 0c40 12       		.uleb128 0x12
 3103 0c41 28010000 		.4byte	.LASF66
 3104 0c45 01       		.byte	0x1
 3105 0c46 B902     		.2byte	0x2b9
 3106 0c48 AD000000 		.4byte	0xad
 3107 0c4c AF0B0000 		.4byte	.LLST70
 3108 0c50 18       		.uleb128 0x18
 3109 0c51 3E070000 		.4byte	.LASF71
 3110 0c55 01       		.byte	0x1
ARM GAS  C:\Users\samue\AppData\Local\Temp\cc6oSIFr.s 			page 84


 3111 0c56 B902     		.2byte	0x2b9
 3112 0c58 AD000000 		.4byte	0xad
 3113 0c5c 01       		.uleb128 0x1
 3114 0c5d 56       		.byte	0x56
 3115 0c5e 20       		.uleb128 0x20
 3116 0c5f 22000000 		.4byte	.LVL144
 3117 0c63 BF110000 		.4byte	0x11bf
 3118 0c67 19       		.uleb128 0x19
 3119 0c68 28000000 		.4byte	.LVL145
 3120 0c6c 42020000 		.4byte	0x242
 3121 0c70 7B0C0000 		.4byte	0xc7b
 3122 0c74 17       		.uleb128 0x17
 3123 0c75 01       		.uleb128 0x1
 3124 0c76 50       		.byte	0x50
 3125 0c77 02       		.uleb128 0x2
 3126 0c78 74       		.byte	0x74
 3127 0c79 00       		.sleb128 0
 3128 0c7a 00       		.byte	0
 3129 0c7b 19       		.uleb128 0x19
 3130 0c7c 34000000 		.4byte	.LVL148
 3131 0c80 CA110000 		.4byte	0x11ca
 3132 0c84 8E0C0000 		.4byte	0xc8e
 3133 0c88 17       		.uleb128 0x17
 3134 0c89 01       		.uleb128 0x1
 3135 0c8a 50       		.byte	0x50
 3136 0c8b 01       		.uleb128 0x1
 3137 0c8c 30       		.byte	0x30
 3138 0c8d 00       		.byte	0
 3139 0c8e 20       		.uleb128 0x20
 3140 0c8f 38000000 		.4byte	.LVL149
 3141 0c93 D6110000 		.4byte	0x11d6
 3142 0c97 20       		.uleb128 0x20
 3143 0c98 3E000000 		.4byte	.LVL150
 3144 0c9c E2110000 		.4byte	0x11e2
 3145 0ca0 19       		.uleb128 0x19
 3146 0ca1 50000000 		.4byte	.LVL151
 3147 0ca5 ED110000 		.4byte	0x11ed
 3148 0ca9 C40C0000 		.4byte	0xcc4
 3149 0cad 17       		.uleb128 0x17
 3150 0cae 01       		.uleb128 0x1
 3151 0caf 50       		.byte	0x50
 3152 0cb0 01       		.uleb128 0x1
 3153 0cb1 30       		.byte	0x30
 3154 0cb2 17       		.uleb128 0x17
 3155 0cb3 01       		.uleb128 0x1
 3156 0cb4 51       		.byte	0x51
 3157 0cb5 02       		.uleb128 0x2
 3158 0cb6 09       		.byte	0x9
 3159 0cb7 FF       		.byte	0xff
 3160 0cb8 17       		.uleb128 0x17
 3161 0cb9 01       		.uleb128 0x1
 3162 0cba 52       		.byte	0x52
 3163 0cbb 01       		.uleb128 0x1
 3164 0cbc 30       		.byte	0x30
 3165 0cbd 17       		.uleb128 0x17
 3166 0cbe 01       		.uleb128 0x1
 3167 0cbf 53       		.byte	0x53
ARM GAS  C:\Users\samue\AppData\Local\Temp\cc6oSIFr.s 			page 85


 3168 0cc0 02       		.uleb128 0x2
 3169 0cc1 77       		.byte	0x77
 3170 0cc2 00       		.sleb128 0
 3171 0cc3 00       		.byte	0
 3172 0cc4 19       		.uleb128 0x19
 3173 0cc5 5A000000 		.4byte	.LVL152
 3174 0cc9 42020000 		.4byte	0x242
 3175 0ccd D80C0000 		.4byte	0xcd8
 3176 0cd1 17       		.uleb128 0x17
 3177 0cd2 01       		.uleb128 0x1
 3178 0cd3 50       		.byte	0x50
 3179 0cd4 02       		.uleb128 0x2
 3180 0cd5 74       		.byte	0x74
 3181 0cd6 00       		.sleb128 0
 3182 0cd7 00       		.byte	0
 3183 0cd8 19       		.uleb128 0x19
 3184 0cd9 64000000 		.4byte	.LVL156
 3185 0cdd 42020000 		.4byte	0x242
 3186 0ce1 EC0C0000 		.4byte	0xcec
 3187 0ce5 17       		.uleb128 0x17
 3188 0ce6 01       		.uleb128 0x1
 3189 0ce7 50       		.byte	0x50
 3190 0ce8 02       		.uleb128 0x2
 3191 0ce9 74       		.byte	0x74
 3192 0cea 00       		.sleb128 0
 3193 0ceb 00       		.byte	0
 3194 0cec 19       		.uleb128 0x19
 3195 0ced 78000000 		.4byte	.LVL158
 3196 0cf1 49050000 		.4byte	0x549
 3197 0cf5 190D0000 		.4byte	0xd19
 3198 0cf9 17       		.uleb128 0x17
 3199 0cfa 01       		.uleb128 0x1
 3200 0cfb 50       		.byte	0x50
 3201 0cfc 02       		.uleb128 0x2
 3202 0cfd 74       		.byte	0x74
 3203 0cfe 00       		.sleb128 0
 3204 0cff 17       		.uleb128 0x17
 3205 0d00 01       		.uleb128 0x1
 3206 0d01 51       		.byte	0x51
 3207 0d02 02       		.uleb128 0x2
 3208 0d03 78       		.byte	0x78
 3209 0d04 00       		.sleb128 0
 3210 0d05 17       		.uleb128 0x17
 3211 0d06 01       		.uleb128 0x1
 3212 0d07 52       		.byte	0x52
 3213 0d08 02       		.uleb128 0x2
 3214 0d09 79       		.byte	0x79
 3215 0d0a 00       		.sleb128 0
 3216 0d0b 17       		.uleb128 0x17
 3217 0d0c 01       		.uleb128 0x1
 3218 0d0d 53       		.byte	0x53
 3219 0d0e 02       		.uleb128 0x2
 3220 0d0f 75       		.byte	0x75
 3221 0d10 00       		.sleb128 0
 3222 0d11 17       		.uleb128 0x17
 3223 0d12 02       		.uleb128 0x2
 3224 0d13 7D       		.byte	0x7d
ARM GAS  C:\Users\samue\AppData\Local\Temp\cc6oSIFr.s 			page 86


 3225 0d14 00       		.sleb128 0
 3226 0d15 02       		.uleb128 0x2
 3227 0d16 76       		.byte	0x76
 3228 0d17 00       		.sleb128 0
 3229 0d18 00       		.byte	0
 3230 0d19 20       		.uleb128 0x20
 3231 0d1a 80000000 		.4byte	.LVL160
 3232 0d1e 05120000 		.4byte	0x1205
 3233 0d22 19       		.uleb128 0x19
 3234 0d23 90000000 		.4byte	.LVL161
 3235 0d27 11120000 		.4byte	0x1211
 3236 0d2b 3F0D0000 		.4byte	0xd3f
 3237 0d2f 17       		.uleb128 0x17
 3238 0d30 01       		.uleb128 0x1
 3239 0d31 51       		.byte	0x51
 3240 0d32 01       		.uleb128 0x1
 3241 0d33 30       		.byte	0x30
 3242 0d34 17       		.uleb128 0x17
 3243 0d35 01       		.uleb128 0x1
 3244 0d36 52       		.byte	0x52
 3245 0d37 01       		.uleb128 0x1
 3246 0d38 30       		.byte	0x30
 3247 0d39 17       		.uleb128 0x17
 3248 0d3a 01       		.uleb128 0x1
 3249 0d3b 53       		.byte	0x53
 3250 0d3c 01       		.uleb128 0x1
 3251 0d3d 30       		.byte	0x30
 3252 0d3e 00       		.byte	0
 3253 0d3f 20       		.uleb128 0x20
 3254 0d40 98000000 		.4byte	.LVL162
 3255 0d44 1D120000 		.4byte	0x121d
 3256 0d48 00       		.byte	0
 3257 0d49 1F       		.uleb128 0x1f
 3258 0d4a 98020000 		.4byte	.LASF90
 3259 0d4e 01       		.byte	0x1
 3260 0d4f 1B03     		.2byte	0x31b
 3261 0d51 AD000000 		.4byte	0xad
 3262 0d55 00000000 		.4byte	.LFB78
 3263 0d59 74000000 		.4byte	.LFE78-.LFB78
 3264 0d5d 01       		.uleb128 0x1
 3265 0d5e 9C       		.byte	0x9c
 3266 0d5f 9C0E0000 		.4byte	0xe9c
 3267 0d63 11       		.uleb128 0x11
 3268 0d64 35020000 		.4byte	.LASF76
 3269 0d68 01       		.byte	0x1
 3270 0d69 1B03     		.2byte	0x31b
 3271 0d6b 6A010000 		.4byte	0x16a
 3272 0d6f EE0B0000 		.4byte	.LLST71
 3273 0d73 11       		.uleb128 0x11
 3274 0d74 5F030000 		.4byte	.LASF69
 3275 0d78 01       		.byte	0x1
 3276 0d79 1C03     		.2byte	0x31c
 3277 0d7b C6000000 		.4byte	0xc6
 3278 0d7f 0C0C0000 		.4byte	.LLST72
 3279 0d83 11       		.uleb128 0x11
 3280 0d84 0D000000 		.4byte	.LASF70
 3281 0d88 01       		.byte	0x1
ARM GAS  C:\Users\samue\AppData\Local\Temp\cc6oSIFr.s 			page 87


 3282 0d89 1D03     		.2byte	0x31d
 3283 0d8b AD000000 		.4byte	0xad
 3284 0d8f 510C0000 		.4byte	.LLST73
 3285 0d93 11       		.uleb128 0x11
 3286 0d94 14070000 		.4byte	.LASF87
 3287 0d98 01       		.byte	0x1
 3288 0d99 1E03     		.2byte	0x31e
 3289 0d9b C10B0000 		.4byte	0xbc1
 3290 0d9f 6F0C0000 		.4byte	.LLST74
 3291 0da3 12       		.uleb128 0x12
 3292 0da4 2D030000 		.4byte	.LASF48
 3293 0da8 01       		.byte	0x1
 3294 0da9 2003     		.2byte	0x320
 3295 0dab 14030000 		.4byte	0x314
 3296 0daf 8D0C0000 		.4byte	.LLST75
 3297 0db3 12       		.uleb128 0x12
 3298 0db4 FF010000 		.4byte	.LASF73
 3299 0db8 01       		.byte	0x1
 3300 0db9 2103     		.2byte	0x321
 3301 0dbb AD000000 		.4byte	0xad
 3302 0dbf AB0C0000 		.4byte	.LLST76
 3303 0dc3 12       		.uleb128 0x12
 3304 0dc4 28010000 		.4byte	.LASF66
 3305 0dc8 01       		.byte	0x1
 3306 0dc9 2103     		.2byte	0x321
 3307 0dcb AD000000 		.4byte	0xad
 3308 0dcf EC0C0000 		.4byte	.LLST77
 3309 0dd3 12       		.uleb128 0x12
 3310 0dd4 3E070000 		.4byte	.LASF71
 3311 0dd8 01       		.byte	0x1
 3312 0dd9 2103     		.2byte	0x321
 3313 0ddb AD000000 		.4byte	0xad
 3314 0ddf 150D0000 		.4byte	.LLST78
 3315 0de3 21       		.uleb128 0x21
 3316 0de4 38000000 		.4byte	.LBB25
 3317 0de8 32000000 		.4byte	.LBE25-.LBB25
 3318 0dec 640E0000 		.4byte	0xe64
 3319 0df0 22       		.uleb128 0x22
 3320 0df1 F5060000 		.4byte	.LASF88
 3321 0df5 01       		.byte	0x1
 3322 0df6 4203     		.2byte	0x342
 3323 0df8 E8000000 		.4byte	0xe8
 3324 0dfc 23       		.uleb128 0x23
 3325 0dfd 03020000 		.4byte	0x203
 3326 0e01 38000000 		.4byte	.LBB26
 3327 0e05 14000000 		.4byte	.LBE26-.LBB26
 3328 0e09 01       		.byte	0x1
 3329 0e0a 4203     		.2byte	0x342
 3330 0e0c 250E0000 		.4byte	0xe25
 3331 0e10 24       		.uleb128 0x24
 3332 0e11 38000000 		.4byte	.LBB27
 3333 0e15 14000000 		.4byte	.LBE27-.LBB27
 3334 0e19 25       		.uleb128 0x25
 3335 0e1a 13020000 		.4byte	0x213
 3336 0e1e 25       		.uleb128 0x25
 3337 0e1f 1E020000 		.4byte	0x21e
 3338 0e23 00       		.byte	0
ARM GAS  C:\Users\samue\AppData\Local\Temp\cc6oSIFr.s 			page 88


 3339 0e24 00       		.byte	0
 3340 0e25 23       		.uleb128 0x23
 3341 0e26 2A020000 		.4byte	0x22a
 3342 0e2a 64000000 		.4byte	.LBB28
 3343 0e2e 06000000 		.4byte	.LBE28-.LBB28
 3344 0e32 01       		.byte	0x1
 3345 0e33 4203     		.2byte	0x342
 3346 0e35 430E0000 		.4byte	0xe43
 3347 0e39 26       		.uleb128 0x26
 3348 0e3a 36020000 		.4byte	0x236
 3349 0e3e 330D0000 		.4byte	.LLST79
 3350 0e42 00       		.byte	0
 3351 0e43 16       		.uleb128 0x16
 3352 0e44 60000000 		.4byte	.LVL176
 3353 0e48 29120000 		.4byte	0x1229
 3354 0e4c 17       		.uleb128 0x17
 3355 0e4d 01       		.uleb128 0x1
 3356 0e4e 51       		.byte	0x51
 3357 0e4f 01       		.uleb128 0x1
 3358 0e50 30       		.byte	0x30
 3359 0e51 17       		.uleb128 0x17
 3360 0e52 01       		.uleb128 0x1
 3361 0e53 52       		.byte	0x52
 3362 0e54 01       		.uleb128 0x1
 3363 0e55 30       		.byte	0x30
 3364 0e56 17       		.uleb128 0x17
 3365 0e57 01       		.uleb128 0x1
 3366 0e58 53       		.byte	0x53
 3367 0e59 01       		.uleb128 0x1
 3368 0e5a 30       		.byte	0x30
 3369 0e5b 17       		.uleb128 0x17
 3370 0e5c 02       		.uleb128 0x2
 3371 0e5d 7D       		.byte	0x7d
 3372 0e5e 00       		.sleb128 0
 3373 0e5f 02       		.uleb128 0x2
 3374 0e60 78       		.byte	0x78
 3375 0e61 00       		.sleb128 0
 3376 0e62 00       		.byte	0
 3377 0e63 00       		.byte	0
 3378 0e64 19       		.uleb128 0x19
 3379 0e65 22000000 		.4byte	.LVL170
 3380 0e69 42020000 		.4byte	0x242
 3381 0e6d 780E0000 		.4byte	0xe78
 3382 0e71 17       		.uleb128 0x17
 3383 0e72 01       		.uleb128 0x1
 3384 0e73 50       		.byte	0x50
 3385 0e74 02       		.uleb128 0x2
 3386 0e75 74       		.byte	0x74
 3387 0e76 00       		.sleb128 0
 3388 0e77 00       		.byte	0
 3389 0e78 16       		.uleb128 0x16
 3390 0e79 34000000 		.4byte	.LVL172
 3391 0e7d 49050000 		.4byte	0x549
 3392 0e81 17       		.uleb128 0x17
 3393 0e82 01       		.uleb128 0x1
 3394 0e83 50       		.byte	0x50
 3395 0e84 02       		.uleb128 0x2
ARM GAS  C:\Users\samue\AppData\Local\Temp\cc6oSIFr.s 			page 89


 3396 0e85 74       		.byte	0x74
 3397 0e86 00       		.sleb128 0
 3398 0e87 17       		.uleb128 0x17
 3399 0e88 01       		.uleb128 0x1
 3400 0e89 51       		.byte	0x51
 3401 0e8a 02       		.uleb128 0x2
 3402 0e8b 76       		.byte	0x76
 3403 0e8c 00       		.sleb128 0
 3404 0e8d 17       		.uleb128 0x17
 3405 0e8e 01       		.uleb128 0x1
 3406 0e8f 52       		.byte	0x52
 3407 0e90 02       		.uleb128 0x2
 3408 0e91 77       		.byte	0x77
 3409 0e92 00       		.sleb128 0
 3410 0e93 17       		.uleb128 0x17
 3411 0e94 02       		.uleb128 0x2
 3412 0e95 7D       		.byte	0x7d
 3413 0e96 00       		.sleb128 0
 3414 0e97 02       		.uleb128 0x2
 3415 0e98 75       		.byte	0x75
 3416 0e99 00       		.sleb128 0
 3417 0e9a 00       		.byte	0
 3418 0e9b 00       		.byte	0
 3419 0e9c 1F       		.uleb128 0x1f
 3420 0e9d E6020000 		.4byte	.LASF91
 3421 0ea1 01       		.byte	0x1
 3422 0ea2 8603     		.2byte	0x386
 3423 0ea4 DD000000 		.4byte	0xdd
 3424 0ea8 00000000 		.4byte	.LFB80
 3425 0eac 10000000 		.4byte	.LFE80-.LFB80
 3426 0eb0 01       		.uleb128 0x1
 3427 0eb1 9C       		.byte	0x9c
 3428 0eb2 F30E0000 		.4byte	0xef3
 3429 0eb6 11       		.uleb128 0x11
 3430 0eb7 35020000 		.4byte	.LASF76
 3431 0ebb 01       		.byte	0x1
 3432 0ebc 8603     		.2byte	0x386
 3433 0ebe 6A010000 		.4byte	0x16a
 3434 0ec2 460D0000 		.4byte	.LLST80
 3435 0ec6 12       		.uleb128 0x12
 3436 0ec7 2D030000 		.4byte	.LASF48
 3437 0ecb 01       		.byte	0x1
 3438 0ecc 8803     		.2byte	0x388
 3439 0ece 88020000 		.4byte	0x288
 3440 0ed2 800D0000 		.4byte	.LLST81
 3441 0ed6 18       		.uleb128 0x18
 3442 0ed7 0C070000 		.4byte	.LASF63
 3443 0edb 01       		.byte	0x1
 3444 0edc 8903     		.2byte	0x389
 3445 0ede DD000000 		.4byte	0xdd
 3446 0ee2 01       		.uleb128 0x1
 3447 0ee3 50       		.byte	0x50
 3448 0ee4 18       		.uleb128 0x18
 3449 0ee5 31060000 		.4byte	.LASF36
 3450 0ee9 01       		.byte	0x1
 3451 0eea 8A03     		.2byte	0x38a
 3452 0eec AD000000 		.4byte	0xad
ARM GAS  C:\Users\samue\AppData\Local\Temp\cc6oSIFr.s 			page 90


 3453 0ef0 01       		.uleb128 0x1
 3454 0ef1 52       		.byte	0x52
 3455 0ef2 00       		.byte	0
 3456 0ef3 1F       		.uleb128 0x1f
 3457 0ef4 BB020000 		.4byte	.LASF92
 3458 0ef8 01       		.byte	0x1
 3459 0ef9 9D03     		.2byte	0x39d
 3460 0efb DD000000 		.4byte	0xdd
 3461 0eff 00000000 		.4byte	.LFB81
 3462 0f03 20000000 		.4byte	.LFE81-.LFB81
 3463 0f07 01       		.uleb128 0x1
 3464 0f08 9C       		.byte	0x9c
 3465 0f09 530F0000 		.4byte	0xf53
 3466 0f0d 11       		.uleb128 0x11
 3467 0f0e 35020000 		.4byte	.LASF76
 3468 0f12 01       		.byte	0x1
 3469 0f13 9D03     		.2byte	0x39d
 3470 0f15 6A010000 		.4byte	0x16a
 3471 0f19 BA0D0000 		.4byte	.LLST82
 3472 0f1d 18       		.uleb128 0x18
 3473 0f1e 0C070000 		.4byte	.LASF63
 3474 0f22 01       		.byte	0x1
 3475 0f23 9F03     		.2byte	0x39f
 3476 0f25 DD000000 		.4byte	0xdd
 3477 0f29 01       		.uleb128 0x1
 3478 0f2a 50       		.byte	0x50
 3479 0f2b 18       		.uleb128 0x18
 3480 0f2c 3E070000 		.4byte	.LASF71
 3481 0f30 01       		.byte	0x1
 3482 0f31 A003     		.2byte	0x3a0
 3483 0f33 AD000000 		.4byte	0xad
 3484 0f37 01       		.uleb128 0x1
 3485 0f38 54       		.byte	0x54
 3486 0f39 12       		.uleb128 0x12
 3487 0f3a 2D030000 		.4byte	.LASF48
 3488 0f3e 01       		.byte	0x1
 3489 0f3f A103     		.2byte	0x3a1
 3490 0f41 88020000 		.4byte	0x288
 3491 0f45 DB0D0000 		.4byte	.LLST83
 3492 0f49 20       		.uleb128 0x20
 3493 0f4a 14000000 		.4byte	.LVL188
 3494 0f4e EA070000 		.4byte	0x7ea
 3495 0f52 00       		.byte	0
 3496 0f53 1F       		.uleb128 0x1f
 3497 0f54 37060000 		.4byte	.LASF93
 3498 0f58 01       		.byte	0x1
 3499 0f59 C003     		.2byte	0x3c0
 3500 0f5b DD000000 		.4byte	0xdd
 3501 0f5f 00000000 		.4byte	.LFB82
 3502 0f63 3E000000 		.4byte	.LFE82-.LFB82
 3503 0f67 01       		.uleb128 0x1
 3504 0f68 9C       		.byte	0x9c
 3505 0f69 22100000 		.4byte	0x1022
 3506 0f6d 11       		.uleb128 0x11
 3507 0f6e 35020000 		.4byte	.LASF76
 3508 0f72 01       		.byte	0x1
 3509 0f73 C003     		.2byte	0x3c0
ARM GAS  C:\Users\samue\AppData\Local\Temp\cc6oSIFr.s 			page 91


 3510 0f75 6A010000 		.4byte	0x16a
 3511 0f79 FC0D0000 		.4byte	.LLST84
 3512 0f7d 11       		.uleb128 0x11
 3513 0f7e 14070000 		.4byte	.LASF87
 3514 0f82 01       		.byte	0x1
 3515 0f83 C003     		.2byte	0x3c0
 3516 0f85 BB0B0000 		.4byte	0xbbb
 3517 0f89 330E0000 		.4byte	.LLST85
 3518 0f8d 12       		.uleb128 0x12
 3519 0f8e 2D030000 		.4byte	.LASF48
 3520 0f92 01       		.byte	0x1
 3521 0f93 C203     		.2byte	0x3c2
 3522 0f95 14030000 		.4byte	0x314
 3523 0f99 790E0000 		.4byte	.LLST86
 3524 0f9d 12       		.uleb128 0x12
 3525 0f9e 0C070000 		.4byte	.LASF63
 3526 0fa2 01       		.byte	0x1
 3527 0fa3 C303     		.2byte	0x3c3
 3528 0fa5 DD000000 		.4byte	0xdd
 3529 0fa9 B00E0000 		.4byte	.LLST87
 3530 0fad 22       		.uleb128 0x22
 3531 0fae F5060000 		.4byte	.LASF88
 3532 0fb2 01       		.byte	0x1
 3533 0fb3 C403     		.2byte	0x3c4
 3534 0fb5 E8000000 		.4byte	0xe8
 3535 0fb9 23       		.uleb128 0x23
 3536 0fba 03020000 		.4byte	0x203
 3537 0fbe 04000000 		.4byte	.LBB30
 3538 0fc2 14000000 		.4byte	.LBE30-.LBB30
 3539 0fc6 01       		.byte	0x1
 3540 0fc7 C803     		.2byte	0x3c8
 3541 0fc9 E20F0000 		.4byte	0xfe2
 3542 0fcd 24       		.uleb128 0x24
 3543 0fce 04000000 		.4byte	.LBB31
 3544 0fd2 14000000 		.4byte	.LBE31-.LBB31
 3545 0fd6 25       		.uleb128 0x25
 3546 0fd7 13020000 		.4byte	0x213
 3547 0fdb 25       		.uleb128 0x25
 3548 0fdc 1E020000 		.4byte	0x21e
 3549 0fe0 00       		.byte	0
 3550 0fe1 00       		.byte	0
 3551 0fe2 23       		.uleb128 0x23
 3552 0fe3 2A020000 		.4byte	0x22a
 3553 0fe7 36000000 		.4byte	.LBB32
 3554 0feb 04000000 		.4byte	.LBE32-.LBB32
 3555 0fef 01       		.byte	0x1
 3556 0ff0 D803     		.2byte	0x3d8
 3557 0ff2 00100000 		.4byte	0x1000
 3558 0ff6 26       		.uleb128 0x26
 3559 0ff7 36020000 		.4byte	0x236
 3560 0ffb CF0E0000 		.4byte	.LLST88
 3561 0fff 00       		.byte	0
 3562 1000 16       		.uleb128 0x16
 3563 1001 2C000000 		.4byte	.LVL195
 3564 1005 29120000 		.4byte	0x1229
 3565 1009 17       		.uleb128 0x17
 3566 100a 01       		.uleb128 0x1
ARM GAS  C:\Users\samue\AppData\Local\Temp\cc6oSIFr.s 			page 92


 3567 100b 51       		.byte	0x51
 3568 100c 01       		.uleb128 0x1
 3569 100d 30       		.byte	0x30
 3570 100e 17       		.uleb128 0x17
 3571 100f 01       		.uleb128 0x1
 3572 1010 52       		.byte	0x52
 3573 1011 01       		.uleb128 0x1
 3574 1012 30       		.byte	0x30
 3575 1013 17       		.uleb128 0x17
 3576 1014 01       		.uleb128 0x1
 3577 1015 53       		.byte	0x53
 3578 1016 01       		.uleb128 0x1
 3579 1017 30       		.byte	0x30
 3580 1018 17       		.uleb128 0x17
 3581 1019 02       		.uleb128 0x2
 3582 101a 7D       		.byte	0x7d
 3583 101b 00       		.sleb128 0
 3584 101c 03       		.uleb128 0x3
 3585 101d F3       		.byte	0xf3
 3586 101e 01       		.uleb128 0x1
 3587 101f 51       		.byte	0x51
 3588 1020 00       		.byte	0
 3589 1021 00       		.byte	0
 3590 1022 1F       		.uleb128 0x1f
 3591 1023 03010000 		.4byte	.LASF94
 3592 1027 01       		.byte	0x1
 3593 1028 DE03     		.2byte	0x3de
 3594 102a DD000000 		.4byte	0xdd
 3595 102e 00000000 		.4byte	.LFB83
 3596 1032 3E000000 		.4byte	.LFE83-.LFB83
 3597 1036 01       		.uleb128 0x1
 3598 1037 9C       		.byte	0x9c
 3599 1038 F1100000 		.4byte	0x10f1
 3600 103c 11       		.uleb128 0x11
 3601 103d 35020000 		.4byte	.LASF76
 3602 1041 01       		.byte	0x1
 3603 1042 DE03     		.2byte	0x3de
 3604 1044 6A010000 		.4byte	0x16a
 3605 1048 E20E0000 		.4byte	.LLST89
 3606 104c 11       		.uleb128 0x11
 3607 104d 14070000 		.4byte	.LASF87
 3608 1051 01       		.byte	0x1
 3609 1052 DE03     		.2byte	0x3de
 3610 1054 BB0B0000 		.4byte	0xbbb
 3611 1058 190F0000 		.4byte	.LLST90
 3612 105c 12       		.uleb128 0x12
 3613 105d 2D030000 		.4byte	.LASF48
 3614 1061 01       		.byte	0x1
 3615 1062 E003     		.2byte	0x3e0
 3616 1064 14030000 		.4byte	0x314
 3617 1068 5F0F0000 		.4byte	.LLST91
 3618 106c 12       		.uleb128 0x12
 3619 106d 0C070000 		.4byte	.LASF63
 3620 1071 01       		.byte	0x1
 3621 1072 E103     		.2byte	0x3e1
 3622 1074 DD000000 		.4byte	0xdd
 3623 1078 960F0000 		.4byte	.LLST92
ARM GAS  C:\Users\samue\AppData\Local\Temp\cc6oSIFr.s 			page 93


 3624 107c 22       		.uleb128 0x22
 3625 107d F5060000 		.4byte	.LASF88
 3626 1081 01       		.byte	0x1
 3627 1082 E203     		.2byte	0x3e2
 3628 1084 E8000000 		.4byte	0xe8
 3629 1088 23       		.uleb128 0x23
 3630 1089 03020000 		.4byte	0x203
 3631 108d 04000000 		.4byte	.LBB34
 3632 1091 14000000 		.4byte	.LBE34-.LBB34
 3633 1095 01       		.byte	0x1
 3634 1096 E603     		.2byte	0x3e6
 3635 1098 B1100000 		.4byte	0x10b1
 3636 109c 24       		.uleb128 0x24
 3637 109d 04000000 		.4byte	.LBB35
 3638 10a1 14000000 		.4byte	.LBE35-.LBB35
 3639 10a5 25       		.uleb128 0x25
 3640 10a6 13020000 		.4byte	0x213
 3641 10aa 25       		.uleb128 0x25
 3642 10ab 1E020000 		.4byte	0x21e
 3643 10af 00       		.byte	0
 3644 10b0 00       		.byte	0
 3645 10b1 23       		.uleb128 0x23
 3646 10b2 2A020000 		.4byte	0x22a
 3647 10b6 36000000 		.4byte	.LBB36
 3648 10ba 04000000 		.4byte	.LBE36-.LBB36
 3649 10be 01       		.byte	0x1
 3650 10bf F603     		.2byte	0x3f6
 3651 10c1 CF100000 		.4byte	0x10cf
 3652 10c5 26       		.uleb128 0x26
 3653 10c6 36020000 		.4byte	0x236
 3654 10ca B50F0000 		.4byte	.LLST93
 3655 10ce 00       		.byte	0
 3656 10cf 16       		.uleb128 0x16
 3657 10d0 2C000000 		.4byte	.LVL204
 3658 10d4 29120000 		.4byte	0x1229
 3659 10d8 17       		.uleb128 0x17
 3660 10d9 01       		.uleb128 0x1
 3661 10da 51       		.byte	0x51
 3662 10db 01       		.uleb128 0x1
 3663 10dc 30       		.byte	0x30
 3664 10dd 17       		.uleb128 0x17
 3665 10de 01       		.uleb128 0x1
 3666 10df 52       		.byte	0x52
 3667 10e0 01       		.uleb128 0x1
 3668 10e1 30       		.byte	0x30
 3669 10e2 17       		.uleb128 0x17
 3670 10e3 01       		.uleb128 0x1
 3671 10e4 53       		.byte	0x53
 3672 10e5 01       		.uleb128 0x1
 3673 10e6 30       		.byte	0x30
 3674 10e7 17       		.uleb128 0x17
 3675 10e8 02       		.uleb128 0x2
 3676 10e9 7D       		.byte	0x7d
 3677 10ea 00       		.sleb128 0
 3678 10eb 03       		.uleb128 0x3
 3679 10ec F3       		.byte	0xf3
 3680 10ed 01       		.uleb128 0x1
ARM GAS  C:\Users\samue\AppData\Local\Temp\cc6oSIFr.s 			page 94


 3681 10ee 51       		.byte	0x51
 3682 10ef 00       		.byte	0
 3683 10f0 00       		.byte	0
 3684 10f1 1F       		.uleb128 0x1f
 3685 10f2 B6050000 		.4byte	.LASF95
 3686 10f6 01       		.byte	0x1
 3687 10f7 9504     		.2byte	0x495
 3688 10f9 E8000000 		.4byte	0xe8
 3689 10fd 00000000 		.4byte	.LFB88
 3690 1101 04000000 		.4byte	.LFE88-.LFB88
 3691 1105 01       		.uleb128 0x1
 3692 1106 9C       		.byte	0x9c
 3693 1107 1C110000 		.4byte	0x111c
 3694 110b 11       		.uleb128 0x11
 3695 110c 35020000 		.4byte	.LASF76
 3696 1110 01       		.byte	0x1
 3697 1111 9504     		.2byte	0x495
 3698 1113 6A010000 		.4byte	0x16a
 3699 1117 C80F0000 		.4byte	.LLST94
 3700 111b 00       		.byte	0
 3701 111c 1E       		.uleb128 0x1e
 3702 111d 68060000 		.4byte	.LASF97
 3703 1121 01       		.byte	0x1
 3704 1122 9F04     		.2byte	0x49f
 3705 1124 00000000 		.4byte	.LFB89
 3706 1128 04000000 		.4byte	.LFE89-.LFB89
 3707 112c 01       		.uleb128 0x1
 3708 112d 9C       		.byte	0x9c
 3709 112e 4F110000 		.4byte	0x114f
 3710 1132 15       		.uleb128 0x15
 3711 1133 35020000 		.4byte	.LASF76
 3712 1137 01       		.byte	0x1
 3713 1138 9F04     		.2byte	0x49f
 3714 113a 6A010000 		.4byte	0x16a
 3715 113e 01       		.uleb128 0x1
 3716 113f 50       		.byte	0x50
 3717 1140 15       		.uleb128 0x15
 3718 1141 42050000 		.4byte	.LASF44
 3719 1145 01       		.byte	0x1
 3720 1146 9F04     		.2byte	0x49f
 3721 1148 E8000000 		.4byte	0xe8
 3722 114c 01       		.uleb128 0x1
 3723 114d 51       		.byte	0x51
 3724 114e 00       		.byte	0
 3725 114f 1F       		.uleb128 0x1f
 3726 1150 59020000 		.4byte	.LASF98
 3727 1154 01       		.byte	0x1
 3728 1155 A904     		.2byte	0x4a9
 3729 1157 8C000000 		.4byte	0x8c
 3730 115b 00000000 		.4byte	.LFB90
 3731 115f 08000000 		.4byte	.LFE90-.LFB90
 3732 1163 01       		.uleb128 0x1
 3733 1164 9C       		.byte	0x9c
 3734 1165 7A110000 		.4byte	0x117a
 3735 1169 11       		.uleb128 0x11
 3736 116a 35020000 		.4byte	.LASF76
 3737 116e 01       		.byte	0x1
ARM GAS  C:\Users\samue\AppData\Local\Temp\cc6oSIFr.s 			page 95


 3738 116f A904     		.2byte	0x4a9
 3739 1171 6A010000 		.4byte	0x16a
 3740 1175 E90F0000 		.4byte	.LLST95
 3741 1179 00       		.byte	0
 3742 117a 27       		.uleb128 0x27
 3743 117b 67070000 		.4byte	.LASF121
 3744 117f 09       		.byte	0x9
 3745 1180 1207     		.2byte	0x712
 3746 1182 86110000 		.4byte	0x1186
 3747 1186 0B       		.uleb128 0xb
 3748 1187 97000000 		.4byte	0x97
 3749 118b 28       		.uleb128 0x28
 3750 118c B4020000 		.4byte	.LASF99
 3751 1190 B4020000 		.4byte	.LASF99
 3752 1194 28       		.uleb128 0x28
 3753 1195 E5010000 		.4byte	.LASF100
 3754 1199 E5010000 		.4byte	.LASF100
 3755 119d 29       		.uleb128 0x29
 3756 119e 49080000 		.4byte	.LASF101
 3757 11a2 49080000 		.4byte	.LASF101
 3758 11a6 08       		.byte	0x8
 3759 11a7 81       		.byte	0x81
 3760 11a8 29       		.uleb128 0x29
 3761 11a9 F3040000 		.4byte	.LASF102
 3762 11ad F3040000 		.4byte	.LASF102
 3763 11b1 08       		.byte	0x8
 3764 11b2 82       		.byte	0x82
 3765 11b3 2A       		.uleb128 0x2a
 3766 11b4 D0010000 		.4byte	.LASF103
 3767 11b8 D0010000 		.4byte	.LASF103
 3768 11bc 06       		.byte	0x6
 3769 11bd C008     		.2byte	0x8c0
 3770 11bf 29       		.uleb128 0x29
 3771 11c0 E0040000 		.4byte	.LASF104
 3772 11c4 E0040000 		.4byte	.LASF104
 3773 11c8 02       		.byte	0x2
 3774 11c9 61       		.byte	0x61
 3775 11ca 2A       		.uleb128 0x2a
 3776 11cb A5060000 		.4byte	.LASF105
 3777 11cf A5060000 		.4byte	.LASF105
 3778 11d3 06       		.byte	0x6
 3779 11d4 4708     		.2byte	0x847
 3780 11d6 2A       		.uleb128 0x2a
 3781 11d7 02080000 		.4byte	.LASF106
 3782 11db 02080000 		.4byte	.LASF106
 3783 11df 06       		.byte	0x6
 3784 11e0 BB08     		.2byte	0x8bb
 3785 11e2 29       		.uleb128 0x29
 3786 11e3 57050000 		.4byte	.LASF107
 3787 11e7 57050000 		.4byte	.LASF107
 3788 11eb 02       		.byte	0x2
 3789 11ec 62       		.byte	0x62
 3790 11ed 2A       		.uleb128 0x2a
 3791 11ee 49020000 		.4byte	.LASF108
 3792 11f2 49020000 		.4byte	.LASF108
 3793 11f6 06       		.byte	0x6
 3794 11f7 8D07     		.2byte	0x78d
ARM GAS  C:\Users\samue\AppData\Local\Temp\cc6oSIFr.s 			page 96


 3795 11f9 2A       		.uleb128 0x2a
 3796 11fa 05030000 		.4byte	.LASF109
 3797 11fe 05030000 		.4byte	.LASF109
 3798 1202 06       		.byte	0x6
 3799 1203 C608     		.2byte	0x8c6
 3800 1205 2A       		.uleb128 0x2a
 3801 1206 56080000 		.4byte	.LASF110
 3802 120a 56080000 		.4byte	.LASF110
 3803 120e 06       		.byte	0x6
 3804 120f F904     		.2byte	0x4f9
 3805 1211 2A       		.uleb128 0x2a
 3806 1212 EC010000 		.4byte	.LASF111
 3807 1216 EC010000 		.4byte	.LASF111
 3808 121a 06       		.byte	0x6
 3809 121b E506     		.2byte	0x6e5
 3810 121d 2A       		.uleb128 0x2a
 3811 121e BE040000 		.4byte	.LASF112
 3812 1222 BE040000 		.4byte	.LASF112
 3813 1226 06       		.byte	0x6
 3814 1227 2F05     		.2byte	0x52f
 3815 1229 2A       		.uleb128 0x2a
 3816 122a 7B010000 		.4byte	.LASF113
 3817 122e 7B010000 		.4byte	.LASF113
 3818 1232 06       		.byte	0x6
 3819 1233 4007     		.2byte	0x740
 3820 1235 00       		.byte	0
 3821              		.section	.debug_abbrev,"",%progbits
 3822              	.Ldebug_abbrev0:
 3823 0000 01       		.uleb128 0x1
 3824 0001 11       		.uleb128 0x11
 3825 0002 01       		.byte	0x1
 3826 0003 25       		.uleb128 0x25
 3827 0004 0E       		.uleb128 0xe
 3828 0005 13       		.uleb128 0x13
 3829 0006 0B       		.uleb128 0xb
 3830 0007 03       		.uleb128 0x3
 3831 0008 0E       		.uleb128 0xe
 3832 0009 1B       		.uleb128 0x1b
 3833 000a 0E       		.uleb128 0xe
 3834 000b 55       		.uleb128 0x55
 3835 000c 17       		.uleb128 0x17
 3836 000d 11       		.uleb128 0x11
 3837 000e 01       		.uleb128 0x1
 3838 000f 10       		.uleb128 0x10
 3839 0010 17       		.uleb128 0x17
 3840 0011 00       		.byte	0
 3841 0012 00       		.byte	0
 3842 0013 02       		.uleb128 0x2
 3843 0014 24       		.uleb128 0x24
 3844 0015 00       		.byte	0
 3845 0016 0B       		.uleb128 0xb
 3846 0017 0B       		.uleb128 0xb
 3847 0018 3E       		.uleb128 0x3e
 3848 0019 0B       		.uleb128 0xb
 3849 001a 03       		.uleb128 0x3
 3850 001b 0E       		.uleb128 0xe
 3851 001c 00       		.byte	0
ARM GAS  C:\Users\samue\AppData\Local\Temp\cc6oSIFr.s 			page 97


 3852 001d 00       		.byte	0
 3853 001e 03       		.uleb128 0x3
 3854 001f 16       		.uleb128 0x16
 3855 0020 00       		.byte	0
 3856 0021 03       		.uleb128 0x3
 3857 0022 0E       		.uleb128 0xe
 3858 0023 3A       		.uleb128 0x3a
 3859 0024 0B       		.uleb128 0xb
 3860 0025 3B       		.uleb128 0x3b
 3861 0026 0B       		.uleb128 0xb
 3862 0027 49       		.uleb128 0x49
 3863 0028 13       		.uleb128 0x13
 3864 0029 00       		.byte	0
 3865 002a 00       		.byte	0
 3866 002b 04       		.uleb128 0x4
 3867 002c 24       		.uleb128 0x24
 3868 002d 00       		.byte	0
 3869 002e 0B       		.uleb128 0xb
 3870 002f 0B       		.uleb128 0xb
 3871 0030 3E       		.uleb128 0x3e
 3872 0031 0B       		.uleb128 0xb
 3873 0032 03       		.uleb128 0x3
 3874 0033 08       		.uleb128 0x8
 3875 0034 00       		.byte	0
 3876 0035 00       		.byte	0
 3877 0036 05       		.uleb128 0x5
 3878 0037 0F       		.uleb128 0xf
 3879 0038 00       		.byte	0
 3880 0039 0B       		.uleb128 0xb
 3881 003a 0B       		.uleb128 0xb
 3882 003b 00       		.byte	0
 3883 003c 00       		.byte	0
 3884 003d 06       		.uleb128 0x6
 3885 003e 0F       		.uleb128 0xf
 3886 003f 00       		.byte	0
 3887 0040 0B       		.uleb128 0xb
 3888 0041 0B       		.uleb128 0xb
 3889 0042 49       		.uleb128 0x49
 3890 0043 13       		.uleb128 0x13
 3891 0044 00       		.byte	0
 3892 0045 00       		.byte	0
 3893 0046 07       		.uleb128 0x7
 3894 0047 04       		.uleb128 0x4
 3895 0048 01       		.byte	0x1
 3896 0049 0B       		.uleb128 0xb
 3897 004a 0B       		.uleb128 0xb
 3898 004b 49       		.uleb128 0x49
 3899 004c 13       		.uleb128 0x13
 3900 004d 3A       		.uleb128 0x3a
 3901 004e 0B       		.uleb128 0xb
 3902 004f 3B       		.uleb128 0x3b
 3903 0050 0B       		.uleb128 0xb
 3904 0051 01       		.uleb128 0x1
 3905 0052 13       		.uleb128 0x13
 3906 0053 00       		.byte	0
 3907 0054 00       		.byte	0
 3908 0055 08       		.uleb128 0x8
ARM GAS  C:\Users\samue\AppData\Local\Temp\cc6oSIFr.s 			page 98


 3909 0056 28       		.uleb128 0x28
 3910 0057 00       		.byte	0
 3911 0058 03       		.uleb128 0x3
 3912 0059 0E       		.uleb128 0xe
 3913 005a 1C       		.uleb128 0x1c
 3914 005b 0B       		.uleb128 0xb
 3915 005c 00       		.byte	0
 3916 005d 00       		.byte	0
 3917 005e 09       		.uleb128 0x9
 3918 005f 13       		.uleb128 0x13
 3919 0060 01       		.byte	0x1
 3920 0061 03       		.uleb128 0x3
 3921 0062 0E       		.uleb128 0xe
 3922 0063 0B       		.uleb128 0xb
 3923 0064 0B       		.uleb128 0xb
 3924 0065 3A       		.uleb128 0x3a
 3925 0066 0B       		.uleb128 0xb
 3926 0067 3B       		.uleb128 0x3b
 3927 0068 0B       		.uleb128 0xb
 3928 0069 01       		.uleb128 0x1
 3929 006a 13       		.uleb128 0x13
 3930 006b 00       		.byte	0
 3931 006c 00       		.byte	0
 3932 006d 0A       		.uleb128 0xa
 3933 006e 0D       		.uleb128 0xd
 3934 006f 00       		.byte	0
 3935 0070 03       		.uleb128 0x3
 3936 0071 0E       		.uleb128 0xe
 3937 0072 3A       		.uleb128 0x3a
 3938 0073 0B       		.uleb128 0xb
 3939 0074 3B       		.uleb128 0x3b
 3940 0075 0B       		.uleb128 0xb
 3941 0076 49       		.uleb128 0x49
 3942 0077 13       		.uleb128 0x13
 3943 0078 38       		.uleb128 0x38
 3944 0079 0B       		.uleb128 0xb
 3945 007a 00       		.byte	0
 3946 007b 00       		.byte	0
 3947 007c 0B       		.uleb128 0xb
 3948 007d 35       		.uleb128 0x35
 3949 007e 00       		.byte	0
 3950 007f 49       		.uleb128 0x49
 3951 0080 13       		.uleb128 0x13
 3952 0081 00       		.byte	0
 3953 0082 00       		.byte	0
 3954 0083 0C       		.uleb128 0xc
 3955 0084 2E       		.uleb128 0x2e
 3956 0085 01       		.byte	0x1
 3957 0086 03       		.uleb128 0x3
 3958 0087 0E       		.uleb128 0xe
 3959 0088 3A       		.uleb128 0x3a
 3960 0089 0B       		.uleb128 0xb
 3961 008a 3B       		.uleb128 0x3b
 3962 008b 0B       		.uleb128 0xb
 3963 008c 27       		.uleb128 0x27
 3964 008d 19       		.uleb128 0x19
 3965 008e 49       		.uleb128 0x49
ARM GAS  C:\Users\samue\AppData\Local\Temp\cc6oSIFr.s 			page 99


 3966 008f 13       		.uleb128 0x13
 3967 0090 20       		.uleb128 0x20
 3968 0091 0B       		.uleb128 0xb
 3969 0092 01       		.uleb128 0x1
 3970 0093 13       		.uleb128 0x13
 3971 0094 00       		.byte	0
 3972 0095 00       		.byte	0
 3973 0096 0D       		.uleb128 0xd
 3974 0097 34       		.uleb128 0x34
 3975 0098 00       		.byte	0
 3976 0099 03       		.uleb128 0x3
 3977 009a 0E       		.uleb128 0xe
 3978 009b 3A       		.uleb128 0x3a
 3979 009c 0B       		.uleb128 0xb
 3980 009d 3B       		.uleb128 0x3b
 3981 009e 0B       		.uleb128 0xb
 3982 009f 49       		.uleb128 0x49
 3983 00a0 13       		.uleb128 0x13
 3984 00a1 00       		.byte	0
 3985 00a2 00       		.byte	0
 3986 00a3 0E       		.uleb128 0xe
 3987 00a4 2E       		.uleb128 0x2e
 3988 00a5 01       		.byte	0x1
 3989 00a6 03       		.uleb128 0x3
 3990 00a7 0E       		.uleb128 0xe
 3991 00a8 3A       		.uleb128 0x3a
 3992 00a9 0B       		.uleb128 0xb
 3993 00aa 3B       		.uleb128 0x3b
 3994 00ab 0B       		.uleb128 0xb
 3995 00ac 27       		.uleb128 0x27
 3996 00ad 19       		.uleb128 0x19
 3997 00ae 20       		.uleb128 0x20
 3998 00af 0B       		.uleb128 0xb
 3999 00b0 01       		.uleb128 0x1
 4000 00b1 13       		.uleb128 0x13
 4001 00b2 00       		.byte	0
 4002 00b3 00       		.byte	0
 4003 00b4 0F       		.uleb128 0xf
 4004 00b5 05       		.uleb128 0x5
 4005 00b6 00       		.byte	0
 4006 00b7 03       		.uleb128 0x3
 4007 00b8 0E       		.uleb128 0xe
 4008 00b9 3A       		.uleb128 0x3a
 4009 00ba 0B       		.uleb128 0xb
 4010 00bb 3B       		.uleb128 0x3b
 4011 00bc 0B       		.uleb128 0xb
 4012 00bd 49       		.uleb128 0x49
 4013 00be 13       		.uleb128 0x13
 4014 00bf 00       		.byte	0
 4015 00c0 00       		.byte	0
 4016 00c1 10       		.uleb128 0x10
 4017 00c2 2E       		.uleb128 0x2e
 4018 00c3 01       		.byte	0x1
 4019 00c4 03       		.uleb128 0x3
 4020 00c5 0E       		.uleb128 0xe
 4021 00c6 3A       		.uleb128 0x3a
 4022 00c7 0B       		.uleb128 0xb
ARM GAS  C:\Users\samue\AppData\Local\Temp\cc6oSIFr.s 			page 100


 4023 00c8 3B       		.uleb128 0x3b
 4024 00c9 05       		.uleb128 0x5
 4025 00ca 27       		.uleb128 0x27
 4026 00cb 19       		.uleb128 0x19
 4027 00cc 49       		.uleb128 0x49
 4028 00cd 13       		.uleb128 0x13
 4029 00ce 11       		.uleb128 0x11
 4030 00cf 01       		.uleb128 0x1
 4031 00d0 12       		.uleb128 0x12
 4032 00d1 06       		.uleb128 0x6
 4033 00d2 40       		.uleb128 0x40
 4034 00d3 18       		.uleb128 0x18
 4035 00d4 9742     		.uleb128 0x2117
 4036 00d6 19       		.uleb128 0x19
 4037 00d7 01       		.uleb128 0x1
 4038 00d8 13       		.uleb128 0x13
 4039 00d9 00       		.byte	0
 4040 00da 00       		.byte	0
 4041 00db 11       		.uleb128 0x11
 4042 00dc 05       		.uleb128 0x5
 4043 00dd 00       		.byte	0
 4044 00de 03       		.uleb128 0x3
 4045 00df 0E       		.uleb128 0xe
 4046 00e0 3A       		.uleb128 0x3a
 4047 00e1 0B       		.uleb128 0xb
 4048 00e2 3B       		.uleb128 0x3b
 4049 00e3 05       		.uleb128 0x5
 4050 00e4 49       		.uleb128 0x49
 4051 00e5 13       		.uleb128 0x13
 4052 00e6 02       		.uleb128 0x2
 4053 00e7 17       		.uleb128 0x17
 4054 00e8 00       		.byte	0
 4055 00e9 00       		.byte	0
 4056 00ea 12       		.uleb128 0x12
 4057 00eb 34       		.uleb128 0x34
 4058 00ec 00       		.byte	0
 4059 00ed 03       		.uleb128 0x3
 4060 00ee 0E       		.uleb128 0xe
 4061 00ef 3A       		.uleb128 0x3a
 4062 00f0 0B       		.uleb128 0xb
 4063 00f1 3B       		.uleb128 0x3b
 4064 00f2 05       		.uleb128 0x5
 4065 00f3 49       		.uleb128 0x49
 4066 00f4 13       		.uleb128 0x13
 4067 00f5 02       		.uleb128 0x2
 4068 00f6 17       		.uleb128 0x17
 4069 00f7 00       		.byte	0
 4070 00f8 00       		.byte	0
 4071 00f9 13       		.uleb128 0x13
 4072 00fa 26       		.uleb128 0x26
 4073 00fb 00       		.byte	0
 4074 00fc 49       		.uleb128 0x49
 4075 00fd 13       		.uleb128 0x13
 4076 00fe 00       		.byte	0
 4077 00ff 00       		.byte	0
 4078 0100 14       		.uleb128 0x14
 4079 0101 2E       		.uleb128 0x2e
ARM GAS  C:\Users\samue\AppData\Local\Temp\cc6oSIFr.s 			page 101


 4080 0102 01       		.byte	0x1
 4081 0103 03       		.uleb128 0x3
 4082 0104 0E       		.uleb128 0xe
 4083 0105 3A       		.uleb128 0x3a
 4084 0106 0B       		.uleb128 0xb
 4085 0107 3B       		.uleb128 0x3b
 4086 0108 05       		.uleb128 0x5
 4087 0109 27       		.uleb128 0x27
 4088 010a 19       		.uleb128 0x19
 4089 010b 11       		.uleb128 0x11
 4090 010c 01       		.uleb128 0x1
 4091 010d 12       		.uleb128 0x12
 4092 010e 06       		.uleb128 0x6
 4093 010f 40       		.uleb128 0x40
 4094 0110 18       		.uleb128 0x18
 4095 0111 9742     		.uleb128 0x2117
 4096 0113 19       		.uleb128 0x19
 4097 0114 01       		.uleb128 0x1
 4098 0115 13       		.uleb128 0x13
 4099 0116 00       		.byte	0
 4100 0117 00       		.byte	0
 4101 0118 15       		.uleb128 0x15
 4102 0119 05       		.uleb128 0x5
 4103 011a 00       		.byte	0
 4104 011b 03       		.uleb128 0x3
 4105 011c 0E       		.uleb128 0xe
 4106 011d 3A       		.uleb128 0x3a
 4107 011e 0B       		.uleb128 0xb
 4108 011f 3B       		.uleb128 0x3b
 4109 0120 05       		.uleb128 0x5
 4110 0121 49       		.uleb128 0x49
 4111 0122 13       		.uleb128 0x13
 4112 0123 02       		.uleb128 0x2
 4113 0124 18       		.uleb128 0x18
 4114 0125 00       		.byte	0
 4115 0126 00       		.byte	0
 4116 0127 16       		.uleb128 0x16
 4117 0128 898201   		.uleb128 0x4109
 4118 012b 01       		.byte	0x1
 4119 012c 11       		.uleb128 0x11
 4120 012d 01       		.uleb128 0x1
 4121 012e 31       		.uleb128 0x31
 4122 012f 13       		.uleb128 0x13
 4123 0130 00       		.byte	0
 4124 0131 00       		.byte	0
 4125 0132 17       		.uleb128 0x17
 4126 0133 8A8201   		.uleb128 0x410a
 4127 0136 00       		.byte	0
 4128 0137 02       		.uleb128 0x2
 4129 0138 18       		.uleb128 0x18
 4130 0139 9142     		.uleb128 0x2111
 4131 013b 18       		.uleb128 0x18
 4132 013c 00       		.byte	0
 4133 013d 00       		.byte	0
 4134 013e 18       		.uleb128 0x18
 4135 013f 34       		.uleb128 0x34
 4136 0140 00       		.byte	0
ARM GAS  C:\Users\samue\AppData\Local\Temp\cc6oSIFr.s 			page 102


 4137 0141 03       		.uleb128 0x3
 4138 0142 0E       		.uleb128 0xe
 4139 0143 3A       		.uleb128 0x3a
 4140 0144 0B       		.uleb128 0xb
 4141 0145 3B       		.uleb128 0x3b
 4142 0146 05       		.uleb128 0x5
 4143 0147 49       		.uleb128 0x49
 4144 0148 13       		.uleb128 0x13
 4145 0149 02       		.uleb128 0x2
 4146 014a 18       		.uleb128 0x18
 4147 014b 00       		.byte	0
 4148 014c 00       		.byte	0
 4149 014d 19       		.uleb128 0x19
 4150 014e 898201   		.uleb128 0x4109
 4151 0151 01       		.byte	0x1
 4152 0152 11       		.uleb128 0x11
 4153 0153 01       		.uleb128 0x1
 4154 0154 31       		.uleb128 0x31
 4155 0155 13       		.uleb128 0x13
 4156 0156 01       		.uleb128 0x1
 4157 0157 13       		.uleb128 0x13
 4158 0158 00       		.byte	0
 4159 0159 00       		.byte	0
 4160 015a 1A       		.uleb128 0x1a
 4161 015b 26       		.uleb128 0x26
 4162 015c 00       		.byte	0
 4163 015d 00       		.byte	0
 4164 015e 00       		.byte	0
 4165 015f 1B       		.uleb128 0x1b
 4166 0160 2E       		.uleb128 0x2e
 4167 0161 01       		.byte	0x1
 4168 0162 3F       		.uleb128 0x3f
 4169 0163 19       		.uleb128 0x19
 4170 0164 03       		.uleb128 0x3
 4171 0165 0E       		.uleb128 0xe
 4172 0166 3A       		.uleb128 0x3a
 4173 0167 0B       		.uleb128 0xb
 4174 0168 3B       		.uleb128 0x3b
 4175 0169 0B       		.uleb128 0xb
 4176 016a 27       		.uleb128 0x27
 4177 016b 19       		.uleb128 0x19
 4178 016c 49       		.uleb128 0x49
 4179 016d 13       		.uleb128 0x13
 4180 016e 11       		.uleb128 0x11
 4181 016f 01       		.uleb128 0x1
 4182 0170 12       		.uleb128 0x12
 4183 0171 06       		.uleb128 0x6
 4184 0172 40       		.uleb128 0x40
 4185 0173 18       		.uleb128 0x18
 4186 0174 9742     		.uleb128 0x2117
 4187 0176 19       		.uleb128 0x19
 4188 0177 01       		.uleb128 0x1
 4189 0178 13       		.uleb128 0x13
 4190 0179 00       		.byte	0
 4191 017a 00       		.byte	0
 4192 017b 1C       		.uleb128 0x1c
 4193 017c 05       		.uleb128 0x5
ARM GAS  C:\Users\samue\AppData\Local\Temp\cc6oSIFr.s 			page 103


 4194 017d 00       		.byte	0
 4195 017e 03       		.uleb128 0x3
 4196 017f 0E       		.uleb128 0xe
 4197 0180 3A       		.uleb128 0x3a
 4198 0181 0B       		.uleb128 0xb
 4199 0182 3B       		.uleb128 0x3b
 4200 0183 0B       		.uleb128 0xb
 4201 0184 49       		.uleb128 0x49
 4202 0185 13       		.uleb128 0x13
 4203 0186 02       		.uleb128 0x2
 4204 0187 17       		.uleb128 0x17
 4205 0188 00       		.byte	0
 4206 0189 00       		.byte	0
 4207 018a 1D       		.uleb128 0x1d
 4208 018b 34       		.uleb128 0x34
 4209 018c 00       		.byte	0
 4210 018d 03       		.uleb128 0x3
 4211 018e 0E       		.uleb128 0xe
 4212 018f 3A       		.uleb128 0x3a
 4213 0190 0B       		.uleb128 0xb
 4214 0191 3B       		.uleb128 0x3b
 4215 0192 0B       		.uleb128 0xb
 4216 0193 49       		.uleb128 0x49
 4217 0194 13       		.uleb128 0x13
 4218 0195 02       		.uleb128 0x2
 4219 0196 17       		.uleb128 0x17
 4220 0197 00       		.byte	0
 4221 0198 00       		.byte	0
 4222 0199 1E       		.uleb128 0x1e
 4223 019a 2E       		.uleb128 0x2e
 4224 019b 01       		.byte	0x1
 4225 019c 3F       		.uleb128 0x3f
 4226 019d 19       		.uleb128 0x19
 4227 019e 03       		.uleb128 0x3
 4228 019f 0E       		.uleb128 0xe
 4229 01a0 3A       		.uleb128 0x3a
 4230 01a1 0B       		.uleb128 0xb
 4231 01a2 3B       		.uleb128 0x3b
 4232 01a3 05       		.uleb128 0x5
 4233 01a4 27       		.uleb128 0x27
 4234 01a5 19       		.uleb128 0x19
 4235 01a6 11       		.uleb128 0x11
 4236 01a7 01       		.uleb128 0x1
 4237 01a8 12       		.uleb128 0x12
 4238 01a9 06       		.uleb128 0x6
 4239 01aa 40       		.uleb128 0x40
 4240 01ab 18       		.uleb128 0x18
 4241 01ac 9742     		.uleb128 0x2117
 4242 01ae 19       		.uleb128 0x19
 4243 01af 01       		.uleb128 0x1
 4244 01b0 13       		.uleb128 0x13
 4245 01b1 00       		.byte	0
 4246 01b2 00       		.byte	0
 4247 01b3 1F       		.uleb128 0x1f
 4248 01b4 2E       		.uleb128 0x2e
 4249 01b5 01       		.byte	0x1
 4250 01b6 3F       		.uleb128 0x3f
ARM GAS  C:\Users\samue\AppData\Local\Temp\cc6oSIFr.s 			page 104


 4251 01b7 19       		.uleb128 0x19
 4252 01b8 03       		.uleb128 0x3
 4253 01b9 0E       		.uleb128 0xe
 4254 01ba 3A       		.uleb128 0x3a
 4255 01bb 0B       		.uleb128 0xb
 4256 01bc 3B       		.uleb128 0x3b
 4257 01bd 05       		.uleb128 0x5
 4258 01be 27       		.uleb128 0x27
 4259 01bf 19       		.uleb128 0x19
 4260 01c0 49       		.uleb128 0x49
 4261 01c1 13       		.uleb128 0x13
 4262 01c2 11       		.uleb128 0x11
 4263 01c3 01       		.uleb128 0x1
 4264 01c4 12       		.uleb128 0x12
 4265 01c5 06       		.uleb128 0x6
 4266 01c6 40       		.uleb128 0x40
 4267 01c7 18       		.uleb128 0x18
 4268 01c8 9742     		.uleb128 0x2117
 4269 01ca 19       		.uleb128 0x19
 4270 01cb 01       		.uleb128 0x1
 4271 01cc 13       		.uleb128 0x13
 4272 01cd 00       		.byte	0
 4273 01ce 00       		.byte	0
 4274 01cf 20       		.uleb128 0x20
 4275 01d0 898201   		.uleb128 0x4109
 4276 01d3 00       		.byte	0
 4277 01d4 11       		.uleb128 0x11
 4278 01d5 01       		.uleb128 0x1
 4279 01d6 31       		.uleb128 0x31
 4280 01d7 13       		.uleb128 0x13
 4281 01d8 00       		.byte	0
 4282 01d9 00       		.byte	0
 4283 01da 21       		.uleb128 0x21
 4284 01db 0B       		.uleb128 0xb
 4285 01dc 01       		.byte	0x1
 4286 01dd 11       		.uleb128 0x11
 4287 01de 01       		.uleb128 0x1
 4288 01df 12       		.uleb128 0x12
 4289 01e0 06       		.uleb128 0x6
 4290 01e1 01       		.uleb128 0x1
 4291 01e2 13       		.uleb128 0x13
 4292 01e3 00       		.byte	0
 4293 01e4 00       		.byte	0
 4294 01e5 22       		.uleb128 0x22
 4295 01e6 34       		.uleb128 0x34
 4296 01e7 00       		.byte	0
 4297 01e8 03       		.uleb128 0x3
 4298 01e9 0E       		.uleb128 0xe
 4299 01ea 3A       		.uleb128 0x3a
 4300 01eb 0B       		.uleb128 0xb
 4301 01ec 3B       		.uleb128 0x3b
 4302 01ed 05       		.uleb128 0x5
 4303 01ee 49       		.uleb128 0x49
 4304 01ef 13       		.uleb128 0x13
 4305 01f0 00       		.byte	0
 4306 01f1 00       		.byte	0
 4307 01f2 23       		.uleb128 0x23
ARM GAS  C:\Users\samue\AppData\Local\Temp\cc6oSIFr.s 			page 105


 4308 01f3 1D       		.uleb128 0x1d
 4309 01f4 01       		.byte	0x1
 4310 01f5 31       		.uleb128 0x31
 4311 01f6 13       		.uleb128 0x13
 4312 01f7 11       		.uleb128 0x11
 4313 01f8 01       		.uleb128 0x1
 4314 01f9 12       		.uleb128 0x12
 4315 01fa 06       		.uleb128 0x6
 4316 01fb 58       		.uleb128 0x58
 4317 01fc 0B       		.uleb128 0xb
 4318 01fd 59       		.uleb128 0x59
 4319 01fe 05       		.uleb128 0x5
 4320 01ff 01       		.uleb128 0x1
 4321 0200 13       		.uleb128 0x13
 4322 0201 00       		.byte	0
 4323 0202 00       		.byte	0
 4324 0203 24       		.uleb128 0x24
 4325 0204 0B       		.uleb128 0xb
 4326 0205 01       		.byte	0x1
 4327 0206 11       		.uleb128 0x11
 4328 0207 01       		.uleb128 0x1
 4329 0208 12       		.uleb128 0x12
 4330 0209 06       		.uleb128 0x6
 4331 020a 00       		.byte	0
 4332 020b 00       		.byte	0
 4333 020c 25       		.uleb128 0x25
 4334 020d 34       		.uleb128 0x34
 4335 020e 00       		.byte	0
 4336 020f 31       		.uleb128 0x31
 4337 0210 13       		.uleb128 0x13
 4338 0211 00       		.byte	0
 4339 0212 00       		.byte	0
 4340 0213 26       		.uleb128 0x26
 4341 0214 05       		.uleb128 0x5
 4342 0215 00       		.byte	0
 4343 0216 31       		.uleb128 0x31
 4344 0217 13       		.uleb128 0x13
 4345 0218 02       		.uleb128 0x2
 4346 0219 17       		.uleb128 0x17
 4347 021a 00       		.byte	0
 4348 021b 00       		.byte	0
 4349 021c 27       		.uleb128 0x27
 4350 021d 34       		.uleb128 0x34
 4351 021e 00       		.byte	0
 4352 021f 03       		.uleb128 0x3
 4353 0220 0E       		.uleb128 0xe
 4354 0221 3A       		.uleb128 0x3a
 4355 0222 0B       		.uleb128 0xb
 4356 0223 3B       		.uleb128 0x3b
 4357 0224 05       		.uleb128 0x5
 4358 0225 49       		.uleb128 0x49
 4359 0226 13       		.uleb128 0x13
 4360 0227 3F       		.uleb128 0x3f
 4361 0228 19       		.uleb128 0x19
 4362 0229 3C       		.uleb128 0x3c
 4363 022a 19       		.uleb128 0x19
 4364 022b 00       		.byte	0
ARM GAS  C:\Users\samue\AppData\Local\Temp\cc6oSIFr.s 			page 106


 4365 022c 00       		.byte	0
 4366 022d 28       		.uleb128 0x28
 4367 022e 2E       		.uleb128 0x2e
 4368 022f 00       		.byte	0
 4369 0230 3F       		.uleb128 0x3f
 4370 0231 19       		.uleb128 0x19
 4371 0232 3C       		.uleb128 0x3c
 4372 0233 19       		.uleb128 0x19
 4373 0234 6E       		.uleb128 0x6e
 4374 0235 0E       		.uleb128 0xe
 4375 0236 03       		.uleb128 0x3
 4376 0237 0E       		.uleb128 0xe
 4377 0238 00       		.byte	0
 4378 0239 00       		.byte	0
 4379 023a 29       		.uleb128 0x29
 4380 023b 2E       		.uleb128 0x2e
 4381 023c 00       		.byte	0
 4382 023d 3F       		.uleb128 0x3f
 4383 023e 19       		.uleb128 0x19
 4384 023f 3C       		.uleb128 0x3c
 4385 0240 19       		.uleb128 0x19
 4386 0241 6E       		.uleb128 0x6e
 4387 0242 0E       		.uleb128 0xe
 4388 0243 03       		.uleb128 0x3
 4389 0244 0E       		.uleb128 0xe
 4390 0245 3A       		.uleb128 0x3a
 4391 0246 0B       		.uleb128 0xb
 4392 0247 3B       		.uleb128 0x3b
 4393 0248 0B       		.uleb128 0xb
 4394 0249 00       		.byte	0
 4395 024a 00       		.byte	0
 4396 024b 2A       		.uleb128 0x2a
 4397 024c 2E       		.uleb128 0x2e
 4398 024d 00       		.byte	0
 4399 024e 3F       		.uleb128 0x3f
 4400 024f 19       		.uleb128 0x19
 4401 0250 3C       		.uleb128 0x3c
 4402 0251 19       		.uleb128 0x19
 4403 0252 6E       		.uleb128 0x6e
 4404 0253 0E       		.uleb128 0xe
 4405 0254 03       		.uleb128 0x3
 4406 0255 0E       		.uleb128 0xe
 4407 0256 3A       		.uleb128 0x3a
 4408 0257 0B       		.uleb128 0xb
 4409 0258 3B       		.uleb128 0x3b
 4410 0259 05       		.uleb128 0x5
 4411 025a 00       		.byte	0
 4412 025b 00       		.byte	0
 4413 025c 00       		.byte	0
 4414              		.section	.debug_loc,"",%progbits
 4415              	.Ldebug_loc0:
 4416              	.LLST0:
 4417 0000 00000000 		.4byte	.LVL0
 4418 0004 08000000 		.4byte	.LVL2
 4419 0008 0100     		.2byte	0x1
 4420 000a 50       		.byte	0x50
 4421 000b 08000000 		.4byte	.LVL2
ARM GAS  C:\Users\samue\AppData\Local\Temp\cc6oSIFr.s 			page 107


 4422 000f 12000000 		.4byte	.LFE86
 4423 0013 0400     		.2byte	0x4
 4424 0015 F3       		.byte	0xf3
 4425 0016 01       		.uleb128 0x1
 4426 0017 50       		.byte	0x50
 4427 0018 9F       		.byte	0x9f
 4428 0019 00000000 		.4byte	0
 4429 001d 00000000 		.4byte	0
 4430              	.LLST1:
 4431 0021 06000000 		.4byte	.LVL1
 4432 0025 0A000000 		.4byte	.LVL3
 4433 0029 0100     		.2byte	0x1
 4434 002b 53       		.byte	0x53
 4435 002c 0A000000 		.4byte	.LVL3
 4436 0030 12000000 		.4byte	.LFE86
 4437 0034 0100     		.2byte	0x1
 4438 0036 50       		.byte	0x50
 4439 0037 00000000 		.4byte	0
 4440 003b 00000000 		.4byte	0
 4441              	.LLST2:
 4442 003f 00000000 		.4byte	.LVL5
 4443 0043 11000000 		.4byte	.LVL8-1
 4444 0047 0100     		.2byte	0x1
 4445 0049 50       		.byte	0x50
 4446 004a 11000000 		.4byte	.LVL8-1
 4447 004e 26000000 		.4byte	.LFE87
 4448 0052 0100     		.2byte	0x1
 4449 0054 54       		.byte	0x54
 4450 0055 00000000 		.4byte	0
 4451 0059 00000000 		.4byte	0
 4452              	.LLST3:
 4453 005d 00000000 		.4byte	.LVL5
 4454 0061 0E000000 		.4byte	.LVL7
 4455 0065 0100     		.2byte	0x1
 4456 0067 51       		.byte	0x51
 4457 0068 0E000000 		.4byte	.LVL7
 4458 006c 26000000 		.4byte	.LFE87
 4459 0070 0100     		.2byte	0x1
 4460 0072 55       		.byte	0x55
 4461 0073 00000000 		.4byte	0
 4462 0077 00000000 		.4byte	0
 4463              	.LLST4:
 4464 007b 00000000 		.4byte	.LVL5
 4465 007f 0C000000 		.4byte	.LVL6
 4466 0083 0100     		.2byte	0x1
 4467 0085 52       		.byte	0x52
 4468 0086 0C000000 		.4byte	.LVL6
 4469 008a 26000000 		.4byte	.LFE87
 4470 008e 0100     		.2byte	0x1
 4471 0090 57       		.byte	0x57
 4472 0091 00000000 		.4byte	0
 4473 0095 00000000 		.4byte	0
 4474              	.LLST5:
 4475 0099 00000000 		.4byte	.LVL5
 4476 009d 11000000 		.4byte	.LVL8-1
 4477 00a1 0100     		.2byte	0x1
 4478 00a3 53       		.byte	0x53
ARM GAS  C:\Users\samue\AppData\Local\Temp\cc6oSIFr.s 			page 108


 4479 00a4 11000000 		.4byte	.LVL8-1
 4480 00a8 26000000 		.4byte	.LFE87
 4481 00ac 0100     		.2byte	0x1
 4482 00ae 56       		.byte	0x56
 4483 00af 00000000 		.4byte	0
 4484 00b3 00000000 		.4byte	0
 4485              	.LLST6:
 4486 00b7 00000000 		.4byte	.LVL9
 4487 00bb 18000000 		.4byte	.LVL12
 4488 00bf 0100     		.2byte	0x1
 4489 00c1 50       		.byte	0x50
 4490 00c2 18000000 		.4byte	.LVL12
 4491 00c6 42000000 		.4byte	.LFE84
 4492 00ca 0100     		.2byte	0x1
 4493 00cc 56       		.byte	0x56
 4494 00cd 00000000 		.4byte	0
 4495 00d1 00000000 		.4byte	0
 4496              	.LLST7:
 4497 00d5 00000000 		.4byte	.LVL9
 4498 00d9 1F000000 		.4byte	.LVL14-1
 4499 00dd 0100     		.2byte	0x1
 4500 00df 51       		.byte	0x51
 4501 00e0 1F000000 		.4byte	.LVL14-1
 4502 00e4 42000000 		.4byte	.LFE84
 4503 00e8 0100     		.2byte	0x1
 4504 00ea 58       		.byte	0x58
 4505 00eb 00000000 		.4byte	0
 4506 00ef 00000000 		.4byte	0
 4507              	.LLST8:
 4508 00f3 00000000 		.4byte	.LVL9
 4509 00f7 1A000000 		.4byte	.LVL13
 4510 00fb 0100     		.2byte	0x1
 4511 00fd 52       		.byte	0x52
 4512 00fe 1A000000 		.4byte	.LVL13
 4513 0102 42000000 		.4byte	.LFE84
 4514 0106 0100     		.2byte	0x1
 4515 0108 57       		.byte	0x57
 4516 0109 00000000 		.4byte	0
 4517 010d 00000000 		.4byte	0
 4518              	.LLST9:
 4519 0111 0C000000 		.4byte	.LVL10
 4520 0115 32000000 		.4byte	.LVL16
 4521 0119 0100     		.2byte	0x1
 4522 011b 54       		.byte	0x54
 4523 011c 32000000 		.4byte	.LVL16
 4524 0120 42000000 		.4byte	.LFE84
 4525 0124 0100     		.2byte	0x1
 4526 0126 53       		.byte	0x53
 4527 0127 00000000 		.4byte	0
 4528 012b 00000000 		.4byte	0
 4529              	.LLST10:
 4530 012f 00000000 		.4byte	.LVL18
 4531 0133 33000000 		.4byte	.LVL29-1
 4532 0137 0100     		.2byte	0x1
 4533 0139 50       		.byte	0x50
 4534 013a 33000000 		.4byte	.LVL29-1
 4535 013e 38000000 		.4byte	.LVL30
ARM GAS  C:\Users\samue\AppData\Local\Temp\cc6oSIFr.s 			page 109


 4536 0142 0100     		.2byte	0x1
 4537 0144 54       		.byte	0x54
 4538 0145 38000000 		.4byte	.LVL30
 4539 0149 3E000000 		.4byte	.LVL33
 4540 014d 0100     		.2byte	0x1
 4541 014f 50       		.byte	0x50
 4542 0150 3E000000 		.4byte	.LVL33
 4543 0154 52000000 		.4byte	.LFE76
 4544 0158 0100     		.2byte	0x1
 4545 015a 54       		.byte	0x54
 4546 015b 00000000 		.4byte	0
 4547 015f 00000000 		.4byte	0
 4548              	.LLST11:
 4549 0163 00000000 		.4byte	.LVL18
 4550 0167 30000000 		.4byte	.LVL28
 4551 016b 0100     		.2byte	0x1
 4552 016d 51       		.byte	0x51
 4553 016e 30000000 		.4byte	.LVL28
 4554 0172 38000000 		.4byte	.LVL30
 4555 0176 0100     		.2byte	0x1
 4556 0178 55       		.byte	0x55
 4557 0179 38000000 		.4byte	.LVL30
 4558 017d 3E000000 		.4byte	.LVL33
 4559 0181 0100     		.2byte	0x1
 4560 0183 51       		.byte	0x51
 4561 0184 3E000000 		.4byte	.LVL33
 4562 0188 52000000 		.4byte	.LFE76
 4563 018c 0100     		.2byte	0x1
 4564 018e 55       		.byte	0x55
 4565 018f 00000000 		.4byte	0
 4566 0193 00000000 		.4byte	0
 4567              	.LLST12:
 4568 0197 00000000 		.4byte	.LVL18
 4569 019b 0E000000 		.4byte	.LVL19
 4570 019f 0100     		.2byte	0x1
 4571 01a1 52       		.byte	0x52
 4572 01a2 0E000000 		.4byte	.LVL19
 4573 01a6 20000000 		.4byte	.LVL23
 4574 01aa 0200     		.2byte	0x2
 4575 01ac 91       		.byte	0x91
 4576 01ad 6C       		.sleb128 -20
 4577 01ae 20000000 		.4byte	.LVL23
 4578 01b2 22000000 		.4byte	.LVL24
 4579 01b6 0100     		.2byte	0x1
 4580 01b8 53       		.byte	0x53
 4581 01b9 22000000 		.4byte	.LVL24
 4582 01bd 24000000 		.4byte	.LVL25
 4583 01c1 0400     		.2byte	0x4
 4584 01c3 F3       		.byte	0xf3
 4585 01c4 01       		.uleb128 0x1
 4586 01c5 52       		.byte	0x52
 4587 01c6 9F       		.byte	0x9f
 4588 01c7 24000000 		.4byte	.LVL25
 4589 01cb 38000000 		.4byte	.LVL30
 4590 01cf 0200     		.2byte	0x2
 4591 01d1 91       		.byte	0x91
 4592 01d2 6C       		.sleb128 -20
ARM GAS  C:\Users\samue\AppData\Local\Temp\cc6oSIFr.s 			page 110


 4593 01d3 38000000 		.4byte	.LVL30
 4594 01d7 3C000000 		.4byte	.LVL32
 4595 01db 0100     		.2byte	0x1
 4596 01dd 52       		.byte	0x52
 4597 01de 3C000000 		.4byte	.LVL32
 4598 01e2 3E000000 		.4byte	.LVL33
 4599 01e6 0200     		.2byte	0x2
 4600 01e8 91       		.byte	0x91
 4601 01e9 6C       		.sleb128 -20
 4602 01ea 00000000 		.4byte	0
 4603 01ee 00000000 		.4byte	0
 4604              	.LLST13:
 4605 01f2 00000000 		.4byte	.LVL18
 4606 01f6 10000000 		.4byte	.LVL20
 4607 01fa 0100     		.2byte	0x1
 4608 01fc 53       		.byte	0x53
 4609 01fd 10000000 		.4byte	.LVL20
 4610 0201 1E000000 		.4byte	.LVL22
 4611 0205 0100     		.2byte	0x1
 4612 0207 52       		.byte	0x52
 4613 0208 1E000000 		.4byte	.LVL22
 4614 020c 24000000 		.4byte	.LVL25
 4615 0210 0400     		.2byte	0x4
 4616 0212 F3       		.byte	0xf3
 4617 0213 01       		.uleb128 0x1
 4618 0214 53       		.byte	0x53
 4619 0215 9F       		.byte	0x9f
 4620 0216 24000000 		.4byte	.LVL25
 4621 021a 2C000000 		.4byte	.LVL27
 4622 021e 0100     		.2byte	0x1
 4623 0220 52       		.byte	0x52
 4624 0221 2C000000 		.4byte	.LVL27
 4625 0225 38000000 		.4byte	.LVL30
 4626 0229 0400     		.2byte	0x4
 4627 022b F3       		.byte	0xf3
 4628 022c 01       		.uleb128 0x1
 4629 022d 53       		.byte	0x53
 4630 022e 9F       		.byte	0x9f
 4631 022f 38000000 		.4byte	.LVL30
 4632 0233 3A000000 		.4byte	.LVL31
 4633 0237 0100     		.2byte	0x1
 4634 0239 53       		.byte	0x53
 4635 023a 3A000000 		.4byte	.LVL31
 4636 023e 3C000000 		.4byte	.LVL32
 4637 0242 0400     		.2byte	0x4
 4638 0244 F3       		.byte	0xf3
 4639 0245 01       		.uleb128 0x1
 4640 0246 53       		.byte	0x53
 4641 0247 9F       		.byte	0x9f
 4642 0248 3C000000 		.4byte	.LVL32
 4643 024c 3E000000 		.4byte	.LVL33
 4644 0250 0100     		.2byte	0x1
 4645 0252 52       		.byte	0x52
 4646 0253 3E000000 		.4byte	.LVL33
 4647 0257 52000000 		.4byte	.LFE76
 4648 025b 0400     		.2byte	0x4
 4649 025d F3       		.byte	0xf3
ARM GAS  C:\Users\samue\AppData\Local\Temp\cc6oSIFr.s 			page 111


 4650 025e 01       		.uleb128 0x1
 4651 025f 53       		.byte	0x53
 4652 0260 9F       		.byte	0x9f
 4653 0261 00000000 		.4byte	0
 4654 0265 00000000 		.4byte	0
 4655              	.LLST14:
 4656 0269 16000000 		.4byte	.LVL21
 4657 026d 24000000 		.4byte	.LVL25
 4658 0271 0200     		.2byte	0x2
 4659 0273 31       		.byte	0x31
 4660 0274 9F       		.byte	0x9f
 4661 0275 2A000000 		.4byte	.LVL26
 4662 0279 38000000 		.4byte	.LVL30
 4663 027d 0200     		.2byte	0x2
 4664 027f 31       		.byte	0x31
 4665 0280 9F       		.byte	0x9f
 4666 0281 3E000000 		.4byte	.LVL33
 4667 0285 49000000 		.4byte	.LVL34-1
 4668 0289 0100     		.2byte	0x1
 4669 028b 53       		.byte	0x53
 4670 028c 4C000000 		.4byte	.LVL35
 4671 0290 4E000000 		.4byte	.LVL36
 4672 0294 0100     		.2byte	0x1
 4673 0296 53       		.byte	0x53
 4674 0297 00000000 		.4byte	0
 4675 029b 00000000 		.4byte	0
 4676              	.LLST15:
 4677 029f 4A000000 		.4byte	.LVL34
 4678 02a3 4C000000 		.4byte	.LVL35
 4679 02a7 0100     		.2byte	0x1
 4680 02a9 50       		.byte	0x50
 4681 02aa 4E000000 		.4byte	.LVL36
 4682 02ae 52000000 		.4byte	.LFE76
 4683 02b2 0100     		.2byte	0x1
 4684 02b4 50       		.byte	0x50
 4685 02b5 00000000 		.4byte	0
 4686 02b9 00000000 		.4byte	0
 4687              	.LLST16:
 4688 02bd 00000000 		.4byte	.LVL37
 4689 02c1 26000000 		.4byte	.LVL44
 4690 02c5 0100     		.2byte	0x1
 4691 02c7 50       		.byte	0x50
 4692 02c8 26000000 		.4byte	.LVL44
 4693 02cc 46000000 		.4byte	.LVL49
 4694 02d0 0100     		.2byte	0x1
 4695 02d2 55       		.byte	0x55
 4696 02d3 46000000 		.4byte	.LVL49
 4697 02d7 4C000000 		.4byte	.LFE85
 4698 02db 0400     		.2byte	0x4
 4699 02dd F3       		.byte	0xf3
 4700 02de 01       		.uleb128 0x1
 4701 02df 50       		.byte	0x50
 4702 02e0 9F       		.byte	0x9f
 4703 02e1 00000000 		.4byte	0
 4704 02e5 00000000 		.4byte	0
 4705              	.LLST17:
 4706 02e9 00000000 		.4byte	.LVL37
ARM GAS  C:\Users\samue\AppData\Local\Temp\cc6oSIFr.s 			page 112


 4707 02ed 20000000 		.4byte	.LVL42
 4708 02f1 0100     		.2byte	0x1
 4709 02f3 51       		.byte	0x51
 4710 02f4 20000000 		.4byte	.LVL42
 4711 02f8 46000000 		.4byte	.LVL49
 4712 02fc 0100     		.2byte	0x1
 4713 02fe 58       		.byte	0x58
 4714 02ff 46000000 		.4byte	.LVL49
 4715 0303 4C000000 		.4byte	.LFE85
 4716 0307 0400     		.2byte	0x4
 4717 0309 F3       		.byte	0xf3
 4718 030a 01       		.uleb128 0x1
 4719 030b 51       		.byte	0x51
 4720 030c 9F       		.byte	0x9f
 4721 030d 00000000 		.4byte	0
 4722 0311 00000000 		.4byte	0
 4723              	.LLST18:
 4724 0315 00000000 		.4byte	.LVL37
 4725 0319 0A000000 		.4byte	.LVL38
 4726 031d 0100     		.2byte	0x1
 4727 031f 52       		.byte	0x52
 4728 0320 0A000000 		.4byte	.LVL38
 4729 0324 4C000000 		.4byte	.LFE85
 4730 0328 0400     		.2byte	0x4
 4731 032a F3       		.byte	0xf3
 4732 032b 01       		.uleb128 0x1
 4733 032c 52       		.byte	0x52
 4734 032d 9F       		.byte	0x9f
 4735 032e 00000000 		.4byte	0
 4736 0332 00000000 		.4byte	0
 4737              	.LLST19:
 4738 0336 00000000 		.4byte	.LVL37
 4739 033a 29000000 		.4byte	.LVL45-1
 4740 033e 0100     		.2byte	0x1
 4741 0340 53       		.byte	0x53
 4742 0341 29000000 		.4byte	.LVL45-1
 4743 0345 4C000000 		.4byte	.LFE85
 4744 0349 0400     		.2byte	0x4
 4745 034b F3       		.byte	0xf3
 4746 034c 01       		.uleb128 0x1
 4747 034d 53       		.byte	0x53
 4748 034e 9F       		.byte	0x9f
 4749 034f 00000000 		.4byte	0
 4750 0353 00000000 		.4byte	0
 4751              	.LLST20:
 4752 0357 0C000000 		.4byte	.LVL39
 4753 035b 22000000 		.4byte	.LVL43
 4754 035f 0100     		.2byte	0x1
 4755 0361 52       		.byte	0x52
 4756 0362 22000000 		.4byte	.LVL43
 4757 0366 4C000000 		.4byte	.LFE85
 4758 036a 0100     		.2byte	0x1
 4759 036c 54       		.byte	0x54
 4760 036d 00000000 		.4byte	0
 4761 0371 00000000 		.4byte	0
 4762              	.LLST21:
 4763 0375 1E000000 		.4byte	.LVL41
ARM GAS  C:\Users\samue\AppData\Local\Temp\cc6oSIFr.s 			page 113


 4764 0379 46000000 		.4byte	.LVL49
 4765 037d 0100     		.2byte	0x1
 4766 037f 57       		.byte	0x57
 4767 0380 00000000 		.4byte	0
 4768 0384 00000000 		.4byte	0
 4769              	.LLST22:
 4770 0388 14000000 		.4byte	.LVL40
 4771 038c 46000000 		.4byte	.LVL49
 4772 0390 0100     		.2byte	0x1
 4773 0392 56       		.byte	0x56
 4774 0393 00000000 		.4byte	0
 4775 0397 00000000 		.4byte	0
 4776              	.LLST23:
 4777 039b 00000000 		.4byte	.LVL50
 4778 039f 1D000000 		.4byte	.LVL54-1
 4779 03a3 0100     		.2byte	0x1
 4780 03a5 50       		.byte	0x50
 4781 03a6 1D000000 		.4byte	.LVL54-1
 4782 03aa 30000000 		.4byte	.LVL56
 4783 03ae 0100     		.2byte	0x1
 4784 03b0 55       		.byte	0x55
 4785 03b1 30000000 		.4byte	.LVL56
 4786 03b5 32000000 		.4byte	.LVL57
 4787 03b9 0100     		.2byte	0x1
 4788 03bb 50       		.byte	0x50
 4789 03bc 32000000 		.4byte	.LVL57
 4790 03c0 44000000 		.4byte	.LFE79
 4791 03c4 0100     		.2byte	0x1
 4792 03c6 55       		.byte	0x55
 4793 03c7 00000000 		.4byte	0
 4794 03cb 00000000 		.4byte	0
 4795              	.LLST24:
 4796 03cf 00000000 		.4byte	.LVL50
 4797 03d3 1A000000 		.4byte	.LVL53
 4798 03d7 0100     		.2byte	0x1
 4799 03d9 51       		.byte	0x51
 4800 03da 1A000000 		.4byte	.LVL53
 4801 03de 30000000 		.4byte	.LVL56
 4802 03e2 0100     		.2byte	0x1
 4803 03e4 57       		.byte	0x57
 4804 03e5 30000000 		.4byte	.LVL56
 4805 03e9 32000000 		.4byte	.LVL57
 4806 03ed 0100     		.2byte	0x1
 4807 03ef 51       		.byte	0x51
 4808 03f0 32000000 		.4byte	.LVL57
 4809 03f4 44000000 		.4byte	.LFE79
 4810 03f8 0100     		.2byte	0x1
 4811 03fa 57       		.byte	0x57
 4812 03fb 00000000 		.4byte	0
 4813 03ff 00000000 		.4byte	0
 4814              	.LLST25:
 4815 0403 00000000 		.4byte	.LVL50
 4816 0407 18000000 		.4byte	.LVL52
 4817 040b 0100     		.2byte	0x1
 4818 040d 52       		.byte	0x52
 4819 040e 18000000 		.4byte	.LVL52
 4820 0412 30000000 		.4byte	.LVL56
ARM GAS  C:\Users\samue\AppData\Local\Temp\cc6oSIFr.s 			page 114


 4821 0416 0100     		.2byte	0x1
 4822 0418 58       		.byte	0x58
 4823 0419 30000000 		.4byte	.LVL56
 4824 041d 32000000 		.4byte	.LVL57
 4825 0421 0100     		.2byte	0x1
 4826 0423 52       		.byte	0x52
 4827 0424 32000000 		.4byte	.LVL57
 4828 0428 44000000 		.4byte	.LFE79
 4829 042c 0100     		.2byte	0x1
 4830 042e 58       		.byte	0x58
 4831 042f 00000000 		.4byte	0
 4832 0433 00000000 		.4byte	0
 4833              	.LLST26:
 4834 0437 00000000 		.4byte	.LVL50
 4835 043b 1D000000 		.4byte	.LVL54-1
 4836 043f 0100     		.2byte	0x1
 4837 0441 53       		.byte	0x53
 4838 0442 1D000000 		.4byte	.LVL54-1
 4839 0446 30000000 		.4byte	.LVL56
 4840 044a 0100     		.2byte	0x1
 4841 044c 54       		.byte	0x54
 4842 044d 30000000 		.4byte	.LVL56
 4843 0451 32000000 		.4byte	.LVL57
 4844 0455 0100     		.2byte	0x1
 4845 0457 53       		.byte	0x53
 4846 0458 32000000 		.4byte	.LVL57
 4847 045c 44000000 		.4byte	.LFE79
 4848 0460 0100     		.2byte	0x1
 4849 0462 54       		.byte	0x54
 4850 0463 00000000 		.4byte	0
 4851 0467 00000000 		.4byte	0
 4852              	.LLST27:
 4853 046b 16000000 		.4byte	.LVL51
 4854 046f 30000000 		.4byte	.LVL56
 4855 0473 0100     		.2byte	0x1
 4856 0475 59       		.byte	0x59
 4857 0476 00000000 		.4byte	0
 4858 047a 00000000 		.4byte	0
 4859              	.LLST28:
 4860 047e 00000000 		.4byte	.LVL59
 4861 0482 0E000000 		.4byte	.LVL61
 4862 0486 0100     		.2byte	0x1
 4863 0488 50       		.byte	0x50
 4864 0489 0E000000 		.4byte	.LVL61
 4865 048d 2C000000 		.4byte	.LFE68
 4866 0491 0100     		.2byte	0x1
 4867 0493 56       		.byte	0x56
 4868 0494 00000000 		.4byte	0
 4869 0498 00000000 		.4byte	0
 4870              	.LLST29:
 4871 049c 00000000 		.4byte	.LVL59
 4872 04a0 0C000000 		.4byte	.LVL60
 4873 04a4 0100     		.2byte	0x1
 4874 04a6 51       		.byte	0x51
 4875 04a7 0C000000 		.4byte	.LVL60
 4876 04ab 2C000000 		.4byte	.LFE68
 4877 04af 0100     		.2byte	0x1
ARM GAS  C:\Users\samue\AppData\Local\Temp\cc6oSIFr.s 			page 115


 4878 04b1 55       		.byte	0x55
 4879 04b2 00000000 		.4byte	0
 4880 04b6 00000000 		.4byte	0
 4881              	.LLST30:
 4882 04ba 00000000 		.4byte	.LVL59
 4883 04be 13000000 		.4byte	.LVL62-1
 4884 04c2 0100     		.2byte	0x1
 4885 04c4 52       		.byte	0x52
 4886 04c5 13000000 		.4byte	.LVL62-1
 4887 04c9 2C000000 		.4byte	.LFE68
 4888 04cd 0100     		.2byte	0x1
 4889 04cf 57       		.byte	0x57
 4890 04d0 00000000 		.4byte	0
 4891 04d4 00000000 		.4byte	0
 4892              	.LLST31:
 4893 04d8 14000000 		.4byte	.LVL62
 4894 04dc 25000000 		.4byte	.LVL63-1
 4895 04e0 0100     		.2byte	0x1
 4896 04e2 50       		.byte	0x50
 4897 04e3 25000000 		.4byte	.LVL63-1
 4898 04e7 2C000000 		.4byte	.LFE68
 4899 04eb 0100     		.2byte	0x1
 4900 04ed 54       		.byte	0x54
 4901 04ee 00000000 		.4byte	0
 4902 04f2 00000000 		.4byte	0
 4903              	.LLST32:
 4904 04f6 00000000 		.4byte	.LVL64
 4905 04fa 0D000000 		.4byte	.LVL66-1
 4906 04fe 0100     		.2byte	0x1
 4907 0500 50       		.byte	0x50
 4908 0501 0D000000 		.4byte	.LVL66-1
 4909 0505 10000000 		.4byte	.LVL67
 4910 0509 0400     		.2byte	0x4
 4911 050b F3       		.byte	0xf3
 4912 050c 01       		.uleb128 0x1
 4913 050d 50       		.byte	0x50
 4914 050e 9F       		.byte	0x9f
 4915 050f 10000000 		.4byte	.LVL67
 4916 0513 17000000 		.4byte	.LVL68-1
 4917 0517 0100     		.2byte	0x1
 4918 0519 50       		.byte	0x50
 4919 051a 17000000 		.4byte	.LVL68-1
 4920 051e 1A000000 		.4byte	.LFE69
 4921 0522 0400     		.2byte	0x4
 4922 0524 F3       		.byte	0xf3
 4923 0525 01       		.uleb128 0x1
 4924 0526 50       		.byte	0x50
 4925 0527 9F       		.byte	0x9f
 4926 0528 00000000 		.4byte	0
 4927 052c 00000000 		.4byte	0
 4928              	.LLST33:
 4929 0530 02000000 		.4byte	.LVL65
 4930 0534 0D000000 		.4byte	.LVL66-1
 4931 0538 0100     		.2byte	0x1
 4932 053a 50       		.byte	0x50
 4933 053b 0D000000 		.4byte	.LVL66-1
 4934 053f 10000000 		.4byte	.LVL67
ARM GAS  C:\Users\samue\AppData\Local\Temp\cc6oSIFr.s 			page 116


 4935 0543 0400     		.2byte	0x4
 4936 0545 F3       		.byte	0xf3
 4937 0546 01       		.uleb128 0x1
 4938 0547 50       		.byte	0x50
 4939 0548 9F       		.byte	0x9f
 4940 0549 10000000 		.4byte	.LVL67
 4941 054d 17000000 		.4byte	.LVL68-1
 4942 0551 0100     		.2byte	0x1
 4943 0553 50       		.byte	0x50
 4944 0554 17000000 		.4byte	.LVL68-1
 4945 0558 1A000000 		.4byte	.LFE69
 4946 055c 0400     		.2byte	0x4
 4947 055e F3       		.byte	0xf3
 4948 055f 01       		.uleb128 0x1
 4949 0560 50       		.byte	0x50
 4950 0561 9F       		.byte	0x9f
 4951 0562 00000000 		.4byte	0
 4952 0566 00000000 		.4byte	0
 4953              	.LLST34:
 4954 056a 00000000 		.4byte	.LVL69
 4955 056e 29000000 		.4byte	.LVL74-1
 4956 0572 0100     		.2byte	0x1
 4957 0574 50       		.byte	0x50
 4958 0575 29000000 		.4byte	.LVL74-1
 4959 0579 30000000 		.4byte	.LVL75
 4960 057d 0100     		.2byte	0x1
 4961 057f 54       		.byte	0x54
 4962 0580 30000000 		.4byte	.LVL75
 4963 0584 32000000 		.4byte	.LVL76
 4964 0588 0100     		.2byte	0x1
 4965 058a 50       		.byte	0x50
 4966 058b 32000000 		.4byte	.LVL76
 4967 058f 34000000 		.4byte	.LVL77
 4968 0593 0400     		.2byte	0x4
 4969 0595 F3       		.byte	0xf3
 4970 0596 01       		.uleb128 0x1
 4971 0597 50       		.byte	0x50
 4972 0598 9F       		.byte	0x9f
 4973 0599 34000000 		.4byte	.LVL77
 4974 059d 36000000 		.4byte	.LVL78
 4975 05a1 0100     		.2byte	0x1
 4976 05a3 50       		.byte	0x50
 4977 05a4 36000000 		.4byte	.LVL78
 4978 05a8 3A000000 		.4byte	.LFE70
 4979 05ac 0400     		.2byte	0x4
 4980 05ae F3       		.byte	0xf3
 4981 05af 01       		.uleb128 0x1
 4982 05b0 50       		.byte	0x50
 4983 05b1 9F       		.byte	0x9f
 4984 05b2 00000000 		.4byte	0
 4985 05b6 00000000 		.4byte	0
 4986              	.LLST35:
 4987 05ba 04000000 		.4byte	.LVL70
 4988 05be 29000000 		.4byte	.LVL74-1
 4989 05c2 0100     		.2byte	0x1
 4990 05c4 50       		.byte	0x50
 4991 05c5 29000000 		.4byte	.LVL74-1
ARM GAS  C:\Users\samue\AppData\Local\Temp\cc6oSIFr.s 			page 117


 4992 05c9 30000000 		.4byte	.LVL75
 4993 05cd 0100     		.2byte	0x1
 4994 05cf 54       		.byte	0x54
 4995 05d0 30000000 		.4byte	.LVL75
 4996 05d4 32000000 		.4byte	.LVL76
 4997 05d8 0100     		.2byte	0x1
 4998 05da 50       		.byte	0x50
 4999 05db 32000000 		.4byte	.LVL76
 5000 05df 34000000 		.4byte	.LVL77
 5001 05e3 0400     		.2byte	0x4
 5002 05e5 F3       		.byte	0xf3
 5003 05e6 01       		.uleb128 0x1
 5004 05e7 50       		.byte	0x50
 5005 05e8 9F       		.byte	0x9f
 5006 05e9 34000000 		.4byte	.LVL77
 5007 05ed 36000000 		.4byte	.LVL78
 5008 05f1 0100     		.2byte	0x1
 5009 05f3 50       		.byte	0x50
 5010 05f4 36000000 		.4byte	.LVL78
 5011 05f8 3A000000 		.4byte	.LFE70
 5012 05fc 0400     		.2byte	0x4
 5013 05fe F3       		.byte	0xf3
 5014 05ff 01       		.uleb128 0x1
 5015 0600 50       		.byte	0x50
 5016 0601 9F       		.byte	0x9f
 5017 0602 00000000 		.4byte	0
 5018 0606 00000000 		.4byte	0
 5019              	.LLST36:
 5020 060a 04000000 		.4byte	.LVL70
 5021 060e 2A000000 		.4byte	.LVL74
 5022 0612 0200     		.2byte	0x2
 5023 0614 30       		.byte	0x30
 5024 0615 9F       		.byte	0x9f
 5025 0616 2A000000 		.4byte	.LVL74
 5026 061a 30000000 		.4byte	.LVL75
 5027 061e 0200     		.2byte	0x2
 5028 0620 31       		.byte	0x31
 5029 0621 9F       		.byte	0x9f
 5030 0622 30000000 		.4byte	.LVL75
 5031 0626 36000000 		.4byte	.LVL78
 5032 062a 0200     		.2byte	0x2
 5033 062c 30       		.byte	0x30
 5034 062d 9F       		.byte	0x9f
 5035 062e 36000000 		.4byte	.LVL78
 5036 0632 3A000000 		.4byte	.LFE70
 5037 0636 0100     		.2byte	0x1
 5038 0638 50       		.byte	0x50
 5039 0639 00000000 		.4byte	0
 5040 063d 00000000 		.4byte	0
 5041              	.LLST37:
 5042 0641 1E000000 		.4byte	.LVL72
 5043 0645 22000000 		.4byte	.LVL73
 5044 0649 0100     		.2byte	0x1
 5045 064b 53       		.byte	0x53
 5046 064c 22000000 		.4byte	.LVL73
 5047 0650 29000000 		.4byte	.LVL74-1
 5048 0654 0200     		.2byte	0x2
ARM GAS  C:\Users\samue\AppData\Local\Temp\cc6oSIFr.s 			page 118


 5049 0656 7D       		.byte	0x7d
 5050 0657 00       		.sleb128 0
 5051 0658 00000000 		.4byte	0
 5052 065c 00000000 		.4byte	0
 5053              	.LLST38:
 5054 0660 00000000 		.4byte	.LVL79
 5055 0664 10000000 		.4byte	.LVL82
 5056 0668 0100     		.2byte	0x1
 5057 066a 50       		.byte	0x50
 5058 066b 10000000 		.4byte	.LVL82
 5059 066f 12000000 		.4byte	.LVL83
 5060 0673 0400     		.2byte	0x4
 5061 0675 F3       		.byte	0xf3
 5062 0676 01       		.uleb128 0x1
 5063 0677 50       		.byte	0x50
 5064 0678 9F       		.byte	0x9f
 5065 0679 12000000 		.4byte	.LVL83
 5066 067d 14000000 		.4byte	.LVL84
 5067 0681 0100     		.2byte	0x1
 5068 0683 50       		.byte	0x50
 5069 0684 14000000 		.4byte	.LVL84
 5070 0688 16000000 		.4byte	.LFE71
 5071 068c 0400     		.2byte	0x4
 5072 068e F3       		.byte	0xf3
 5073 068f 01       		.uleb128 0x1
 5074 0690 50       		.byte	0x50
 5075 0691 9F       		.byte	0x9f
 5076 0692 00000000 		.4byte	0
 5077 0696 00000000 		.4byte	0
 5078              	.LLST39:
 5079 069a 00000000 		.4byte	.LVL79
 5080 069e 06000000 		.4byte	.LVL80
 5081 06a2 0100     		.2byte	0x1
 5082 06a4 51       		.byte	0x51
 5083 06a5 06000000 		.4byte	.LVL80
 5084 06a9 16000000 		.4byte	.LFE71
 5085 06ad 0100     		.2byte	0x1
 5086 06af 53       		.byte	0x53
 5087 06b0 00000000 		.4byte	0
 5088 06b4 00000000 		.4byte	0
 5089              	.LLST40:
 5090 06b8 00000000 		.4byte	.LVL79
 5091 06bc 10000000 		.4byte	.LVL82
 5092 06c0 0100     		.2byte	0x1
 5093 06c2 50       		.byte	0x50
 5094 06c3 10000000 		.4byte	.LVL82
 5095 06c7 12000000 		.4byte	.LVL83
 5096 06cb 0400     		.2byte	0x4
 5097 06cd F3       		.byte	0xf3
 5098 06ce 01       		.uleb128 0x1
 5099 06cf 50       		.byte	0x50
 5100 06d0 9F       		.byte	0x9f
 5101 06d1 12000000 		.4byte	.LVL83
 5102 06d5 14000000 		.4byte	.LVL84
 5103 06d9 0100     		.2byte	0x1
 5104 06db 50       		.byte	0x50
 5105 06dc 14000000 		.4byte	.LVL84
ARM GAS  C:\Users\samue\AppData\Local\Temp\cc6oSIFr.s 			page 119


 5106 06e0 16000000 		.4byte	.LFE71
 5107 06e4 0400     		.2byte	0x4
 5108 06e6 F3       		.byte	0xf3
 5109 06e7 01       		.uleb128 0x1
 5110 06e8 50       		.byte	0x50
 5111 06e9 9F       		.byte	0x9f
 5112 06ea 00000000 		.4byte	0
 5113 06ee 00000000 		.4byte	0
 5114              	.LLST41:
 5115 06f2 0E000000 		.4byte	.LVL81
 5116 06f6 12000000 		.4byte	.LVL83
 5117 06fa 0200     		.2byte	0x2
 5118 06fc 31       		.byte	0x31
 5119 06fd 9F       		.byte	0x9f
 5120 06fe 14000000 		.4byte	.LVL84
 5121 0702 16000000 		.4byte	.LFE71
 5122 0706 0100     		.2byte	0x1
 5123 0708 50       		.byte	0x50
 5124 0709 00000000 		.4byte	0
 5125 070d 00000000 		.4byte	0
 5126              	.LLST42:
 5127 0711 00000000 		.4byte	.LVL85
 5128 0715 08000000 		.4byte	.LVL87
 5129 0719 0100     		.2byte	0x1
 5130 071b 50       		.byte	0x50
 5131 071c 08000000 		.4byte	.LVL87
 5132 0720 14000000 		.4byte	.LFE72
 5133 0724 0400     		.2byte	0x4
 5134 0726 F3       		.byte	0xf3
 5135 0727 01       		.uleb128 0x1
 5136 0728 50       		.byte	0x50
 5137 0729 9F       		.byte	0x9f
 5138 072a 00000000 		.4byte	0
 5139 072e 00000000 		.4byte	0
 5140              	.LLST43:
 5141 0732 00000000 		.4byte	.LVL85
 5142 0736 08000000 		.4byte	.LVL87
 5143 073a 0100     		.2byte	0x1
 5144 073c 50       		.byte	0x50
 5145 073d 08000000 		.4byte	.LVL87
 5146 0741 14000000 		.4byte	.LFE72
 5147 0745 0400     		.2byte	0x4
 5148 0747 F3       		.byte	0xf3
 5149 0748 01       		.uleb128 0x1
 5150 0749 50       		.byte	0x50
 5151 074a 9F       		.byte	0x9f
 5152 074b 00000000 		.4byte	0
 5153 074f 00000000 		.4byte	0
 5154              	.LLST44:
 5155 0753 06000000 		.4byte	.LVL86
 5156 0757 0A000000 		.4byte	.LVL88
 5157 075b 0100     		.2byte	0x1
 5158 075d 53       		.byte	0x53
 5159 075e 0A000000 		.4byte	.LVL88
 5160 0762 14000000 		.4byte	.LFE72
 5161 0766 0100     		.2byte	0x1
 5162 0768 50       		.byte	0x50
ARM GAS  C:\Users\samue\AppData\Local\Temp\cc6oSIFr.s 			page 120


 5163 0769 00000000 		.4byte	0
 5164 076d 00000000 		.4byte	0
 5165              	.LLST45:
 5166 0771 00000000 		.4byte	.LVL91
 5167 0775 05000000 		.4byte	.LVL93-1
 5168 0779 0100     		.2byte	0x1
 5169 077b 50       		.byte	0x50
 5170 077c 05000000 		.4byte	.LVL93-1
 5171 0780 08000000 		.4byte	.LFE73
 5172 0784 0400     		.2byte	0x4
 5173 0786 F3       		.byte	0xf3
 5174 0787 01       		.uleb128 0x1
 5175 0788 50       		.byte	0x50
 5176 0789 9F       		.byte	0x9f
 5177 078a 00000000 		.4byte	0
 5178 078e 00000000 		.4byte	0
 5179              	.LLST46:
 5180 0792 02000000 		.4byte	.LVL92
 5181 0796 05000000 		.4byte	.LVL93-1
 5182 079a 0100     		.2byte	0x1
 5183 079c 50       		.byte	0x50
 5184 079d 05000000 		.4byte	.LVL93-1
 5185 07a1 08000000 		.4byte	.LFE73
 5186 07a5 0400     		.2byte	0x4
 5187 07a7 F3       		.byte	0xf3
 5188 07a8 01       		.uleb128 0x1
 5189 07a9 50       		.byte	0x50
 5190 07aa 9F       		.byte	0x9f
 5191 07ab 00000000 		.4byte	0
 5192 07af 00000000 		.4byte	0
 5193              	.LLST47:
 5194 07b3 00000000 		.4byte	.LVL94
 5195 07b7 22000000 		.4byte	.LVL100
 5196 07bb 0100     		.2byte	0x1
 5197 07bd 50       		.byte	0x50
 5198 07be 22000000 		.4byte	.LVL100
 5199 07c2 70000000 		.4byte	.LVL113
 5200 07c6 0100     		.2byte	0x1
 5201 07c8 54       		.byte	0x54
 5202 07c9 70000000 		.4byte	.LVL113
 5203 07cd 72000000 		.4byte	.LVL114
 5204 07d1 0100     		.2byte	0x1
 5205 07d3 50       		.byte	0x50
 5206 07d4 72000000 		.4byte	.LVL114
 5207 07d8 BE000000 		.4byte	.LFE74
 5208 07dc 0100     		.2byte	0x1
 5209 07de 54       		.byte	0x54
 5210 07df 00000000 		.4byte	0
 5211 07e3 00000000 		.4byte	0
 5212              	.LLST48:
 5213 07e7 00000000 		.4byte	.LVL94
 5214 07eb 25000000 		.4byte	.LVL101-1
 5215 07ef 0100     		.2byte	0x1
 5216 07f1 51       		.byte	0x51
 5217 07f2 25000000 		.4byte	.LVL101-1
 5218 07f6 70000000 		.4byte	.LVL113
 5219 07fa 0100     		.2byte	0x1
ARM GAS  C:\Users\samue\AppData\Local\Temp\cc6oSIFr.s 			page 121


 5220 07fc 59       		.byte	0x59
 5221 07fd 70000000 		.4byte	.LVL113
 5222 0801 72000000 		.4byte	.LVL114
 5223 0805 0100     		.2byte	0x1
 5224 0807 51       		.byte	0x51
 5225 0808 72000000 		.4byte	.LVL114
 5226 080c BE000000 		.4byte	.LFE74
 5227 0810 0100     		.2byte	0x1
 5228 0812 59       		.byte	0x59
 5229 0813 00000000 		.4byte	0
 5230 0817 00000000 		.4byte	0
 5231              	.LLST49:
 5232 081b 00000000 		.4byte	.LVL94
 5233 081f 25000000 		.4byte	.LVL101-1
 5234 0823 0100     		.2byte	0x1
 5235 0825 52       		.byte	0x52
 5236 0826 25000000 		.4byte	.LVL101-1
 5237 082a 70000000 		.4byte	.LVL113
 5238 082e 0100     		.2byte	0x1
 5239 0830 58       		.byte	0x58
 5240 0831 70000000 		.4byte	.LVL113
 5241 0835 72000000 		.4byte	.LVL114
 5242 0839 0100     		.2byte	0x1
 5243 083b 52       		.byte	0x52
 5244 083c 72000000 		.4byte	.LVL114
 5245 0840 BE000000 		.4byte	.LFE74
 5246 0844 0100     		.2byte	0x1
 5247 0846 58       		.byte	0x58
 5248 0847 00000000 		.4byte	0
 5249 084b 00000000 		.4byte	0
 5250              	.LLST50:
 5251 084f 00000000 		.4byte	.LVL94
 5252 0853 10000000 		.4byte	.LVL96
 5253 0857 0100     		.2byte	0x1
 5254 0859 53       		.byte	0x53
 5255 085a 10000000 		.4byte	.LVL96
 5256 085e BE000000 		.4byte	.LFE74
 5257 0862 0200     		.2byte	0x2
 5258 0864 91       		.byte	0x91
 5259 0865 54       		.sleb128 -44
 5260 0866 00000000 		.4byte	0
 5261 086a 00000000 		.4byte	0
 5262              	.LLST51:
 5263 086e 0E000000 		.4byte	.LVL95
 5264 0872 22000000 		.4byte	.LVL100
 5265 0876 0100     		.2byte	0x1
 5266 0878 50       		.byte	0x50
 5267 0879 22000000 		.4byte	.LVL100
 5268 087d 70000000 		.4byte	.LVL113
 5269 0881 0100     		.2byte	0x1
 5270 0883 54       		.byte	0x54
 5271 0884 70000000 		.4byte	.LVL113
 5272 0888 72000000 		.4byte	.LVL114
 5273 088c 0100     		.2byte	0x1
 5274 088e 50       		.byte	0x50
 5275 088f 72000000 		.4byte	.LVL114
 5276 0893 BE000000 		.4byte	.LFE74
ARM GAS  C:\Users\samue\AppData\Local\Temp\cc6oSIFr.s 			page 122


 5277 0897 0100     		.2byte	0x1
 5278 0899 54       		.byte	0x54
 5279 089a 00000000 		.4byte	0
 5280 089e 00000000 		.4byte	0
 5281              	.LLST52:
 5282 08a2 8A000000 		.4byte	.LVL117
 5283 08a6 90000000 		.4byte	.LVL118
 5284 08aa 0100     		.2byte	0x1
 5285 08ac 50       		.byte	0x50
 5286 08ad 90000000 		.4byte	.LVL118
 5287 08b1 BE000000 		.4byte	.LFE74
 5288 08b5 0100     		.2byte	0x1
 5289 08b7 55       		.byte	0x55
 5290 08b8 00000000 		.4byte	0
 5291 08bc 00000000 		.4byte	0
 5292              	.LLST53:
 5293 08c0 0E000000 		.4byte	.LVL95
 5294 08c4 26000000 		.4byte	.LVL101
 5295 08c8 0200     		.2byte	0x2
 5296 08ca 30       		.byte	0x30
 5297 08cb 9F       		.byte	0x9f
 5298 08cc 32000000 		.4byte	.LVL104
 5299 08d0 38000000 		.4byte	.LVL105
 5300 08d4 0100     		.2byte	0x1
 5301 08d6 50       		.byte	0x50
 5302 08d7 38000000 		.4byte	.LVL105
 5303 08db 6A000000 		.4byte	.LVL111
 5304 08df 0100     		.2byte	0x1
 5305 08e1 56       		.byte	0x56
 5306 08e2 6A000000 		.4byte	.LVL111
 5307 08e6 6D000000 		.4byte	.LVL112-1
 5308 08ea 0100     		.2byte	0x1
 5309 08ec 50       		.byte	0x50
 5310 08ed 6D000000 		.4byte	.LVL112-1
 5311 08f1 70000000 		.4byte	.LVL113
 5312 08f5 0100     		.2byte	0x1
 5313 08f7 56       		.byte	0x56
 5314 08f8 70000000 		.4byte	.LVL113
 5315 08fc 72000000 		.4byte	.LVL114
 5316 0900 0200     		.2byte	0x2
 5317 0902 30       		.byte	0x30
 5318 0903 9F       		.byte	0x9f
 5319 0904 72000000 		.4byte	.LVL114
 5320 0908 BE000000 		.4byte	.LFE74
 5321 090c 0100     		.2byte	0x1
 5322 090e 56       		.byte	0x56
 5323 090f 00000000 		.4byte	0
 5324 0913 00000000 		.4byte	0
 5325              	.LLST54:
 5326 0917 0E000000 		.4byte	.LVL95
 5327 091b 18000000 		.4byte	.LVL97
 5328 091f 0100     		.2byte	0x1
 5329 0921 52       		.byte	0x52
 5330 0922 18000000 		.4byte	.LVL97
 5331 0926 1A000000 		.4byte	.LVL98
 5332 092a 0100     		.2byte	0x1
 5333 092c 57       		.byte	0x57
ARM GAS  C:\Users\samue\AppData\Local\Temp\cc6oSIFr.s 			page 123


 5334 092d 1A000000 		.4byte	.LVL98
 5335 0931 1C000000 		.4byte	.LVL99
 5336 0935 0100     		.2byte	0x1
 5337 0937 52       		.byte	0x52
 5338 0938 1C000000 		.4byte	.LVL99
 5339 093c BE000000 		.4byte	.LFE74
 5340 0940 0100     		.2byte	0x1
 5341 0942 57       		.byte	0x57
 5342 0943 00000000 		.4byte	0
 5343 0947 00000000 		.4byte	0
 5344              	.LLST55:
 5345 094b 00000000 		.4byte	.LVL123
 5346 094f 1E000000 		.4byte	.LVL129
 5347 0953 0100     		.2byte	0x1
 5348 0955 50       		.byte	0x50
 5349 0956 1E000000 		.4byte	.LVL129
 5350 095a 78000000 		.4byte	.LFE75
 5351 095e 0100     		.2byte	0x1
 5352 0960 54       		.byte	0x54
 5353 0961 00000000 		.4byte	0
 5354 0965 00000000 		.4byte	0
 5355              	.LLST56:
 5356 0969 00000000 		.4byte	.LVL123
 5357 096d 21000000 		.4byte	.LVL130-1
 5358 0971 0100     		.2byte	0x1
 5359 0973 51       		.byte	0x51
 5360 0974 21000000 		.4byte	.LVL130-1
 5361 0978 54000000 		.4byte	.LVL136
 5362 097c 0100     		.2byte	0x1
 5363 097e 56       		.byte	0x56
 5364 097f 54000000 		.4byte	.LVL136
 5365 0983 78000000 		.4byte	.LFE75
 5366 0987 0400     		.2byte	0x4
 5367 0989 F3       		.byte	0xf3
 5368 098a 01       		.uleb128 0x1
 5369 098b 51       		.byte	0x51
 5370 098c 9F       		.byte	0x9f
 5371 098d 00000000 		.4byte	0
 5372 0991 00000000 		.4byte	0
 5373              	.LLST57:
 5374 0995 00000000 		.4byte	.LVL123
 5375 0999 21000000 		.4byte	.LVL130-1
 5376 099d 0100     		.2byte	0x1
 5377 099f 52       		.byte	0x52
 5378 09a0 21000000 		.4byte	.LVL130-1
 5379 09a4 32000000 		.4byte	.LVL133
 5380 09a8 0100     		.2byte	0x1
 5381 09aa 55       		.byte	0x55
 5382 09ab 32000000 		.4byte	.LVL133
 5383 09af 78000000 		.4byte	.LFE75
 5384 09b3 0400     		.2byte	0x4
 5385 09b5 F3       		.byte	0xf3
 5386 09b6 01       		.uleb128 0x1
 5387 09b7 52       		.byte	0x52
 5388 09b8 9F       		.byte	0x9f
 5389 09b9 00000000 		.4byte	0
 5390 09bd 00000000 		.4byte	0
ARM GAS  C:\Users\samue\AppData\Local\Temp\cc6oSIFr.s 			page 124


 5391              	.LLST58:
 5392 09c1 00000000 		.4byte	.LVL123
 5393 09c5 10000000 		.4byte	.LVL125
 5394 09c9 0100     		.2byte	0x1
 5395 09cb 53       		.byte	0x53
 5396 09cc 10000000 		.4byte	.LVL125
 5397 09d0 78000000 		.4byte	.LFE75
 5398 09d4 0100     		.2byte	0x1
 5399 09d6 58       		.byte	0x58
 5400 09d7 00000000 		.4byte	0
 5401 09db 00000000 		.4byte	0
 5402              	.LLST59:
 5403 09df 0E000000 		.4byte	.LVL124
 5404 09e3 1E000000 		.4byte	.LVL129
 5405 09e7 0100     		.2byte	0x1
 5406 09e9 50       		.byte	0x50
 5407 09ea 1E000000 		.4byte	.LVL129
 5408 09ee 78000000 		.4byte	.LFE75
 5409 09f2 0100     		.2byte	0x1
 5410 09f4 54       		.byte	0x54
 5411 09f5 00000000 		.4byte	0
 5412 09f9 00000000 		.4byte	0
 5413              	.LLST60:
 5414 09fd 30000000 		.4byte	.LVL132
 5415 0a01 36000000 		.4byte	.LVL134
 5416 0a05 0100     		.2byte	0x1
 5417 0a07 50       		.byte	0x50
 5418 0a08 36000000 		.4byte	.LVL134
 5419 0a0c 78000000 		.4byte	.LFE75
 5420 0a10 0100     		.2byte	0x1
 5421 0a12 55       		.byte	0x55
 5422 0a13 00000000 		.4byte	0
 5423 0a17 00000000 		.4byte	0
 5424              	.LLST61:
 5425 0a1b 22000000 		.4byte	.LVL130
 5426 0a1f 2C000000 		.4byte	.LVL131
 5427 0a23 0100     		.2byte	0x1
 5428 0a25 50       		.byte	0x50
 5429 0a26 2C000000 		.4byte	.LVL131
 5430 0a2a 2F000000 		.4byte	.LVL132-1
 5431 0a2e 0100     		.2byte	0x1
 5432 0a30 53       		.byte	0x53
 5433 0a31 00000000 		.4byte	0
 5434 0a35 00000000 		.4byte	0
 5435              	.LLST62:
 5436 0a39 0E000000 		.4byte	.LVL124
 5437 0a3d 18000000 		.4byte	.LVL126
 5438 0a41 0100     		.2byte	0x1
 5439 0a43 52       		.byte	0x52
 5440 0a44 18000000 		.4byte	.LVL126
 5441 0a48 1A000000 		.4byte	.LVL127
 5442 0a4c 0100     		.2byte	0x1
 5443 0a4e 57       		.byte	0x57
 5444 0a4f 1A000000 		.4byte	.LVL127
 5445 0a53 1C000000 		.4byte	.LVL128
 5446 0a57 0100     		.2byte	0x1
 5447 0a59 52       		.byte	0x52
ARM GAS  C:\Users\samue\AppData\Local\Temp\cc6oSIFr.s 			page 125


 5448 0a5a 1C000000 		.4byte	.LVL128
 5449 0a5e 78000000 		.4byte	.LFE75
 5450 0a62 0100     		.2byte	0x1
 5451 0a64 57       		.byte	0x57
 5452 0a65 00000000 		.4byte	0
 5453 0a69 00000000 		.4byte	0
 5454              	.LLST63:
 5455 0a6d 6C000000 		.4byte	.LVL138
 5456 0a71 70000000 		.4byte	.LVL139
 5457 0a75 0100     		.2byte	0x1
 5458 0a77 56       		.byte	0x56
 5459 0a78 00000000 		.4byte	0
 5460 0a7c 00000000 		.4byte	0
 5461              	.LLST64:
 5462 0a80 00000000 		.4byte	.LVL140
 5463 0a84 21000000 		.4byte	.LVL144-1
 5464 0a88 0100     		.2byte	0x1
 5465 0a8a 50       		.byte	0x50
 5466 0a8b 21000000 		.4byte	.LVL144-1
 5467 0a8f 5E000000 		.4byte	.LVL154
 5468 0a93 0100     		.2byte	0x1
 5469 0a95 54       		.byte	0x54
 5470 0a96 5E000000 		.4byte	.LVL154
 5471 0a9a 60000000 		.4byte	.LVL155
 5472 0a9e 0100     		.2byte	0x1
 5473 0aa0 50       		.byte	0x50
 5474 0aa1 60000000 		.4byte	.LVL155
 5475 0aa5 A4000000 		.4byte	.LFE77
 5476 0aa9 0100     		.2byte	0x1
 5477 0aab 54       		.byte	0x54
 5478 0aac 00000000 		.4byte	0
 5479 0ab0 00000000 		.4byte	0
 5480              	.LLST65:
 5481 0ab4 00000000 		.4byte	.LVL140
 5482 0ab8 21000000 		.4byte	.LVL144-1
 5483 0abc 0100     		.2byte	0x1
 5484 0abe 51       		.byte	0x51
 5485 0abf 21000000 		.4byte	.LVL144-1
 5486 0ac3 5E000000 		.4byte	.LVL154
 5487 0ac7 0100     		.2byte	0x1
 5488 0ac9 58       		.byte	0x58
 5489 0aca 5E000000 		.4byte	.LVL154
 5490 0ace 63000000 		.4byte	.LVL156-1
 5491 0ad2 0100     		.2byte	0x1
 5492 0ad4 51       		.byte	0x51
 5493 0ad5 63000000 		.4byte	.LVL156-1
 5494 0ad9 A4000000 		.4byte	.LFE77
 5495 0add 0100     		.2byte	0x1
 5496 0adf 58       		.byte	0x58
 5497 0ae0 00000000 		.4byte	0
 5498 0ae4 00000000 		.4byte	0
 5499              	.LLST66:
 5500 0ae8 00000000 		.4byte	.LVL140
 5501 0aec 21000000 		.4byte	.LVL144-1
 5502 0af0 0100     		.2byte	0x1
 5503 0af2 52       		.byte	0x52
 5504 0af3 21000000 		.4byte	.LVL144-1
ARM GAS  C:\Users\samue\AppData\Local\Temp\cc6oSIFr.s 			page 126


 5505 0af7 5E000000 		.4byte	.LVL154
 5506 0afb 0100     		.2byte	0x1
 5507 0afd 59       		.byte	0x59
 5508 0afe 5E000000 		.4byte	.LVL154
 5509 0b02 63000000 		.4byte	.LVL156-1
 5510 0b06 0100     		.2byte	0x1
 5511 0b08 52       		.byte	0x52
 5512 0b09 63000000 		.4byte	.LVL156-1
 5513 0b0d A4000000 		.4byte	.LFE77
 5514 0b11 0100     		.2byte	0x1
 5515 0b13 59       		.byte	0x59
 5516 0b14 00000000 		.4byte	0
 5517 0b18 00000000 		.4byte	0
 5518              	.LLST67:
 5519 0b1c 00000000 		.4byte	.LVL140
 5520 0b20 10000000 		.4byte	.LVL142
 5521 0b24 0100     		.2byte	0x1
 5522 0b26 53       		.byte	0x53
 5523 0b27 10000000 		.4byte	.LVL142
 5524 0b2b A4000000 		.4byte	.LFE77
 5525 0b2f 0100     		.2byte	0x1
 5526 0b31 57       		.byte	0x57
 5527 0b32 00000000 		.4byte	0
 5528 0b36 00000000 		.4byte	0
 5529              	.LLST68:
 5530 0b3a 0E000000 		.4byte	.LVL141
 5531 0b3e 21000000 		.4byte	.LVL144-1
 5532 0b42 0100     		.2byte	0x1
 5533 0b44 50       		.byte	0x50
 5534 0b45 21000000 		.4byte	.LVL144-1
 5535 0b49 5E000000 		.4byte	.LVL154
 5536 0b4d 0100     		.2byte	0x1
 5537 0b4f 54       		.byte	0x54
 5538 0b50 5E000000 		.4byte	.LVL154
 5539 0b54 60000000 		.4byte	.LVL155
 5540 0b58 0100     		.2byte	0x1
 5541 0b5a 50       		.byte	0x50
 5542 0b5b 60000000 		.4byte	.LVL155
 5543 0b5f A4000000 		.4byte	.LFE77
 5544 0b63 0100     		.2byte	0x1
 5545 0b65 54       		.byte	0x54
 5546 0b66 00000000 		.4byte	0
 5547 0b6a 00000000 		.4byte	0
 5548              	.LLST69:
 5549 0b6e 0E000000 		.4byte	.LVL141
 5550 0b72 78000000 		.4byte	.LVL158
 5551 0b76 0200     		.2byte	0x2
 5552 0b78 30       		.byte	0x30
 5553 0b79 9F       		.byte	0x9f
 5554 0b7a 78000000 		.4byte	.LVL158
 5555 0b7e 7F000000 		.4byte	.LVL160-1
 5556 0b82 0100     		.2byte	0x1
 5557 0b84 50       		.byte	0x50
 5558 0b85 7F000000 		.4byte	.LVL160-1
 5559 0b89 9A000000 		.4byte	.LVL163
 5560 0b8d 0100     		.2byte	0x1
 5561 0b8f 55       		.byte	0x55
ARM GAS  C:\Users\samue\AppData\Local\Temp\cc6oSIFr.s 			page 127


 5562 0b90 9A000000 		.4byte	.LVL163
 5563 0b94 9C000000 		.4byte	.LVL164
 5564 0b98 0200     		.2byte	0x2
 5565 0b9a 30       		.byte	0x30
 5566 0b9b 9F       		.byte	0x9f
 5567 0b9c 9C000000 		.4byte	.LVL164
 5568 0ba0 A4000000 		.4byte	.LFE77
 5569 0ba4 0100     		.2byte	0x1
 5570 0ba6 55       		.byte	0x55
 5571 0ba7 00000000 		.4byte	0
 5572 0bab 00000000 		.4byte	0
 5573              	.LLST70:
 5574 0baf 2A000000 		.4byte	.LVL146
 5575 0bb3 30000000 		.4byte	.LVL147
 5576 0bb7 0100     		.2byte	0x1
 5577 0bb9 50       		.byte	0x50
 5578 0bba 30000000 		.4byte	.LVL147
 5579 0bbe 5C000000 		.4byte	.LVL153
 5580 0bc2 0100     		.2byte	0x1
 5581 0bc4 55       		.byte	0x55
 5582 0bc5 5C000000 		.4byte	.LVL153
 5583 0bc9 5E000000 		.4byte	.LVL154
 5584 0bcd 0100     		.2byte	0x1
 5585 0bcf 50       		.byte	0x50
 5586 0bd0 66000000 		.4byte	.LVL157
 5587 0bd4 7A000000 		.4byte	.LVL159
 5588 0bd8 0100     		.2byte	0x1
 5589 0bda 55       		.byte	0x55
 5590 0bdb 9A000000 		.4byte	.LVL163
 5591 0bdf 9C000000 		.4byte	.LVL164
 5592 0be3 0100     		.2byte	0x1
 5593 0be5 55       		.byte	0x55
 5594 0be6 00000000 		.4byte	0
 5595 0bea 00000000 		.4byte	0
 5596              	.LLST71:
 5597 0bee 00000000 		.4byte	.LVL165
 5598 0bf2 1E000000 		.4byte	.LVL169
 5599 0bf6 0100     		.2byte	0x1
 5600 0bf8 50       		.byte	0x50
 5601 0bf9 1E000000 		.4byte	.LVL169
 5602 0bfd 74000000 		.4byte	.LFE78
 5603 0c01 0100     		.2byte	0x1
 5604 0c03 54       		.byte	0x54
 5605 0c04 00000000 		.4byte	0
 5606 0c08 00000000 		.4byte	0
 5607              	.LLST72:
 5608 0c0c 00000000 		.4byte	.LVL165
 5609 0c10 21000000 		.4byte	.LVL170-1
 5610 0c14 0100     		.2byte	0x1
 5611 0c16 51       		.byte	0x51
 5612 0c17 21000000 		.4byte	.LVL170-1
 5613 0c1b 4C000000 		.4byte	.LVL174
 5614 0c1f 0100     		.2byte	0x1
 5615 0c21 56       		.byte	0x56
 5616 0c22 4C000000 		.4byte	.LVL174
 5617 0c26 6A000000 		.4byte	.LVL178
 5618 0c2a 0400     		.2byte	0x4
ARM GAS  C:\Users\samue\AppData\Local\Temp\cc6oSIFr.s 			page 128


 5619 0c2c F3       		.byte	0xf3
 5620 0c2d 01       		.uleb128 0x1
 5621 0c2e 51       		.byte	0x51
 5622 0c2f 9F       		.byte	0x9f
 5623 0c30 6A000000 		.4byte	.LVL178
 5624 0c34 6C000000 		.4byte	.LVL179
 5625 0c38 0100     		.2byte	0x1
 5626 0c3a 56       		.byte	0x56
 5627 0c3b 6C000000 		.4byte	.LVL179
 5628 0c3f 74000000 		.4byte	.LFE78
 5629 0c43 0400     		.2byte	0x4
 5630 0c45 F3       		.byte	0xf3
 5631 0c46 01       		.uleb128 0x1
 5632 0c47 51       		.byte	0x51
 5633 0c48 9F       		.byte	0x9f
 5634 0c49 00000000 		.4byte	0
 5635 0c4d 00000000 		.4byte	0
 5636              	.LLST73:
 5637 0c51 00000000 		.4byte	.LVL165
 5638 0c55 21000000 		.4byte	.LVL170-1
 5639 0c59 0100     		.2byte	0x1
 5640 0c5b 52       		.byte	0x52
 5641 0c5c 21000000 		.4byte	.LVL170-1
 5642 0c60 74000000 		.4byte	.LFE78
 5643 0c64 0100     		.2byte	0x1
 5644 0c66 57       		.byte	0x57
 5645 0c67 00000000 		.4byte	0
 5646 0c6b 00000000 		.4byte	0
 5647              	.LLST74:
 5648 0c6f 00000000 		.4byte	.LVL165
 5649 0c73 10000000 		.4byte	.LVL167
 5650 0c77 0100     		.2byte	0x1
 5651 0c79 53       		.byte	0x53
 5652 0c7a 10000000 		.4byte	.LVL167
 5653 0c7e 74000000 		.4byte	.LFE78
 5654 0c82 0100     		.2byte	0x1
 5655 0c84 58       		.byte	0x58
 5656 0c85 00000000 		.4byte	0
 5657 0c89 00000000 		.4byte	0
 5658              	.LLST75:
 5659 0c8d 0E000000 		.4byte	.LVL166
 5660 0c91 1E000000 		.4byte	.LVL169
 5661 0c95 0100     		.2byte	0x1
 5662 0c97 50       		.byte	0x50
 5663 0c98 1E000000 		.4byte	.LVL169
 5664 0c9c 74000000 		.4byte	.LFE78
 5665 0ca0 0100     		.2byte	0x1
 5666 0ca2 54       		.byte	0x54
 5667 0ca3 00000000 		.4byte	0
 5668 0ca7 00000000 		.4byte	0
 5669              	.LLST76:
 5670 0cab 0E000000 		.4byte	.LVL166
 5671 0caf 34000000 		.4byte	.LVL172
 5672 0cb3 0200     		.2byte	0x2
 5673 0cb5 30       		.byte	0x30
 5674 0cb6 9F       		.byte	0x9f
 5675 0cb7 34000000 		.4byte	.LVL172
ARM GAS  C:\Users\samue\AppData\Local\Temp\cc6oSIFr.s 			page 129


 5676 0cbb 52000000 		.4byte	.LVL175
 5677 0cbf 0100     		.2byte	0x1
 5678 0cc1 50       		.byte	0x50
 5679 0cc2 52000000 		.4byte	.LVL175
 5680 0cc6 6A000000 		.4byte	.LVL178
 5681 0cca 0100     		.2byte	0x1
 5682 0ccc 55       		.byte	0x55
 5683 0ccd 6A000000 		.4byte	.LVL178
 5684 0cd1 6C000000 		.4byte	.LVL179
 5685 0cd5 0200     		.2byte	0x2
 5686 0cd7 30       		.byte	0x30
 5687 0cd8 9F       		.byte	0x9f
 5688 0cd9 6C000000 		.4byte	.LVL179
 5689 0cdd 74000000 		.4byte	.LFE78
 5690 0ce1 0100     		.2byte	0x1
 5691 0ce3 55       		.byte	0x55
 5692 0ce4 00000000 		.4byte	0
 5693 0ce8 00000000 		.4byte	0
 5694              	.LLST77:
 5695 0cec 22000000 		.4byte	.LVL170
 5696 0cf0 30000000 		.4byte	.LVL171
 5697 0cf4 0100     		.2byte	0x1
 5698 0cf6 50       		.byte	0x50
 5699 0cf7 30000000 		.4byte	.LVL171
 5700 0cfb 33000000 		.4byte	.LVL172-1
 5701 0cff 0100     		.2byte	0x1
 5702 0d01 53       		.byte	0x53
 5703 0d02 6A000000 		.4byte	.LVL178
 5704 0d06 6C000000 		.4byte	.LVL179
 5705 0d0a 0100     		.2byte	0x1
 5706 0d0c 50       		.byte	0x50
 5707 0d0d 00000000 		.4byte	0
 5708 0d11 00000000 		.4byte	0
 5709              	.LLST78:
 5710 0d15 1C000000 		.4byte	.LVL168
 5711 0d19 36000000 		.4byte	.LVL173
 5712 0d1d 0100     		.2byte	0x1
 5713 0d1f 55       		.byte	0x55
 5714 0d20 6A000000 		.4byte	.LVL178
 5715 0d24 6C000000 		.4byte	.LVL179
 5716 0d28 0100     		.2byte	0x1
 5717 0d2a 55       		.byte	0x55
 5718 0d2b 00000000 		.4byte	0
 5719 0d2f 00000000 		.4byte	0
 5720              	.LLST79:
 5721 0d33 64000000 		.4byte	.LVL177
 5722 0d37 6A000000 		.4byte	.LVL178
 5723 0d3b 0100     		.2byte	0x1
 5724 0d3d 56       		.byte	0x56
 5725 0d3e 00000000 		.4byte	0
 5726 0d42 00000000 		.4byte	0
 5727              	.LLST80:
 5728 0d46 00000000 		.4byte	.LVL180
 5729 0d4a 0A000000 		.4byte	.LVL182
 5730 0d4e 0100     		.2byte	0x1
 5731 0d50 50       		.byte	0x50
 5732 0d51 0A000000 		.4byte	.LVL182
ARM GAS  C:\Users\samue\AppData\Local\Temp\cc6oSIFr.s 			page 130


 5733 0d55 0C000000 		.4byte	.LVL183
 5734 0d59 0400     		.2byte	0x4
 5735 0d5b F3       		.byte	0xf3
 5736 0d5c 01       		.uleb128 0x1
 5737 0d5d 50       		.byte	0x50
 5738 0d5e 9F       		.byte	0x9f
 5739 0d5f 0C000000 		.4byte	.LVL183
 5740 0d63 0E000000 		.4byte	.LVL184
 5741 0d67 0100     		.2byte	0x1
 5742 0d69 50       		.byte	0x50
 5743 0d6a 0E000000 		.4byte	.LVL184
 5744 0d6e 10000000 		.4byte	.LFE80
 5745 0d72 0400     		.2byte	0x4
 5746 0d74 F3       		.byte	0xf3
 5747 0d75 01       		.uleb128 0x1
 5748 0d76 50       		.byte	0x50
 5749 0d77 9F       		.byte	0x9f
 5750 0d78 00000000 		.4byte	0
 5751 0d7c 00000000 		.4byte	0
 5752              	.LLST81:
 5753 0d80 00000000 		.4byte	.LVL180
 5754 0d84 0A000000 		.4byte	.LVL182
 5755 0d88 0100     		.2byte	0x1
 5756 0d8a 50       		.byte	0x50
 5757 0d8b 0A000000 		.4byte	.LVL182
 5758 0d8f 0C000000 		.4byte	.LVL183
 5759 0d93 0400     		.2byte	0x4
 5760 0d95 F3       		.byte	0xf3
 5761 0d96 01       		.uleb128 0x1
 5762 0d97 50       		.byte	0x50
 5763 0d98 9F       		.byte	0x9f
 5764 0d99 0C000000 		.4byte	.LVL183
 5765 0d9d 0E000000 		.4byte	.LVL184
 5766 0da1 0100     		.2byte	0x1
 5767 0da3 50       		.byte	0x50
 5768 0da4 0E000000 		.4byte	.LVL184
 5769 0da8 10000000 		.4byte	.LFE80
 5770 0dac 0400     		.2byte	0x4
 5771 0dae F3       		.byte	0xf3
 5772 0daf 01       		.uleb128 0x1
 5773 0db0 50       		.byte	0x50
 5774 0db1 9F       		.byte	0x9f
 5775 0db2 00000000 		.4byte	0
 5776 0db6 00000000 		.4byte	0
 5777              	.LLST82:
 5778 0dba 00000000 		.4byte	.LVL185
 5779 0dbe 13000000 		.4byte	.LVL188-1
 5780 0dc2 0100     		.2byte	0x1
 5781 0dc4 50       		.byte	0x50
 5782 0dc5 13000000 		.4byte	.LVL188-1
 5783 0dc9 20000000 		.4byte	.LFE81
 5784 0dcd 0400     		.2byte	0x4
 5785 0dcf F3       		.byte	0xf3
 5786 0dd0 01       		.uleb128 0x1
 5787 0dd1 50       		.byte	0x50
 5788 0dd2 9F       		.byte	0x9f
 5789 0dd3 00000000 		.4byte	0
ARM GAS  C:\Users\samue\AppData\Local\Temp\cc6oSIFr.s 			page 131


 5790 0dd7 00000000 		.4byte	0
 5791              	.LLST83:
 5792 0ddb 02000000 		.4byte	.LVL186
 5793 0ddf 13000000 		.4byte	.LVL188-1
 5794 0de3 0100     		.2byte	0x1
 5795 0de5 50       		.byte	0x50
 5796 0de6 13000000 		.4byte	.LVL188-1
 5797 0dea 20000000 		.4byte	.LFE81
 5798 0dee 0400     		.2byte	0x4
 5799 0df0 F3       		.byte	0xf3
 5800 0df1 01       		.uleb128 0x1
 5801 0df2 50       		.byte	0x50
 5802 0df3 9F       		.byte	0x9f
 5803 0df4 00000000 		.4byte	0
 5804 0df8 00000000 		.4byte	0
 5805              	.LLST84:
 5806 0dfc 00000000 		.4byte	.LVL191
 5807 0e00 20000000 		.4byte	.LVL193
 5808 0e04 0100     		.2byte	0x1
 5809 0e06 50       		.byte	0x50
 5810 0e07 20000000 		.4byte	.LVL193
 5811 0e0b 34000000 		.4byte	.LVL197
 5812 0e0f 0100     		.2byte	0x1
 5813 0e11 54       		.byte	0x54
 5814 0e12 34000000 		.4byte	.LVL197
 5815 0e16 36000000 		.4byte	.LVL198
 5816 0e1a 0100     		.2byte	0x1
 5817 0e1c 50       		.byte	0x50
 5818 0e1d 36000000 		.4byte	.LVL198
 5819 0e21 3E000000 		.4byte	.LFE82
 5820 0e25 0400     		.2byte	0x4
 5821 0e27 F3       		.byte	0xf3
 5822 0e28 01       		.uleb128 0x1
 5823 0e29 50       		.byte	0x50
 5824 0e2a 9F       		.byte	0x9f
 5825 0e2b 00000000 		.4byte	0
 5826 0e2f 00000000 		.4byte	0
 5827              	.LLST85:
 5828 0e33 00000000 		.4byte	.LVL191
 5829 0e37 28000000 		.4byte	.LVL194
 5830 0e3b 0100     		.2byte	0x1
 5831 0e3d 51       		.byte	0x51
 5832 0e3e 28000000 		.4byte	.LVL194
 5833 0e42 2B000000 		.4byte	.LVL195-1
 5834 0e46 0200     		.2byte	0x2
 5835 0e48 7D       		.byte	0x7d
 5836 0e49 00       		.sleb128 0
 5837 0e4a 2B000000 		.4byte	.LVL195-1
 5838 0e4e 34000000 		.4byte	.LVL197
 5839 0e52 0400     		.2byte	0x4
 5840 0e54 F3       		.byte	0xf3
 5841 0e55 01       		.uleb128 0x1
 5842 0e56 51       		.byte	0x51
 5843 0e57 9F       		.byte	0x9f
 5844 0e58 34000000 		.4byte	.LVL197
 5845 0e5c 36000000 		.4byte	.LVL198
 5846 0e60 0100     		.2byte	0x1
ARM GAS  C:\Users\samue\AppData\Local\Temp\cc6oSIFr.s 			page 132


 5847 0e62 51       		.byte	0x51
 5848 0e63 36000000 		.4byte	.LVL198
 5849 0e67 3E000000 		.4byte	.LFE82
 5850 0e6b 0400     		.2byte	0x4
 5851 0e6d F3       		.byte	0xf3
 5852 0e6e 01       		.uleb128 0x1
 5853 0e6f 51       		.byte	0x51
 5854 0e70 9F       		.byte	0x9f
 5855 0e71 00000000 		.4byte	0
 5856 0e75 00000000 		.4byte	0
 5857              	.LLST86:
 5858 0e79 04000000 		.4byte	.LVL192
 5859 0e7d 20000000 		.4byte	.LVL193
 5860 0e81 0100     		.2byte	0x1
 5861 0e83 50       		.byte	0x50
 5862 0e84 20000000 		.4byte	.LVL193
 5863 0e88 34000000 		.4byte	.LVL197
 5864 0e8c 0100     		.2byte	0x1
 5865 0e8e 54       		.byte	0x54
 5866 0e8f 34000000 		.4byte	.LVL197
 5867 0e93 36000000 		.4byte	.LVL198
 5868 0e97 0100     		.2byte	0x1
 5869 0e99 50       		.byte	0x50
 5870 0e9a 36000000 		.4byte	.LVL198
 5871 0e9e 3E000000 		.4byte	.LFE82
 5872 0ea2 0400     		.2byte	0x4
 5873 0ea4 F3       		.byte	0xf3
 5874 0ea5 01       		.uleb128 0x1
 5875 0ea6 50       		.byte	0x50
 5876 0ea7 9F       		.byte	0x9f
 5877 0ea8 00000000 		.4byte	0
 5878 0eac 00000000 		.4byte	0
 5879              	.LLST87:
 5880 0eb0 30000000 		.4byte	.LVL196
 5881 0eb4 34000000 		.4byte	.LVL197
 5882 0eb8 0200     		.2byte	0x2
 5883 0eba 31       		.byte	0x31
 5884 0ebb 9F       		.byte	0x9f
 5885 0ebc 36000000 		.4byte	.LVL198
 5886 0ec0 3E000000 		.4byte	.LFE82
 5887 0ec4 0100     		.2byte	0x1
 5888 0ec6 50       		.byte	0x50
 5889 0ec7 00000000 		.4byte	0
 5890 0ecb 00000000 		.4byte	0
 5891              	.LLST88:
 5892 0ecf 36000000 		.4byte	.LVL198
 5893 0ed3 3A000000 		.4byte	.LVL199
 5894 0ed7 0100     		.2byte	0x1
 5895 0ed9 55       		.byte	0x55
 5896 0eda 00000000 		.4byte	0
 5897 0ede 00000000 		.4byte	0
 5898              	.LLST89:
 5899 0ee2 00000000 		.4byte	.LVL200
 5900 0ee6 20000000 		.4byte	.LVL202
 5901 0eea 0100     		.2byte	0x1
 5902 0eec 50       		.byte	0x50
 5903 0eed 20000000 		.4byte	.LVL202
ARM GAS  C:\Users\samue\AppData\Local\Temp\cc6oSIFr.s 			page 133


 5904 0ef1 34000000 		.4byte	.LVL206
 5905 0ef5 0100     		.2byte	0x1
 5906 0ef7 54       		.byte	0x54
 5907 0ef8 34000000 		.4byte	.LVL206
 5908 0efc 36000000 		.4byte	.LVL207
 5909 0f00 0100     		.2byte	0x1
 5910 0f02 50       		.byte	0x50
 5911 0f03 36000000 		.4byte	.LVL207
 5912 0f07 3E000000 		.4byte	.LFE83
 5913 0f0b 0400     		.2byte	0x4
 5914 0f0d F3       		.byte	0xf3
 5915 0f0e 01       		.uleb128 0x1
 5916 0f0f 50       		.byte	0x50
 5917 0f10 9F       		.byte	0x9f
 5918 0f11 00000000 		.4byte	0
 5919 0f15 00000000 		.4byte	0
 5920              	.LLST90:
 5921 0f19 00000000 		.4byte	.LVL200
 5922 0f1d 28000000 		.4byte	.LVL203
 5923 0f21 0100     		.2byte	0x1
 5924 0f23 51       		.byte	0x51
 5925 0f24 28000000 		.4byte	.LVL203
 5926 0f28 2B000000 		.4byte	.LVL204-1
 5927 0f2c 0200     		.2byte	0x2
 5928 0f2e 7D       		.byte	0x7d
 5929 0f2f 00       		.sleb128 0
 5930 0f30 2B000000 		.4byte	.LVL204-1
 5931 0f34 34000000 		.4byte	.LVL206
 5932 0f38 0400     		.2byte	0x4
 5933 0f3a F3       		.byte	0xf3
 5934 0f3b 01       		.uleb128 0x1
 5935 0f3c 51       		.byte	0x51
 5936 0f3d 9F       		.byte	0x9f
 5937 0f3e 34000000 		.4byte	.LVL206
 5938 0f42 36000000 		.4byte	.LVL207
 5939 0f46 0100     		.2byte	0x1
 5940 0f48 51       		.byte	0x51
 5941 0f49 36000000 		.4byte	.LVL207
 5942 0f4d 3E000000 		.4byte	.LFE83
 5943 0f51 0400     		.2byte	0x4
 5944 0f53 F3       		.byte	0xf3
 5945 0f54 01       		.uleb128 0x1
 5946 0f55 51       		.byte	0x51
 5947 0f56 9F       		.byte	0x9f
 5948 0f57 00000000 		.4byte	0
 5949 0f5b 00000000 		.4byte	0
 5950              	.LLST91:
 5951 0f5f 04000000 		.4byte	.LVL201
 5952 0f63 20000000 		.4byte	.LVL202
 5953 0f67 0100     		.2byte	0x1
 5954 0f69 50       		.byte	0x50
 5955 0f6a 20000000 		.4byte	.LVL202
 5956 0f6e 34000000 		.4byte	.LVL206
 5957 0f72 0100     		.2byte	0x1
 5958 0f74 54       		.byte	0x54
 5959 0f75 34000000 		.4byte	.LVL206
 5960 0f79 36000000 		.4byte	.LVL207
ARM GAS  C:\Users\samue\AppData\Local\Temp\cc6oSIFr.s 			page 134


 5961 0f7d 0100     		.2byte	0x1
 5962 0f7f 50       		.byte	0x50
 5963 0f80 36000000 		.4byte	.LVL207
 5964 0f84 3E000000 		.4byte	.LFE83
 5965 0f88 0400     		.2byte	0x4
 5966 0f8a F3       		.byte	0xf3
 5967 0f8b 01       		.uleb128 0x1
 5968 0f8c 50       		.byte	0x50
 5969 0f8d 9F       		.byte	0x9f
 5970 0f8e 00000000 		.4byte	0
 5971 0f92 00000000 		.4byte	0
 5972              	.LLST92:
 5973 0f96 30000000 		.4byte	.LVL205
 5974 0f9a 34000000 		.4byte	.LVL206
 5975 0f9e 0200     		.2byte	0x2
 5976 0fa0 31       		.byte	0x31
 5977 0fa1 9F       		.byte	0x9f
 5978 0fa2 36000000 		.4byte	.LVL207
 5979 0fa6 3E000000 		.4byte	.LFE83
 5980 0faa 0100     		.2byte	0x1
 5981 0fac 50       		.byte	0x50
 5982 0fad 00000000 		.4byte	0
 5983 0fb1 00000000 		.4byte	0
 5984              	.LLST93:
 5985 0fb5 36000000 		.4byte	.LVL207
 5986 0fb9 3A000000 		.4byte	.LVL208
 5987 0fbd 0100     		.2byte	0x1
 5988 0fbf 55       		.byte	0x55
 5989 0fc0 00000000 		.4byte	0
 5990 0fc4 00000000 		.4byte	0
 5991              	.LLST94:
 5992 0fc8 00000000 		.4byte	.LVL209
 5993 0fcc 02000000 		.4byte	.LVL210
 5994 0fd0 0100     		.2byte	0x1
 5995 0fd2 50       		.byte	0x50
 5996 0fd3 02000000 		.4byte	.LVL210
 5997 0fd7 04000000 		.4byte	.LFE88
 5998 0fdb 0400     		.2byte	0x4
 5999 0fdd F3       		.byte	0xf3
 6000 0fde 01       		.uleb128 0x1
 6001 0fdf 50       		.byte	0x50
 6002 0fe0 9F       		.byte	0x9f
 6003 0fe1 00000000 		.4byte	0
 6004 0fe5 00000000 		.4byte	0
 6005              	.LLST95:
 6006 0fe9 00000000 		.4byte	.LVL212
 6007 0fed 02000000 		.4byte	.LVL213
 6008 0ff1 0100     		.2byte	0x1
 6009 0ff3 50       		.byte	0x50
 6010 0ff4 02000000 		.4byte	.LVL213
 6011 0ff8 08000000 		.4byte	.LFE90
 6012 0ffc 0400     		.2byte	0x4
 6013 0ffe F3       		.byte	0xf3
 6014 0fff 01       		.uleb128 0x1
 6015 1000 50       		.byte	0x50
 6016 1001 9F       		.byte	0x9f
 6017 1002 00000000 		.4byte	0
ARM GAS  C:\Users\samue\AppData\Local\Temp\cc6oSIFr.s 			page 135


 6018 1006 00000000 		.4byte	0
 6019              		.section	.debug_aranges,"",%progbits
 6020 0000 CC000000 		.4byte	0xcc
 6021 0004 0200     		.2byte	0x2
 6022 0006 00000000 		.4byte	.Ldebug_info0
 6023 000a 04       		.byte	0x4
 6024 000b 00       		.byte	0
 6025 000c 0000     		.2byte	0
 6026 000e 0000     		.2byte	0
 6027 0010 00000000 		.4byte	.LFB86
 6028 0014 12000000 		.4byte	.LFE86-.LFB86
 6029 0018 00000000 		.4byte	.LFB87
 6030 001c 26000000 		.4byte	.LFE87-.LFB87
 6031 0020 00000000 		.4byte	.LFB84
 6032 0024 42000000 		.4byte	.LFE84-.LFB84
 6033 0028 00000000 		.4byte	.LFB76
 6034 002c 52000000 		.4byte	.LFE76-.LFB76
 6035 0030 00000000 		.4byte	.LFB85
 6036 0034 4C000000 		.4byte	.LFE85-.LFB85
 6037 0038 00000000 		.4byte	.LFB79
 6038 003c 44000000 		.4byte	.LFE79-.LFB79
 6039 0040 00000000 		.4byte	.LFB68
 6040 0044 2C000000 		.4byte	.LFE68-.LFB68
 6041 0048 00000000 		.4byte	.LFB69
 6042 004c 1A000000 		.4byte	.LFE69-.LFB69
 6043 0050 00000000 		.4byte	.LFB70
 6044 0054 3A000000 		.4byte	.LFE70-.LFB70
 6045 0058 00000000 		.4byte	.LFB71
 6046 005c 16000000 		.4byte	.LFE71-.LFB71
 6047 0060 00000000 		.4byte	.LFB72
 6048 0064 14000000 		.4byte	.LFE72-.LFB72
 6049 0068 00000000 		.4byte	.LFB73
 6050 006c 08000000 		.4byte	.LFE73-.LFB73
 6051 0070 00000000 		.4byte	.LFB74
 6052 0074 BE000000 		.4byte	.LFE74-.LFB74
 6053 0078 00000000 		.4byte	.LFB75
 6054 007c 78000000 		.4byte	.LFE75-.LFB75
 6055 0080 00000000 		.4byte	.LFB77
 6056 0084 A4000000 		.4byte	.LFE77-.LFB77
 6057 0088 00000000 		.4byte	.LFB78
 6058 008c 74000000 		.4byte	.LFE78-.LFB78
 6059 0090 00000000 		.4byte	.LFB80
 6060 0094 10000000 		.4byte	.LFE80-.LFB80
 6061 0098 00000000 		.4byte	.LFB81
 6062 009c 20000000 		.4byte	.LFE81-.LFB81
 6063 00a0 00000000 		.4byte	.LFB82
 6064 00a4 3E000000 		.4byte	.LFE82-.LFB82
 6065 00a8 00000000 		.4byte	.LFB83
 6066 00ac 3E000000 		.4byte	.LFE83-.LFB83
 6067 00b0 00000000 		.4byte	.LFB88
 6068 00b4 04000000 		.4byte	.LFE88-.LFB88
 6069 00b8 00000000 		.4byte	.LFB89
 6070 00bc 04000000 		.4byte	.LFE89-.LFB89
 6071 00c0 00000000 		.4byte	.LFB90
 6072 00c4 08000000 		.4byte	.LFE90-.LFB90
 6073 00c8 00000000 		.4byte	0
 6074 00cc 00000000 		.4byte	0
ARM GAS  C:\Users\samue\AppData\Local\Temp\cc6oSIFr.s 			page 136


 6075              		.section	.debug_ranges,"",%progbits
 6076              	.Ldebug_ranges0:
 6077 0000 00000000 		.4byte	.LFB86
 6078 0004 12000000 		.4byte	.LFE86
 6079 0008 00000000 		.4byte	.LFB87
 6080 000c 26000000 		.4byte	.LFE87
 6081 0010 00000000 		.4byte	.LFB84
 6082 0014 42000000 		.4byte	.LFE84
 6083 0018 00000000 		.4byte	.LFB76
 6084 001c 52000000 		.4byte	.LFE76
 6085 0020 00000000 		.4byte	.LFB85
 6086 0024 4C000000 		.4byte	.LFE85
 6087 0028 00000000 		.4byte	.LFB79
 6088 002c 44000000 		.4byte	.LFE79
 6089 0030 00000000 		.4byte	.LFB68
 6090 0034 2C000000 		.4byte	.LFE68
 6091 0038 00000000 		.4byte	.LFB69
 6092 003c 1A000000 		.4byte	.LFE69
 6093 0040 00000000 		.4byte	.LFB70
 6094 0044 3A000000 		.4byte	.LFE70
 6095 0048 00000000 		.4byte	.LFB71
 6096 004c 16000000 		.4byte	.LFE71
 6097 0050 00000000 		.4byte	.LFB72
 6098 0054 14000000 		.4byte	.LFE72
 6099 0058 00000000 		.4byte	.LFB73
 6100 005c 08000000 		.4byte	.LFE73
 6101 0060 00000000 		.4byte	.LFB74
 6102 0064 BE000000 		.4byte	.LFE74
 6103 0068 00000000 		.4byte	.LFB75
 6104 006c 78000000 		.4byte	.LFE75
 6105 0070 00000000 		.4byte	.LFB77
 6106 0074 A4000000 		.4byte	.LFE77
 6107 0078 00000000 		.4byte	.LFB78
 6108 007c 74000000 		.4byte	.LFE78
 6109 0080 00000000 		.4byte	.LFB80
 6110 0084 10000000 		.4byte	.LFE80
 6111 0088 00000000 		.4byte	.LFB81
 6112 008c 20000000 		.4byte	.LFE81
 6113 0090 00000000 		.4byte	.LFB82
 6114 0094 3E000000 		.4byte	.LFE82
 6115 0098 00000000 		.4byte	.LFB83
 6116 009c 3E000000 		.4byte	.LFE83
 6117 00a0 00000000 		.4byte	.LFB88
 6118 00a4 04000000 		.4byte	.LFE88
 6119 00a8 00000000 		.4byte	.LFB89
 6120 00ac 04000000 		.4byte	.LFE89
 6121 00b0 00000000 		.4byte	.LFB90
 6122 00b4 08000000 		.4byte	.LFE90
 6123 00b8 00000000 		.4byte	0
 6124 00bc 00000000 		.4byte	0
 6125              		.section	.debug_line,"",%progbits
 6126              	.Ldebug_line0:
 6127 0000 4C050000 		.section	.debug_str,"MS",%progbits,1
 6127      02005A02 
 6127      00000201 
 6127      FB0E0D00 
 6127      01010101 
ARM GAS  C:\Users\samue\AppData\Local\Temp\cc6oSIFr.s 			page 137


 6128              	.LASF62:
 6129 0000 7853686F 		.ascii	"xShouldWrite\000"
 6129      756C6457 
 6129      72697465 
 6129      00
 6130              	.LASF70:
 6131 000d 78427566 		.ascii	"xBufferLengthBytes\000"
 6131      6665724C 
 6131      656E6774 
 6131      68427974 
 6131      657300
 6132              	.LASF46:
 6133 0020 756C4F72 		.ascii	"ulOriginalBASEPRI\000"
 6133      6967696E 
 6133      616C4241 
 6133      53455052 
 6133      4900
 6134              	.LASF25:
 6135 0032 654E6F41 		.ascii	"eNoAction\000"
 6135      6374696F 
 6135      6E00
 6136              	.LASF77:
 6137 003c 78537472 		.ascii	"xStreamBufferGenericCreate\000"
 6137      65616D42 
 6137      75666665 
 6137      7247656E 
 6137      65726963 
 6138              	.LASF47:
 6139 0057 756C4E65 		.ascii	"ulNewBASEPRI\000"
 6139      77424153 
 6139      45505249 
 6139      00
 6140              	.LASF54:
 6141 0064 78436F75 		.ascii	"xCount\000"
 6141      6E7400
 6142              	.LASF96:
 6143 006b 76537472 		.ascii	"vStreamBufferDelete\000"
 6143      65616D42 
 6143      75666665 
 6143      7244656C 
 6143      65746500 
 6144              	.LASF34:
 6145 007f 7854494D 		.ascii	"xTIME_OUT\000"
 6145      455F4F55 
 6145      5400
 6146              	.LASF89:
 6147 0089 78537472 		.ascii	"xStreamBufferReceive\000"
 6147      65616D42 
 6147      75666665 
 6147      72526563 
 6147      65697665 
 6148              	.LASF32:
 6149 009e 54696D65 		.ascii	"TimeOut_t\000"
 6149      4F75745F 
 6149      7400
 6150              	.LASF2:
 6151 00a8 73686F72 		.ascii	"short int\000"
ARM GAS  C:\Users\samue\AppData\Local\Temp\cc6oSIFr.s 			page 138


 6151      7420696E 
 6151      7400
 6152              	.LASF15:
 6153 00b2 73697A65 		.ascii	"size_t\000"
 6153      5F7400
 6154              	.LASF120:
 6155 00b9 70727649 		.ascii	"prvInitialiseNewStreamBuffer\000"
 6155      6E697469 
 6155      616C6973 
 6155      654E6577 
 6155      53747265 
 6156              	.LASF17:
 6157 00d6 73697A65 		.ascii	"sizetype\000"
 6157      74797065 
 6157      00
 6158              	.LASF64:
 6159 00df 70727652 		.ascii	"prvReadBytesFromBuffer\000"
 6159      65616442 
 6159      79746573 
 6159      46726F6D 
 6159      42756666 
 6160              	.LASF24:
 6161 00f6 5461736B 		.ascii	"TaskHandle_t\000"
 6161      48616E64 
 6161      6C655F74 
 6161      00
 6162              	.LASF94:
 6163 0103 78537472 		.ascii	"xStreamBufferReceiveCompletedFromISR\000"
 6163      65616D42 
 6163      75666665 
 6163      72526563 
 6163      65697665 
 6164              	.LASF66:
 6165 0128 78427974 		.ascii	"xBytesAvailable\000"
 6165      65734176 
 6165      61696C61 
 6165      626C6500 
 6166              	.LASF74:
 6167 0138 784E6578 		.ascii	"xNextMessageLength\000"
 6167      744D6573 
 6167      73616765 
 6167      4C656E67 
 6167      746800
 6168              	.LASF55:
 6169 014b 784E6578 		.ascii	"xNextHead\000"
 6169      74486561 
 6169      6400
 6170              	.LASF7:
 6171 0155 5F5F7569 		.ascii	"__uint32_t\000"
 6171      6E743332 
 6171      5F7400
 6172              	.LASF59:
 6173 0160 78446174 		.ascii	"xDataLengthBytes\000"
 6173      614C656E 
 6173      67746842 
 6173      79746573 
 6173      00
ARM GAS  C:\Users\samue\AppData\Local\Temp\cc6oSIFr.s 			page 139


 6174              	.LASF42:
 6175 0171 70756342 		.ascii	"pucBuffer\000"
 6175      75666665 
 6175      7200
 6176              	.LASF113:
 6177 017b 78546173 		.ascii	"xTaskGenericNotifyFromISR\000"
 6177      6B47656E 
 6177      65726963 
 6177      4E6F7469 
 6177      66794672 
 6178              	.LASF57:
 6179 0195 70727657 		.ascii	"prvWriteMessageToBuffer\000"
 6179      72697465 
 6179      4D657373 
 6179      61676554 
 6179      6F427566 
 6180              	.LASF56:
 6181 01ad 78466972 		.ascii	"xFirstLength\000"
 6181      73744C65 
 6181      6E677468 
 6181      00
 6182              	.LASF84:
 6183 01ba 78546963 		.ascii	"xTicksToWait\000"
 6183      6B73546F 
 6183      57616974 
 6183      00
 6184              	.LASF85:
 6185 01c7 7854696D 		.ascii	"xTimeOut\000"
 6185      654F7574 
 6185      00
 6186              	.LASF103:
 6187 01d0 76546173 		.ascii	"vTaskSetTimeOutState\000"
 6187      6B536574 
 6187      54696D65 
 6187      4F757453 
 6187      74617465 
 6188              	.LASF100:
 6189 01e5 6D656D63 		.ascii	"memcpy\000"
 6189      707900
 6190              	.LASF111:
 6191 01ec 78546173 		.ascii	"xTaskGenericNotify\000"
 6191      6B47656E 
 6191      65726963 
 6191      4E6F7469 
 6191      667900
 6192              	.LASF73:
 6193 01ff 78526563 		.ascii	"xReceivedLength\000"
 6193      65697665 
 6193      644C656E 
 6193      67746800 
 6194              	.LASF65:
 6195 020f 784D6178 		.ascii	"xMaxCount\000"
 6195      436F756E 
 6195      7400
 6196              	.LASF117:
 6197 0219 756C506F 		.ascii	"ulPortRaiseBASEPRI\000"
 6197      72745261 
ARM GAS  C:\Users\samue\AppData\Local\Temp\cc6oSIFr.s 			page 140


 6197      69736542 
 6197      41534550 
 6197      524900
 6198              	.LASF26:
 6199 022c 65536574 		.ascii	"eSetBits\000"
 6199      42697473 
 6199      00
 6200              	.LASF76:
 6201 0235 78537472 		.ascii	"xStreamBuffer\000"
 6201      65616D42 
 6201      75666665 
 6201      7200
 6202              	.LASF19:
 6203 0243 666C6F61 		.ascii	"float\000"
 6203      7400
 6204              	.LASF108:
 6205 0249 78546173 		.ascii	"xTaskNotifyWait\000"
 6205      6B4E6F74 
 6205      69667957 
 6205      61697400 
 6206              	.LASF98:
 6207 0259 75635374 		.ascii	"ucStreamBufferGetStreamBufferType\000"
 6207      7265616D 
 6207      42756666 
 6207      65724765 
 6207      74537472 
 6208              	.LASF9:
 6209 027b 6C6F6E67 		.ascii	"long long int\000"
 6209      206C6F6E 
 6209      6720696E 
 6209      7400
 6210              	.LASF61:
 6211 0289 78526571 		.ascii	"xRequiredSpace\000"
 6211      75697265 
 6211      64537061 
 6211      636500
 6212              	.LASF90:
 6213 0298 78537472 		.ascii	"xStreamBufferReceiveFromISR\000"
 6213      65616D42 
 6213      75666665 
 6213      72526563 
 6213      65697665 
 6214              	.LASF99:
 6215 02b4 6D656D73 		.ascii	"memset\000"
 6215      657400
 6216              	.LASF92:
 6217 02bb 78537472 		.ascii	"xStreamBufferIsFull\000"
 6217      65616D42 
 6217      75666665 
 6217      72497346 
 6217      756C6C00 
 6218              	.LASF6:
 6219 02cf 6C6F6E67 		.ascii	"long int\000"
 6219      20696E74 
 6219      00
 6220              	.LASF80:
 6221 02d8 78547269 		.ascii	"xTriggerLevel\000"
ARM GAS  C:\Users\samue\AppData\Local\Temp\cc6oSIFr.s 			page 141


 6221      67676572 
 6221      4C657665 
 6221      6C00
 6222              	.LASF91:
 6223 02e6 78537472 		.ascii	"xStreamBufferIsEmpty\000"
 6223      65616D42 
 6223      75666665 
 6223      72497345 
 6223      6D707479 
 6224              	.LASF4:
 6225 02fb 5F5F7569 		.ascii	"__uint8_t\000"
 6225      6E74385F 
 6225      7400
 6226              	.LASF109:
 6227 0305 78546173 		.ascii	"xTaskCheckForTimeOut\000"
 6227      6B436865 
 6227      636B466F 
 6227      7254696D 
 6227      654F7574 
 6228              	.LASF75:
 6229 031a 70756341 		.ascii	"pucAllocatedMemory\000"
 6229      6C6C6F63 
 6229      61746564 
 6229      4D656D6F 
 6229      727900
 6230              	.LASF48:
 6231 032d 70785374 		.ascii	"pxStreamBuffer\000"
 6231      7265616D 
 6231      42756666 
 6231      657200
 6232              	.LASF115:
 6233 033c 2E2E5C46 		.ascii	"..\\FreeRTOS\\Source\\stream_buffer.c\000"
 6233      72656552 
 6233      544F535C 
 6233      536F7572 
 6233      63655C73 
 6234              	.LASF69:
 6235 035f 70765278 		.ascii	"pvRxData\000"
 6235      44617461 
 6235      00
 6236              	.LASF16:
 6237 0368 6C6F6E67 		.ascii	"long double\000"
 6237      20646F75 
 6237      626C6500 
 6238              	.LASF38:
 6239 0374 784C656E 		.ascii	"xLength\000"
 6239      67746800 
 6240              	.LASF1:
 6241 037c 756E7369 		.ascii	"unsigned char\000"
 6241      676E6564 
 6241      20636861 
 6241      7200
 6242              	.LASF31:
 6243 038a 7854696D 		.ascii	"xTimeOnEntering\000"
 6243      654F6E45 
 6243      6E746572 
 6243      696E6700 
ARM GAS  C:\Users\samue\AppData\Local\Temp\cc6oSIFr.s 			page 142


 6244              	.LASF49:
 6245 039a 78427566 		.ascii	"xBufferSizeBytes\000"
 6245      66657253 
 6245      697A6542 
 6245      79746573 
 6245      00
 6246              	.LASF30:
 6247 03ab 784F7665 		.ascii	"xOverflowCount\000"
 6247      72666C6F 
 6247      77436F75 
 6247      6E7400
 6248              	.LASF79:
 6249 03ba 78537472 		.ascii	"xStreamBufferSetTriggerLevel\000"
 6249      65616D42 
 6249      75666665 
 6249      72536574 
 6249      54726967 
 6250              	.LASF40:
 6251 03d7 78546173 		.ascii	"xTaskWaitingToReceive\000"
 6251      6B576169 
 6251      74696E67 
 6251      546F5265 
 6251      63656976 
 6252              	.LASF0:
 6253 03ed 7369676E 		.ascii	"signed char\000"
 6253      65642063 
 6253      68617200 
 6254              	.LASF81:
 6255 03f9 78537472 		.ascii	"xStreamBufferSpacesAvailable\000"
 6255      65616D42 
 6255      75666665 
 6255      72537061 
 6255      63657341 
 6256              	.LASF10:
 6257 0416 6C6F6E67 		.ascii	"long long unsigned int\000"
 6257      206C6F6E 
 6257      6720756E 
 6257      7369676E 
 6257      65642069 
 6258              	.LASF68:
 6259 042d 70727652 		.ascii	"prvReadMessageFromBuffer\000"
 6259      6561644D 
 6259      65737361 
 6259      67654672 
 6259      6F6D4275 
 6260              	.LASF14:
 6261 0446 75696E74 		.ascii	"uint32_t\000"
 6261      33325F74 
 6261      00
 6262              	.LASF86:
 6263 044f 78537472 		.ascii	"xStreamBufferSendFromISR\000"
 6263      65616D42 
 6263      75666665 
 6263      7253656E 
 6263      6446726F 
 6264              	.LASF11:
 6265 0468 756E7369 		.ascii	"unsigned int\000"
ARM GAS  C:\Users\samue\AppData\Local\Temp\cc6oSIFr.s 			page 143


 6265      676E6564 
 6265      20696E74 
 6265      00
 6266              	.LASF21:
 6267 0475 42617365 		.ascii	"BaseType_t\000"
 6267      54797065 
 6267      5F7400
 6268              	.LASF8:
 6269 0480 6C6F6E67 		.ascii	"long unsigned int\000"
 6269      20756E73 
 6269      69676E65 
 6269      6420696E 
 6269      7400
 6270              	.LASF43:
 6271 0492 7563466C 		.ascii	"ucFlags\000"
 6271      61677300 
 6272              	.LASF83:
 6273 049a 78537472 		.ascii	"xStreamBufferSend\000"
 6273      65616D42 
 6273      75666665 
 6273      7253656E 
 6273      6400
 6274              	.LASF23:
 6275 04ac 5469636B 		.ascii	"TickType_t\000"
 6275      54797065 
 6275      5F7400
 6276              	.LASF20:
 6277 04b7 646F7562 		.ascii	"double\000"
 6277      6C6500
 6278              	.LASF112:
 6279 04be 78546173 		.ascii	"xTaskResumeAll\000"
 6279      6B526573 
 6279      756D6541 
 6279      6C6C00
 6280              	.LASF3:
 6281 04cd 73686F72 		.ascii	"short unsigned int\000"
 6281      7420756E 
 6281      7369676E 
 6281      65642069 
 6281      6E7400
 6282              	.LASF104:
 6283 04e0 76506F72 		.ascii	"vPortEnterCritical\000"
 6283      74456E74 
 6283      65724372 
 6283      69746963 
 6283      616C00
 6284              	.LASF102:
 6285 04f3 76506F72 		.ascii	"vPortFree\000"
 6285      74467265 
 6285      6500
 6286              	.LASF118:
 6287 04fd 76506F72 		.ascii	"vPortSetBASEPRI\000"
 6287      74536574 
 6287      42415345 
 6287      50524900 
 6288              	.LASF18:
 6289 050d 63686172 		.ascii	"char\000"
ARM GAS  C:\Users\samue\AppData\Local\Temp\cc6oSIFr.s 			page 144


 6289      00
 6290              	.LASF28:
 6291 0512 65536574 		.ascii	"eSetValueWithOverwrite\000"
 6291      56616C75 
 6291      65576974 
 6291      684F7665 
 6291      72777269 
 6292              	.LASF13:
 6293 0529 696E7433 		.ascii	"int32_t\000"
 6293      325F7400 
 6294              	.LASF50:
 6295 0531 7849734D 		.ascii	"xIsMessageBuffer\000"
 6295      65737361 
 6295      67654275 
 6295      66666572 
 6295      00
 6296              	.LASF44:
 6297 0542 75785374 		.ascii	"uxStreamBufferNumber\000"
 6297      7265616D 
 6297      42756666 
 6297      65724E75 
 6297      6D626572 
 6298              	.LASF107:
 6299 0557 76506F72 		.ascii	"vPortExitCritical\000"
 6299      74457869 
 6299      74437269 
 6299      74696361 
 6299      6C00
 6300              	.LASF51:
 6301 0569 70727642 		.ascii	"prvBytesInBuffer\000"
 6301      79746573 
 6301      496E4275 
 6301      66666572 
 6301      00
 6302              	.LASF39:
 6303 057a 78547269 		.ascii	"xTriggerLevelBytes\000"
 6303      67676572 
 6303      4C657665 
 6303      6C427974 
 6303      657300
 6304              	.LASF35:
 6305 058d 78535452 		.ascii	"xSTREAM_BUFFER\000"
 6305      45414D5F 
 6305      42554646 
 6305      455200
 6306              	.LASF60:
 6307 059c 78537061 		.ascii	"xSpace\000"
 6307      636500
 6308              	.LASF78:
 6309 05a3 78537472 		.ascii	"xStreamBufferReset\000"
 6309      65616D42 
 6309      75666665 
 6309      72526573 
 6309      657400
 6310              	.LASF95:
 6311 05b6 75785374 		.ascii	"uxStreamBufferGetStreamBufferNumber\000"
 6311      7265616D 
ARM GAS  C:\Users\samue\AppData\Local\Temp\cc6oSIFr.s 			page 145


 6311      42756666 
 6311      65724765 
 6311      74537472 
 6312              	.LASF116:
 6313 05da 433A5C55 		.ascii	"C:\\Users\\samue\\Desktop\\RobotRage2\\Zumo\\ZumoBo"
 6313      73657273 
 6313      5C73616D 
 6313      75655C44 
 6313      65736B74 
 6314 0607 742E6379 		.ascii	"t.cydsn\000"
 6314      64736E00 
 6315              	.LASF22:
 6316 060f 55426173 		.ascii	"UBaseType_t\000"
 6316      65547970 
 6316      655F7400 
 6317              	.LASF52:
 6318 061b 70727657 		.ascii	"prvWriteBytesToBuffer\000"
 6318      72697465 
 6318      42797465 
 6318      73546F42 
 6318      75666665 
 6319              	.LASF36:
 6320 0631 78546169 		.ascii	"xTail\000"
 6320      6C00
 6321              	.LASF93:
 6322 0637 78537472 		.ascii	"xStreamBufferSendCompletedFromISR\000"
 6322      65616D42 
 6322      75666665 
 6322      7253656E 
 6322      64436F6D 
 6323              	.LASF119:
 6324 0659 756C4E65 		.ascii	"ulNewMaskValue\000"
 6324      774D6173 
 6324      6B56616C 
 6324      756500
 6325              	.LASF97:
 6326 0668 76537472 		.ascii	"vStreamBufferSetStreamBufferNumber\000"
 6326      65616D42 
 6326      75666665 
 6326      72536574 
 6326      53747265 
 6327              	.LASF29:
 6328 068b 65536574 		.ascii	"eSetValueWithoutOverwrite\000"
 6328      56616C75 
 6328      65576974 
 6328      686F7574 
 6328      4F766572 
 6329              	.LASF105:
 6330 06a5 78546173 		.ascii	"xTaskNotifyStateClear\000"
 6330      6B4E6F74 
 6330      69667953 
 6330      74617465 
 6330      436C6561 
 6331              	.LASF5:
 6332 06bb 5F5F696E 		.ascii	"__int32_t\000"
 6332      7433325F 
 6332      7400
ARM GAS  C:\Users\samue\AppData\Local\Temp\cc6oSIFr.s 			page 146


 6333              	.LASF41:
 6334 06c5 78546173 		.ascii	"xTaskWaitingToSend\000"
 6334      6B576169 
 6334      74696E67 
 6334      546F5365 
 6334      6E6400
 6335              	.LASF33:
 6336 06d8 53747265 		.ascii	"StreamBufferHandle_t\000"
 6336      616D4275 
 6336      66666572 
 6336      48616E64 
 6336      6C655F74 
 6337              	.LASF12:
 6338 06ed 75696E74 		.ascii	"uint8_t\000"
 6338      385F7400 
 6339              	.LASF88:
 6340 06f5 75785361 		.ascii	"uxSavedInterruptStatus\000"
 6340      76656449 
 6340      6E746572 
 6340      72757074 
 6340      53746174 
 6341              	.LASF63:
 6342 070c 78526574 		.ascii	"xReturn\000"
 6342      75726E00 
 6343              	.LASF87:
 6344 0714 70784869 		.ascii	"pxHigherPriorityTaskWoken\000"
 6344      67686572 
 6344      5072696F 
 6344      72697479 
 6344      5461736B 
 6345              	.LASF67:
 6346 072e 784E6578 		.ascii	"xNextTail\000"
 6346      74546169 
 6346      6C00
 6347              	.LASF37:
 6348 0738 78486561 		.ascii	"xHead\000"
 6348      6400
 6349              	.LASF71:
 6350 073e 78427974 		.ascii	"xBytesToStoreMessageLength\000"
 6350      6573546F 
 6350      53746F72 
 6350      654D6573 
 6350      73616765 
 6351              	.LASF72:
 6352 0759 784F7269 		.ascii	"xOriginalTail\000"
 6352      67696E61 
 6352      6C546169 
 6352      6C00
 6353              	.LASF121:
 6354 0767 49544D5F 		.ascii	"ITM_RxBuffer\000"
 6354      52784275 
 6354      66666572 
 6354      00
 6355              	.LASF114:
 6356 0774 474E5520 		.ascii	"GNU C11 5.4.1 20160609 (release) [ARM/embedded-5-br"
 6356      43313120 
 6356      352E342E 
ARM GAS  C:\Users\samue\AppData\Local\Temp\cc6oSIFr.s 			page 147


 6356      31203230 
 6356      31363036 
 6357 07a7 616E6368 		.ascii	"anch revision 237715] -mcpu=cortex-m3 -mthumb -g -O"
 6357      20726576 
 6357      6973696F 
 6357      6E203233 
 6357      37373135 
 6358 07da 67202D66 		.ascii	"g -ffunction-sections -ffat-lto-objects\000"
 6358      66756E63 
 6358      74696F6E 
 6358      2D736563 
 6358      74696F6E 
 6359              	.LASF106:
 6360 0802 78546173 		.ascii	"xTaskGetCurrentTaskHandle\000"
 6360      6B476574 
 6360      43757272 
 6360      656E7454 
 6360      61736B48 
 6361              	.LASF53:
 6362 081c 70756344 		.ascii	"pucData\000"
 6362      61746100 
 6363              	.LASF82:
 6364 0824 78537472 		.ascii	"xStreamBufferBytesAvailable\000"
 6364      65616D42 
 6364      75666665 
 6364      72427974 
 6364      65734176 
 6365              	.LASF58:
 6366 0840 70765478 		.ascii	"pvTxData\000"
 6366      44617461 
 6366      00
 6367              	.LASF101:
 6368 0849 7076506F 		.ascii	"pvPortMalloc\000"
 6368      72744D61 
 6368      6C6C6F63 
 6368      00
 6369              	.LASF110:
 6370 0856 76546173 		.ascii	"vTaskSuspendAll\000"
 6370      6B537573 
 6370      70656E64 
 6370      416C6C00 
 6371              	.LASF27:
 6372 0866 65496E63 		.ascii	"eIncrement\000"
 6372      72656D65 
 6372      6E7400
 6373              	.LASF45:
 6374 0871 53747265 		.ascii	"StreamBuffer_t\000"
 6374      616D4275 
 6374      66666572 
 6374      5F7400
 6375              		.ident	"GCC: (GNU Tools for ARM Embedded Processors) 5.4.1 20160609 (release) [ARM/embedded-5-bran
