ARM GAS  C:\Users\samue\AppData\Local\Temp\cc6oSIFr.s 			page 1


   1              		.syntax unified
   2              		.cpu cortex-m3
   3              		.fpu softvfp
   4              		.eabi_attribute 20, 1
   5              		.eabi_attribute 21, 1
   6              		.eabi_attribute 23, 3
   7              		.eabi_attribute 24, 1
   8              		.eabi_attribute 25, 1
   9              		.eabi_attribute 26, 1
  10              		.eabi_attribute 30, 1
  11              		.eabi_attribute 34, 1
  12              		.eabi_attribute 18, 4
  13              		.thumb
  14              		.syntax unified
  15              		.file	"stream_buffer.c"
  16              		.text
  17              	.Ltext0:
  18              		.cfi_sections	.debug_frame
  19              		.section	.text.prvBytesInBuffer,"ax",%progbits
  20              		.align	2
  21              		.thumb
  22              		.thumb_func
  23              		.type	prvBytesInBuffer, %function
  24              	prvBytesInBuffer:
  25              	.LFB86:
  26              		.file 1 "..\\FreeRTOS\\Source\\stream_buffer.c"
   1:..\FreeRTOS\Source/stream_buffer.c **** /*
   2:..\FreeRTOS\Source/stream_buffer.c ****  * FreeRTOS Kernel V10.0.1
   3:..\FreeRTOS\Source/stream_buffer.c ****  * Copyright (C) 2017 Amazon.com, Inc. or its affiliates.  All Rights Reserved.
   4:..\FreeRTOS\Source/stream_buffer.c ****  *
   5:..\FreeRTOS\Source/stream_buffer.c ****  * Permission is hereby granted, free of charge, to any person obtaining a copy of
   6:..\FreeRTOS\Source/stream_buffer.c ****  * this software and associated documentation files (the "Software"), to deal in
   7:..\FreeRTOS\Source/stream_buffer.c ****  * the Software without restriction, including without limitation the rights to
   8:..\FreeRTOS\Source/stream_buffer.c ****  * use, copy, modify, merge, publish, distribute, sublicense, and/or sell copies of
   9:..\FreeRTOS\Source/stream_buffer.c ****  * the Software, and to permit persons to whom the Software is furnished to do so,
  10:..\FreeRTOS\Source/stream_buffer.c ****  * subject to the following conditions:
  11:..\FreeRTOS\Source/stream_buffer.c ****  *
  12:..\FreeRTOS\Source/stream_buffer.c ****  * The above copyright notice and this permission notice shall be included in all
  13:..\FreeRTOS\Source/stream_buffer.c ****  * copies or substantial portions of the Software.
  14:..\FreeRTOS\Source/stream_buffer.c ****  *
  15:..\FreeRTOS\Source/stream_buffer.c ****  * THE SOFTWARE IS PROVIDED "AS IS", WITHOUT WARRANTY OF ANY KIND, EXPRESS OR
  16:..\FreeRTOS\Source/stream_buffer.c ****  * IMPLIED, INCLUDING BUT NOT LIMITED TO THE WARRANTIES OF MERCHANTABILITY, FITNESS
  17:..\FreeRTOS\Source/stream_buffer.c ****  * FOR A PARTICULAR PURPOSE AND NONINFRINGEMENT. IN NO EVENT SHALL THE AUTHORS OR
  18:..\FreeRTOS\Source/stream_buffer.c ****  * COPYRIGHT HOLDERS BE LIABLE FOR ANY CLAIM, DAMAGES OR OTHER LIABILITY, WHETHER
  19:..\FreeRTOS\Source/stream_buffer.c ****  * IN AN ACTION OF CONTRACT, TORT OR OTHERWISE, ARISING FROM, OUT OF OR IN
  20:..\FreeRTOS\Source/stream_buffer.c ****  * CONNECTION WITH THE SOFTWARE OR THE USE OR OTHER DEALINGS IN THE SOFTWARE.
  21:..\FreeRTOS\Source/stream_buffer.c ****  *
  22:..\FreeRTOS\Source/stream_buffer.c ****  * http://www.FreeRTOS.org
  23:..\FreeRTOS\Source/stream_buffer.c ****  * http://aws.amazon.com/freertos
  24:..\FreeRTOS\Source/stream_buffer.c ****  *
  25:..\FreeRTOS\Source/stream_buffer.c ****  * 1 tab == 4 spaces!
  26:..\FreeRTOS\Source/stream_buffer.c ****  */
  27:..\FreeRTOS\Source/stream_buffer.c **** 
  28:..\FreeRTOS\Source/stream_buffer.c **** /* Standard includes. */
  29:..\FreeRTOS\Source/stream_buffer.c **** #include <stdint.h>
  30:..\FreeRTOS\Source/stream_buffer.c **** #include <string.h>
  31:..\FreeRTOS\Source/stream_buffer.c **** 
ARM GAS  C:\Users\samue\AppData\Local\Temp\cc6oSIFr.s 			page 2


  32:..\FreeRTOS\Source/stream_buffer.c **** /* Defining MPU_WRAPPERS_INCLUDED_FROM_API_FILE prevents task.h from redefining
  33:..\FreeRTOS\Source/stream_buffer.c **** all the API functions to use the MPU wrappers.  That should only be done when
  34:..\FreeRTOS\Source/stream_buffer.c **** task.h is included from an application file. */
  35:..\FreeRTOS\Source/stream_buffer.c **** #define MPU_WRAPPERS_INCLUDED_FROM_API_FILE
  36:..\FreeRTOS\Source/stream_buffer.c **** 
  37:..\FreeRTOS\Source/stream_buffer.c **** /* FreeRTOS includes. */
  38:..\FreeRTOS\Source/stream_buffer.c **** #include "FreeRTOS.h"
  39:..\FreeRTOS\Source/stream_buffer.c **** #include "task.h"
  40:..\FreeRTOS\Source/stream_buffer.c **** #include "stream_buffer.h"
  41:..\FreeRTOS\Source/stream_buffer.c **** 
  42:..\FreeRTOS\Source/stream_buffer.c **** #if( configUSE_TASK_NOTIFICATIONS != 1 )
  43:..\FreeRTOS\Source/stream_buffer.c **** 	#error configUSE_TASK_NOTIFICATIONS must be set to 1 to build stream_buffer.c
  44:..\FreeRTOS\Source/stream_buffer.c **** #endif
  45:..\FreeRTOS\Source/stream_buffer.c **** 
  46:..\FreeRTOS\Source/stream_buffer.c **** /* Lint e961 and e750 are suppressed as a MISRA exception justified because the
  47:..\FreeRTOS\Source/stream_buffer.c **** MPU ports require MPU_WRAPPERS_INCLUDED_FROM_API_FILE to be defined for the
  48:..\FreeRTOS\Source/stream_buffer.c **** header files above, but not in this file, in order to generate the correct
  49:..\FreeRTOS\Source/stream_buffer.c **** privileged Vs unprivileged linkage and placement. */
  50:..\FreeRTOS\Source/stream_buffer.c **** #undef MPU_WRAPPERS_INCLUDED_FROM_API_FILE /*lint !e961 !e750. */
  51:..\FreeRTOS\Source/stream_buffer.c **** 
  52:..\FreeRTOS\Source/stream_buffer.c **** /* If the user has not provided application specific Rx notification macros,
  53:..\FreeRTOS\Source/stream_buffer.c **** or #defined the notification macros away, them provide default implementations
  54:..\FreeRTOS\Source/stream_buffer.c **** that uses task notifications. */
  55:..\FreeRTOS\Source/stream_buffer.c **** /*lint -save -e9026 Function like macros allowed and needed here so they can be overidden. */
  56:..\FreeRTOS\Source/stream_buffer.c **** #ifndef sbRECEIVE_COMPLETED
  57:..\FreeRTOS\Source/stream_buffer.c **** 	#define sbRECEIVE_COMPLETED( pxStreamBuffer )										\
  58:..\FreeRTOS\Source/stream_buffer.c **** 		vTaskSuspendAll();																\
  59:..\FreeRTOS\Source/stream_buffer.c **** 		{																				\
  60:..\FreeRTOS\Source/stream_buffer.c **** 			if( ( pxStreamBuffer )->xTaskWaitingToSend != NULL )						\
  61:..\FreeRTOS\Source/stream_buffer.c **** 			{																			\
  62:..\FreeRTOS\Source/stream_buffer.c **** 				( void ) xTaskNotify( ( pxStreamBuffer )->xTaskWaitingToSend,			\
  63:..\FreeRTOS\Source/stream_buffer.c **** 									  ( uint32_t ) 0,									\
  64:..\FreeRTOS\Source/stream_buffer.c **** 									  eNoAction );										\
  65:..\FreeRTOS\Source/stream_buffer.c **** 				( pxStreamBuffer )->xTaskWaitingToSend = NULL;							\
  66:..\FreeRTOS\Source/stream_buffer.c **** 			}																			\
  67:..\FreeRTOS\Source/stream_buffer.c **** 		}																				\
  68:..\FreeRTOS\Source/stream_buffer.c **** 		( void ) xTaskResumeAll();
  69:..\FreeRTOS\Source/stream_buffer.c **** #endif /* sbRECEIVE_COMPLETED */
  70:..\FreeRTOS\Source/stream_buffer.c **** 
  71:..\FreeRTOS\Source/stream_buffer.c **** #ifndef sbRECEIVE_COMPLETED_FROM_ISR
  72:..\FreeRTOS\Source/stream_buffer.c **** 	#define sbRECEIVE_COMPLETED_FROM_ISR( pxStreamBuffer,								\
  73:..\FreeRTOS\Source/stream_buffer.c **** 										  pxHigherPriorityTaskWoken )					\
  74:..\FreeRTOS\Source/stream_buffer.c **** 	{																					\
  75:..\FreeRTOS\Source/stream_buffer.c **** 	UBaseType_t uxSavedInterruptStatus;													\
  76:..\FreeRTOS\Source/stream_buffer.c **** 																						\
  77:..\FreeRTOS\Source/stream_buffer.c **** 		uxSavedInterruptStatus = ( UBaseType_t ) portSET_INTERRUPT_MASK_FROM_ISR();		\
  78:..\FreeRTOS\Source/stream_buffer.c **** 		{																				\
  79:..\FreeRTOS\Source/stream_buffer.c **** 			if( ( pxStreamBuffer )->xTaskWaitingToSend != NULL )						\
  80:..\FreeRTOS\Source/stream_buffer.c **** 			{																			\
  81:..\FreeRTOS\Source/stream_buffer.c **** 				( void ) xTaskNotifyFromISR( ( pxStreamBuffer )->xTaskWaitingToSend,	\
  82:..\FreeRTOS\Source/stream_buffer.c **** 											 ( uint32_t ) 0,							\
  83:..\FreeRTOS\Source/stream_buffer.c **** 											 eNoAction,									\
  84:..\FreeRTOS\Source/stream_buffer.c **** 											 pxHigherPriorityTaskWoken );				\
  85:..\FreeRTOS\Source/stream_buffer.c **** 				( pxStreamBuffer )->xTaskWaitingToSend = NULL;							\
  86:..\FreeRTOS\Source/stream_buffer.c **** 			}																			\
  87:..\FreeRTOS\Source/stream_buffer.c **** 		}																				\
  88:..\FreeRTOS\Source/stream_buffer.c **** 		portCLEAR_INTERRUPT_MASK_FROM_ISR( uxSavedInterruptStatus );					\
ARM GAS  C:\Users\samue\AppData\Local\Temp\cc6oSIFr.s 			page 3


  89:..\FreeRTOS\Source/stream_buffer.c **** 	}
  90:..\FreeRTOS\Source/stream_buffer.c **** #endif /* sbRECEIVE_COMPLETED_FROM_ISR */
  91:..\FreeRTOS\Source/stream_buffer.c **** 
  92:..\FreeRTOS\Source/stream_buffer.c **** /* If the user has not provided an application specific Tx notification macro,
  93:..\FreeRTOS\Source/stream_buffer.c **** or #defined the notification macro away, them provide a default implementation
  94:..\FreeRTOS\Source/stream_buffer.c **** that uses task notifications. */
  95:..\FreeRTOS\Source/stream_buffer.c **** #ifndef sbSEND_COMPLETED
  96:..\FreeRTOS\Source/stream_buffer.c **** 	#define sbSEND_COMPLETED( pxStreamBuffer )											\
  97:..\FreeRTOS\Source/stream_buffer.c **** 		vTaskSuspendAll();																\
  98:..\FreeRTOS\Source/stream_buffer.c **** 		{																				\
  99:..\FreeRTOS\Source/stream_buffer.c **** 			if( ( pxStreamBuffer )->xTaskWaitingToReceive != NULL )						\
 100:..\FreeRTOS\Source/stream_buffer.c **** 			{																			\
 101:..\FreeRTOS\Source/stream_buffer.c **** 				( void ) xTaskNotify( ( pxStreamBuffer )->xTaskWaitingToReceive,		\
 102:..\FreeRTOS\Source/stream_buffer.c **** 									  ( uint32_t ) 0,									\
 103:..\FreeRTOS\Source/stream_buffer.c **** 									  eNoAction );										\
 104:..\FreeRTOS\Source/stream_buffer.c **** 				( pxStreamBuffer )->xTaskWaitingToReceive = NULL;						\
 105:..\FreeRTOS\Source/stream_buffer.c **** 			}																			\
 106:..\FreeRTOS\Source/stream_buffer.c **** 		}																				\
 107:..\FreeRTOS\Source/stream_buffer.c **** 		( void ) xTaskResumeAll();
 108:..\FreeRTOS\Source/stream_buffer.c **** #endif /* sbSEND_COMPLETED */
 109:..\FreeRTOS\Source/stream_buffer.c **** 
 110:..\FreeRTOS\Source/stream_buffer.c **** #ifndef sbSEND_COMPLETE_FROM_ISR
 111:..\FreeRTOS\Source/stream_buffer.c **** 	#define sbSEND_COMPLETE_FROM_ISR( pxStreamBuffer, pxHigherPriorityTaskWoken )		\
 112:..\FreeRTOS\Source/stream_buffer.c **** 	{																					\
 113:..\FreeRTOS\Source/stream_buffer.c **** 	UBaseType_t uxSavedInterruptStatus;													\
 114:..\FreeRTOS\Source/stream_buffer.c **** 																						\
 115:..\FreeRTOS\Source/stream_buffer.c **** 		uxSavedInterruptStatus = ( UBaseType_t ) portSET_INTERRUPT_MASK_FROM_ISR();		\
 116:..\FreeRTOS\Source/stream_buffer.c **** 		{																				\
 117:..\FreeRTOS\Source/stream_buffer.c **** 			if( ( pxStreamBuffer )->xTaskWaitingToReceive != NULL )						\
 118:..\FreeRTOS\Source/stream_buffer.c **** 			{																			\
 119:..\FreeRTOS\Source/stream_buffer.c **** 				( void ) xTaskNotifyFromISR( ( pxStreamBuffer )->xTaskWaitingToReceive,	\
 120:..\FreeRTOS\Source/stream_buffer.c **** 											 ( uint32_t ) 0,							\
 121:..\FreeRTOS\Source/stream_buffer.c **** 											 eNoAction,									\
 122:..\FreeRTOS\Source/stream_buffer.c **** 											 pxHigherPriorityTaskWoken );				\
 123:..\FreeRTOS\Source/stream_buffer.c **** 				( pxStreamBuffer )->xTaskWaitingToReceive = NULL;						\
 124:..\FreeRTOS\Source/stream_buffer.c **** 			}																			\
 125:..\FreeRTOS\Source/stream_buffer.c **** 		}																				\
 126:..\FreeRTOS\Source/stream_buffer.c **** 		portCLEAR_INTERRUPT_MASK_FROM_ISR( uxSavedInterruptStatus );					\
 127:..\FreeRTOS\Source/stream_buffer.c **** 	}
 128:..\FreeRTOS\Source/stream_buffer.c **** #endif /* sbSEND_COMPLETE_FROM_ISR */
 129:..\FreeRTOS\Source/stream_buffer.c **** /*lint -restore (9026) */
 130:..\FreeRTOS\Source/stream_buffer.c **** 
 131:..\FreeRTOS\Source/stream_buffer.c **** /* The number of bytes used to hold the length of a message in the buffer. */
 132:..\FreeRTOS\Source/stream_buffer.c **** #define sbBYTES_TO_STORE_MESSAGE_LENGTH ( sizeof( size_t ) )
 133:..\FreeRTOS\Source/stream_buffer.c **** 
 134:..\FreeRTOS\Source/stream_buffer.c **** /* Bits stored in the ucFlags field of the stream buffer. */
 135:..\FreeRTOS\Source/stream_buffer.c **** #define sbFLAGS_IS_MESSAGE_BUFFER		( ( uint8_t ) 1 ) /* Set if the stream buffer was created as a m
 136:..\FreeRTOS\Source/stream_buffer.c **** #define sbFLAGS_IS_STATICALLY_ALLOCATED ( ( uint8_t ) 2 ) /* Set if the stream buffer was created u
 137:..\FreeRTOS\Source/stream_buffer.c **** 
 138:..\FreeRTOS\Source/stream_buffer.c **** /*-----------------------------------------------------------*/
 139:..\FreeRTOS\Source/stream_buffer.c **** 
 140:..\FreeRTOS\Source/stream_buffer.c **** /* Structure that hold state information on the buffer. */
 141:..\FreeRTOS\Source/stream_buffer.c **** typedef struct xSTREAM_BUFFER /*lint !e9058 Style convention uses tag. */
 142:..\FreeRTOS\Source/stream_buffer.c **** {
 143:..\FreeRTOS\Source/stream_buffer.c **** 	volatile size_t xTail;				/* Index to the next item to read within the buffer. */
 144:..\FreeRTOS\Source/stream_buffer.c **** 	volatile size_t xHead;				/* Index to the next item to write within the buffer. */
 145:..\FreeRTOS\Source/stream_buffer.c **** 	size_t xLength;						/* The length of the buffer pointed to by pucBuffer. */
ARM GAS  C:\Users\samue\AppData\Local\Temp\cc6oSIFr.s 			page 4


 146:..\FreeRTOS\Source/stream_buffer.c **** 	size_t xTriggerLevelBytes;			/* The number of bytes that must be in the stream buffer before a tas
 147:..\FreeRTOS\Source/stream_buffer.c **** 	volatile TaskHandle_t xTaskWaitingToReceive; /* Holds the handle of a task waiting for data, or NU
 148:..\FreeRTOS\Source/stream_buffer.c **** 	volatile TaskHandle_t xTaskWaitingToSend;	/* Holds the handle of a task waiting to send data to a 
 149:..\FreeRTOS\Source/stream_buffer.c **** 	uint8_t *pucBuffer;					/* Points to the buffer itself - that is - the RAM that stores the data pa
 150:..\FreeRTOS\Source/stream_buffer.c **** 	uint8_t ucFlags;
 151:..\FreeRTOS\Source/stream_buffer.c **** 
 152:..\FreeRTOS\Source/stream_buffer.c **** 	#if ( configUSE_TRACE_FACILITY == 1 )
 153:..\FreeRTOS\Source/stream_buffer.c **** 		UBaseType_t uxStreamBufferNumber;		/* Used for tracing purposes. */
 154:..\FreeRTOS\Source/stream_buffer.c **** 	#endif
 155:..\FreeRTOS\Source/stream_buffer.c **** } StreamBuffer_t;
 156:..\FreeRTOS\Source/stream_buffer.c **** 
 157:..\FreeRTOS\Source/stream_buffer.c **** /*
 158:..\FreeRTOS\Source/stream_buffer.c ****  * The number of bytes available to be read from the buffer.
 159:..\FreeRTOS\Source/stream_buffer.c ****  */
 160:..\FreeRTOS\Source/stream_buffer.c **** static size_t prvBytesInBuffer( const StreamBuffer_t * const pxStreamBuffer ) PRIVILEGED_FUNCTION;
 161:..\FreeRTOS\Source/stream_buffer.c **** 
 162:..\FreeRTOS\Source/stream_buffer.c **** /*
 163:..\FreeRTOS\Source/stream_buffer.c ****  * Add xCount bytes from pucData into the pxStreamBuffer message buffer.
 164:..\FreeRTOS\Source/stream_buffer.c ****  * Returns the number of bytes written, which will either equal xCount in the
 165:..\FreeRTOS\Source/stream_buffer.c ****  * success case, or 0 if there was not enough space in the buffer (in which case
 166:..\FreeRTOS\Source/stream_buffer.c ****  * no data is written into the buffer).
 167:..\FreeRTOS\Source/stream_buffer.c ****  */
 168:..\FreeRTOS\Source/stream_buffer.c **** static size_t prvWriteBytesToBuffer( StreamBuffer_t * const pxStreamBuffer, const uint8_t *pucData,
 169:..\FreeRTOS\Source/stream_buffer.c **** 
 170:..\FreeRTOS\Source/stream_buffer.c **** /*
 171:..\FreeRTOS\Source/stream_buffer.c ****  * If the stream buffer is being used as a message buffer, then reads an entire
 172:..\FreeRTOS\Source/stream_buffer.c ****  * message out of the buffer.  If the stream buffer is being used as a stream
 173:..\FreeRTOS\Source/stream_buffer.c ****  * buffer then read as many bytes as possible from the buffer.
 174:..\FreeRTOS\Source/stream_buffer.c ****  * prvReadBytesFromBuffer() is called to actually extract the bytes from the
 175:..\FreeRTOS\Source/stream_buffer.c ****  * buffer's data storage area.
 176:..\FreeRTOS\Source/stream_buffer.c ****  */
 177:..\FreeRTOS\Source/stream_buffer.c **** static size_t prvReadMessageFromBuffer( StreamBuffer_t *pxStreamBuffer,
 178:..\FreeRTOS\Source/stream_buffer.c **** 										void *pvRxData,
 179:..\FreeRTOS\Source/stream_buffer.c **** 										size_t xBufferLengthBytes,
 180:..\FreeRTOS\Source/stream_buffer.c **** 										size_t xBytesAvailable,
 181:..\FreeRTOS\Source/stream_buffer.c **** 										size_t xBytesToStoreMessageLength ) PRIVILEGED_FUNCTION;
 182:..\FreeRTOS\Source/stream_buffer.c **** 
 183:..\FreeRTOS\Source/stream_buffer.c **** /*
 184:..\FreeRTOS\Source/stream_buffer.c ****  * If the stream buffer is being used as a message buffer, then writes an entire
 185:..\FreeRTOS\Source/stream_buffer.c ****  * message to the buffer.  If the stream buffer is being used as a stream
 186:..\FreeRTOS\Source/stream_buffer.c ****  * buffer then write as many bytes as possible to the buffer.
 187:..\FreeRTOS\Source/stream_buffer.c ****  * prvWriteBytestoBuffer() is called to actually send the bytes to the buffer's
 188:..\FreeRTOS\Source/stream_buffer.c ****  * data storage area.
 189:..\FreeRTOS\Source/stream_buffer.c ****  */
 190:..\FreeRTOS\Source/stream_buffer.c **** static size_t prvWriteMessageToBuffer(  StreamBuffer_t * const pxStreamBuffer,
 191:..\FreeRTOS\Source/stream_buffer.c **** 										const void * pvTxData,
 192:..\FreeRTOS\Source/stream_buffer.c **** 										size_t xDataLengthBytes,
 193:..\FreeRTOS\Source/stream_buffer.c **** 										size_t xSpace,
 194:..\FreeRTOS\Source/stream_buffer.c **** 										size_t xRequiredSpace ) PRIVILEGED_FUNCTION;
 195:..\FreeRTOS\Source/stream_buffer.c **** 
 196:..\FreeRTOS\Source/stream_buffer.c **** /*
 197:..\FreeRTOS\Source/stream_buffer.c ****  * Read xMaxCount bytes from the pxStreamBuffer message buffer and write them
 198:..\FreeRTOS\Source/stream_buffer.c ****  * to pucData.
 199:..\FreeRTOS\Source/stream_buffer.c ****  */
 200:..\FreeRTOS\Source/stream_buffer.c **** static size_t prvReadBytesFromBuffer( StreamBuffer_t *pxStreamBuffer,
 201:..\FreeRTOS\Source/stream_buffer.c **** 									  uint8_t *pucData,
 202:..\FreeRTOS\Source/stream_buffer.c **** 									  size_t xMaxCount,
ARM GAS  C:\Users\samue\AppData\Local\Temp\cc6oSIFr.s 			page 5


 203:..\FreeRTOS\Source/stream_buffer.c **** 									  size_t xBytesAvailable ); PRIVILEGED_FUNCTION
 204:..\FreeRTOS\Source/stream_buffer.c **** 
 205:..\FreeRTOS\Source/stream_buffer.c **** /*
 206:..\FreeRTOS\Source/stream_buffer.c ****  * Called by both pxStreamBufferCreate() and pxStreamBufferCreateStatic() to
 207:..\FreeRTOS\Source/stream_buffer.c ****  * initialise the members of the newly created stream buffer structure.
 208:..\FreeRTOS\Source/stream_buffer.c ****  */
 209:..\FreeRTOS\Source/stream_buffer.c **** static void prvInitialiseNewStreamBuffer( StreamBuffer_t * const pxStreamBuffer,
 210:..\FreeRTOS\Source/stream_buffer.c **** 										  uint8_t * const pucBuffer,
 211:..\FreeRTOS\Source/stream_buffer.c **** 										  size_t xBufferSizeBytes,
 212:..\FreeRTOS\Source/stream_buffer.c **** 										  size_t xTriggerLevelBytes,
 213:..\FreeRTOS\Source/stream_buffer.c **** 										  BaseType_t xIsMessageBuffer ) PRIVILEGED_FUNCTION;
 214:..\FreeRTOS\Source/stream_buffer.c **** 
 215:..\FreeRTOS\Source/stream_buffer.c **** /*-----------------------------------------------------------*/
 216:..\FreeRTOS\Source/stream_buffer.c **** 
 217:..\FreeRTOS\Source/stream_buffer.c **** #if( configSUPPORT_DYNAMIC_ALLOCATION == 1 )
 218:..\FreeRTOS\Source/stream_buffer.c **** 
 219:..\FreeRTOS\Source/stream_buffer.c **** 	StreamBufferHandle_t xStreamBufferGenericCreate( size_t xBufferSizeBytes, size_t xTriggerLevelByte
 220:..\FreeRTOS\Source/stream_buffer.c **** 	{
 221:..\FreeRTOS\Source/stream_buffer.c **** 	uint8_t *pucAllocatedMemory;
 222:..\FreeRTOS\Source/stream_buffer.c **** 
 223:..\FreeRTOS\Source/stream_buffer.c **** 		/* In case the stream buffer is going to be used as a message buffer
 224:..\FreeRTOS\Source/stream_buffer.c **** 		(that is, it will hold discrete messages with a little meta data that
 225:..\FreeRTOS\Source/stream_buffer.c **** 		says how big the next message is) check the buffer will be large enough
 226:..\FreeRTOS\Source/stream_buffer.c **** 		to hold at least one message. */
 227:..\FreeRTOS\Source/stream_buffer.c **** 		configASSERT( xBufferSizeBytes > sbBYTES_TO_STORE_MESSAGE_LENGTH );
 228:..\FreeRTOS\Source/stream_buffer.c **** 		configASSERT( xTriggerLevelBytes <= xBufferSizeBytes );
 229:..\FreeRTOS\Source/stream_buffer.c **** 
 230:..\FreeRTOS\Source/stream_buffer.c **** 		/* A trigger level of 0 would cause a waiting task to unblock even when
 231:..\FreeRTOS\Source/stream_buffer.c **** 		the buffer was empty. */
 232:..\FreeRTOS\Source/stream_buffer.c **** 		if( xTriggerLevelBytes == ( size_t ) 0 )
 233:..\FreeRTOS\Source/stream_buffer.c **** 		{
 234:..\FreeRTOS\Source/stream_buffer.c **** 			xTriggerLevelBytes = ( size_t ) 1; /*lint !e9044 Parameter modified to ensure it doesn't have a 
 235:..\FreeRTOS\Source/stream_buffer.c **** 		}
 236:..\FreeRTOS\Source/stream_buffer.c **** 
 237:..\FreeRTOS\Source/stream_buffer.c **** 		/* A stream buffer requires a StreamBuffer_t structure and a buffer.
 238:..\FreeRTOS\Source/stream_buffer.c **** 		Both are allocated in a single call to pvPortMalloc().  The
 239:..\FreeRTOS\Source/stream_buffer.c **** 		StreamBuffer_t structure is placed at the start of the allocated memory
 240:..\FreeRTOS\Source/stream_buffer.c **** 		and the buffer follows immediately after.  The requested size is
 241:..\FreeRTOS\Source/stream_buffer.c **** 		incremented so the free space is returned as the user would expect -
 242:..\FreeRTOS\Source/stream_buffer.c **** 		this is a quirk of the implementation that means otherwise the free
 243:..\FreeRTOS\Source/stream_buffer.c **** 		space would be reported as one byte smaller than would be logically
 244:..\FreeRTOS\Source/stream_buffer.c **** 		expected. */
 245:..\FreeRTOS\Source/stream_buffer.c **** 		xBufferSizeBytes++;
 246:..\FreeRTOS\Source/stream_buffer.c **** 		pucAllocatedMemory = ( uint8_t * ) pvPortMalloc( xBufferSizeBytes + sizeof( StreamBuffer_t ) ); /
 247:..\FreeRTOS\Source/stream_buffer.c **** 
 248:..\FreeRTOS\Source/stream_buffer.c **** 		if( pucAllocatedMemory != NULL )
 249:..\FreeRTOS\Source/stream_buffer.c **** 		{
 250:..\FreeRTOS\Source/stream_buffer.c **** 			prvInitialiseNewStreamBuffer( ( StreamBuffer_t * ) pucAllocatedMemory, /* Structure at the start
 251:..\FreeRTOS\Source/stream_buffer.c **** 										   pucAllocatedMemory + sizeof( StreamBuffer_t ),  /* Storage area follows. */ /*lint !e9
 252:..\FreeRTOS\Source/stream_buffer.c **** 										   xBufferSizeBytes,
 253:..\FreeRTOS\Source/stream_buffer.c **** 										   xTriggerLevelBytes,
 254:..\FreeRTOS\Source/stream_buffer.c **** 										   xIsMessageBuffer );
 255:..\FreeRTOS\Source/stream_buffer.c **** 
 256:..\FreeRTOS\Source/stream_buffer.c **** 			traceSTREAM_BUFFER_CREATE( ( ( StreamBuffer_t * ) pucAllocatedMemory ), xIsMessageBuffer );
 257:..\FreeRTOS\Source/stream_buffer.c **** 		}
 258:..\FreeRTOS\Source/stream_buffer.c **** 		else
 259:..\FreeRTOS\Source/stream_buffer.c **** 		{
ARM GAS  C:\Users\samue\AppData\Local\Temp\cc6oSIFr.s 			page 6


 260:..\FreeRTOS\Source/stream_buffer.c **** 			traceSTREAM_BUFFER_CREATE_FAILED( xIsMessageBuffer );
 261:..\FreeRTOS\Source/stream_buffer.c **** 		}
 262:..\FreeRTOS\Source/stream_buffer.c **** 
 263:..\FreeRTOS\Source/stream_buffer.c **** 		return ( StreamBufferHandle_t * ) pucAllocatedMemory; /*lint !e9087 !e826 Safe cast as allocated 
 264:..\FreeRTOS\Source/stream_buffer.c **** 	}
 265:..\FreeRTOS\Source/stream_buffer.c **** 
 266:..\FreeRTOS\Source/stream_buffer.c **** #endif /* configSUPPORT_DYNAMIC_ALLOCATION */
 267:..\FreeRTOS\Source/stream_buffer.c **** /*-----------------------------------------------------------*/
 268:..\FreeRTOS\Source/stream_buffer.c **** 
 269:..\FreeRTOS\Source/stream_buffer.c **** #if( configSUPPORT_STATIC_ALLOCATION == 1 )
 270:..\FreeRTOS\Source/stream_buffer.c **** 
 271:..\FreeRTOS\Source/stream_buffer.c **** 	StreamBufferHandle_t xStreamBufferGenericCreateStatic( size_t xBufferSizeBytes,
 272:..\FreeRTOS\Source/stream_buffer.c **** 														   size_t xTriggerLevelBytes,
 273:..\FreeRTOS\Source/stream_buffer.c **** 														   BaseType_t xIsMessageBuffer,
 274:..\FreeRTOS\Source/stream_buffer.c **** 														   uint8_t * const pucStreamBufferStorageArea,
 275:..\FreeRTOS\Source/stream_buffer.c **** 														   StaticStreamBuffer_t * const pxStaticStreamBuffer )
 276:..\FreeRTOS\Source/stream_buffer.c **** 	{
 277:..\FreeRTOS\Source/stream_buffer.c **** 	StreamBuffer_t * const pxStreamBuffer = ( StreamBuffer_t * ) pxStaticStreamBuffer; /*lint !e740 !e
 278:..\FreeRTOS\Source/stream_buffer.c **** 	StreamBufferHandle_t xReturn;
 279:..\FreeRTOS\Source/stream_buffer.c **** 
 280:..\FreeRTOS\Source/stream_buffer.c **** 		configASSERT( pucStreamBufferStorageArea );
 281:..\FreeRTOS\Source/stream_buffer.c **** 		configASSERT( pxStaticStreamBuffer );
 282:..\FreeRTOS\Source/stream_buffer.c **** 		configASSERT( xTriggerLevelBytes <= xBufferSizeBytes );
 283:..\FreeRTOS\Source/stream_buffer.c **** 
 284:..\FreeRTOS\Source/stream_buffer.c **** 		/* A trigger level of 0 would cause a waiting task to unblock even when
 285:..\FreeRTOS\Source/stream_buffer.c **** 		the buffer was empty. */
 286:..\FreeRTOS\Source/stream_buffer.c **** 		if( xTriggerLevelBytes == ( size_t ) 0 )
 287:..\FreeRTOS\Source/stream_buffer.c **** 		{
 288:..\FreeRTOS\Source/stream_buffer.c **** 			xTriggerLevelBytes = ( size_t ) 1; /*lint !e9044 Function parameter deliberately modified to ens
 289:..\FreeRTOS\Source/stream_buffer.c **** 		}
 290:..\FreeRTOS\Source/stream_buffer.c **** 
 291:..\FreeRTOS\Source/stream_buffer.c **** 		/* In case the stream buffer is going to be used as a message buffer
 292:..\FreeRTOS\Source/stream_buffer.c **** 		(that is, it will hold discrete messages with a little meta data that
 293:..\FreeRTOS\Source/stream_buffer.c **** 		says how big the next message is) check the buffer will be large enough
 294:..\FreeRTOS\Source/stream_buffer.c **** 		to hold at least one message. */
 295:..\FreeRTOS\Source/stream_buffer.c **** 		configASSERT( xBufferSizeBytes > sbBYTES_TO_STORE_MESSAGE_LENGTH );
 296:..\FreeRTOS\Source/stream_buffer.c **** 
 297:..\FreeRTOS\Source/stream_buffer.c **** 		#if( configASSERT_DEFINED == 1 )
 298:..\FreeRTOS\Source/stream_buffer.c **** 		{
 299:..\FreeRTOS\Source/stream_buffer.c **** 			/* Sanity check that the size of the structure used to declare a
 300:..\FreeRTOS\Source/stream_buffer.c **** 			variable of type StaticStreamBuffer_t equals the size of the real
 301:..\FreeRTOS\Source/stream_buffer.c **** 			message buffer structure. */
 302:..\FreeRTOS\Source/stream_buffer.c **** 			volatile size_t xSize = sizeof( StaticStreamBuffer_t );
 303:..\FreeRTOS\Source/stream_buffer.c **** 			configASSERT( xSize == sizeof( StreamBuffer_t ) );
 304:..\FreeRTOS\Source/stream_buffer.c **** 		}
 305:..\FreeRTOS\Source/stream_buffer.c **** 		#endif /* configASSERT_DEFINED */
 306:..\FreeRTOS\Source/stream_buffer.c **** 
 307:..\FreeRTOS\Source/stream_buffer.c **** 		if( ( pucStreamBufferStorageArea != NULL ) && ( pxStaticStreamBuffer != NULL ) )
 308:..\FreeRTOS\Source/stream_buffer.c **** 		{
 309:..\FreeRTOS\Source/stream_buffer.c **** 			prvInitialiseNewStreamBuffer( pxStreamBuffer,
 310:..\FreeRTOS\Source/stream_buffer.c **** 										  pucStreamBufferStorageArea,
 311:..\FreeRTOS\Source/stream_buffer.c **** 										  xBufferSizeBytes,
 312:..\FreeRTOS\Source/stream_buffer.c **** 										  xTriggerLevelBytes,
 313:..\FreeRTOS\Source/stream_buffer.c **** 										  xIsMessageBuffer );
 314:..\FreeRTOS\Source/stream_buffer.c **** 
 315:..\FreeRTOS\Source/stream_buffer.c **** 			/* Remember this was statically allocated in case it is ever deleted
 316:..\FreeRTOS\Source/stream_buffer.c **** 			again. */
ARM GAS  C:\Users\samue\AppData\Local\Temp\cc6oSIFr.s 			page 7


 317:..\FreeRTOS\Source/stream_buffer.c **** 			pxStreamBuffer->ucFlags |= sbFLAGS_IS_STATICALLY_ALLOCATED;
 318:..\FreeRTOS\Source/stream_buffer.c **** 
 319:..\FreeRTOS\Source/stream_buffer.c **** 			traceSTREAM_BUFFER_CREATE( pxStreamBuffer, xIsMessageBuffer );
 320:..\FreeRTOS\Source/stream_buffer.c **** 
 321:..\FreeRTOS\Source/stream_buffer.c **** 			xReturn = ( StreamBufferHandle_t ) pxStaticStreamBuffer; /*lint !e9087 Data hiding requires cast
 322:..\FreeRTOS\Source/stream_buffer.c **** 		}
 323:..\FreeRTOS\Source/stream_buffer.c **** 		else
 324:..\FreeRTOS\Source/stream_buffer.c **** 		{
 325:..\FreeRTOS\Source/stream_buffer.c **** 			xReturn = NULL;
 326:..\FreeRTOS\Source/stream_buffer.c **** 			traceSTREAM_BUFFER_CREATE_STATIC_FAILED( xReturn, xIsMessageBuffer );
 327:..\FreeRTOS\Source/stream_buffer.c **** 		}
 328:..\FreeRTOS\Source/stream_buffer.c **** 
 329:..\FreeRTOS\Source/stream_buffer.c **** 		return xReturn;
 330:..\FreeRTOS\Source/stream_buffer.c **** 	}
 331:..\FreeRTOS\Source/stream_buffer.c **** 
 332:..\FreeRTOS\Source/stream_buffer.c **** #endif /* ( configSUPPORT_STATIC_ALLOCATION == 1 ) */
 333:..\FreeRTOS\Source/stream_buffer.c **** /*-----------------------------------------------------------*/
 334:..\FreeRTOS\Source/stream_buffer.c **** 
 335:..\FreeRTOS\Source/stream_buffer.c **** void vStreamBufferDelete( StreamBufferHandle_t xStreamBuffer )
 336:..\FreeRTOS\Source/stream_buffer.c **** {
 337:..\FreeRTOS\Source/stream_buffer.c **** StreamBuffer_t * pxStreamBuffer = ( StreamBuffer_t * ) xStreamBuffer; /*lint !e9087 !e9079 Safe cas
 338:..\FreeRTOS\Source/stream_buffer.c **** 
 339:..\FreeRTOS\Source/stream_buffer.c **** 	configASSERT( pxStreamBuffer );
 340:..\FreeRTOS\Source/stream_buffer.c **** 
 341:..\FreeRTOS\Source/stream_buffer.c **** 	traceSTREAM_BUFFER_DELETE( xStreamBuffer );
 342:..\FreeRTOS\Source/stream_buffer.c **** 
 343:..\FreeRTOS\Source/stream_buffer.c **** 	if( ( pxStreamBuffer->ucFlags & sbFLAGS_IS_STATICALLY_ALLOCATED ) == ( uint8_t ) pdFALSE )
 344:..\FreeRTOS\Source/stream_buffer.c **** 	{
 345:..\FreeRTOS\Source/stream_buffer.c **** 		#if( configSUPPORT_DYNAMIC_ALLOCATION == 1 )
 346:..\FreeRTOS\Source/stream_buffer.c **** 		{
 347:..\FreeRTOS\Source/stream_buffer.c **** 			/* Both the structure and the buffer were allocated using a single call
 348:..\FreeRTOS\Source/stream_buffer.c **** 			to pvPortMalloc(), hence only one call to vPortFree() is required. */
 349:..\FreeRTOS\Source/stream_buffer.c **** 			vPortFree( ( void * ) pxStreamBuffer ); /*lint !e9087 Standard free() semantics require void *, 
 350:..\FreeRTOS\Source/stream_buffer.c **** 		}
 351:..\FreeRTOS\Source/stream_buffer.c **** 		#else
 352:..\FreeRTOS\Source/stream_buffer.c **** 		{
 353:..\FreeRTOS\Source/stream_buffer.c **** 			/* Should not be possible to get here, ucFlags must be corrupt.
 354:..\FreeRTOS\Source/stream_buffer.c **** 			Force an assert. */
 355:..\FreeRTOS\Source/stream_buffer.c **** 			configASSERT( xStreamBuffer == ( StreamBufferHandle_t ) ~0 );
 356:..\FreeRTOS\Source/stream_buffer.c **** 		}
 357:..\FreeRTOS\Source/stream_buffer.c **** 		#endif
 358:..\FreeRTOS\Source/stream_buffer.c **** 	}
 359:..\FreeRTOS\Source/stream_buffer.c **** 	else
 360:..\FreeRTOS\Source/stream_buffer.c **** 	{
 361:..\FreeRTOS\Source/stream_buffer.c **** 		/* The structure and buffer were not allocated dynamically and cannot be
 362:..\FreeRTOS\Source/stream_buffer.c **** 		freed - just scrub the structure so future use will assert. */
 363:..\FreeRTOS\Source/stream_buffer.c **** 		memset( pxStreamBuffer, 0x00, sizeof( StreamBuffer_t ) );
 364:..\FreeRTOS\Source/stream_buffer.c **** 	}
 365:..\FreeRTOS\Source/stream_buffer.c **** }
 366:..\FreeRTOS\Source/stream_buffer.c **** /*-----------------------------------------------------------*/
 367:..\FreeRTOS\Source/stream_buffer.c **** 
 368:..\FreeRTOS\Source/stream_buffer.c **** BaseType_t xStreamBufferReset( StreamBufferHandle_t xStreamBuffer )
 369:..\FreeRTOS\Source/stream_buffer.c **** {
 370:..\FreeRTOS\Source/stream_buffer.c **** StreamBuffer_t * const pxStreamBuffer = ( StreamBuffer_t * ) xStreamBuffer; /*lint !e9087 !e9079 Sa
 371:..\FreeRTOS\Source/stream_buffer.c **** BaseType_t xReturn = pdFAIL, xIsMessageBuffer;
 372:..\FreeRTOS\Source/stream_buffer.c **** 
 373:..\FreeRTOS\Source/stream_buffer.c **** #if( configUSE_TRACE_FACILITY == 1 )
ARM GAS  C:\Users\samue\AppData\Local\Temp\cc6oSIFr.s 			page 8


 374:..\FreeRTOS\Source/stream_buffer.c **** 	UBaseType_t uxStreamBufferNumber;
 375:..\FreeRTOS\Source/stream_buffer.c **** #endif
 376:..\FreeRTOS\Source/stream_buffer.c **** 
 377:..\FreeRTOS\Source/stream_buffer.c **** 	configASSERT( pxStreamBuffer );
 378:..\FreeRTOS\Source/stream_buffer.c **** 
 379:..\FreeRTOS\Source/stream_buffer.c **** 	#if( configUSE_TRACE_FACILITY == 1 )
 380:..\FreeRTOS\Source/stream_buffer.c **** 	{
 381:..\FreeRTOS\Source/stream_buffer.c **** 		/* Store the stream buffer number so it can be restored after the
 382:..\FreeRTOS\Source/stream_buffer.c **** 		reset. */
 383:..\FreeRTOS\Source/stream_buffer.c **** 		uxStreamBufferNumber = pxStreamBuffer->uxStreamBufferNumber;
 384:..\FreeRTOS\Source/stream_buffer.c **** 	}
 385:..\FreeRTOS\Source/stream_buffer.c **** 	#endif
 386:..\FreeRTOS\Source/stream_buffer.c **** 
 387:..\FreeRTOS\Source/stream_buffer.c **** 	/* Can only reset a message buffer if there are no tasks blocked on it. */
 388:..\FreeRTOS\Source/stream_buffer.c **** 	if( pxStreamBuffer->xTaskWaitingToReceive == NULL )
 389:..\FreeRTOS\Source/stream_buffer.c **** 	{
 390:..\FreeRTOS\Source/stream_buffer.c **** 		if( pxStreamBuffer->xTaskWaitingToSend == NULL )
 391:..\FreeRTOS\Source/stream_buffer.c **** 		{
 392:..\FreeRTOS\Source/stream_buffer.c **** 			if( ( pxStreamBuffer->ucFlags & sbFLAGS_IS_MESSAGE_BUFFER ) != ( uint8_t ) 0 )
 393:..\FreeRTOS\Source/stream_buffer.c **** 			{
 394:..\FreeRTOS\Source/stream_buffer.c **** 				xIsMessageBuffer = pdTRUE;
 395:..\FreeRTOS\Source/stream_buffer.c **** 			}
 396:..\FreeRTOS\Source/stream_buffer.c **** 			else
 397:..\FreeRTOS\Source/stream_buffer.c **** 			{
 398:..\FreeRTOS\Source/stream_buffer.c **** 				xIsMessageBuffer = pdFALSE;
 399:..\FreeRTOS\Source/stream_buffer.c **** 			}
 400:..\FreeRTOS\Source/stream_buffer.c **** 
 401:..\FreeRTOS\Source/stream_buffer.c **** 			prvInitialiseNewStreamBuffer( pxStreamBuffer,
 402:..\FreeRTOS\Source/stream_buffer.c **** 										  pxStreamBuffer->pucBuffer,
 403:..\FreeRTOS\Source/stream_buffer.c **** 										  pxStreamBuffer->xLength,
 404:..\FreeRTOS\Source/stream_buffer.c **** 										  pxStreamBuffer->xTriggerLevelBytes,
 405:..\FreeRTOS\Source/stream_buffer.c **** 										  xIsMessageBuffer );
 406:..\FreeRTOS\Source/stream_buffer.c **** 			xReturn = pdPASS;
 407:..\FreeRTOS\Source/stream_buffer.c **** 
 408:..\FreeRTOS\Source/stream_buffer.c **** 			#if( configUSE_TRACE_FACILITY == 1 )
 409:..\FreeRTOS\Source/stream_buffer.c **** 			{
 410:..\FreeRTOS\Source/stream_buffer.c **** 				pxStreamBuffer->uxStreamBufferNumber = uxStreamBufferNumber;
 411:..\FreeRTOS\Source/stream_buffer.c **** 			}
 412:..\FreeRTOS\Source/stream_buffer.c **** 			#endif
 413:..\FreeRTOS\Source/stream_buffer.c **** 
 414:..\FreeRTOS\Source/stream_buffer.c **** 			traceSTREAM_BUFFER_RESET( xStreamBuffer );
 415:..\FreeRTOS\Source/stream_buffer.c **** 		}
 416:..\FreeRTOS\Source/stream_buffer.c **** 	}
 417:..\FreeRTOS\Source/stream_buffer.c **** 
 418:..\FreeRTOS\Source/stream_buffer.c **** 	return xReturn;
 419:..\FreeRTOS\Source/stream_buffer.c **** }
 420:..\FreeRTOS\Source/stream_buffer.c **** /*-----------------------------------------------------------*/
 421:..\FreeRTOS\Source/stream_buffer.c **** 
 422:..\FreeRTOS\Source/stream_buffer.c **** BaseType_t xStreamBufferSetTriggerLevel( StreamBufferHandle_t xStreamBuffer, size_t xTriggerLevel )
 423:..\FreeRTOS\Source/stream_buffer.c **** {
 424:..\FreeRTOS\Source/stream_buffer.c **** StreamBuffer_t * const pxStreamBuffer = ( StreamBuffer_t * ) xStreamBuffer; /*lint !e9087 !e9079 Sa
 425:..\FreeRTOS\Source/stream_buffer.c **** BaseType_t xReturn;
 426:..\FreeRTOS\Source/stream_buffer.c **** 
 427:..\FreeRTOS\Source/stream_buffer.c **** 	configASSERT( pxStreamBuffer );
 428:..\FreeRTOS\Source/stream_buffer.c **** 
 429:..\FreeRTOS\Source/stream_buffer.c **** 	/* It is not valid for the trigger level to be 0. */
 430:..\FreeRTOS\Source/stream_buffer.c **** 	if( xTriggerLevel == ( size_t ) 0 )
ARM GAS  C:\Users\samue\AppData\Local\Temp\cc6oSIFr.s 			page 9


 431:..\FreeRTOS\Source/stream_buffer.c **** 	{
 432:..\FreeRTOS\Source/stream_buffer.c **** 		xTriggerLevel = ( size_t ) 1; /*lint !e9044 Parameter modified to ensure it doesn't have a danger
 433:..\FreeRTOS\Source/stream_buffer.c **** 	}
 434:..\FreeRTOS\Source/stream_buffer.c **** 
 435:..\FreeRTOS\Source/stream_buffer.c **** 	/* The trigger level is the number of bytes that must be in the stream
 436:..\FreeRTOS\Source/stream_buffer.c **** 	buffer before a task that is waiting for data is unblocked. */
 437:..\FreeRTOS\Source/stream_buffer.c **** 	if( xTriggerLevel <= pxStreamBuffer->xLength )
 438:..\FreeRTOS\Source/stream_buffer.c **** 	{
 439:..\FreeRTOS\Source/stream_buffer.c **** 		pxStreamBuffer->xTriggerLevelBytes = xTriggerLevel;
 440:..\FreeRTOS\Source/stream_buffer.c **** 		xReturn = pdPASS;
 441:..\FreeRTOS\Source/stream_buffer.c **** 	}
 442:..\FreeRTOS\Source/stream_buffer.c **** 	else
 443:..\FreeRTOS\Source/stream_buffer.c **** 	{
 444:..\FreeRTOS\Source/stream_buffer.c **** 		xReturn = pdFALSE;
 445:..\FreeRTOS\Source/stream_buffer.c **** 	}
 446:..\FreeRTOS\Source/stream_buffer.c **** 
 447:..\FreeRTOS\Source/stream_buffer.c **** 	return xReturn;
 448:..\FreeRTOS\Source/stream_buffer.c **** }
 449:..\FreeRTOS\Source/stream_buffer.c **** /*-----------------------------------------------------------*/
 450:..\FreeRTOS\Source/stream_buffer.c **** 
 451:..\FreeRTOS\Source/stream_buffer.c **** size_t xStreamBufferSpacesAvailable( StreamBufferHandle_t xStreamBuffer )
 452:..\FreeRTOS\Source/stream_buffer.c **** {
 453:..\FreeRTOS\Source/stream_buffer.c **** const StreamBuffer_t * const pxStreamBuffer = ( StreamBuffer_t * ) xStreamBuffer; /*lint !e9087 !e9
 454:..\FreeRTOS\Source/stream_buffer.c **** size_t xSpace;
 455:..\FreeRTOS\Source/stream_buffer.c **** 
 456:..\FreeRTOS\Source/stream_buffer.c **** 	configASSERT( pxStreamBuffer );
 457:..\FreeRTOS\Source/stream_buffer.c **** 
 458:..\FreeRTOS\Source/stream_buffer.c **** 	xSpace = pxStreamBuffer->xLength + pxStreamBuffer->xTail;
 459:..\FreeRTOS\Source/stream_buffer.c **** 	xSpace -= pxStreamBuffer->xHead;
 460:..\FreeRTOS\Source/stream_buffer.c **** 	xSpace -= ( size_t ) 1;
 461:..\FreeRTOS\Source/stream_buffer.c **** 
 462:..\FreeRTOS\Source/stream_buffer.c **** 	if( xSpace >= pxStreamBuffer->xLength )
 463:..\FreeRTOS\Source/stream_buffer.c **** 	{
 464:..\FreeRTOS\Source/stream_buffer.c **** 		xSpace -= pxStreamBuffer->xLength;
 465:..\FreeRTOS\Source/stream_buffer.c **** 	}
 466:..\FreeRTOS\Source/stream_buffer.c **** 	else
 467:..\FreeRTOS\Source/stream_buffer.c **** 	{
 468:..\FreeRTOS\Source/stream_buffer.c **** 		mtCOVERAGE_TEST_MARKER();
 469:..\FreeRTOS\Source/stream_buffer.c **** 	}
 470:..\FreeRTOS\Source/stream_buffer.c **** 
 471:..\FreeRTOS\Source/stream_buffer.c **** 	return xSpace;
 472:..\FreeRTOS\Source/stream_buffer.c **** }
 473:..\FreeRTOS\Source/stream_buffer.c **** /*-----------------------------------------------------------*/
 474:..\FreeRTOS\Source/stream_buffer.c **** 
 475:..\FreeRTOS\Source/stream_buffer.c **** size_t xStreamBufferBytesAvailable( StreamBufferHandle_t xStreamBuffer )
 476:..\FreeRTOS\Source/stream_buffer.c **** {
 477:..\FreeRTOS\Source/stream_buffer.c **** const StreamBuffer_t * const pxStreamBuffer = ( StreamBuffer_t * ) xStreamBuffer; /*lint !e9087 !e9
 478:..\FreeRTOS\Source/stream_buffer.c **** size_t xReturn;
 479:..\FreeRTOS\Source/stream_buffer.c **** 
 480:..\FreeRTOS\Source/stream_buffer.c **** 	configASSERT( pxStreamBuffer );
 481:..\FreeRTOS\Source/stream_buffer.c **** 
 482:..\FreeRTOS\Source/stream_buffer.c **** 	xReturn = prvBytesInBuffer( pxStreamBuffer );
 483:..\FreeRTOS\Source/stream_buffer.c **** 	return xReturn;
 484:..\FreeRTOS\Source/stream_buffer.c **** }
 485:..\FreeRTOS\Source/stream_buffer.c **** /*-----------------------------------------------------------*/
 486:..\FreeRTOS\Source/stream_buffer.c **** 
 487:..\FreeRTOS\Source/stream_buffer.c **** size_t xStreamBufferSend( StreamBufferHandle_t xStreamBuffer,
ARM GAS  C:\Users\samue\AppData\Local\Temp\cc6oSIFr.s 			page 10


 488:..\FreeRTOS\Source/stream_buffer.c **** 						  const void *pvTxData,
 489:..\FreeRTOS\Source/stream_buffer.c **** 						  size_t xDataLengthBytes,
 490:..\FreeRTOS\Source/stream_buffer.c **** 						  TickType_t xTicksToWait )
 491:..\FreeRTOS\Source/stream_buffer.c **** {
 492:..\FreeRTOS\Source/stream_buffer.c **** StreamBuffer_t * const pxStreamBuffer = ( StreamBuffer_t * ) xStreamBuffer; /*lint !e9087 !e9079 Sa
 493:..\FreeRTOS\Source/stream_buffer.c **** size_t xReturn, xSpace = 0;
 494:..\FreeRTOS\Source/stream_buffer.c **** size_t xRequiredSpace = xDataLengthBytes;
 495:..\FreeRTOS\Source/stream_buffer.c **** TimeOut_t xTimeOut;
 496:..\FreeRTOS\Source/stream_buffer.c **** 
 497:..\FreeRTOS\Source/stream_buffer.c **** 	configASSERT( pvTxData );
 498:..\FreeRTOS\Source/stream_buffer.c **** 	configASSERT( pxStreamBuffer );
 499:..\FreeRTOS\Source/stream_buffer.c **** 
 500:..\FreeRTOS\Source/stream_buffer.c **** 	/* This send function is used to write to both message buffers and stream
 501:..\FreeRTOS\Source/stream_buffer.c **** 	buffers.  If this is a message buffer then the space needed must be
 502:..\FreeRTOS\Source/stream_buffer.c **** 	increased by the amount of bytes needed to store the length of the
 503:..\FreeRTOS\Source/stream_buffer.c **** 	message. */
 504:..\FreeRTOS\Source/stream_buffer.c **** 	if( ( pxStreamBuffer->ucFlags & sbFLAGS_IS_MESSAGE_BUFFER ) != ( uint8_t ) 0 )
 505:..\FreeRTOS\Source/stream_buffer.c **** 	{
 506:..\FreeRTOS\Source/stream_buffer.c **** 		xRequiredSpace += sbBYTES_TO_STORE_MESSAGE_LENGTH;
 507:..\FreeRTOS\Source/stream_buffer.c **** 	}
 508:..\FreeRTOS\Source/stream_buffer.c **** 	else
 509:..\FreeRTOS\Source/stream_buffer.c **** 	{
 510:..\FreeRTOS\Source/stream_buffer.c **** 		mtCOVERAGE_TEST_MARKER();
 511:..\FreeRTOS\Source/stream_buffer.c **** 	}
 512:..\FreeRTOS\Source/stream_buffer.c **** 
 513:..\FreeRTOS\Source/stream_buffer.c **** 	if( xTicksToWait != ( TickType_t ) 0 )
 514:..\FreeRTOS\Source/stream_buffer.c **** 	{
 515:..\FreeRTOS\Source/stream_buffer.c **** 		vTaskSetTimeOutState( &xTimeOut );
 516:..\FreeRTOS\Source/stream_buffer.c **** 
 517:..\FreeRTOS\Source/stream_buffer.c **** 		do
 518:..\FreeRTOS\Source/stream_buffer.c **** 		{
 519:..\FreeRTOS\Source/stream_buffer.c **** 			/* Wait until the required number of bytes are free in the message
 520:..\FreeRTOS\Source/stream_buffer.c **** 			buffer. */
 521:..\FreeRTOS\Source/stream_buffer.c **** 			taskENTER_CRITICAL();
 522:..\FreeRTOS\Source/stream_buffer.c **** 			{
 523:..\FreeRTOS\Source/stream_buffer.c **** 				xSpace = xStreamBufferSpacesAvailable( pxStreamBuffer );
 524:..\FreeRTOS\Source/stream_buffer.c **** 
 525:..\FreeRTOS\Source/stream_buffer.c **** 				if( xSpace < xRequiredSpace )
 526:..\FreeRTOS\Source/stream_buffer.c **** 				{
 527:..\FreeRTOS\Source/stream_buffer.c **** 					/* Clear notification state as going to wait for space. */
 528:..\FreeRTOS\Source/stream_buffer.c **** 					( void ) xTaskNotifyStateClear( NULL );
 529:..\FreeRTOS\Source/stream_buffer.c **** 
 530:..\FreeRTOS\Source/stream_buffer.c **** 					/* Should only be one writer. */
 531:..\FreeRTOS\Source/stream_buffer.c **** 					configASSERT( pxStreamBuffer->xTaskWaitingToSend == NULL );
 532:..\FreeRTOS\Source/stream_buffer.c **** 					pxStreamBuffer->xTaskWaitingToSend = xTaskGetCurrentTaskHandle();
 533:..\FreeRTOS\Source/stream_buffer.c **** 				}
 534:..\FreeRTOS\Source/stream_buffer.c **** 				else
 535:..\FreeRTOS\Source/stream_buffer.c **** 				{
 536:..\FreeRTOS\Source/stream_buffer.c **** 					taskEXIT_CRITICAL();
 537:..\FreeRTOS\Source/stream_buffer.c **** 					break;
 538:..\FreeRTOS\Source/stream_buffer.c **** 				}
 539:..\FreeRTOS\Source/stream_buffer.c **** 			}
 540:..\FreeRTOS\Source/stream_buffer.c **** 			taskEXIT_CRITICAL();
 541:..\FreeRTOS\Source/stream_buffer.c **** 
 542:..\FreeRTOS\Source/stream_buffer.c **** 			traceBLOCKING_ON_STREAM_BUFFER_SEND( xStreamBuffer );
 543:..\FreeRTOS\Source/stream_buffer.c **** 			( void ) xTaskNotifyWait( ( uint32_t ) 0, UINT32_MAX, NULL, xTicksToWait );
 544:..\FreeRTOS\Source/stream_buffer.c **** 			pxStreamBuffer->xTaskWaitingToSend = NULL;
ARM GAS  C:\Users\samue\AppData\Local\Temp\cc6oSIFr.s 			page 11


 545:..\FreeRTOS\Source/stream_buffer.c **** 
 546:..\FreeRTOS\Source/stream_buffer.c **** 		} while( xTaskCheckForTimeOut( &xTimeOut, &xTicksToWait ) == pdFALSE );
 547:..\FreeRTOS\Source/stream_buffer.c **** 	}
 548:..\FreeRTOS\Source/stream_buffer.c **** 	else
 549:..\FreeRTOS\Source/stream_buffer.c **** 	{
 550:..\FreeRTOS\Source/stream_buffer.c **** 		mtCOVERAGE_TEST_MARKER();
 551:..\FreeRTOS\Source/stream_buffer.c **** 	}
 552:..\FreeRTOS\Source/stream_buffer.c **** 
 553:..\FreeRTOS\Source/stream_buffer.c **** 	if( xSpace == ( size_t ) 0 )
 554:..\FreeRTOS\Source/stream_buffer.c **** 	{
 555:..\FreeRTOS\Source/stream_buffer.c **** 		xSpace = xStreamBufferSpacesAvailable( pxStreamBuffer );
 556:..\FreeRTOS\Source/stream_buffer.c **** 	}
 557:..\FreeRTOS\Source/stream_buffer.c **** 	else
 558:..\FreeRTOS\Source/stream_buffer.c **** 	{
 559:..\FreeRTOS\Source/stream_buffer.c **** 		mtCOVERAGE_TEST_MARKER();
 560:..\FreeRTOS\Source/stream_buffer.c **** 	}
 561:..\FreeRTOS\Source/stream_buffer.c **** 
 562:..\FreeRTOS\Source/stream_buffer.c **** 	xReturn = prvWriteMessageToBuffer( pxStreamBuffer, pvTxData, xDataLengthBytes, xSpace, xRequiredSp
 563:..\FreeRTOS\Source/stream_buffer.c **** 
 564:..\FreeRTOS\Source/stream_buffer.c **** 	if( xReturn > ( size_t ) 0 )
 565:..\FreeRTOS\Source/stream_buffer.c **** 	{
 566:..\FreeRTOS\Source/stream_buffer.c **** 		traceSTREAM_BUFFER_SEND( xStreamBuffer, xReturn );
 567:..\FreeRTOS\Source/stream_buffer.c **** 
 568:..\FreeRTOS\Source/stream_buffer.c **** 		/* Was a task waiting for the data? */
 569:..\FreeRTOS\Source/stream_buffer.c **** 		if( prvBytesInBuffer( pxStreamBuffer ) >= pxStreamBuffer->xTriggerLevelBytes )
 570:..\FreeRTOS\Source/stream_buffer.c **** 		{
 571:..\FreeRTOS\Source/stream_buffer.c **** 			sbSEND_COMPLETED( pxStreamBuffer );
 572:..\FreeRTOS\Source/stream_buffer.c **** 		}
 573:..\FreeRTOS\Source/stream_buffer.c **** 		else
 574:..\FreeRTOS\Source/stream_buffer.c **** 		{
 575:..\FreeRTOS\Source/stream_buffer.c **** 			mtCOVERAGE_TEST_MARKER();
 576:..\FreeRTOS\Source/stream_buffer.c **** 		}
 577:..\FreeRTOS\Source/stream_buffer.c **** 	}
 578:..\FreeRTOS\Source/stream_buffer.c **** 	else
 579:..\FreeRTOS\Source/stream_buffer.c **** 	{
 580:..\FreeRTOS\Source/stream_buffer.c **** 		mtCOVERAGE_TEST_MARKER();
 581:..\FreeRTOS\Source/stream_buffer.c **** 		traceSTREAM_BUFFER_SEND_FAILED( xStreamBuffer );
 582:..\FreeRTOS\Source/stream_buffer.c **** 	}
 583:..\FreeRTOS\Source/stream_buffer.c **** 
 584:..\FreeRTOS\Source/stream_buffer.c **** 	return xReturn;
 585:..\FreeRTOS\Source/stream_buffer.c **** }
 586:..\FreeRTOS\Source/stream_buffer.c **** /*-----------------------------------------------------------*/
 587:..\FreeRTOS\Source/stream_buffer.c **** 
 588:..\FreeRTOS\Source/stream_buffer.c **** size_t xStreamBufferSendFromISR( StreamBufferHandle_t xStreamBuffer,
 589:..\FreeRTOS\Source/stream_buffer.c **** 								 const void *pvTxData,
 590:..\FreeRTOS\Source/stream_buffer.c **** 								 size_t xDataLengthBytes,
 591:..\FreeRTOS\Source/stream_buffer.c **** 								 BaseType_t * const pxHigherPriorityTaskWoken )
 592:..\FreeRTOS\Source/stream_buffer.c **** {
 593:..\FreeRTOS\Source/stream_buffer.c **** StreamBuffer_t * const pxStreamBuffer = ( StreamBuffer_t * ) xStreamBuffer; /*lint !e9087 !e9079 Sa
 594:..\FreeRTOS\Source/stream_buffer.c **** size_t xReturn, xSpace;
 595:..\FreeRTOS\Source/stream_buffer.c **** size_t xRequiredSpace = xDataLengthBytes;
 596:..\FreeRTOS\Source/stream_buffer.c **** 
 597:..\FreeRTOS\Source/stream_buffer.c **** 	configASSERT( pvTxData );
 598:..\FreeRTOS\Source/stream_buffer.c **** 	configASSERT( pxStreamBuffer );
 599:..\FreeRTOS\Source/stream_buffer.c **** 
 600:..\FreeRTOS\Source/stream_buffer.c **** 	/* This send function is used to write to both message buffers and stream
 601:..\FreeRTOS\Source/stream_buffer.c **** 	buffers.  If this is a message buffer then the space needed must be
ARM GAS  C:\Users\samue\AppData\Local\Temp\cc6oSIFr.s 			page 12


 602:..\FreeRTOS\Source/stream_buffer.c **** 	increased by the amount of bytes needed to store the length of the
 603:..\FreeRTOS\Source/stream_buffer.c **** 	message. */
 604:..\FreeRTOS\Source/stream_buffer.c **** 	if( ( pxStreamBuffer->ucFlags & sbFLAGS_IS_MESSAGE_BUFFER ) != ( uint8_t ) 0 )
 605:..\FreeRTOS\Source/stream_buffer.c **** 	{
 606:..\FreeRTOS\Source/stream_buffer.c **** 		xRequiredSpace += sbBYTES_TO_STORE_MESSAGE_LENGTH;
 607:..\FreeRTOS\Source/stream_buffer.c **** 	}
 608:..\FreeRTOS\Source/stream_buffer.c **** 	else
 609:..\FreeRTOS\Source/stream_buffer.c **** 	{
 610:..\FreeRTOS\Source/stream_buffer.c **** 		mtCOVERAGE_TEST_MARKER();
 611:..\FreeRTOS\Source/stream_buffer.c **** 	}
 612:..\FreeRTOS\Source/stream_buffer.c **** 
 613:..\FreeRTOS\Source/stream_buffer.c **** 	xSpace = xStreamBufferSpacesAvailable( pxStreamBuffer );
 614:..\FreeRTOS\Source/stream_buffer.c **** 	xReturn = prvWriteMessageToBuffer( pxStreamBuffer, pvTxData, xDataLengthBytes, xSpace, xRequiredSp
 615:..\FreeRTOS\Source/stream_buffer.c **** 
 616:..\FreeRTOS\Source/stream_buffer.c **** 	if( xReturn > ( size_t ) 0 )
 617:..\FreeRTOS\Source/stream_buffer.c **** 	{
 618:..\FreeRTOS\Source/stream_buffer.c **** 		/* Was a task waiting for the data? */
 619:..\FreeRTOS\Source/stream_buffer.c **** 		if( prvBytesInBuffer( pxStreamBuffer ) >= pxStreamBuffer->xTriggerLevelBytes )
 620:..\FreeRTOS\Source/stream_buffer.c **** 		{
 621:..\FreeRTOS\Source/stream_buffer.c **** 			sbSEND_COMPLETE_FROM_ISR( pxStreamBuffer, pxHigherPriorityTaskWoken );
 622:..\FreeRTOS\Source/stream_buffer.c **** 		}
 623:..\FreeRTOS\Source/stream_buffer.c **** 		else
 624:..\FreeRTOS\Source/stream_buffer.c **** 		{
 625:..\FreeRTOS\Source/stream_buffer.c **** 			mtCOVERAGE_TEST_MARKER();
 626:..\FreeRTOS\Source/stream_buffer.c **** 		}
 627:..\FreeRTOS\Source/stream_buffer.c **** 	}
 628:..\FreeRTOS\Source/stream_buffer.c **** 	else
 629:..\FreeRTOS\Source/stream_buffer.c **** 	{
 630:..\FreeRTOS\Source/stream_buffer.c **** 		mtCOVERAGE_TEST_MARKER();
 631:..\FreeRTOS\Source/stream_buffer.c **** 	}
 632:..\FreeRTOS\Source/stream_buffer.c **** 
 633:..\FreeRTOS\Source/stream_buffer.c **** 	traceSTREAM_BUFFER_SEND_FROM_ISR( xStreamBuffer, xReturn );
 634:..\FreeRTOS\Source/stream_buffer.c **** 
 635:..\FreeRTOS\Source/stream_buffer.c **** 	return xReturn;
 636:..\FreeRTOS\Source/stream_buffer.c **** }
 637:..\FreeRTOS\Source/stream_buffer.c **** /*-----------------------------------------------------------*/
 638:..\FreeRTOS\Source/stream_buffer.c **** 
 639:..\FreeRTOS\Source/stream_buffer.c **** static size_t prvWriteMessageToBuffer( StreamBuffer_t * const pxStreamBuffer,
 640:..\FreeRTOS\Source/stream_buffer.c **** 									   const void * pvTxData,
 641:..\FreeRTOS\Source/stream_buffer.c **** 									   size_t xDataLengthBytes,
 642:..\FreeRTOS\Source/stream_buffer.c **** 									   size_t xSpace,
 643:..\FreeRTOS\Source/stream_buffer.c **** 									   size_t xRequiredSpace )
 644:..\FreeRTOS\Source/stream_buffer.c **** {
 645:..\FreeRTOS\Source/stream_buffer.c **** 	BaseType_t xShouldWrite;
 646:..\FreeRTOS\Source/stream_buffer.c **** 	size_t xReturn;
 647:..\FreeRTOS\Source/stream_buffer.c **** 
 648:..\FreeRTOS\Source/stream_buffer.c **** 	if( xSpace == ( size_t ) 0 )
 649:..\FreeRTOS\Source/stream_buffer.c **** 	{
 650:..\FreeRTOS\Source/stream_buffer.c **** 		/* Doesn't matter if this is a stream buffer or a message buffer, there
 651:..\FreeRTOS\Source/stream_buffer.c **** 		is no space to write. */
 652:..\FreeRTOS\Source/stream_buffer.c **** 		xShouldWrite = pdFALSE;
 653:..\FreeRTOS\Source/stream_buffer.c **** 	}
 654:..\FreeRTOS\Source/stream_buffer.c **** 	else if( ( pxStreamBuffer->ucFlags & sbFLAGS_IS_MESSAGE_BUFFER ) == ( uint8_t ) 0 )
 655:..\FreeRTOS\Source/stream_buffer.c **** 	{
 656:..\FreeRTOS\Source/stream_buffer.c **** 		/* This is a stream buffer, as opposed to a message buffer, so writing a
 657:..\FreeRTOS\Source/stream_buffer.c **** 		stream of bytes rather than discrete messages.  Write as many bytes as
 658:..\FreeRTOS\Source/stream_buffer.c **** 		possible. */
ARM GAS  C:\Users\samue\AppData\Local\Temp\cc6oSIFr.s 			page 13


 659:..\FreeRTOS\Source/stream_buffer.c **** 		xShouldWrite = pdTRUE;
 660:..\FreeRTOS\Source/stream_buffer.c **** 		xDataLengthBytes = configMIN( xDataLengthBytes, xSpace ); /*lint !e9044 Function parameter modifi
 661:..\FreeRTOS\Source/stream_buffer.c **** 	}
 662:..\FreeRTOS\Source/stream_buffer.c **** 	else if( xSpace >= xRequiredSpace )
 663:..\FreeRTOS\Source/stream_buffer.c **** 	{
 664:..\FreeRTOS\Source/stream_buffer.c **** 		/* This is a message buffer, as opposed to a stream buffer, and there
 665:..\FreeRTOS\Source/stream_buffer.c **** 		is enough space to write both the message length and the message itself
 666:..\FreeRTOS\Source/stream_buffer.c **** 		into the buffer.  Start by writing the length of the data, the data
 667:..\FreeRTOS\Source/stream_buffer.c **** 		itself will be written later in this function. */
 668:..\FreeRTOS\Source/stream_buffer.c **** 		xShouldWrite = pdTRUE;
 669:..\FreeRTOS\Source/stream_buffer.c **** 		( void ) prvWriteBytesToBuffer( pxStreamBuffer, ( const uint8_t * ) &( xDataLengthBytes ), sbBYTE
 670:..\FreeRTOS\Source/stream_buffer.c **** 	}
 671:..\FreeRTOS\Source/stream_buffer.c **** 	else
 672:..\FreeRTOS\Source/stream_buffer.c **** 	{
 673:..\FreeRTOS\Source/stream_buffer.c **** 		/* There is space available, but not enough space. */
 674:..\FreeRTOS\Source/stream_buffer.c **** 		xShouldWrite = pdFALSE;
 675:..\FreeRTOS\Source/stream_buffer.c **** 	}
 676:..\FreeRTOS\Source/stream_buffer.c **** 
 677:..\FreeRTOS\Source/stream_buffer.c **** 	if( xShouldWrite != pdFALSE )
 678:..\FreeRTOS\Source/stream_buffer.c **** 	{
 679:..\FreeRTOS\Source/stream_buffer.c **** 		/* Writes the data itself. */
 680:..\FreeRTOS\Source/stream_buffer.c **** 		xReturn = prvWriteBytesToBuffer( pxStreamBuffer, ( const uint8_t * ) pvTxData, xDataLengthBytes )
 681:..\FreeRTOS\Source/stream_buffer.c **** 	}
 682:..\FreeRTOS\Source/stream_buffer.c **** 	else
 683:..\FreeRTOS\Source/stream_buffer.c **** 	{
 684:..\FreeRTOS\Source/stream_buffer.c **** 		xReturn = 0;
 685:..\FreeRTOS\Source/stream_buffer.c **** 	}
 686:..\FreeRTOS\Source/stream_buffer.c **** 
 687:..\FreeRTOS\Source/stream_buffer.c **** 	return xReturn;
 688:..\FreeRTOS\Source/stream_buffer.c **** }
 689:..\FreeRTOS\Source/stream_buffer.c **** /*-----------------------------------------------------------*/
 690:..\FreeRTOS\Source/stream_buffer.c **** 
 691:..\FreeRTOS\Source/stream_buffer.c **** size_t xStreamBufferReceive( StreamBufferHandle_t xStreamBuffer,
 692:..\FreeRTOS\Source/stream_buffer.c **** 							 void *pvRxData,
 693:..\FreeRTOS\Source/stream_buffer.c **** 							 size_t xBufferLengthBytes,
 694:..\FreeRTOS\Source/stream_buffer.c **** 							 TickType_t xTicksToWait )
 695:..\FreeRTOS\Source/stream_buffer.c **** {
 696:..\FreeRTOS\Source/stream_buffer.c **** StreamBuffer_t * const pxStreamBuffer = ( StreamBuffer_t * ) xStreamBuffer; /*lint !e9087 !e9079 Sa
 697:..\FreeRTOS\Source/stream_buffer.c **** size_t xReceivedLength = 0, xBytesAvailable, xBytesToStoreMessageLength;
 698:..\FreeRTOS\Source/stream_buffer.c **** 
 699:..\FreeRTOS\Source/stream_buffer.c **** 	configASSERT( pvRxData );
 700:..\FreeRTOS\Source/stream_buffer.c **** 	configASSERT( pxStreamBuffer );
 701:..\FreeRTOS\Source/stream_buffer.c **** 
 702:..\FreeRTOS\Source/stream_buffer.c **** 	/* This receive function is used by both message buffers, which store
 703:..\FreeRTOS\Source/stream_buffer.c **** 	discrete messages, and stream buffers, which store a continuous stream of
 704:..\FreeRTOS\Source/stream_buffer.c **** 	bytes.  Discrete messages include an additional
 705:..\FreeRTOS\Source/stream_buffer.c **** 	sbBYTES_TO_STORE_MESSAGE_LENGTH bytes that hold the length of the
 706:..\FreeRTOS\Source/stream_buffer.c **** 	message. */
 707:..\FreeRTOS\Source/stream_buffer.c **** 	if( ( pxStreamBuffer->ucFlags & sbFLAGS_IS_MESSAGE_BUFFER ) != ( uint8_t ) 0 )
 708:..\FreeRTOS\Source/stream_buffer.c **** 	{
 709:..\FreeRTOS\Source/stream_buffer.c **** 		xBytesToStoreMessageLength = sbBYTES_TO_STORE_MESSAGE_LENGTH;
 710:..\FreeRTOS\Source/stream_buffer.c **** 	}
 711:..\FreeRTOS\Source/stream_buffer.c **** 	else
 712:..\FreeRTOS\Source/stream_buffer.c **** 	{
 713:..\FreeRTOS\Source/stream_buffer.c **** 		xBytesToStoreMessageLength = 0;
 714:..\FreeRTOS\Source/stream_buffer.c **** 	}
 715:..\FreeRTOS\Source/stream_buffer.c **** 
ARM GAS  C:\Users\samue\AppData\Local\Temp\cc6oSIFr.s 			page 14


 716:..\FreeRTOS\Source/stream_buffer.c **** 	if( xTicksToWait != ( TickType_t ) 0 )
 717:..\FreeRTOS\Source/stream_buffer.c **** 	{
 718:..\FreeRTOS\Source/stream_buffer.c **** 		/* Checking if there is data and clearing the notification state must be
 719:..\FreeRTOS\Source/stream_buffer.c **** 		performed atomically. */
 720:..\FreeRTOS\Source/stream_buffer.c **** 		taskENTER_CRITICAL();
 721:..\FreeRTOS\Source/stream_buffer.c **** 		{
 722:..\FreeRTOS\Source/stream_buffer.c **** 			xBytesAvailable = prvBytesInBuffer( pxStreamBuffer );
 723:..\FreeRTOS\Source/stream_buffer.c **** 
 724:..\FreeRTOS\Source/stream_buffer.c **** 			/* If this function was invoked by a message buffer read then
 725:..\FreeRTOS\Source/stream_buffer.c **** 			xBytesToStoreMessageLength holds the number of bytes used to hold
 726:..\FreeRTOS\Source/stream_buffer.c **** 			the length of the next discrete message.  If this function was
 727:..\FreeRTOS\Source/stream_buffer.c **** 			invoked by a stream buffer read then xBytesToStoreMessageLength will
 728:..\FreeRTOS\Source/stream_buffer.c **** 			be 0. */
 729:..\FreeRTOS\Source/stream_buffer.c **** 			if( xBytesAvailable <= xBytesToStoreMessageLength )
 730:..\FreeRTOS\Source/stream_buffer.c **** 			{
 731:..\FreeRTOS\Source/stream_buffer.c **** 				/* Clear notification state as going to wait for data. */
 732:..\FreeRTOS\Source/stream_buffer.c **** 				( void ) xTaskNotifyStateClear( NULL );
 733:..\FreeRTOS\Source/stream_buffer.c **** 
 734:..\FreeRTOS\Source/stream_buffer.c **** 				/* Should only be one reader. */
 735:..\FreeRTOS\Source/stream_buffer.c **** 				configASSERT( pxStreamBuffer->xTaskWaitingToReceive == NULL );
 736:..\FreeRTOS\Source/stream_buffer.c **** 				pxStreamBuffer->xTaskWaitingToReceive = xTaskGetCurrentTaskHandle();
 737:..\FreeRTOS\Source/stream_buffer.c **** 			}
 738:..\FreeRTOS\Source/stream_buffer.c **** 			else
 739:..\FreeRTOS\Source/stream_buffer.c **** 			{
 740:..\FreeRTOS\Source/stream_buffer.c **** 				mtCOVERAGE_TEST_MARKER();
 741:..\FreeRTOS\Source/stream_buffer.c **** 			}
 742:..\FreeRTOS\Source/stream_buffer.c **** 		}
 743:..\FreeRTOS\Source/stream_buffer.c **** 		taskEXIT_CRITICAL();
 744:..\FreeRTOS\Source/stream_buffer.c **** 
 745:..\FreeRTOS\Source/stream_buffer.c **** 		if( xBytesAvailable <= xBytesToStoreMessageLength )
 746:..\FreeRTOS\Source/stream_buffer.c **** 		{
 747:..\FreeRTOS\Source/stream_buffer.c **** 			/* Wait for data to be available. */
 748:..\FreeRTOS\Source/stream_buffer.c **** 			traceBLOCKING_ON_STREAM_BUFFER_RECEIVE( xStreamBuffer );
 749:..\FreeRTOS\Source/stream_buffer.c **** 			( void ) xTaskNotifyWait( ( uint32_t ) 0, UINT32_MAX, NULL, xTicksToWait );
 750:..\FreeRTOS\Source/stream_buffer.c **** 			pxStreamBuffer->xTaskWaitingToReceive = NULL;
 751:..\FreeRTOS\Source/stream_buffer.c **** 
 752:..\FreeRTOS\Source/stream_buffer.c **** 			/* Recheck the data available after blocking. */
 753:..\FreeRTOS\Source/stream_buffer.c **** 			xBytesAvailable = prvBytesInBuffer( pxStreamBuffer );
 754:..\FreeRTOS\Source/stream_buffer.c **** 		}
 755:..\FreeRTOS\Source/stream_buffer.c **** 		else
 756:..\FreeRTOS\Source/stream_buffer.c **** 		{
 757:..\FreeRTOS\Source/stream_buffer.c **** 			mtCOVERAGE_TEST_MARKER();
 758:..\FreeRTOS\Source/stream_buffer.c **** 		}
 759:..\FreeRTOS\Source/stream_buffer.c **** 	}
 760:..\FreeRTOS\Source/stream_buffer.c **** 	else
 761:..\FreeRTOS\Source/stream_buffer.c **** 	{
 762:..\FreeRTOS\Source/stream_buffer.c **** 		xBytesAvailable = prvBytesInBuffer( pxStreamBuffer );
 763:..\FreeRTOS\Source/stream_buffer.c **** 	}
 764:..\FreeRTOS\Source/stream_buffer.c **** 
 765:..\FreeRTOS\Source/stream_buffer.c **** 	/* Whether receiving a discrete message (where xBytesToStoreMessageLength
 766:..\FreeRTOS\Source/stream_buffer.c **** 	holds the number of bytes used to store the message length) or a stream of
 767:..\FreeRTOS\Source/stream_buffer.c **** 	bytes (where xBytesToStoreMessageLength is zero), the number of bytes
 768:..\FreeRTOS\Source/stream_buffer.c **** 	available must be greater than xBytesToStoreMessageLength to be able to
 769:..\FreeRTOS\Source/stream_buffer.c **** 	read bytes from the buffer. */
 770:..\FreeRTOS\Source/stream_buffer.c **** 	if( xBytesAvailable > xBytesToStoreMessageLength )
 771:..\FreeRTOS\Source/stream_buffer.c **** 	{
 772:..\FreeRTOS\Source/stream_buffer.c **** 		xReceivedLength = prvReadMessageFromBuffer( pxStreamBuffer, pvRxData, xBufferLengthBytes, xBytesA
ARM GAS  C:\Users\samue\AppData\Local\Temp\cc6oSIFr.s 			page 15


 773:..\FreeRTOS\Source/stream_buffer.c **** 
 774:..\FreeRTOS\Source/stream_buffer.c **** 		/* Was a task waiting for space in the buffer? */
 775:..\FreeRTOS\Source/stream_buffer.c **** 		if( xReceivedLength != ( size_t ) 0 )
 776:..\FreeRTOS\Source/stream_buffer.c **** 		{
 777:..\FreeRTOS\Source/stream_buffer.c **** 			traceSTREAM_BUFFER_RECEIVE( xStreamBuffer, xReceivedLength );
 778:..\FreeRTOS\Source/stream_buffer.c **** 			sbRECEIVE_COMPLETED( pxStreamBuffer );
 779:..\FreeRTOS\Source/stream_buffer.c **** 		}
 780:..\FreeRTOS\Source/stream_buffer.c **** 		else
 781:..\FreeRTOS\Source/stream_buffer.c **** 		{
 782:..\FreeRTOS\Source/stream_buffer.c **** 			mtCOVERAGE_TEST_MARKER();
 783:..\FreeRTOS\Source/stream_buffer.c **** 		}
 784:..\FreeRTOS\Source/stream_buffer.c **** 	}
 785:..\FreeRTOS\Source/stream_buffer.c **** 	else
 786:..\FreeRTOS\Source/stream_buffer.c **** 	{
 787:..\FreeRTOS\Source/stream_buffer.c **** 		traceSTREAM_BUFFER_RECEIVE_FAILED( xStreamBuffer );
 788:..\FreeRTOS\Source/stream_buffer.c **** 		mtCOVERAGE_TEST_MARKER();
 789:..\FreeRTOS\Source/stream_buffer.c **** 	}
 790:..\FreeRTOS\Source/stream_buffer.c **** 
 791:..\FreeRTOS\Source/stream_buffer.c **** 	return xReceivedLength;
 792:..\FreeRTOS\Source/stream_buffer.c **** }
 793:..\FreeRTOS\Source/stream_buffer.c **** /*-----------------------------------------------------------*/
 794:..\FreeRTOS\Source/stream_buffer.c **** 
 795:..\FreeRTOS\Source/stream_buffer.c **** size_t xStreamBufferReceiveFromISR( StreamBufferHandle_t xStreamBuffer,
 796:..\FreeRTOS\Source/stream_buffer.c **** 									void *pvRxData,
 797:..\FreeRTOS\Source/stream_buffer.c **** 									size_t xBufferLengthBytes,
 798:..\FreeRTOS\Source/stream_buffer.c **** 									BaseType_t * const pxHigherPriorityTaskWoken )
 799:..\FreeRTOS\Source/stream_buffer.c **** {
 800:..\FreeRTOS\Source/stream_buffer.c **** StreamBuffer_t * const pxStreamBuffer = ( StreamBuffer_t * ) xStreamBuffer; /*lint !e9087 !e9079 Sa
 801:..\FreeRTOS\Source/stream_buffer.c **** size_t xReceivedLength = 0, xBytesAvailable, xBytesToStoreMessageLength;
 802:..\FreeRTOS\Source/stream_buffer.c **** 
 803:..\FreeRTOS\Source/stream_buffer.c **** 	configASSERT( pvRxData );
 804:..\FreeRTOS\Source/stream_buffer.c **** 	configASSERT( pxStreamBuffer );
 805:..\FreeRTOS\Source/stream_buffer.c **** 
 806:..\FreeRTOS\Source/stream_buffer.c **** 	/* This receive function is used by both message buffers, which store
 807:..\FreeRTOS\Source/stream_buffer.c **** 	discrete messages, and stream buffers, which store a continuous stream of
 808:..\FreeRTOS\Source/stream_buffer.c **** 	bytes.  Discrete messages include an additional
 809:..\FreeRTOS\Source/stream_buffer.c **** 	sbBYTES_TO_STORE_MESSAGE_LENGTH bytes that hold the length of the
 810:..\FreeRTOS\Source/stream_buffer.c **** 	message. */
 811:..\FreeRTOS\Source/stream_buffer.c **** 	if( ( pxStreamBuffer->ucFlags & sbFLAGS_IS_MESSAGE_BUFFER ) != ( uint8_t ) 0 )
 812:..\FreeRTOS\Source/stream_buffer.c **** 	{
 813:..\FreeRTOS\Source/stream_buffer.c **** 		xBytesToStoreMessageLength = sbBYTES_TO_STORE_MESSAGE_LENGTH;
 814:..\FreeRTOS\Source/stream_buffer.c **** 	}
 815:..\FreeRTOS\Source/stream_buffer.c **** 	else
 816:..\FreeRTOS\Source/stream_buffer.c **** 	{
 817:..\FreeRTOS\Source/stream_buffer.c **** 		xBytesToStoreMessageLength = 0;
 818:..\FreeRTOS\Source/stream_buffer.c **** 	}
 819:..\FreeRTOS\Source/stream_buffer.c **** 
 820:..\FreeRTOS\Source/stream_buffer.c **** 	xBytesAvailable = prvBytesInBuffer( pxStreamBuffer );
 821:..\FreeRTOS\Source/stream_buffer.c **** 
 822:..\FreeRTOS\Source/stream_buffer.c **** 	/* Whether receiving a discrete message (where xBytesToStoreMessageLength
 823:..\FreeRTOS\Source/stream_buffer.c **** 	holds the number of bytes used to store the message length) or a stream of
 824:..\FreeRTOS\Source/stream_buffer.c **** 	bytes (where xBytesToStoreMessageLength is zero), the number of bytes
 825:..\FreeRTOS\Source/stream_buffer.c **** 	available must be greater than xBytesToStoreMessageLength to be able to
 826:..\FreeRTOS\Source/stream_buffer.c **** 	read bytes from the buffer. */
 827:..\FreeRTOS\Source/stream_buffer.c **** 	if( xBytesAvailable > xBytesToStoreMessageLength )
 828:..\FreeRTOS\Source/stream_buffer.c **** 	{
 829:..\FreeRTOS\Source/stream_buffer.c **** 		xReceivedLength = prvReadMessageFromBuffer( pxStreamBuffer, pvRxData, xBufferLengthBytes, xBytesA
ARM GAS  C:\Users\samue\AppData\Local\Temp\cc6oSIFr.s 			page 16


 830:..\FreeRTOS\Source/stream_buffer.c **** 
 831:..\FreeRTOS\Source/stream_buffer.c **** 		/* Was a task waiting for space in the buffer? */
 832:..\FreeRTOS\Source/stream_buffer.c **** 		if( xReceivedLength != ( size_t ) 0 )
 833:..\FreeRTOS\Source/stream_buffer.c **** 		{
 834:..\FreeRTOS\Source/stream_buffer.c **** 			sbRECEIVE_COMPLETED_FROM_ISR( pxStreamBuffer, pxHigherPriorityTaskWoken );
 835:..\FreeRTOS\Source/stream_buffer.c **** 		}
 836:..\FreeRTOS\Source/stream_buffer.c **** 		else
 837:..\FreeRTOS\Source/stream_buffer.c **** 		{
 838:..\FreeRTOS\Source/stream_buffer.c **** 			mtCOVERAGE_TEST_MARKER();
 839:..\FreeRTOS\Source/stream_buffer.c **** 		}
 840:..\FreeRTOS\Source/stream_buffer.c **** 	}
 841:..\FreeRTOS\Source/stream_buffer.c **** 	else
 842:..\FreeRTOS\Source/stream_buffer.c **** 	{
 843:..\FreeRTOS\Source/stream_buffer.c **** 		mtCOVERAGE_TEST_MARKER();
 844:..\FreeRTOS\Source/stream_buffer.c **** 	}
 845:..\FreeRTOS\Source/stream_buffer.c **** 
 846:..\FreeRTOS\Source/stream_buffer.c **** 	traceSTREAM_BUFFER_RECEIVE_FROM_ISR( xStreamBuffer, xReceivedLength );
 847:..\FreeRTOS\Source/stream_buffer.c **** 
 848:..\FreeRTOS\Source/stream_buffer.c **** 	return xReceivedLength;
 849:..\FreeRTOS\Source/stream_buffer.c **** }
 850:..\FreeRTOS\Source/stream_buffer.c **** /*-----------------------------------------------------------*/
 851:..\FreeRTOS\Source/stream_buffer.c **** 
 852:..\FreeRTOS\Source/stream_buffer.c **** static size_t prvReadMessageFromBuffer( StreamBuffer_t *pxStreamBuffer,
 853:..\FreeRTOS\Source/stream_buffer.c **** 										void *pvRxData,
 854:..\FreeRTOS\Source/stream_buffer.c **** 										size_t xBufferLengthBytes,
 855:..\FreeRTOS\Source/stream_buffer.c **** 										size_t xBytesAvailable,
 856:..\FreeRTOS\Source/stream_buffer.c **** 										size_t xBytesToStoreMessageLength )
 857:..\FreeRTOS\Source/stream_buffer.c **** {
 858:..\FreeRTOS\Source/stream_buffer.c **** size_t xOriginalTail, xReceivedLength, xNextMessageLength;
 859:..\FreeRTOS\Source/stream_buffer.c **** 
 860:..\FreeRTOS\Source/stream_buffer.c **** 	if( xBytesToStoreMessageLength != ( size_t ) 0 )
 861:..\FreeRTOS\Source/stream_buffer.c **** 	{
 862:..\FreeRTOS\Source/stream_buffer.c **** 		/* A discrete message is being received.  First receive the length
 863:..\FreeRTOS\Source/stream_buffer.c **** 		of the message.  A copy of the tail is stored so the buffer can be
 864:..\FreeRTOS\Source/stream_buffer.c **** 		returned to its prior state if the length of the message is too
 865:..\FreeRTOS\Source/stream_buffer.c **** 		large for the provided buffer. */
 866:..\FreeRTOS\Source/stream_buffer.c **** 		xOriginalTail = pxStreamBuffer->xTail;
 867:..\FreeRTOS\Source/stream_buffer.c **** 		( void ) prvReadBytesFromBuffer( pxStreamBuffer, ( uint8_t * ) &xNextMessageLength, xBytesToStore
 868:..\FreeRTOS\Source/stream_buffer.c **** 
 869:..\FreeRTOS\Source/stream_buffer.c **** 		/* Reduce the number of bytes available by the number of bytes just
 870:..\FreeRTOS\Source/stream_buffer.c **** 		read out. */
 871:..\FreeRTOS\Source/stream_buffer.c **** 		xBytesAvailable -= xBytesToStoreMessageLength;
 872:..\FreeRTOS\Source/stream_buffer.c **** 
 873:..\FreeRTOS\Source/stream_buffer.c **** 		/* Check there is enough space in the buffer provided by the
 874:..\FreeRTOS\Source/stream_buffer.c **** 		user. */
 875:..\FreeRTOS\Source/stream_buffer.c **** 		if( xNextMessageLength > xBufferLengthBytes )
 876:..\FreeRTOS\Source/stream_buffer.c **** 		{
 877:..\FreeRTOS\Source/stream_buffer.c **** 			/* The user has provided insufficient space to read the message
 878:..\FreeRTOS\Source/stream_buffer.c **** 			so return the buffer to its previous state (so the length of
 879:..\FreeRTOS\Source/stream_buffer.c **** 			the message is in the buffer again). */
 880:..\FreeRTOS\Source/stream_buffer.c **** 			pxStreamBuffer->xTail = xOriginalTail;
 881:..\FreeRTOS\Source/stream_buffer.c **** 			xNextMessageLength = 0;
 882:..\FreeRTOS\Source/stream_buffer.c **** 		}
 883:..\FreeRTOS\Source/stream_buffer.c **** 		else
 884:..\FreeRTOS\Source/stream_buffer.c **** 		{
 885:..\FreeRTOS\Source/stream_buffer.c **** 			mtCOVERAGE_TEST_MARKER();
 886:..\FreeRTOS\Source/stream_buffer.c **** 		}
ARM GAS  C:\Users\samue\AppData\Local\Temp\cc6oSIFr.s 			page 17


 887:..\FreeRTOS\Source/stream_buffer.c **** 	}
 888:..\FreeRTOS\Source/stream_buffer.c **** 	else
 889:..\FreeRTOS\Source/stream_buffer.c **** 	{
 890:..\FreeRTOS\Source/stream_buffer.c **** 		/* A stream of bytes is being received (as opposed to a discrete
 891:..\FreeRTOS\Source/stream_buffer.c **** 		message), so read as many bytes as possible. */
 892:..\FreeRTOS\Source/stream_buffer.c **** 		xNextMessageLength = xBufferLengthBytes;
 893:..\FreeRTOS\Source/stream_buffer.c **** 	}
 894:..\FreeRTOS\Source/stream_buffer.c **** 
 895:..\FreeRTOS\Source/stream_buffer.c **** 	/* Read the actual data. */
 896:..\FreeRTOS\Source/stream_buffer.c **** 	xReceivedLength = prvReadBytesFromBuffer( pxStreamBuffer, ( uint8_t * ) pvRxData, xNextMessageLeng
 897:..\FreeRTOS\Source/stream_buffer.c **** 
 898:..\FreeRTOS\Source/stream_buffer.c **** 	return xReceivedLength;
 899:..\FreeRTOS\Source/stream_buffer.c **** }
 900:..\FreeRTOS\Source/stream_buffer.c **** /*-----------------------------------------------------------*/
 901:..\FreeRTOS\Source/stream_buffer.c **** 
 902:..\FreeRTOS\Source/stream_buffer.c **** BaseType_t xStreamBufferIsEmpty( StreamBufferHandle_t xStreamBuffer )
 903:..\FreeRTOS\Source/stream_buffer.c **** {
 904:..\FreeRTOS\Source/stream_buffer.c **** const StreamBuffer_t * const pxStreamBuffer = ( StreamBuffer_t * ) xStreamBuffer; /*lint !e9087 !e9
 905:..\FreeRTOS\Source/stream_buffer.c **** BaseType_t xReturn;
 906:..\FreeRTOS\Source/stream_buffer.c **** size_t xTail;
 907:..\FreeRTOS\Source/stream_buffer.c **** 
 908:..\FreeRTOS\Source/stream_buffer.c **** 	configASSERT( pxStreamBuffer );
 909:..\FreeRTOS\Source/stream_buffer.c **** 
 910:..\FreeRTOS\Source/stream_buffer.c **** 	/* True if no bytes are available. */
 911:..\FreeRTOS\Source/stream_buffer.c **** 	xTail = pxStreamBuffer->xTail;
 912:..\FreeRTOS\Source/stream_buffer.c **** 	if( pxStreamBuffer->xHead == xTail )
 913:..\FreeRTOS\Source/stream_buffer.c **** 	{
 914:..\FreeRTOS\Source/stream_buffer.c **** 		xReturn = pdTRUE;
 915:..\FreeRTOS\Source/stream_buffer.c **** 	}
 916:..\FreeRTOS\Source/stream_buffer.c **** 	else
 917:..\FreeRTOS\Source/stream_buffer.c **** 	{
 918:..\FreeRTOS\Source/stream_buffer.c **** 		xReturn = pdFALSE;
 919:..\FreeRTOS\Source/stream_buffer.c **** 	}
 920:..\FreeRTOS\Source/stream_buffer.c **** 
 921:..\FreeRTOS\Source/stream_buffer.c **** 	return xReturn;
 922:..\FreeRTOS\Source/stream_buffer.c **** }
 923:..\FreeRTOS\Source/stream_buffer.c **** /*-----------------------------------------------------------*/
 924:..\FreeRTOS\Source/stream_buffer.c **** 
 925:..\FreeRTOS\Source/stream_buffer.c **** BaseType_t xStreamBufferIsFull( StreamBufferHandle_t xStreamBuffer )
 926:..\FreeRTOS\Source/stream_buffer.c **** {
 927:..\FreeRTOS\Source/stream_buffer.c **** BaseType_t xReturn;
 928:..\FreeRTOS\Source/stream_buffer.c **** size_t xBytesToStoreMessageLength;
 929:..\FreeRTOS\Source/stream_buffer.c **** const StreamBuffer_t * const pxStreamBuffer = ( StreamBuffer_t * ) xStreamBuffer; /*lint !e9087 !e9
 930:..\FreeRTOS\Source/stream_buffer.c **** 
 931:..\FreeRTOS\Source/stream_buffer.c **** 	configASSERT( pxStreamBuffer );
 932:..\FreeRTOS\Source/stream_buffer.c **** 
 933:..\FreeRTOS\Source/stream_buffer.c **** 	/* This generic version of the receive function is used by both message
 934:..\FreeRTOS\Source/stream_buffer.c **** 	buffers, which store discrete messages, and stream buffers, which store a
 935:..\FreeRTOS\Source/stream_buffer.c **** 	continuous stream of bytes.  Discrete messages include an additional
 936:..\FreeRTOS\Source/stream_buffer.c **** 	sbBYTES_TO_STORE_MESSAGE_LENGTH bytes that hold the length of the message. */
 937:..\FreeRTOS\Source/stream_buffer.c **** 	if( ( pxStreamBuffer->ucFlags & sbFLAGS_IS_MESSAGE_BUFFER ) != ( uint8_t ) 0 )
 938:..\FreeRTOS\Source/stream_buffer.c **** 	{
 939:..\FreeRTOS\Source/stream_buffer.c **** 		xBytesToStoreMessageLength = sbBYTES_TO_STORE_MESSAGE_LENGTH;
 940:..\FreeRTOS\Source/stream_buffer.c **** 	}
 941:..\FreeRTOS\Source/stream_buffer.c **** 	else
 942:..\FreeRTOS\Source/stream_buffer.c **** 	{
 943:..\FreeRTOS\Source/stream_buffer.c **** 		xBytesToStoreMessageLength = 0;
ARM GAS  C:\Users\samue\AppData\Local\Temp\cc6oSIFr.s 			page 18


 944:..\FreeRTOS\Source/stream_buffer.c **** 	}
 945:..\FreeRTOS\Source/stream_buffer.c **** 
 946:..\FreeRTOS\Source/stream_buffer.c **** 	/* True if the available space equals zero. */
 947:..\FreeRTOS\Source/stream_buffer.c **** 	if( xStreamBufferSpacesAvailable( xStreamBuffer ) <= xBytesToStoreMessageLength )
 948:..\FreeRTOS\Source/stream_buffer.c **** 	{
 949:..\FreeRTOS\Source/stream_buffer.c **** 		xReturn = pdTRUE;
 950:..\FreeRTOS\Source/stream_buffer.c **** 	}
 951:..\FreeRTOS\Source/stream_buffer.c **** 	else
 952:..\FreeRTOS\Source/stream_buffer.c **** 	{
 953:..\FreeRTOS\Source/stream_buffer.c **** 		xReturn = pdFALSE;
 954:..\FreeRTOS\Source/stream_buffer.c **** 	}
 955:..\FreeRTOS\Source/stream_buffer.c **** 
 956:..\FreeRTOS\Source/stream_buffer.c **** 	return xReturn;
 957:..\FreeRTOS\Source/stream_buffer.c **** }
 958:..\FreeRTOS\Source/stream_buffer.c **** /*-----------------------------------------------------------*/
 959:..\FreeRTOS\Source/stream_buffer.c **** 
 960:..\FreeRTOS\Source/stream_buffer.c **** BaseType_t xStreamBufferSendCompletedFromISR( StreamBufferHandle_t xStreamBuffer, BaseType_t *pxHig
 961:..\FreeRTOS\Source/stream_buffer.c **** {
 962:..\FreeRTOS\Source/stream_buffer.c **** StreamBuffer_t * const pxStreamBuffer = ( StreamBuffer_t * ) xStreamBuffer; /*lint !e9087 !e9079 Sa
 963:..\FreeRTOS\Source/stream_buffer.c **** BaseType_t xReturn;
 964:..\FreeRTOS\Source/stream_buffer.c **** UBaseType_t uxSavedInterruptStatus;
 965:..\FreeRTOS\Source/stream_buffer.c **** 
 966:..\FreeRTOS\Source/stream_buffer.c **** 	configASSERT( pxStreamBuffer );
 967:..\FreeRTOS\Source/stream_buffer.c **** 
 968:..\FreeRTOS\Source/stream_buffer.c **** 	uxSavedInterruptStatus = ( UBaseType_t ) portSET_INTERRUPT_MASK_FROM_ISR();
 969:..\FreeRTOS\Source/stream_buffer.c **** 	{
 970:..\FreeRTOS\Source/stream_buffer.c **** 		if( ( pxStreamBuffer )->xTaskWaitingToReceive != NULL )
 971:..\FreeRTOS\Source/stream_buffer.c **** 		{
 972:..\FreeRTOS\Source/stream_buffer.c **** 			( void ) xTaskNotifyFromISR( ( pxStreamBuffer )->xTaskWaitingToReceive,
 973:..\FreeRTOS\Source/stream_buffer.c **** 										 ( uint32_t ) 0,
 974:..\FreeRTOS\Source/stream_buffer.c **** 										 eNoAction,
 975:..\FreeRTOS\Source/stream_buffer.c **** 										 pxHigherPriorityTaskWoken );
 976:..\FreeRTOS\Source/stream_buffer.c **** 			( pxStreamBuffer )->xTaskWaitingToReceive = NULL;
 977:..\FreeRTOS\Source/stream_buffer.c **** 			xReturn = pdTRUE;
 978:..\FreeRTOS\Source/stream_buffer.c **** 		}
 979:..\FreeRTOS\Source/stream_buffer.c **** 		else
 980:..\FreeRTOS\Source/stream_buffer.c **** 		{
 981:..\FreeRTOS\Source/stream_buffer.c **** 			xReturn = pdFALSE;
 982:..\FreeRTOS\Source/stream_buffer.c **** 		}
 983:..\FreeRTOS\Source/stream_buffer.c **** 	}
 984:..\FreeRTOS\Source/stream_buffer.c **** 	portCLEAR_INTERRUPT_MASK_FROM_ISR( uxSavedInterruptStatus );
 985:..\FreeRTOS\Source/stream_buffer.c **** 
 986:..\FreeRTOS\Source/stream_buffer.c **** 	return xReturn;
 987:..\FreeRTOS\Source/stream_buffer.c **** }
 988:..\FreeRTOS\Source/stream_buffer.c **** /*-----------------------------------------------------------*/
 989:..\FreeRTOS\Source/stream_buffer.c **** 
 990:..\FreeRTOS\Source/stream_buffer.c **** BaseType_t xStreamBufferReceiveCompletedFromISR( StreamBufferHandle_t xStreamBuffer, BaseType_t *px
 991:..\FreeRTOS\Source/stream_buffer.c **** {
 992:..\FreeRTOS\Source/stream_buffer.c **** StreamBuffer_t * const pxStreamBuffer = ( StreamBuffer_t * ) xStreamBuffer; /*lint !e9087 !e9079 Sa
 993:..\FreeRTOS\Source/stream_buffer.c **** BaseType_t xReturn;
 994:..\FreeRTOS\Source/stream_buffer.c **** UBaseType_t uxSavedInterruptStatus;
 995:..\FreeRTOS\Source/stream_buffer.c **** 
 996:..\FreeRTOS\Source/stream_buffer.c **** 	configASSERT( pxStreamBuffer );
 997:..\FreeRTOS\Source/stream_buffer.c **** 
 998:..\FreeRTOS\Source/stream_buffer.c **** 	uxSavedInterruptStatus = ( UBaseType_t ) portSET_INTERRUPT_MASK_FROM_ISR();
 999:..\FreeRTOS\Source/stream_buffer.c **** 	{
1000:..\FreeRTOS\Source/stream_buffer.c **** 		if( ( pxStreamBuffer )->xTaskWaitingToSend != NULL )
ARM GAS  C:\Users\samue\AppData\Local\Temp\cc6oSIFr.s 			page 19


1001:..\FreeRTOS\Source/stream_buffer.c **** 		{
1002:..\FreeRTOS\Source/stream_buffer.c **** 			( void ) xTaskNotifyFromISR( ( pxStreamBuffer )->xTaskWaitingToSend,
1003:..\FreeRTOS\Source/stream_buffer.c **** 										 ( uint32_t ) 0,
1004:..\FreeRTOS\Source/stream_buffer.c **** 										 eNoAction,
1005:..\FreeRTOS\Source/stream_buffer.c **** 										 pxHigherPriorityTaskWoken );
1006:..\FreeRTOS\Source/stream_buffer.c **** 			( pxStreamBuffer )->xTaskWaitingToSend = NULL;
1007:..\FreeRTOS\Source/stream_buffer.c **** 			xReturn = pdTRUE;
1008:..\FreeRTOS\Source/stream_buffer.c **** 		}
1009:..\FreeRTOS\Source/stream_buffer.c **** 		else
1010:..\FreeRTOS\Source/stream_buffer.c **** 		{
1011:..\FreeRTOS\Source/stream_buffer.c **** 			xReturn = pdFALSE;
1012:..\FreeRTOS\Source/stream_buffer.c **** 		}
1013:..\FreeRTOS\Source/stream_buffer.c **** 	}
1014:..\FreeRTOS\Source/stream_buffer.c **** 	portCLEAR_INTERRUPT_MASK_FROM_ISR( uxSavedInterruptStatus );
1015:..\FreeRTOS\Source/stream_buffer.c **** 
1016:..\FreeRTOS\Source/stream_buffer.c **** 	return xReturn;
1017:..\FreeRTOS\Source/stream_buffer.c **** }
1018:..\FreeRTOS\Source/stream_buffer.c **** /*-----------------------------------------------------------*/
1019:..\FreeRTOS\Source/stream_buffer.c **** 
1020:..\FreeRTOS\Source/stream_buffer.c **** static size_t prvWriteBytesToBuffer( StreamBuffer_t * const pxStreamBuffer, const uint8_t *pucData,
1021:..\FreeRTOS\Source/stream_buffer.c **** {
1022:..\FreeRTOS\Source/stream_buffer.c **** size_t xNextHead, xFirstLength;
1023:..\FreeRTOS\Source/stream_buffer.c **** 
1024:..\FreeRTOS\Source/stream_buffer.c **** 	configASSERT( xCount > ( size_t ) 0 );
1025:..\FreeRTOS\Source/stream_buffer.c **** 
1026:..\FreeRTOS\Source/stream_buffer.c **** 	xNextHead = pxStreamBuffer->xHead;
1027:..\FreeRTOS\Source/stream_buffer.c **** 
1028:..\FreeRTOS\Source/stream_buffer.c **** 	/* Calculate the number of bytes that can be added in the first write -
1029:..\FreeRTOS\Source/stream_buffer.c **** 	which may be less than the total number of bytes that need to be added if
1030:..\FreeRTOS\Source/stream_buffer.c **** 	the buffer will wrap back to the beginning. */
1031:..\FreeRTOS\Source/stream_buffer.c **** 	xFirstLength = configMIN( pxStreamBuffer->xLength - xNextHead, xCount );
1032:..\FreeRTOS\Source/stream_buffer.c **** 
1033:..\FreeRTOS\Source/stream_buffer.c **** 	/* Write as many bytes as can be written in the first write. */
1034:..\FreeRTOS\Source/stream_buffer.c **** 	configASSERT( ( xNextHead + xFirstLength ) <= pxStreamBuffer->xLength );
1035:..\FreeRTOS\Source/stream_buffer.c **** 	memcpy( ( void* ) ( &( pxStreamBuffer->pucBuffer[ xNextHead ] ) ), ( const void * ) pucData, xFirs
1036:..\FreeRTOS\Source/stream_buffer.c **** 
1037:..\FreeRTOS\Source/stream_buffer.c **** 	/* If the number of bytes written was less than the number that could be
1038:..\FreeRTOS\Source/stream_buffer.c **** 	written in the first write... */
1039:..\FreeRTOS\Source/stream_buffer.c **** 	if( xCount > xFirstLength )
1040:..\FreeRTOS\Source/stream_buffer.c **** 	{
1041:..\FreeRTOS\Source/stream_buffer.c **** 		/* ...then write the remaining bytes to the start of the buffer. */
1042:..\FreeRTOS\Source/stream_buffer.c **** 		configASSERT( ( xCount - xFirstLength ) <= pxStreamBuffer->xLength );
1043:..\FreeRTOS\Source/stream_buffer.c **** 		memcpy( ( void * ) pxStreamBuffer->pucBuffer, ( const void * ) &( pucData[ xFirstLength ] ), xCou
1044:..\FreeRTOS\Source/stream_buffer.c **** 	}
1045:..\FreeRTOS\Source/stream_buffer.c **** 	else
1046:..\FreeRTOS\Source/stream_buffer.c **** 	{
1047:..\FreeRTOS\Source/stream_buffer.c **** 		mtCOVERAGE_TEST_MARKER();
1048:..\FreeRTOS\Source/stream_buffer.c **** 	}
1049:..\FreeRTOS\Source/stream_buffer.c **** 
1050:..\FreeRTOS\Source/stream_buffer.c **** 	xNextHead += xCount;
1051:..\FreeRTOS\Source/stream_buffer.c **** 	if( xNextHead >= pxStreamBuffer->xLength )
1052:..\FreeRTOS\Source/stream_buffer.c **** 	{
1053:..\FreeRTOS\Source/stream_buffer.c **** 		xNextHead -= pxStreamBuffer->xLength;
1054:..\FreeRTOS\Source/stream_buffer.c **** 	}
1055:..\FreeRTOS\Source/stream_buffer.c **** 	else
1056:..\FreeRTOS\Source/stream_buffer.c **** 	{
1057:..\FreeRTOS\Source/stream_buffer.c **** 		mtCOVERAGE_TEST_MARKER();
ARM GAS  C:\Users\samue\AppData\Local\Temp\cc6oSIFr.s 			page 20


1058:..\FreeRTOS\Source/stream_buffer.c **** 	}
1059:..\FreeRTOS\Source/stream_buffer.c **** 
1060:..\FreeRTOS\Source/stream_buffer.c **** 	pxStreamBuffer->xHead = xNextHead;
1061:..\FreeRTOS\Source/stream_buffer.c **** 
1062:..\FreeRTOS\Source/stream_buffer.c **** 	return xCount;
1063:..\FreeRTOS\Source/stream_buffer.c **** }
1064:..\FreeRTOS\Source/stream_buffer.c **** /*-----------------------------------------------------------*/
1065:..\FreeRTOS\Source/stream_buffer.c **** 
1066:..\FreeRTOS\Source/stream_buffer.c **** static size_t prvReadBytesFromBuffer( StreamBuffer_t *pxStreamBuffer, uint8_t *pucData, size_t xMax
1067:..\FreeRTOS\Source/stream_buffer.c **** {
1068:..\FreeRTOS\Source/stream_buffer.c **** size_t xCount, xFirstLength, xNextTail;
1069:..\FreeRTOS\Source/stream_buffer.c **** 
1070:..\FreeRTOS\Source/stream_buffer.c **** 	/* Use the minimum of the wanted bytes and the available bytes. */
1071:..\FreeRTOS\Source/stream_buffer.c **** 	xCount = configMIN( xBytesAvailable, xMaxCount );
1072:..\FreeRTOS\Source/stream_buffer.c **** 
1073:..\FreeRTOS\Source/stream_buffer.c **** 	if( xCount > ( size_t ) 0 )
1074:..\FreeRTOS\Source/stream_buffer.c **** 	{
1075:..\FreeRTOS\Source/stream_buffer.c **** 		xNextTail = pxStreamBuffer->xTail;
1076:..\FreeRTOS\Source/stream_buffer.c **** 
1077:..\FreeRTOS\Source/stream_buffer.c **** 		/* Calculate the number of bytes that can be read - which may be
1078:..\FreeRTOS\Source/stream_buffer.c **** 		less than the number wanted if the data wraps around to the start of
1079:..\FreeRTOS\Source/stream_buffer.c **** 		the buffer. */
1080:..\FreeRTOS\Source/stream_buffer.c **** 		xFirstLength = configMIN( pxStreamBuffer->xLength - xNextTail, xCount );
1081:..\FreeRTOS\Source/stream_buffer.c **** 
1082:..\FreeRTOS\Source/stream_buffer.c **** 		/* Obtain the number of bytes it is possible to obtain in the first
1083:..\FreeRTOS\Source/stream_buffer.c **** 		read.  Asserts check bounds of read and write. */
1084:..\FreeRTOS\Source/stream_buffer.c **** 		configASSERT( xFirstLength <= xMaxCount );
1085:..\FreeRTOS\Source/stream_buffer.c **** 		configASSERT( ( xNextTail + xFirstLength ) <= pxStreamBuffer->xLength );
1086:..\FreeRTOS\Source/stream_buffer.c **** 		memcpy( ( void * ) pucData, ( const void * ) &( pxStreamBuffer->pucBuffer[ xNextTail ] ), xFirstL
1087:..\FreeRTOS\Source/stream_buffer.c **** 
1088:..\FreeRTOS\Source/stream_buffer.c **** 		/* If the total number of wanted bytes is greater than the number
1089:..\FreeRTOS\Source/stream_buffer.c **** 		that could be read in the first read... */
1090:..\FreeRTOS\Source/stream_buffer.c **** 		if( xCount > xFirstLength )
1091:..\FreeRTOS\Source/stream_buffer.c **** 		{
1092:..\FreeRTOS\Source/stream_buffer.c **** 			/*...then read the remaining bytes from the start of the buffer. */
1093:..\FreeRTOS\Source/stream_buffer.c **** 			configASSERT( xCount <= xMaxCount );
1094:..\FreeRTOS\Source/stream_buffer.c **** 			memcpy( ( void * ) &( pucData[ xFirstLength ] ), ( void * ) ( pxStreamBuffer->pucBuffer ), xCoun
1095:..\FreeRTOS\Source/stream_buffer.c **** 		}
1096:..\FreeRTOS\Source/stream_buffer.c **** 		else
1097:..\FreeRTOS\Source/stream_buffer.c **** 		{
1098:..\FreeRTOS\Source/stream_buffer.c **** 			mtCOVERAGE_TEST_MARKER();
1099:..\FreeRTOS\Source/stream_buffer.c **** 		}
1100:..\FreeRTOS\Source/stream_buffer.c **** 
1101:..\FreeRTOS\Source/stream_buffer.c **** 		/* Move the tail pointer to effectively remove the data read from
1102:..\FreeRTOS\Source/stream_buffer.c **** 		the buffer. */
1103:..\FreeRTOS\Source/stream_buffer.c **** 		xNextTail += xCount;
1104:..\FreeRTOS\Source/stream_buffer.c **** 
1105:..\FreeRTOS\Source/stream_buffer.c **** 		if( xNextTail >= pxStreamBuffer->xLength )
1106:..\FreeRTOS\Source/stream_buffer.c **** 		{
1107:..\FreeRTOS\Source/stream_buffer.c **** 			xNextTail -= pxStreamBuffer->xLength;
1108:..\FreeRTOS\Source/stream_buffer.c **** 		}
1109:..\FreeRTOS\Source/stream_buffer.c **** 
1110:..\FreeRTOS\Source/stream_buffer.c **** 		pxStreamBuffer->xTail = xNextTail;
1111:..\FreeRTOS\Source/stream_buffer.c **** 	}
1112:..\FreeRTOS\Source/stream_buffer.c **** 	else
1113:..\FreeRTOS\Source/stream_buffer.c **** 	{
1114:..\FreeRTOS\Source/stream_buffer.c **** 		mtCOVERAGE_TEST_MARKER();
ARM GAS  C:\Users\samue\AppData\Local\Temp\cc6oSIFr.s 			page 21


1115:..\FreeRTOS\Source/stream_buffer.c **** 	}
1116:..\FreeRTOS\Source/stream_buffer.c **** 
1117:..\FreeRTOS\Source/stream_buffer.c **** 	return xCount;
1118:..\FreeRTOS\Source/stream_buffer.c **** }
1119:..\FreeRTOS\Source/stream_buffer.c **** /*-----------------------------------------------------------*/
1120:..\FreeRTOS\Source/stream_buffer.c **** 
1121:..\FreeRTOS\Source/stream_buffer.c **** static size_t prvBytesInBuffer( const StreamBuffer_t * const pxStreamBuffer )
1122:..\FreeRTOS\Source/stream_buffer.c **** {
  27              		.loc 1 1122 0
  28              		.cfi_startproc
  29              		@ args = 0, pretend = 0, frame = 0
  30              		@ frame_needed = 0, uses_anonymous_args = 0
  31              		@ link register save eliminated.
  32              	.LVL0:
1123:..\FreeRTOS\Source/stream_buffer.c **** /* Returns the distance between xTail and xHead. */
1124:..\FreeRTOS\Source/stream_buffer.c **** size_t xCount;
1125:..\FreeRTOS\Source/stream_buffer.c **** 
1126:..\FreeRTOS\Source/stream_buffer.c **** 	xCount = pxStreamBuffer->xLength + pxStreamBuffer->xHead;
  33              		.loc 1 1126 0
  34 0000 8268     		ldr	r2, [r0, #8]
  35 0002 4368     		ldr	r3, [r0, #4]
  36 0004 1344     		add	r3, r3, r2
  37              	.LVL1:
1127:..\FreeRTOS\Source/stream_buffer.c **** 	xCount -= pxStreamBuffer->xTail;
  38              		.loc 1 1127 0
  39 0006 0068     		ldr	r0, [r0]
  40              	.LVL2:
  41 0008 181A     		subs	r0, r3, r0
  42              	.LVL3:
1128:..\FreeRTOS\Source/stream_buffer.c **** 	if ( xCount >= pxStreamBuffer->xLength )
  43              		.loc 1 1128 0
  44 000a 8242     		cmp	r2, r0
  45 000c 00D8     		bhi	.L2
1129:..\FreeRTOS\Source/stream_buffer.c **** 	{
1130:..\FreeRTOS\Source/stream_buffer.c **** 		xCount -= pxStreamBuffer->xLength;
  46              		.loc 1 1130 0
  47 000e 801A     		subs	r0, r0, r2
  48              	.LVL4:
  49              	.L2:
1131:..\FreeRTOS\Source/stream_buffer.c **** 	}
1132:..\FreeRTOS\Source/stream_buffer.c **** 	else
1133:..\FreeRTOS\Source/stream_buffer.c **** 	{
1134:..\FreeRTOS\Source/stream_buffer.c **** 		mtCOVERAGE_TEST_MARKER();
1135:..\FreeRTOS\Source/stream_buffer.c **** 	}
1136:..\FreeRTOS\Source/stream_buffer.c **** 
1137:..\FreeRTOS\Source/stream_buffer.c **** 	return xCount;
1138:..\FreeRTOS\Source/stream_buffer.c **** }
  50              		.loc 1 1138 0
  51 0010 7047     		bx	lr
  52              		.cfi_endproc
  53              	.LFE86:
  54              		.size	prvBytesInBuffer, .-prvBytesInBuffer
  55 0012 00BF     		.section	.text.prvInitialiseNewStreamBuffer,"ax",%progbits
  56              		.align	2
  57              		.thumb
  58              		.thumb_func
  59              		.type	prvInitialiseNewStreamBuffer, %function
ARM GAS  C:\Users\samue\AppData\Local\Temp\cc6oSIFr.s 			page 22


  60              	prvInitialiseNewStreamBuffer:
  61              	.LFB87:
1139:..\FreeRTOS\Source/stream_buffer.c **** /*-----------------------------------------------------------*/
1140:..\FreeRTOS\Source/stream_buffer.c **** 
1141:..\FreeRTOS\Source/stream_buffer.c **** static void prvInitialiseNewStreamBuffer( StreamBuffer_t * const pxStreamBuffer,
1142:..\FreeRTOS\Source/stream_buffer.c **** 										  uint8_t * const pucBuffer,
1143:..\FreeRTOS\Source/stream_buffer.c **** 										  size_t xBufferSizeBytes,
1144:..\FreeRTOS\Source/stream_buffer.c **** 										  size_t xTriggerLevelBytes,
1145:..\FreeRTOS\Source/stream_buffer.c **** 										  BaseType_t xIsMessageBuffer )
1146:..\FreeRTOS\Source/stream_buffer.c **** {
  62              		.loc 1 1146 0
  63              		.cfi_startproc
  64              		@ args = 4, pretend = 0, frame = 0
  65              		@ frame_needed = 0, uses_anonymous_args = 0
  66              	.LVL5:
  67 0000 F8B5     		push	{r3, r4, r5, r6, r7, lr}
  68              		.cfi_def_cfa_offset 24
  69              		.cfi_offset 3, -24
  70              		.cfi_offset 4, -20
  71              		.cfi_offset 5, -16
  72              		.cfi_offset 6, -12
  73              		.cfi_offset 7, -8
  74              		.cfi_offset 14, -4
  75 0002 0446     		mov	r4, r0
  76 0004 0D46     		mov	r5, r1
  77 0006 1746     		mov	r7, r2
  78 0008 1E46     		mov	r6, r3
1147:..\FreeRTOS\Source/stream_buffer.c **** 	/* Assert here is deliberately writing to the entire buffer to ensure it can
1148:..\FreeRTOS\Source/stream_buffer.c **** 	be written to without generating exceptions, and is setting the buffer to a
1149:..\FreeRTOS\Source/stream_buffer.c **** 	known value to assist in development/debugging. */
1150:..\FreeRTOS\Source/stream_buffer.c **** 	#if( configASSERT_DEFINED == 1 )
1151:..\FreeRTOS\Source/stream_buffer.c **** 	{
1152:..\FreeRTOS\Source/stream_buffer.c **** 		/* The value written just has to be identifiable when looking at the
1153:..\FreeRTOS\Source/stream_buffer.c **** 		memory.  Don't use 0xA5 as that is the stack fill value and could
1154:..\FreeRTOS\Source/stream_buffer.c **** 		result in confusion as to what is actually being observed. */
1155:..\FreeRTOS\Source/stream_buffer.c **** 		const BaseType_t xWriteValue = 0x55;
1156:..\FreeRTOS\Source/stream_buffer.c **** 		configASSERT( memset( pucBuffer, ( int ) xWriteValue, xBufferSizeBytes ) == pucBuffer );
1157:..\FreeRTOS\Source/stream_buffer.c **** 	}
1158:..\FreeRTOS\Source/stream_buffer.c **** 	#endif
1159:..\FreeRTOS\Source/stream_buffer.c **** 
1160:..\FreeRTOS\Source/stream_buffer.c **** 	memset( ( void * ) pxStreamBuffer, 0x00, sizeof( StreamBuffer_t ) ); /*lint !e9087 memset() requir
  79              		.loc 1 1160 0
  80 000a 2422     		movs	r2, #36
  81              	.LVL6:
  82 000c 0021     		movs	r1, #0
  83              	.LVL7:
  84 000e FFF7FEFF 		bl	memset
  85              	.LVL8:
1161:..\FreeRTOS\Source/stream_buffer.c **** 	pxStreamBuffer->pucBuffer = pucBuffer;
  86              		.loc 1 1161 0
  87 0012 A561     		str	r5, [r4, #24]
1162:..\FreeRTOS\Source/stream_buffer.c **** 	pxStreamBuffer->xLength = xBufferSizeBytes;
  88              		.loc 1 1162 0
  89 0014 A760     		str	r7, [r4, #8]
1163:..\FreeRTOS\Source/stream_buffer.c **** 	pxStreamBuffer->xTriggerLevelBytes = xTriggerLevelBytes;
  90              		.loc 1 1163 0
  91 0016 E660     		str	r6, [r4, #12]
ARM GAS  C:\Users\samue\AppData\Local\Temp\cc6oSIFr.s 			page 23


1164:..\FreeRTOS\Source/stream_buffer.c **** 
1165:..\FreeRTOS\Source/stream_buffer.c **** 	if( xIsMessageBuffer != pdFALSE )
  92              		.loc 1 1165 0
  93 0018 069B     		ldr	r3, [sp, #24]
  94 001a 1BB1     		cbz	r3, .L3
1166:..\FreeRTOS\Source/stream_buffer.c **** 	{
1167:..\FreeRTOS\Source/stream_buffer.c **** 		pxStreamBuffer->ucFlags |= sbFLAGS_IS_MESSAGE_BUFFER;
  95              		.loc 1 1167 0
  96 001c 237F     		ldrb	r3, [r4, #28]	@ zero_extendqisi2
  97 001e 43F00103 		orr	r3, r3, #1
  98 0022 2377     		strb	r3, [r4, #28]
  99              	.L3:
 100 0024 F8BD     		pop	{r3, r4, r5, r6, r7, pc}
 101              		.cfi_endproc
 102              	.LFE87:
 103              		.size	prvInitialiseNewStreamBuffer, .-prvInitialiseNewStreamBuffer
 104 0026 00BF     		.section	.text.prvWriteBytesToBuffer,"ax",%progbits
 105              		.align	2
 106              		.thumb
 107              		.thumb_func
 108              		.type	prvWriteBytesToBuffer, %function
 109              	prvWriteBytesToBuffer:
 110              	.LFB84:
1021:..\FreeRTOS\Source/stream_buffer.c **** size_t xNextHead, xFirstLength;
 111              		.loc 1 1021 0
 112              		.cfi_startproc
 113              		@ args = 0, pretend = 0, frame = 0
 114              		@ frame_needed = 0, uses_anonymous_args = 0
 115              	.LVL9:
 116 0000 2DE9F041 		push	{r4, r5, r6, r7, r8, lr}
 117              		.cfi_def_cfa_offset 24
 118              		.cfi_offset 4, -24
 119              		.cfi_offset 5, -20
 120              		.cfi_offset 6, -16
 121              		.cfi_offset 7, -12
 122              		.cfi_offset 8, -8
 123              		.cfi_offset 14, -4
 124 0004 0646     		mov	r6, r0
 125 0006 8846     		mov	r8, r1
 126 0008 1746     		mov	r7, r2
1026:..\FreeRTOS\Source/stream_buffer.c **** 
 127              		.loc 1 1026 0
 128 000a 4468     		ldr	r4, [r0, #4]
 129              	.LVL10:
1031:..\FreeRTOS\Source/stream_buffer.c **** 
 130              		.loc 1 1031 0
 131 000c 8568     		ldr	r5, [r0, #8]
 132 000e 2D1B     		subs	r5, r5, r4
 133 0010 9542     		cmp	r5, r2
 134 0012 28BF     		it	cs
 135 0014 1546     		movcs	r5, r2
 136              	.LVL11:
1035:..\FreeRTOS\Source/stream_buffer.c **** 
 137              		.loc 1 1035 0
 138 0016 8069     		ldr	r0, [r0, #24]
 139              	.LVL12:
 140 0018 2A46     		mov	r2, r5
ARM GAS  C:\Users\samue\AppData\Local\Temp\cc6oSIFr.s 			page 24


 141              	.LVL13:
 142 001a 2044     		add	r0, r0, r4
 143 001c FFF7FEFF 		bl	memcpy
 144              	.LVL14:
1039:..\FreeRTOS\Source/stream_buffer.c **** 	{
 145              		.loc 1 1039 0
 146 0020 AF42     		cmp	r7, r5
 147 0022 05D9     		bls	.L7
1043:..\FreeRTOS\Source/stream_buffer.c **** 	}
 148              		.loc 1 1043 0
 149 0024 7A1B     		subs	r2, r7, r5
 150 0026 08EB0501 		add	r1, r8, r5
 151 002a B069     		ldr	r0, [r6, #24]
 152 002c FFF7FEFF 		bl	memcpy
 153              	.LVL15:
 154              	.L7:
1050:..\FreeRTOS\Source/stream_buffer.c **** 	if( xNextHead >= pxStreamBuffer->xLength )
 155              		.loc 1 1050 0
 156 0030 E319     		adds	r3, r4, r7
 157              	.LVL16:
1051:..\FreeRTOS\Source/stream_buffer.c **** 	{
 158              		.loc 1 1051 0
 159 0032 B268     		ldr	r2, [r6, #8]
 160 0034 9342     		cmp	r3, r2
 161 0036 00D3     		bcc	.L8
1053:..\FreeRTOS\Source/stream_buffer.c **** 	}
 162              		.loc 1 1053 0
 163 0038 9B1A     		subs	r3, r3, r2
 164              	.LVL17:
 165              	.L8:
1060:..\FreeRTOS\Source/stream_buffer.c **** 
 166              		.loc 1 1060 0
 167 003a 7360     		str	r3, [r6, #4]
1063:..\FreeRTOS\Source/stream_buffer.c **** /*-----------------------------------------------------------*/
 168              		.loc 1 1063 0
 169 003c 3846     		mov	r0, r7
 170 003e BDE8F081 		pop	{r4, r5, r6, r7, r8, pc}
 171              		.cfi_endproc
 172              	.LFE84:
 173              		.size	prvWriteBytesToBuffer, .-prvWriteBytesToBuffer
 174 0042 00BF     		.section	.text.prvWriteMessageToBuffer,"ax",%progbits
 175              		.align	2
 176              		.thumb
 177              		.thumb_func
 178              		.type	prvWriteMessageToBuffer, %function
 179              	prvWriteMessageToBuffer:
 180              	.LFB76:
 644:..\FreeRTOS\Source/stream_buffer.c **** 	BaseType_t xShouldWrite;
 181              		.loc 1 644 0
 182              		.cfi_startproc
 183              		@ args = 4, pretend = 0, frame = 8
 184              		@ frame_needed = 0, uses_anonymous_args = 0
 185              	.LVL18:
 186 0000 30B5     		push	{r4, r5, lr}
 187              		.cfi_def_cfa_offset 12
 188              		.cfi_offset 4, -12
 189              		.cfi_offset 5, -8
ARM GAS  C:\Users\samue\AppData\Local\Temp\cc6oSIFr.s 			page 25


 190              		.cfi_offset 14, -4
 191 0002 83B0     		sub	sp, sp, #12
 192              		.cfi_def_cfa_offset 24
 193 0004 0446     		mov	r4, r0
 194 0006 0D46     		mov	r5, r1
 195 0008 0192     		str	r2, [sp, #4]
 648:..\FreeRTOS\Source/stream_buffer.c **** 	{
 196              		.loc 1 648 0
 197 000a ABB1     		cbz	r3, .L14
 198 000c 1A46     		mov	r2, r3
 199              	.LVL19:
 654:..\FreeRTOS\Source/stream_buffer.c **** 	{
 200              		.loc 1 654 0
 201 000e 037F     		ldrb	r3, [r0, #28]	@ zero_extendqisi2
 202              	.LVL20:
 203 0010 13F0010F 		tst	r3, #1
 204 0014 06D1     		bne	.L12
 205              	.LVL21:
 660:..\FreeRTOS\Source/stream_buffer.c **** 	}
 206              		.loc 1 660 0
 207 0016 019B     		ldr	r3, [sp, #4]
 208 0018 9A42     		cmp	r2, r3
 209 001a 28BF     		it	cs
 210 001c 1A46     		movcs	r2, r3
 211              	.LVL22:
 212 001e 0192     		str	r2, [sp, #4]
 213              	.LVL23:
 659:..\FreeRTOS\Source/stream_buffer.c **** 		xDataLengthBytes = configMIN( xDataLengthBytes, xSpace ); /*lint !e9044 Function parameter modifi
 214              		.loc 1 659 0
 215 0020 0123     		movs	r3, #1
 216              	.LVL24:
 217 0022 0CE0     		b	.L11
 218              	.LVL25:
 219              	.L12:
 662:..\FreeRTOS\Source/stream_buffer.c **** 	{
 220              		.loc 1 662 0
 221 0024 069B     		ldr	r3, [sp, #24]
 222 0026 9A42     		cmp	r2, r3
 223 0028 08D3     		bcc	.L15
 224              	.LVL26:
 669:..\FreeRTOS\Source/stream_buffer.c **** 	}
 225              		.loc 1 669 0
 226 002a 0422     		movs	r2, #4
 227              	.LVL27:
 228 002c 0DEB0201 		add	r1, sp, r2
 229              	.LVL28:
 230 0030 FFF7FEFF 		bl	prvWriteBytesToBuffer
 231              	.LVL29:
 668:..\FreeRTOS\Source/stream_buffer.c **** 		( void ) prvWriteBytesToBuffer( pxStreamBuffer, ( const uint8_t * ) &( xDataLengthBytes ), sbBYTE
 232              		.loc 1 668 0
 233 0034 0123     		movs	r3, #1
 234 0036 02E0     		b	.L11
 235              	.LVL30:
 236              	.L14:
 652:..\FreeRTOS\Source/stream_buffer.c **** 	}
 237              		.loc 1 652 0
 238 0038 0023     		movs	r3, #0
ARM GAS  C:\Users\samue\AppData\Local\Temp\cc6oSIFr.s 			page 26


 239              	.LVL31:
 240 003a 00E0     		b	.L11
 241              	.LVL32:
 242              	.L15:
 674:..\FreeRTOS\Source/stream_buffer.c **** 	}
 243              		.loc 1 674 0
 244 003c 0023     		movs	r3, #0
 245              	.LVL33:
 246              	.L11:
 677:..\FreeRTOS\Source/stream_buffer.c **** 	{
 247              		.loc 1 677 0
 248 003e 2BB1     		cbz	r3, .L16
 680:..\FreeRTOS\Source/stream_buffer.c **** 	}
 249              		.loc 1 680 0
 250 0040 019A     		ldr	r2, [sp, #4]
 251 0042 2946     		mov	r1, r5
 252 0044 2046     		mov	r0, r4
 253 0046 FFF7FEFF 		bl	prvWriteBytesToBuffer
 254              	.LVL34:
 255 004a 00E0     		b	.L13
 256              	.LVL35:
 257              	.L16:
 684:..\FreeRTOS\Source/stream_buffer.c **** 	}
 258              		.loc 1 684 0
 259 004c 0020     		movs	r0, #0
 260              	.LVL36:
 261              	.L13:
 688:..\FreeRTOS\Source/stream_buffer.c **** /*-----------------------------------------------------------*/
 262              		.loc 1 688 0
 263 004e 03B0     		add	sp, sp, #12
 264              		.cfi_def_cfa_offset 12
 265              		@ sp needed
 266 0050 30BD     		pop	{r4, r5, pc}
 267              		.cfi_endproc
 268              	.LFE76:
 269              		.size	prvWriteMessageToBuffer, .-prvWriteMessageToBuffer
 270 0052 00BF     		.section	.text.prvReadBytesFromBuffer,"ax",%progbits
 271              		.align	2
 272              		.thumb
 273              		.thumb_func
 274              		.type	prvReadBytesFromBuffer, %function
 275              	prvReadBytesFromBuffer:
 276              	.LFB85:
1067:..\FreeRTOS\Source/stream_buffer.c **** size_t xCount, xFirstLength, xNextTail;
 277              		.loc 1 1067 0
 278              		.cfi_startproc
 279              		@ args = 0, pretend = 0, frame = 0
 280              		@ frame_needed = 0, uses_anonymous_args = 0
 281              	.LVL37:
 282 0000 2DE9F041 		push	{r4, r5, r6, r7, r8, lr}
 283              		.cfi_def_cfa_offset 24
 284              		.cfi_offset 4, -24
 285              		.cfi_offset 5, -20
 286              		.cfi_offset 6, -16
 287              		.cfi_offset 7, -12
 288              		.cfi_offset 8, -8
 289              		.cfi_offset 14, -4
ARM GAS  C:\Users\samue\AppData\Local\Temp\cc6oSIFr.s 			page 27


1071:..\FreeRTOS\Source/stream_buffer.c **** 
 290              		.loc 1 1071 0
 291 0004 9A42     		cmp	r2, r3
 292 0006 28BF     		it	cs
 293 0008 1A46     		movcs	r2, r3
 294              	.LVL38:
 295 000a 1446     		mov	r4, r2
 296              	.LVL39:
1073:..\FreeRTOS\Source/stream_buffer.c **** 	{
 297              		.loc 1 1073 0
 298 000c DAB1     		cbz	r2, .L19
 299 000e 8846     		mov	r8, r1
 300 0010 0546     		mov	r5, r0
1075:..\FreeRTOS\Source/stream_buffer.c **** 
 301              		.loc 1 1075 0
 302 0012 0668     		ldr	r6, [r0]
 303              	.LVL40:
1080:..\FreeRTOS\Source/stream_buffer.c **** 
 304              		.loc 1 1080 0
 305 0014 8768     		ldr	r7, [r0, #8]
 306 0016 BF1B     		subs	r7, r7, r6
 307 0018 9742     		cmp	r7, r2
 308 001a 28BF     		it	cs
 309 001c 1746     		movcs	r7, r2
 310              	.LVL41:
1086:..\FreeRTOS\Source/stream_buffer.c **** 
 311              		.loc 1 1086 0
 312 001e 8169     		ldr	r1, [r0, #24]
 313              	.LVL42:
 314 0020 3A46     		mov	r2, r7
 315              	.LVL43:
 316 0022 3144     		add	r1, r1, r6
 317 0024 4046     		mov	r0, r8
 318              	.LVL44:
 319 0026 FFF7FEFF 		bl	memcpy
 320              	.LVL45:
1090:..\FreeRTOS\Source/stream_buffer.c **** 		{
 321              		.loc 1 1090 0
 322 002a BC42     		cmp	r4, r7
 323 002c 05D9     		bls	.L20
1094:..\FreeRTOS\Source/stream_buffer.c **** 		}
 324              		.loc 1 1094 0
 325 002e E21B     		subs	r2, r4, r7
 326 0030 A969     		ldr	r1, [r5, #24]
 327 0032 08EB0700 		add	r0, r8, r7
 328 0036 FFF7FEFF 		bl	memcpy
 329              	.LVL46:
 330              	.L20:
1103:..\FreeRTOS\Source/stream_buffer.c **** 
 331              		.loc 1 1103 0
 332 003a 2644     		add	r6, r6, r4
 333              	.LVL47:
1105:..\FreeRTOS\Source/stream_buffer.c **** 		{
 334              		.loc 1 1105 0
 335 003c AB68     		ldr	r3, [r5, #8]
 336 003e 9E42     		cmp	r6, r3
 337 0040 00D3     		bcc	.L21
ARM GAS  C:\Users\samue\AppData\Local\Temp\cc6oSIFr.s 			page 28


1107:..\FreeRTOS\Source/stream_buffer.c **** 		}
 338              		.loc 1 1107 0
 339 0042 F61A     		subs	r6, r6, r3
 340              	.LVL48:
 341              	.L21:
1110:..\FreeRTOS\Source/stream_buffer.c **** 	}
 342              		.loc 1 1110 0
 343 0044 2E60     		str	r6, [r5]
 344              	.LVL49:
 345              	.L19:
1118:..\FreeRTOS\Source/stream_buffer.c **** /*-----------------------------------------------------------*/
 346              		.loc 1 1118 0
 347 0046 2046     		mov	r0, r4
 348 0048 BDE8F081 		pop	{r4, r5, r6, r7, r8, pc}
 349              		.cfi_endproc
 350              	.LFE85:
 351              		.size	prvReadBytesFromBuffer, .-prvReadBytesFromBuffer
 352              		.section	.text.prvReadMessageFromBuffer,"ax",%progbits
 353              		.align	2
 354              		.thumb
 355              		.thumb_func
 356              		.type	prvReadMessageFromBuffer, %function
 357              	prvReadMessageFromBuffer:
 358              	.LFB79:
 857:..\FreeRTOS\Source/stream_buffer.c **** size_t xOriginalTail, xReceivedLength, xNextMessageLength;
 359              		.loc 1 857 0
 360              		.cfi_startproc
 361              		@ args = 4, pretend = 0, frame = 8
 362              		@ frame_needed = 0, uses_anonymous_args = 0
 363              	.LVL50:
 364 0000 2DE9F043 		push	{r4, r5, r6, r7, r8, r9, lr}
 365              		.cfi_def_cfa_offset 28
 366              		.cfi_offset 4, -28
 367              		.cfi_offset 5, -24
 368              		.cfi_offset 6, -20
 369              		.cfi_offset 7, -16
 370              		.cfi_offset 8, -12
 371              		.cfi_offset 9, -8
 372              		.cfi_offset 14, -4
 373 0004 83B0     		sub	sp, sp, #12
 374              		.cfi_def_cfa_offset 40
 375 0006 0546     		mov	r5, r0
 376 0008 0F46     		mov	r7, r1
 377 000a 9046     		mov	r8, r2
 378 000c 1C46     		mov	r4, r3
 379 000e 0A9E     		ldr	r6, [sp, #40]
 860:..\FreeRTOS\Source/stream_buffer.c **** 	{
 380              		.loc 1 860 0
 381 0010 76B1     		cbz	r6, .L24
 866:..\FreeRTOS\Source/stream_buffer.c **** 		( void ) prvReadBytesFromBuffer( pxStreamBuffer, ( uint8_t * ) &xNextMessageLength, xBytesToStore
 382              		.loc 1 866 0
 383 0012 D0F80090 		ldr	r9, [r0]
 384              	.LVL51:
 867:..\FreeRTOS\Source/stream_buffer.c **** 
 385              		.loc 1 867 0
 386 0016 3246     		mov	r2, r6
 387              	.LVL52:
ARM GAS  C:\Users\samue\AppData\Local\Temp\cc6oSIFr.s 			page 29


 388 0018 01A9     		add	r1, sp, #4
 389              	.LVL53:
 390 001a FFF7FEFF 		bl	prvReadBytesFromBuffer
 391              	.LVL54:
 871:..\FreeRTOS\Source/stream_buffer.c **** 
 392              		.loc 1 871 0
 393 001e A41B     		subs	r4, r4, r6
 394              	.LVL55:
 875:..\FreeRTOS\Source/stream_buffer.c **** 		{
 395              		.loc 1 875 0
 396 0020 019B     		ldr	r3, [sp, #4]
 397 0022 4345     		cmp	r3, r8
 398 0024 05D9     		bls	.L25
 880:..\FreeRTOS\Source/stream_buffer.c **** 			xNextMessageLength = 0;
 399              		.loc 1 880 0
 400 0026 C5F80090 		str	r9, [r5]
 881:..\FreeRTOS\Source/stream_buffer.c **** 		}
 401              		.loc 1 881 0
 402 002a 0023     		movs	r3, #0
 403 002c 0193     		str	r3, [sp, #4]
 404 002e 00E0     		b	.L25
 405              	.LVL56:
 406              	.L24:
 892:..\FreeRTOS\Source/stream_buffer.c **** 	}
 407              		.loc 1 892 0
 408 0030 0192     		str	r2, [sp, #4]
 409              	.LVL57:
 410              	.L25:
 896:..\FreeRTOS\Source/stream_buffer.c **** 
 411              		.loc 1 896 0
 412 0032 2346     		mov	r3, r4
 413 0034 019A     		ldr	r2, [sp, #4]
 414 0036 3946     		mov	r1, r7
 415 0038 2846     		mov	r0, r5
 416 003a FFF7FEFF 		bl	prvReadBytesFromBuffer
 417              	.LVL58:
 899:..\FreeRTOS\Source/stream_buffer.c **** /*-----------------------------------------------------------*/
 418              		.loc 1 899 0
 419 003e 03B0     		add	sp, sp, #12
 420              		.cfi_def_cfa_offset 28
 421              		@ sp needed
 422 0040 BDE8F083 		pop	{r4, r5, r6, r7, r8, r9, pc}
 423              		.cfi_endproc
 424              	.LFE79:
 425              		.size	prvReadMessageFromBuffer, .-prvReadMessageFromBuffer
 426              		.section	.text.xStreamBufferGenericCreate,"ax",%progbits
 427              		.align	2
 428              		.global	xStreamBufferGenericCreate
 429              		.thumb
 430              		.thumb_func
 431              		.type	xStreamBufferGenericCreate, %function
 432              	xStreamBufferGenericCreate:
 433              	.LFB68:
 220:..\FreeRTOS\Source/stream_buffer.c **** 	uint8_t *pucAllocatedMemory;
 434              		.loc 1 220 0
 435              		.cfi_startproc
 436              		@ args = 0, pretend = 0, frame = 0
ARM GAS  C:\Users\samue\AppData\Local\Temp\cc6oSIFr.s 			page 30


 437              		@ frame_needed = 0, uses_anonymous_args = 0
 438              	.LVL59:
 439 0000 F0B5     		push	{r4, r5, r6, r7, lr}
 440              		.cfi_def_cfa_offset 20
 441              		.cfi_offset 4, -20
 442              		.cfi_offset 5, -16
 443              		.cfi_offset 6, -12
 444              		.cfi_offset 7, -8
 445              		.cfi_offset 14, -4
 446 0002 83B0     		sub	sp, sp, #12
 447              		.cfi_def_cfa_offset 32
 448 0004 1746     		mov	r7, r2
 232:..\FreeRTOS\Source/stream_buffer.c **** 		{
 449              		.loc 1 232 0
 450 0006 0D46     		mov	r5, r1
 451 0008 01B9     		cbnz	r1, .L28
 234:..\FreeRTOS\Source/stream_buffer.c **** 		}
 452              		.loc 1 234 0
 453 000a 0125     		movs	r5, #1
 454              	.L28:
 455              	.LVL60:
 245:..\FreeRTOS\Source/stream_buffer.c **** 		pucAllocatedMemory = ( uint8_t * ) pvPortMalloc( xBufferSizeBytes + sizeof( StreamBuffer_t ) ); /
 456              		.loc 1 245 0
 457 000c 461C     		adds	r6, r0, #1
 458              	.LVL61:
 246:..\FreeRTOS\Source/stream_buffer.c **** 
 459              		.loc 1 246 0
 460 000e 2530     		adds	r0, r0, #37
 461 0010 FFF7FEFF 		bl	pvPortMalloc
 462              	.LVL62:
 248:..\FreeRTOS\Source/stream_buffer.c **** 		{
 463              		.loc 1 248 0
 464 0014 0446     		mov	r4, r0
 465 0016 30B1     		cbz	r0, .L29
 250:..\FreeRTOS\Source/stream_buffer.c **** 										   pucAllocatedMemory + sizeof( StreamBuffer_t ),  /* Storage area follows. */ /*lint !e9
 466              		.loc 1 250 0
 467 0018 0097     		str	r7, [sp]
 468 001a 2B46     		mov	r3, r5
 469 001c 3246     		mov	r2, r6
 470 001e 00F12401 		add	r1, r0, #36
 471 0022 FFF7FEFF 		bl	prvInitialiseNewStreamBuffer
 472              	.LVL63:
 473              	.L29:
 264:..\FreeRTOS\Source/stream_buffer.c **** 
 474              		.loc 1 264 0
 475 0026 2046     		mov	r0, r4
 476 0028 03B0     		add	sp, sp, #12
 477              		.cfi_def_cfa_offset 20
 478              		@ sp needed
 479 002a F0BD     		pop	{r4, r5, r6, r7, pc}
 480              		.cfi_endproc
 481              	.LFE68:
 482              		.size	xStreamBufferGenericCreate, .-xStreamBufferGenericCreate
 483              		.section	.text.vStreamBufferDelete,"ax",%progbits
 484              		.align	2
 485              		.global	vStreamBufferDelete
 486              		.thumb
ARM GAS  C:\Users\samue\AppData\Local\Temp\cc6oSIFr.s 			page 31


 487              		.thumb_func
 488              		.type	vStreamBufferDelete, %function
 489              	vStreamBufferDelete:
 490              	.LFB69:
 336:..\FreeRTOS\Source/stream_buffer.c **** StreamBuffer_t * pxStreamBuffer = ( StreamBuffer_t * ) xStreamBuffer; /*lint !e9087 !e9079 Safe cas
 491              		.loc 1 336 0
 492              		.cfi_startproc
 493              		@ args = 0, pretend = 0, frame = 0
 494              		@ frame_needed = 0, uses_anonymous_args = 0
 495              	.LVL64:
 496 0000 08B5     		push	{r3, lr}
 497              		.cfi_def_cfa_offset 8
 498              		.cfi_offset 3, -8
 499              		.cfi_offset 14, -4
 500              	.LVL65:
 343:..\FreeRTOS\Source/stream_buffer.c **** 	{
 501              		.loc 1 343 0
 502 0002 037F     		ldrb	r3, [r0, #28]	@ zero_extendqisi2
 503 0004 13F0020F 		tst	r3, #2
 504 0008 02D1     		bne	.L33
 349:..\FreeRTOS\Source/stream_buffer.c **** 		}
 505              		.loc 1 349 0
 506 000a FFF7FEFF 		bl	vPortFree
 507              	.LVL66:
 508 000e 08BD     		pop	{r3, pc}
 509              	.LVL67:
 510              	.L33:
 363:..\FreeRTOS\Source/stream_buffer.c **** 	}
 511              		.loc 1 363 0
 512 0010 2422     		movs	r2, #36
 513 0012 0021     		movs	r1, #0
 514 0014 FFF7FEFF 		bl	memset
 515              	.LVL68:
 516 0018 08BD     		pop	{r3, pc}
 517              		.cfi_endproc
 518              	.LFE69:
 519              		.size	vStreamBufferDelete, .-vStreamBufferDelete
 520 001a 00BF     		.section	.text.xStreamBufferReset,"ax",%progbits
 521              		.align	2
 522              		.global	xStreamBufferReset
 523              		.thumb
 524              		.thumb_func
 525              		.type	xStreamBufferReset, %function
 526              	xStreamBufferReset:
 527              	.LFB70:
 369:..\FreeRTOS\Source/stream_buffer.c **** StreamBuffer_t * const pxStreamBuffer = ( StreamBuffer_t * ) xStreamBuffer; /*lint !e9087 !e9079 Sa
 528              		.loc 1 369 0
 529              		.cfi_startproc
 530              		@ args = 0, pretend = 0, frame = 0
 531              		@ frame_needed = 0, uses_anonymous_args = 0
 532              	.LVL69:
 533 0000 30B5     		push	{r4, r5, lr}
 534              		.cfi_def_cfa_offset 12
 535              		.cfi_offset 4, -12
 536              		.cfi_offset 5, -8
 537              		.cfi_offset 14, -4
 538 0002 83B0     		sub	sp, sp, #12
ARM GAS  C:\Users\samue\AppData\Local\Temp\cc6oSIFr.s 			page 32


 539              		.cfi_def_cfa_offset 24
 540              	.LVL70:
 383:..\FreeRTOS\Source/stream_buffer.c **** 	}
 541              		.loc 1 383 0
 542 0004 056A     		ldr	r5, [r0, #32]
 543              	.LVL71:
 388:..\FreeRTOS\Source/stream_buffer.c **** 	{
 544              		.loc 1 388 0
 545 0006 0369     		ldr	r3, [r0, #16]
 546 0008 93B9     		cbnz	r3, .L39
 390:..\FreeRTOS\Source/stream_buffer.c **** 		{
 547              		.loc 1 390 0
 548 000a 4369     		ldr	r3, [r0, #20]
 549 000c 93B9     		cbnz	r3, .L40
 392:..\FreeRTOS\Source/stream_buffer.c **** 			{
 550              		.loc 1 392 0
 551 000e 037F     		ldrb	r3, [r0, #28]	@ zero_extendqisi2
 552 0010 13F0010F 		tst	r3, #1
 553 0014 01D0     		beq	.L41
 394:..\FreeRTOS\Source/stream_buffer.c **** 			}
 554              		.loc 1 394 0
 555 0016 0123     		movs	r3, #1
 556 0018 00E0     		b	.L38
 557              	.L41:
 398:..\FreeRTOS\Source/stream_buffer.c **** 			}
 558              		.loc 1 398 0
 559 001a 0023     		movs	r3, #0
 560              	.L38:
 561 001c 0446     		mov	r4, r0
 562              	.LVL72:
 401:..\FreeRTOS\Source/stream_buffer.c **** 										  pxStreamBuffer->pucBuffer,
 563              		.loc 1 401 0
 564 001e 0093     		str	r3, [sp]
 565 0020 C368     		ldr	r3, [r0, #12]
 566              	.LVL73:
 567 0022 8268     		ldr	r2, [r0, #8]
 568 0024 8169     		ldr	r1, [r0, #24]
 569 0026 FFF7FEFF 		bl	prvInitialiseNewStreamBuffer
 570              	.LVL74:
 410:..\FreeRTOS\Source/stream_buffer.c **** 			}
 571              		.loc 1 410 0
 572 002a 2562     		str	r5, [r4, #32]
 406:..\FreeRTOS\Source/stream_buffer.c **** 
 573              		.loc 1 406 0
 574 002c 0120     		movs	r0, #1
 575 002e 02E0     		b	.L37
 576              	.LVL75:
 577              	.L39:
 371:..\FreeRTOS\Source/stream_buffer.c **** 
 578              		.loc 1 371 0
 579 0030 0020     		movs	r0, #0
 580              	.LVL76:
 581 0032 00E0     		b	.L37
 582              	.LVL77:
 583              	.L40:
 584 0034 0020     		movs	r0, #0
 585              	.LVL78:
ARM GAS  C:\Users\samue\AppData\Local\Temp\cc6oSIFr.s 			page 33


 586              	.L37:
 419:..\FreeRTOS\Source/stream_buffer.c **** /*-----------------------------------------------------------*/
 587              		.loc 1 419 0
 588 0036 03B0     		add	sp, sp, #12
 589              		.cfi_def_cfa_offset 12
 590              		@ sp needed
 591 0038 30BD     		pop	{r4, r5, pc}
 592              		.cfi_endproc
 593              	.LFE70:
 594              		.size	xStreamBufferReset, .-xStreamBufferReset
 595 003a 00BF     		.section	.text.xStreamBufferSetTriggerLevel,"ax",%progbits
 596              		.align	2
 597              		.global	xStreamBufferSetTriggerLevel
 598              		.thumb
 599              		.thumb_func
 600              		.type	xStreamBufferSetTriggerLevel, %function
 601              	xStreamBufferSetTriggerLevel:
 602              	.LFB71:
 423:..\FreeRTOS\Source/stream_buffer.c **** StreamBuffer_t * const pxStreamBuffer = ( StreamBuffer_t * ) xStreamBuffer; /*lint !e9087 !e9079 Sa
 603              		.loc 1 423 0
 604              		.cfi_startproc
 605              		@ args = 0, pretend = 0, frame = 0
 606              		@ frame_needed = 0, uses_anonymous_args = 0
 607              		@ link register save eliminated.
 608              	.LVL79:
 430:..\FreeRTOS\Source/stream_buffer.c **** 	{
 609              		.loc 1 430 0
 610 0000 0B46     		mov	r3, r1
 611 0002 01B9     		cbnz	r1, .L44
 432:..\FreeRTOS\Source/stream_buffer.c **** 	}
 612              		.loc 1 432 0
 613 0004 0123     		movs	r3, #1
 614              	.L44:
 615              	.LVL80:
 437:..\FreeRTOS\Source/stream_buffer.c **** 	{
 616              		.loc 1 437 0
 617 0006 8268     		ldr	r2, [r0, #8]
 618 0008 9342     		cmp	r3, r2
 619 000a 02D8     		bhi	.L47
 439:..\FreeRTOS\Source/stream_buffer.c **** 		xReturn = pdPASS;
 620              		.loc 1 439 0
 621 000c C360     		str	r3, [r0, #12]
 622              	.LVL81:
 440:..\FreeRTOS\Source/stream_buffer.c **** 	}
 623              		.loc 1 440 0
 624 000e 0120     		movs	r0, #1
 625              	.LVL82:
 626 0010 7047     		bx	lr
 627              	.LVL83:
 628              	.L47:
 444:..\FreeRTOS\Source/stream_buffer.c **** 	}
 629              		.loc 1 444 0
 630 0012 0020     		movs	r0, #0
 631              	.LVL84:
 448:..\FreeRTOS\Source/stream_buffer.c **** /*-----------------------------------------------------------*/
 632              		.loc 1 448 0
 633 0014 7047     		bx	lr
ARM GAS  C:\Users\samue\AppData\Local\Temp\cc6oSIFr.s 			page 34


 634              		.cfi_endproc
 635              	.LFE71:
 636              		.size	xStreamBufferSetTriggerLevel, .-xStreamBufferSetTriggerLevel
 637 0016 00BF     		.section	.text.xStreamBufferSpacesAvailable,"ax",%progbits
 638              		.align	2
 639              		.global	xStreamBufferSpacesAvailable
 640              		.thumb
 641              		.thumb_func
 642              		.type	xStreamBufferSpacesAvailable, %function
 643              	xStreamBufferSpacesAvailable:
 644              	.LFB72:
 452:..\FreeRTOS\Source/stream_buffer.c **** const StreamBuffer_t * const pxStreamBuffer = ( StreamBuffer_t * ) xStreamBuffer; /*lint !e9087 !e9
 645              		.loc 1 452 0
 646              		.cfi_startproc
 647              		@ args = 0, pretend = 0, frame = 0
 648              		@ frame_needed = 0, uses_anonymous_args = 0
 649              		@ link register save eliminated.
 650              	.LVL85:
 458:..\FreeRTOS\Source/stream_buffer.c **** 	xSpace -= pxStreamBuffer->xHead;
 651              		.loc 1 458 0
 652 0000 8268     		ldr	r2, [r0, #8]
 653 0002 0368     		ldr	r3, [r0]
 654 0004 1344     		add	r3, r3, r2
 655              	.LVL86:
 459:..\FreeRTOS\Source/stream_buffer.c **** 	xSpace -= ( size_t ) 1;
 656              		.loc 1 459 0
 657 0006 4068     		ldr	r0, [r0, #4]
 658              	.LVL87:
 659 0008 181A     		subs	r0, r3, r0
 660              	.LVL88:
 460:..\FreeRTOS\Source/stream_buffer.c **** 
 661              		.loc 1 460 0
 662 000a 0138     		subs	r0, r0, #1
 663              	.LVL89:
 462:..\FreeRTOS\Source/stream_buffer.c **** 	{
 664              		.loc 1 462 0
 665 000c 8242     		cmp	r2, r0
 666 000e 00D8     		bhi	.L49
 464:..\FreeRTOS\Source/stream_buffer.c **** 	}
 667              		.loc 1 464 0
 668 0010 801A     		subs	r0, r0, r2
 669              	.LVL90:
 670              	.L49:
 472:..\FreeRTOS\Source/stream_buffer.c **** /*-----------------------------------------------------------*/
 671              		.loc 1 472 0
 672 0012 7047     		bx	lr
 673              		.cfi_endproc
 674              	.LFE72:
 675              		.size	xStreamBufferSpacesAvailable, .-xStreamBufferSpacesAvailable
 676              		.section	.text.xStreamBufferBytesAvailable,"ax",%progbits
 677              		.align	2
 678              		.global	xStreamBufferBytesAvailable
 679              		.thumb
 680              		.thumb_func
 681              		.type	xStreamBufferBytesAvailable, %function
 682              	xStreamBufferBytesAvailable:
 683              	.LFB73:
ARM GAS  C:\Users\samue\AppData\Local\Temp\cc6oSIFr.s 			page 35


 476:..\FreeRTOS\Source/stream_buffer.c **** const StreamBuffer_t * const pxStreamBuffer = ( StreamBuffer_t * ) xStreamBuffer; /*lint !e9087 !e9
 684              		.loc 1 476 0
 685              		.cfi_startproc
 686              		@ args = 0, pretend = 0, frame = 0
 687              		@ frame_needed = 0, uses_anonymous_args = 0
 688              	.LVL91:
 689 0000 08B5     		push	{r3, lr}
 690              		.cfi_def_cfa_offset 8
 691              		.cfi_offset 3, -8
 692              		.cfi_offset 14, -4
 693              	.LVL92:
 482:..\FreeRTOS\Source/stream_buffer.c **** 	return xReturn;
 694              		.loc 1 482 0
 695 0002 FFF7FEFF 		bl	prvBytesInBuffer
 696              	.LVL93:
 484:..\FreeRTOS\Source/stream_buffer.c **** /*-----------------------------------------------------------*/
 697              		.loc 1 484 0
 698 0006 08BD     		pop	{r3, pc}
 699              		.cfi_endproc
 700              	.LFE73:
 701              		.size	xStreamBufferBytesAvailable, .-xStreamBufferBytesAvailable
 702              		.section	.text.xStreamBufferSend,"ax",%progbits
 703              		.align	2
 704              		.global	xStreamBufferSend
 705              		.thumb
 706              		.thumb_func
 707              		.type	xStreamBufferSend, %function
 708              	xStreamBufferSend:
 709              	.LFB74:
 491:..\FreeRTOS\Source/stream_buffer.c **** StreamBuffer_t * const pxStreamBuffer = ( StreamBuffer_t * ) xStreamBuffer; /*lint !e9087 !e9079 Sa
 710              		.loc 1 491 0
 711              		.cfi_startproc
 712              		@ args = 0, pretend = 0, frame = 16
 713              		@ frame_needed = 0, uses_anonymous_args = 0
 714              	.LVL94:
 715 0000 2DE9F043 		push	{r4, r5, r6, r7, r8, r9, lr}
 716              		.cfi_def_cfa_offset 28
 717              		.cfi_offset 4, -28
 718              		.cfi_offset 5, -24
 719              		.cfi_offset 6, -20
 720              		.cfi_offset 7, -16
 721              		.cfi_offset 8, -12
 722              		.cfi_offset 9, -8
 723              		.cfi_offset 14, -4
 724 0004 87B0     		sub	sp, sp, #28
 725              		.cfi_def_cfa_offset 56
 726 0006 0446     		mov	r4, r0
 727 0008 8946     		mov	r9, r1
 728 000a 9046     		mov	r8, r2
 729 000c 0393     		str	r3, [sp, #12]
 730              	.LVL95:
 504:..\FreeRTOS\Source/stream_buffer.c **** 	{
 731              		.loc 1 504 0
 732 000e 037F     		ldrb	r3, [r0, #28]	@ zero_extendqisi2
 733              	.LVL96:
 734 0010 13F0010F 		tst	r3, #1
 735 0014 01D0     		beq	.L60
ARM GAS  C:\Users\samue\AppData\Local\Temp\cc6oSIFr.s 			page 36


 506:..\FreeRTOS\Source/stream_buffer.c **** 	}
 736              		.loc 1 506 0
 737 0016 171D     		adds	r7, r2, #4
 738              	.LVL97:
 739 0018 00E0     		b	.L53
 740              	.LVL98:
 741              	.L60:
 494:..\FreeRTOS\Source/stream_buffer.c **** TimeOut_t xTimeOut;
 742              		.loc 1 494 0
 743 001a 1746     		mov	r7, r2
 744              	.LVL99:
 745              	.L53:
 513:..\FreeRTOS\Source/stream_buffer.c **** 	{
 746              		.loc 1 513 0
 747 001c 039B     		ldr	r3, [sp, #12]
 748 001e 3BB3     		cbz	r3, .L61
 515:..\FreeRTOS\Source/stream_buffer.c **** 
 749              		.loc 1 515 0
 750 0020 04A8     		add	r0, sp, #16
 751              	.LVL100:
 752 0022 FFF7FEFF 		bl	vTaskSetTimeOutState
 753              	.LVL101:
 754              	.L56:
 521:..\FreeRTOS\Source/stream_buffer.c **** 			{
 755              		.loc 1 521 0
 756 0026 FFF7FEFF 		bl	vPortEnterCritical
 757              	.LVL102:
 523:..\FreeRTOS\Source/stream_buffer.c **** 
 758              		.loc 1 523 0
 759 002a 2046     		mov	r0, r4
 760 002c FFF7FEFF 		bl	xStreamBufferSpacesAvailable
 761              	.LVL103:
 762 0030 0646     		mov	r6, r0
 763              	.LVL104:
 525:..\FreeRTOS\Source/stream_buffer.c **** 				{
 764              		.loc 1 525 0
 765 0032 8742     		cmp	r7, r0
 766 0034 19D9     		bls	.L55
 528:..\FreeRTOS\Source/stream_buffer.c **** 
 767              		.loc 1 528 0
 768 0036 0020     		movs	r0, #0
 769              	.LVL105:
 770 0038 FFF7FEFF 		bl	xTaskNotifyStateClear
 771              	.LVL106:
 532:..\FreeRTOS\Source/stream_buffer.c **** 				}
 772              		.loc 1 532 0
 773 003c FFF7FEFF 		bl	xTaskGetCurrentTaskHandle
 774              	.LVL107:
 775 0040 6061     		str	r0, [r4, #20]
 540:..\FreeRTOS\Source/stream_buffer.c **** 
 776              		.loc 1 540 0
 777 0042 FFF7FEFF 		bl	vPortExitCritical
 778              	.LVL108:
 543:..\FreeRTOS\Source/stream_buffer.c **** 			pxStreamBuffer->xTaskWaitingToSend = NULL;
 779              		.loc 1 543 0
 780 0046 06AD     		add	r5, sp, #24
 781 0048 55F80C3D 		ldr	r3, [r5, #-12]!
ARM GAS  C:\Users\samue\AppData\Local\Temp\cc6oSIFr.s 			page 37


 782 004c 0022     		movs	r2, #0
 783 004e 4FF0FF31 		mov	r1, #-1
 784 0052 1046     		mov	r0, r2
 785 0054 FFF7FEFF 		bl	xTaskNotifyWait
 786              	.LVL109:
 544:..\FreeRTOS\Source/stream_buffer.c **** 
 787              		.loc 1 544 0
 788 0058 0023     		movs	r3, #0
 789 005a 6361     		str	r3, [r4, #20]
 546:..\FreeRTOS\Source/stream_buffer.c **** 	}
 790              		.loc 1 546 0
 791 005c 2946     		mov	r1, r5
 792 005e 04A8     		add	r0, sp, #16
 793 0060 FFF7FEFF 		bl	xTaskCheckForTimeOut
 794              	.LVL110:
 795 0064 0028     		cmp	r0, #0
 796 0066 DED0     		beq	.L56
 797 0068 03E0     		b	.L54
 798              	.LVL111:
 799              	.L55:
 536:..\FreeRTOS\Source/stream_buffer.c **** 					break;
 800              		.loc 1 536 0
 801 006a FFF7FEFF 		bl	vPortExitCritical
 802              	.LVL112:
 537:..\FreeRTOS\Source/stream_buffer.c **** 				}
 803              		.loc 1 537 0
 804 006e 00E0     		b	.L54
 805              	.LVL113:
 806              	.L61:
 493:..\FreeRTOS\Source/stream_buffer.c **** size_t xRequiredSpace = xDataLengthBytes;
 807              		.loc 1 493 0
 808 0070 0026     		movs	r6, #0
 809              	.LVL114:
 810              	.L54:
 553:..\FreeRTOS\Source/stream_buffer.c **** 	{
 811              		.loc 1 553 0
 812 0072 1EB9     		cbnz	r6, .L57
 555:..\FreeRTOS\Source/stream_buffer.c **** 	}
 813              		.loc 1 555 0
 814 0074 2046     		mov	r0, r4
 815 0076 FFF7FEFF 		bl	xStreamBufferSpacesAvailable
 816              	.LVL115:
 817 007a 0646     		mov	r6, r0
 818              	.LVL116:
 819              	.L57:
 562:..\FreeRTOS\Source/stream_buffer.c **** 
 820              		.loc 1 562 0
 821 007c 0097     		str	r7, [sp]
 822 007e 3346     		mov	r3, r6
 823 0080 4246     		mov	r2, r8
 824 0082 4946     		mov	r1, r9
 825 0084 2046     		mov	r0, r4
 826 0086 FFF7FEFF 		bl	prvWriteMessageToBuffer
 827              	.LVL117:
 564:..\FreeRTOS\Source/stream_buffer.c **** 	{
 828              		.loc 1 564 0
 829 008a 0546     		mov	r5, r0
ARM GAS  C:\Users\samue\AppData\Local\Temp\cc6oSIFr.s 			page 38


 830 008c 98B1     		cbz	r0, .L58
 569:..\FreeRTOS\Source/stream_buffer.c **** 		{
 831              		.loc 1 569 0
 832 008e 2046     		mov	r0, r4
 833              	.LVL118:
 834 0090 FFF7FEFF 		bl	prvBytesInBuffer
 835              	.LVL119:
 836 0094 E368     		ldr	r3, [r4, #12]
 837 0096 9842     		cmp	r0, r3
 838 0098 0DD3     		bcc	.L58
 571:..\FreeRTOS\Source/stream_buffer.c **** 		}
 839              		.loc 1 571 0
 840 009a FFF7FEFF 		bl	vTaskSuspendAll
 841              	.LVL120:
 842 009e 2369     		ldr	r3, [r4, #16]
 843 00a0 3BB1     		cbz	r3, .L59
 571:..\FreeRTOS\Source/stream_buffer.c **** 		}
 844              		.loc 1 571 0 is_stmt 0 discriminator 1
 845 00a2 2069     		ldr	r0, [r4, #16]
 846 00a4 0023     		movs	r3, #0
 847 00a6 1A46     		mov	r2, r3
 848 00a8 1946     		mov	r1, r3
 849 00aa FFF7FEFF 		bl	xTaskGenericNotify
 850              	.LVL121:
 851 00ae 0023     		movs	r3, #0
 852 00b0 2361     		str	r3, [r4, #16]
 853              	.L59:
 571:..\FreeRTOS\Source/stream_buffer.c **** 		}
 854              		.loc 1 571 0 discriminator 3
 855 00b2 FFF7FEFF 		bl	xTaskResumeAll
 856              	.LVL122:
 857              	.L58:
 585:..\FreeRTOS\Source/stream_buffer.c **** /*-----------------------------------------------------------*/
 858              		.loc 1 585 0 is_stmt 1
 859 00b6 2846     		mov	r0, r5
 860 00b8 07B0     		add	sp, sp, #28
 861              		.cfi_def_cfa_offset 28
 862              		@ sp needed
 863 00ba BDE8F083 		pop	{r4, r5, r6, r7, r8, r9, pc}
 864              		.cfi_endproc
 865              	.LFE74:
 866              		.size	xStreamBufferSend, .-xStreamBufferSend
 867 00be 00BF     		.section	.text.xStreamBufferSendFromISR,"ax",%progbits
 868              		.align	2
 869              		.global	xStreamBufferSendFromISR
 870              		.thumb
 871              		.thumb_func
 872              		.type	xStreamBufferSendFromISR, %function
 873              	xStreamBufferSendFromISR:
 874              	.LFB75:
 592:..\FreeRTOS\Source/stream_buffer.c **** StreamBuffer_t * const pxStreamBuffer = ( StreamBuffer_t * ) xStreamBuffer; /*lint !e9087 !e9079 Sa
 875              		.loc 1 592 0
 876              		.cfi_startproc
 877              		@ args = 0, pretend = 0, frame = 0
 878              		@ frame_needed = 0, uses_anonymous_args = 0
 879              	.LVL123:
 880 0000 2DE9F041 		push	{r4, r5, r6, r7, r8, lr}
ARM GAS  C:\Users\samue\AppData\Local\Temp\cc6oSIFr.s 			page 39


 881              		.cfi_def_cfa_offset 24
 882              		.cfi_offset 4, -24
 883              		.cfi_offset 5, -20
 884              		.cfi_offset 6, -16
 885              		.cfi_offset 7, -12
 886              		.cfi_offset 8, -8
 887              		.cfi_offset 14, -4
 888 0004 82B0     		sub	sp, sp, #8
 889              		.cfi_def_cfa_offset 32
 890 0006 0446     		mov	r4, r0
 891 0008 0E46     		mov	r6, r1
 892 000a 1546     		mov	r5, r2
 893 000c 9846     		mov	r8, r3
 894              	.LVL124:
 604:..\FreeRTOS\Source/stream_buffer.c **** 	{
 895              		.loc 1 604 0
 896 000e 037F     		ldrb	r3, [r0, #28]	@ zero_extendqisi2
 897              	.LVL125:
 898 0010 13F0010F 		tst	r3, #1
 899 0014 01D0     		beq	.L67
 606:..\FreeRTOS\Source/stream_buffer.c **** 	}
 900              		.loc 1 606 0
 901 0016 171D     		adds	r7, r2, #4
 902              	.LVL126:
 903 0018 00E0     		b	.L64
 904              	.LVL127:
 905              	.L67:
 595:..\FreeRTOS\Source/stream_buffer.c **** 
 906              		.loc 1 595 0
 907 001a 1746     		mov	r7, r2
 908              	.LVL128:
 909              	.L64:
 613:..\FreeRTOS\Source/stream_buffer.c **** 	xReturn = prvWriteMessageToBuffer( pxStreamBuffer, pvTxData, xDataLengthBytes, xSpace, xRequiredSp
 910              		.loc 1 613 0
 911 001c 2046     		mov	r0, r4
 912              	.LVL129:
 913 001e FFF7FEFF 		bl	xStreamBufferSpacesAvailable
 914              	.LVL130:
 614:..\FreeRTOS\Source/stream_buffer.c **** 
 915              		.loc 1 614 0
 916 0022 0097     		str	r7, [sp]
 917 0024 0346     		mov	r3, r0
 918 0026 2A46     		mov	r2, r5
 919 0028 3146     		mov	r1, r6
 920 002a 2046     		mov	r0, r4
 921              	.LVL131:
 922 002c FFF7FEFF 		bl	prvWriteMessageToBuffer
 923              	.LVL132:
 616:..\FreeRTOS\Source/stream_buffer.c **** 	{
 924              		.loc 1 616 0
 925 0030 0546     		mov	r5, r0
 926              	.LVL133:
 927 0032 E8B1     		cbz	r0, .L65
 619:..\FreeRTOS\Source/stream_buffer.c **** 		{
 928              		.loc 1 619 0
 929 0034 2046     		mov	r0, r4
 930              	.LVL134:
ARM GAS  C:\Users\samue\AppData\Local\Temp\cc6oSIFr.s 			page 40


 931 0036 FFF7FEFF 		bl	prvBytesInBuffer
 932              	.LVL135:
 933 003a E368     		ldr	r3, [r4, #12]
 934 003c 9842     		cmp	r0, r3
 935 003e 17D3     		bcc	.L65
 936              	.LBB20:
 937              	.LBB21:
 938              	.LBB22:
 939              		.file 2 "..\\FreeRTOS\\Source\\portable\\GCC\\ARM_CM3/portmacro.h"
   1:..\FreeRTOS\Source\portable\GCC\ARM_CM3/portmacro.h **** /*
   2:..\FreeRTOS\Source\portable\GCC\ARM_CM3/portmacro.h ****  * FreeRTOS Kernel V10.0.1
   3:..\FreeRTOS\Source\portable\GCC\ARM_CM3/portmacro.h ****  * Copyright (C) 2017 Amazon.com, Inc. or its affiliates.  All Rights Reserved.
   4:..\FreeRTOS\Source\portable\GCC\ARM_CM3/portmacro.h ****  *
   5:..\FreeRTOS\Source\portable\GCC\ARM_CM3/portmacro.h ****  * Permission is hereby granted, free of charge, to any person obtaining a copy of
   6:..\FreeRTOS\Source\portable\GCC\ARM_CM3/portmacro.h ****  * this software and associated documentation files (the "Software"), to deal in
   7:..\FreeRTOS\Source\portable\GCC\ARM_CM3/portmacro.h ****  * the Software without restriction, including without limitation the rights to
   8:..\FreeRTOS\Source\portable\GCC\ARM_CM3/portmacro.h ****  * use, copy, modify, merge, publish, distribute, sublicense, and/or sell copies of
   9:..\FreeRTOS\Source\portable\GCC\ARM_CM3/portmacro.h ****  * the Software, and to permit persons to whom the Software is furnished to do so,
  10:..\FreeRTOS\Source\portable\GCC\ARM_CM3/portmacro.h ****  * subject to the following conditions:
  11:..\FreeRTOS\Source\portable\GCC\ARM_CM3/portmacro.h ****  *
  12:..\FreeRTOS\Source\portable\GCC\ARM_CM3/portmacro.h ****  * The above copyright notice and this permission notice shall be included in all
  13:..\FreeRTOS\Source\portable\GCC\ARM_CM3/portmacro.h ****  * copies or substantial portions of the Software.
  14:..\FreeRTOS\Source\portable\GCC\ARM_CM3/portmacro.h ****  *
  15:..\FreeRTOS\Source\portable\GCC\ARM_CM3/portmacro.h ****  * THE SOFTWARE IS PROVIDED "AS IS", WITHOUT WARRANTY OF ANY KIND, EXPRESS OR
  16:..\FreeRTOS\Source\portable\GCC\ARM_CM3/portmacro.h ****  * IMPLIED, INCLUDING BUT NOT LIMITED TO THE WARRANTIES OF MERCHANTABILITY, FITNESS
  17:..\FreeRTOS\Source\portable\GCC\ARM_CM3/portmacro.h ****  * FOR A PARTICULAR PURPOSE AND NONINFRINGEMENT. IN NO EVENT SHALL THE AUTHORS OR
  18:..\FreeRTOS\Source\portable\GCC\ARM_CM3/portmacro.h ****  * COPYRIGHT HOLDERS BE LIABLE FOR ANY CLAIM, DAMAGES OR OTHER LIABILITY, WHETHER
  19:..\FreeRTOS\Source\portable\GCC\ARM_CM3/portmacro.h ****  * IN AN ACTION OF CONTRACT, TORT OR OTHERWISE, ARISING FROM, OUT OF OR IN
  20:..\FreeRTOS\Source\portable\GCC\ARM_CM3/portmacro.h ****  * CONNECTION WITH THE SOFTWARE OR THE USE OR OTHER DEALINGS IN THE SOFTWARE.
  21:..\FreeRTOS\Source\portable\GCC\ARM_CM3/portmacro.h ****  *
  22:..\FreeRTOS\Source\portable\GCC\ARM_CM3/portmacro.h ****  * http://www.FreeRTOS.org
  23:..\FreeRTOS\Source\portable\GCC\ARM_CM3/portmacro.h ****  * http://aws.amazon.com/freertos
  24:..\FreeRTOS\Source\portable\GCC\ARM_CM3/portmacro.h ****  *
  25:..\FreeRTOS\Source\portable\GCC\ARM_CM3/portmacro.h ****  * 1 tab == 4 spaces!
  26:..\FreeRTOS\Source\portable\GCC\ARM_CM3/portmacro.h ****  */
  27:..\FreeRTOS\Source\portable\GCC\ARM_CM3/portmacro.h **** 
  28:..\FreeRTOS\Source\portable\GCC\ARM_CM3/portmacro.h **** 
  29:..\FreeRTOS\Source\portable\GCC\ARM_CM3/portmacro.h **** #ifndef PORTMACRO_H
  30:..\FreeRTOS\Source\portable\GCC\ARM_CM3/portmacro.h **** #define PORTMACRO_H
  31:..\FreeRTOS\Source\portable\GCC\ARM_CM3/portmacro.h **** 
  32:..\FreeRTOS\Source\portable\GCC\ARM_CM3/portmacro.h **** #ifdef __cplusplus
  33:..\FreeRTOS\Source\portable\GCC\ARM_CM3/portmacro.h **** extern "C" {
  34:..\FreeRTOS\Source\portable\GCC\ARM_CM3/portmacro.h **** #endif
  35:..\FreeRTOS\Source\portable\GCC\ARM_CM3/portmacro.h **** 
  36:..\FreeRTOS\Source\portable\GCC\ARM_CM3/portmacro.h **** /*-----------------------------------------------------------
  37:..\FreeRTOS\Source\portable\GCC\ARM_CM3/portmacro.h ****  * Port specific definitions.
  38:..\FreeRTOS\Source\portable\GCC\ARM_CM3/portmacro.h ****  *
  39:..\FreeRTOS\Source\portable\GCC\ARM_CM3/portmacro.h ****  * The settings in this file configure FreeRTOS correctly for the
  40:..\FreeRTOS\Source\portable\GCC\ARM_CM3/portmacro.h ****  * given hardware and compiler.
  41:..\FreeRTOS\Source\portable\GCC\ARM_CM3/portmacro.h ****  *
  42:..\FreeRTOS\Source\portable\GCC\ARM_CM3/portmacro.h ****  * These settings should not be altered.
  43:..\FreeRTOS\Source\portable\GCC\ARM_CM3/portmacro.h ****  *-----------------------------------------------------------
  44:..\FreeRTOS\Source\portable\GCC\ARM_CM3/portmacro.h ****  */
  45:..\FreeRTOS\Source\portable\GCC\ARM_CM3/portmacro.h **** 
  46:..\FreeRTOS\Source\portable\GCC\ARM_CM3/portmacro.h **** /* Type definitions. */
  47:..\FreeRTOS\Source\portable\GCC\ARM_CM3/portmacro.h **** #define portCHAR		char
  48:..\FreeRTOS\Source\portable\GCC\ARM_CM3/portmacro.h **** #define portFLOAT		float
ARM GAS  C:\Users\samue\AppData\Local\Temp\cc6oSIFr.s 			page 41


  49:..\FreeRTOS\Source\portable\GCC\ARM_CM3/portmacro.h **** #define portDOUBLE		double
  50:..\FreeRTOS\Source\portable\GCC\ARM_CM3/portmacro.h **** #define portLONG		long
  51:..\FreeRTOS\Source\portable\GCC\ARM_CM3/portmacro.h **** #define portSHORT		short
  52:..\FreeRTOS\Source\portable\GCC\ARM_CM3/portmacro.h **** #define portSTACK_TYPE	uint32_t
  53:..\FreeRTOS\Source\portable\GCC\ARM_CM3/portmacro.h **** #define portBASE_TYPE	long
  54:..\FreeRTOS\Source\portable\GCC\ARM_CM3/portmacro.h **** 
  55:..\FreeRTOS\Source\portable\GCC\ARM_CM3/portmacro.h **** typedef portSTACK_TYPE StackType_t;
  56:..\FreeRTOS\Source\portable\GCC\ARM_CM3/portmacro.h **** typedef long BaseType_t;
  57:..\FreeRTOS\Source\portable\GCC\ARM_CM3/portmacro.h **** typedef unsigned long UBaseType_t;
  58:..\FreeRTOS\Source\portable\GCC\ARM_CM3/portmacro.h **** 
  59:..\FreeRTOS\Source\portable\GCC\ARM_CM3/portmacro.h **** #if( configUSE_16_BIT_TICKS == 1 )
  60:..\FreeRTOS\Source\portable\GCC\ARM_CM3/portmacro.h **** 	typedef uint16_t TickType_t;
  61:..\FreeRTOS\Source\portable\GCC\ARM_CM3/portmacro.h **** 	#define portMAX_DELAY ( TickType_t ) 0xffff
  62:..\FreeRTOS\Source\portable\GCC\ARM_CM3/portmacro.h **** #else
  63:..\FreeRTOS\Source\portable\GCC\ARM_CM3/portmacro.h **** 	typedef uint32_t TickType_t;
  64:..\FreeRTOS\Source\portable\GCC\ARM_CM3/portmacro.h **** 	#define portMAX_DELAY ( TickType_t ) 0xffffffffUL
  65:..\FreeRTOS\Source\portable\GCC\ARM_CM3/portmacro.h **** 
  66:..\FreeRTOS\Source\portable\GCC\ARM_CM3/portmacro.h **** 	/* 32-bit tick type on a 32-bit architecture, so reads of the tick count do
  67:..\FreeRTOS\Source\portable\GCC\ARM_CM3/portmacro.h **** 	not need to be guarded with a critical section. */
  68:..\FreeRTOS\Source\portable\GCC\ARM_CM3/portmacro.h **** 	#define portTICK_TYPE_IS_ATOMIC 1
  69:..\FreeRTOS\Source\portable\GCC\ARM_CM3/portmacro.h **** #endif
  70:..\FreeRTOS\Source\portable\GCC\ARM_CM3/portmacro.h **** /*-----------------------------------------------------------*/
  71:..\FreeRTOS\Source\portable\GCC\ARM_CM3/portmacro.h **** 
  72:..\FreeRTOS\Source\portable\GCC\ARM_CM3/portmacro.h **** /* Architecture specifics. */
  73:..\FreeRTOS\Source\portable\GCC\ARM_CM3/portmacro.h **** #define portSTACK_GROWTH			( -1 )
  74:..\FreeRTOS\Source\portable\GCC\ARM_CM3/portmacro.h **** #define portTICK_PERIOD_MS			( ( TickType_t ) 1000 / configTICK_RATE_HZ )
  75:..\FreeRTOS\Source\portable\GCC\ARM_CM3/portmacro.h **** #define portBYTE_ALIGNMENT			8
  76:..\FreeRTOS\Source\portable\GCC\ARM_CM3/portmacro.h **** /*-----------------------------------------------------------*/
  77:..\FreeRTOS\Source\portable\GCC\ARM_CM3/portmacro.h **** 
  78:..\FreeRTOS\Source\portable\GCC\ARM_CM3/portmacro.h **** /* Scheduler utilities. */
  79:..\FreeRTOS\Source\portable\GCC\ARM_CM3/portmacro.h **** #define portYIELD() 															\
  80:..\FreeRTOS\Source\portable\GCC\ARM_CM3/portmacro.h **** {																				\
  81:..\FreeRTOS\Source\portable\GCC\ARM_CM3/portmacro.h **** 	/* Set a PendSV to request a context switch. */								\
  82:..\FreeRTOS\Source\portable\GCC\ARM_CM3/portmacro.h **** 	portNVIC_INT_CTRL_REG = portNVIC_PENDSVSET_BIT;								\
  83:..\FreeRTOS\Source\portable\GCC\ARM_CM3/portmacro.h **** 																				\
  84:..\FreeRTOS\Source\portable\GCC\ARM_CM3/portmacro.h **** 	/* Barriers are normally not required but do ensure the code is completely	\
  85:..\FreeRTOS\Source\portable\GCC\ARM_CM3/portmacro.h **** 	within the specified behaviour for the architecture. */						\
  86:..\FreeRTOS\Source\portable\GCC\ARM_CM3/portmacro.h **** 	__asm volatile( "dsb" ::: "memory" );										\
  87:..\FreeRTOS\Source\portable\GCC\ARM_CM3/portmacro.h **** 	__asm volatile( "isb" );													\
  88:..\FreeRTOS\Source\portable\GCC\ARM_CM3/portmacro.h **** }
  89:..\FreeRTOS\Source\portable\GCC\ARM_CM3/portmacro.h **** 
  90:..\FreeRTOS\Source\portable\GCC\ARM_CM3/portmacro.h **** #define portNVIC_INT_CTRL_REG		( * ( ( volatile uint32_t * ) 0xe000ed04 ) )
  91:..\FreeRTOS\Source\portable\GCC\ARM_CM3/portmacro.h **** #define portNVIC_PENDSVSET_BIT		( 1UL << 28UL )
  92:..\FreeRTOS\Source\portable\GCC\ARM_CM3/portmacro.h **** #define portEND_SWITCHING_ISR( xSwitchRequired ) if( xSwitchRequired != pdFALSE ) portYIELD()
  93:..\FreeRTOS\Source\portable\GCC\ARM_CM3/portmacro.h **** #define portYIELD_FROM_ISR( x ) portEND_SWITCHING_ISR( x )
  94:..\FreeRTOS\Source\portable\GCC\ARM_CM3/portmacro.h **** /*-----------------------------------------------------------*/
  95:..\FreeRTOS\Source\portable\GCC\ARM_CM3/portmacro.h **** 
  96:..\FreeRTOS\Source\portable\GCC\ARM_CM3/portmacro.h **** /* Critical section management. */
  97:..\FreeRTOS\Source\portable\GCC\ARM_CM3/portmacro.h **** extern void vPortEnterCritical( void );
  98:..\FreeRTOS\Source\portable\GCC\ARM_CM3/portmacro.h **** extern void vPortExitCritical( void );
  99:..\FreeRTOS\Source\portable\GCC\ARM_CM3/portmacro.h **** #define portSET_INTERRUPT_MASK_FROM_ISR()		ulPortRaiseBASEPRI()
 100:..\FreeRTOS\Source\portable\GCC\ARM_CM3/portmacro.h **** #define portCLEAR_INTERRUPT_MASK_FROM_ISR(x)	vPortSetBASEPRI(x)
 101:..\FreeRTOS\Source\portable\GCC\ARM_CM3/portmacro.h **** #define portDISABLE_INTERRUPTS()				vPortRaiseBASEPRI()
 102:..\FreeRTOS\Source\portable\GCC\ARM_CM3/portmacro.h **** #define portENABLE_INTERRUPTS()					vPortSetBASEPRI(0)
 103:..\FreeRTOS\Source\portable\GCC\ARM_CM3/portmacro.h **** #define portENTER_CRITICAL()					vPortEnterCritical()
 104:..\FreeRTOS\Source\portable\GCC\ARM_CM3/portmacro.h **** #define portEXIT_CRITICAL()						vPortExitCritical()
 105:..\FreeRTOS\Source\portable\GCC\ARM_CM3/portmacro.h **** 
ARM GAS  C:\Users\samue\AppData\Local\Temp\cc6oSIFr.s 			page 42


 106:..\FreeRTOS\Source\portable\GCC\ARM_CM3/portmacro.h **** /*-----------------------------------------------------------*/
 107:..\FreeRTOS\Source\portable\GCC\ARM_CM3/portmacro.h **** 
 108:..\FreeRTOS\Source\portable\GCC\ARM_CM3/portmacro.h **** /* Task function macros as described on the FreeRTOS.org WEB site.  These are
 109:..\FreeRTOS\Source\portable\GCC\ARM_CM3/portmacro.h **** not necessary for to use this port.  They are defined so the common demo files
 110:..\FreeRTOS\Source\portable\GCC\ARM_CM3/portmacro.h **** (which build with all the ports) will build. */
 111:..\FreeRTOS\Source\portable\GCC\ARM_CM3/portmacro.h **** #define portTASK_FUNCTION_PROTO( vFunction, pvParameters ) void vFunction( void *pvParameters )
 112:..\FreeRTOS\Source\portable\GCC\ARM_CM3/portmacro.h **** #define portTASK_FUNCTION( vFunction, pvParameters ) void vFunction( void *pvParameters )
 113:..\FreeRTOS\Source\portable\GCC\ARM_CM3/portmacro.h **** /*-----------------------------------------------------------*/
 114:..\FreeRTOS\Source\portable\GCC\ARM_CM3/portmacro.h **** 
 115:..\FreeRTOS\Source\portable\GCC\ARM_CM3/portmacro.h **** /* Tickless idle/low power functionality. */
 116:..\FreeRTOS\Source\portable\GCC\ARM_CM3/portmacro.h **** #ifndef portSUPPRESS_TICKS_AND_SLEEP
 117:..\FreeRTOS\Source\portable\GCC\ARM_CM3/portmacro.h **** 	extern void vPortSuppressTicksAndSleep( TickType_t xExpectedIdleTime );
 118:..\FreeRTOS\Source\portable\GCC\ARM_CM3/portmacro.h **** 	#define portSUPPRESS_TICKS_AND_SLEEP( xExpectedIdleTime ) vPortSuppressTicksAndSleep( xExpectedIdl
 119:..\FreeRTOS\Source\portable\GCC\ARM_CM3/portmacro.h **** #endif
 120:..\FreeRTOS\Source\portable\GCC\ARM_CM3/portmacro.h **** /*-----------------------------------------------------------*/
 121:..\FreeRTOS\Source\portable\GCC\ARM_CM3/portmacro.h **** 
 122:..\FreeRTOS\Source\portable\GCC\ARM_CM3/portmacro.h **** /* Architecture specific optimisations. */
 123:..\FreeRTOS\Source\portable\GCC\ARM_CM3/portmacro.h **** #ifndef configUSE_PORT_OPTIMISED_TASK_SELECTION
 124:..\FreeRTOS\Source\portable\GCC\ARM_CM3/portmacro.h **** 	#define configUSE_PORT_OPTIMISED_TASK_SELECTION 1
 125:..\FreeRTOS\Source\portable\GCC\ARM_CM3/portmacro.h **** #endif
 126:..\FreeRTOS\Source\portable\GCC\ARM_CM3/portmacro.h **** 
 127:..\FreeRTOS\Source\portable\GCC\ARM_CM3/portmacro.h **** #if configUSE_PORT_OPTIMISED_TASK_SELECTION == 1
 128:..\FreeRTOS\Source\portable\GCC\ARM_CM3/portmacro.h **** 
 129:..\FreeRTOS\Source\portable\GCC\ARM_CM3/portmacro.h **** 	/* Generic helper function. */
 130:..\FreeRTOS\Source\portable\GCC\ARM_CM3/portmacro.h **** 	__attribute__( ( always_inline ) ) static inline uint8_t ucPortCountLeadingZeros( uint32_t ulBitma
 131:..\FreeRTOS\Source\portable\GCC\ARM_CM3/portmacro.h **** 	{
 132:..\FreeRTOS\Source\portable\GCC\ARM_CM3/portmacro.h **** 	uint8_t ucReturn;
 133:..\FreeRTOS\Source\portable\GCC\ARM_CM3/portmacro.h **** 
 134:..\FreeRTOS\Source\portable\GCC\ARM_CM3/portmacro.h **** 		__asm volatile ( "clz %0, %1" : "=r" ( ucReturn ) : "r" ( ulBitmap ) : "memory" );
 135:..\FreeRTOS\Source\portable\GCC\ARM_CM3/portmacro.h **** 		return ucReturn;
 136:..\FreeRTOS\Source\portable\GCC\ARM_CM3/portmacro.h **** 	}
 137:..\FreeRTOS\Source\portable\GCC\ARM_CM3/portmacro.h **** 
 138:..\FreeRTOS\Source\portable\GCC\ARM_CM3/portmacro.h **** 	/* Check the configuration. */
 139:..\FreeRTOS\Source\portable\GCC\ARM_CM3/portmacro.h **** 	#if( configMAX_PRIORITIES > 32 )
 140:..\FreeRTOS\Source\portable\GCC\ARM_CM3/portmacro.h **** 		#error configUSE_PORT_OPTIMISED_TASK_SELECTION can only be set to 1 when configMAX_PRIORITIES is 
 141:..\FreeRTOS\Source\portable\GCC\ARM_CM3/portmacro.h **** 	#endif
 142:..\FreeRTOS\Source\portable\GCC\ARM_CM3/portmacro.h **** 
 143:..\FreeRTOS\Source\portable\GCC\ARM_CM3/portmacro.h **** 	/* Store/clear the ready priorities in a bit map. */
 144:..\FreeRTOS\Source\portable\GCC\ARM_CM3/portmacro.h **** 	#define portRECORD_READY_PRIORITY( uxPriority, uxReadyPriorities ) ( uxReadyPriorities ) |= ( 1UL 
 145:..\FreeRTOS\Source\portable\GCC\ARM_CM3/portmacro.h **** 	#define portRESET_READY_PRIORITY( uxPriority, uxReadyPriorities ) ( uxReadyPriorities ) &= ~( 1UL 
 146:..\FreeRTOS\Source\portable\GCC\ARM_CM3/portmacro.h **** 
 147:..\FreeRTOS\Source\portable\GCC\ARM_CM3/portmacro.h **** 	/*-----------------------------------------------------------*/
 148:..\FreeRTOS\Source\portable\GCC\ARM_CM3/portmacro.h **** 
 149:..\FreeRTOS\Source\portable\GCC\ARM_CM3/portmacro.h **** 	#define portGET_HIGHEST_PRIORITY( uxTopPriority, uxReadyPriorities ) uxTopPriority = ( 31UL - ( ui
 150:..\FreeRTOS\Source\portable\GCC\ARM_CM3/portmacro.h **** 
 151:..\FreeRTOS\Source\portable\GCC\ARM_CM3/portmacro.h **** #endif /* configUSE_PORT_OPTIMISED_TASK_SELECTION */
 152:..\FreeRTOS\Source\portable\GCC\ARM_CM3/portmacro.h **** 
 153:..\FreeRTOS\Source\portable\GCC\ARM_CM3/portmacro.h **** /*-----------------------------------------------------------*/
 154:..\FreeRTOS\Source\portable\GCC\ARM_CM3/portmacro.h **** 
 155:..\FreeRTOS\Source\portable\GCC\ARM_CM3/portmacro.h **** #ifdef configASSERT
 156:..\FreeRTOS\Source\portable\GCC\ARM_CM3/portmacro.h **** 	void vPortValidateInterruptPriority( void );
 157:..\FreeRTOS\Source\portable\GCC\ARM_CM3/portmacro.h **** 	#define portASSERT_IF_INTERRUPT_PRIORITY_INVALID() 	vPortValidateInterruptPriority()
 158:..\FreeRTOS\Source\portable\GCC\ARM_CM3/portmacro.h **** #endif
 159:..\FreeRTOS\Source\portable\GCC\ARM_CM3/portmacro.h **** 
 160:..\FreeRTOS\Source\portable\GCC\ARM_CM3/portmacro.h **** /* portNOP() is not required by this port. */
 161:..\FreeRTOS\Source\portable\GCC\ARM_CM3/portmacro.h **** #define portNOP()
 162:..\FreeRTOS\Source\portable\GCC\ARM_CM3/portmacro.h **** 
ARM GAS  C:\Users\samue\AppData\Local\Temp\cc6oSIFr.s 			page 43


 163:..\FreeRTOS\Source\portable\GCC\ARM_CM3/portmacro.h **** #define portINLINE	__inline
 164:..\FreeRTOS\Source\portable\GCC\ARM_CM3/portmacro.h **** 
 165:..\FreeRTOS\Source\portable\GCC\ARM_CM3/portmacro.h **** #ifndef portFORCE_INLINE
 166:..\FreeRTOS\Source\portable\GCC\ARM_CM3/portmacro.h **** 	#define portFORCE_INLINE inline __attribute__(( always_inline))
 167:..\FreeRTOS\Source\portable\GCC\ARM_CM3/portmacro.h **** #endif
 168:..\FreeRTOS\Source\portable\GCC\ARM_CM3/portmacro.h **** 
 169:..\FreeRTOS\Source\portable\GCC\ARM_CM3/portmacro.h **** portFORCE_INLINE static BaseType_t xPortIsInsideInterrupt( void )
 170:..\FreeRTOS\Source\portable\GCC\ARM_CM3/portmacro.h **** {
 171:..\FreeRTOS\Source\portable\GCC\ARM_CM3/portmacro.h **** uint32_t ulCurrentInterrupt;
 172:..\FreeRTOS\Source\portable\GCC\ARM_CM3/portmacro.h **** BaseType_t xReturn;
 173:..\FreeRTOS\Source\portable\GCC\ARM_CM3/portmacro.h **** 
 174:..\FreeRTOS\Source\portable\GCC\ARM_CM3/portmacro.h **** 	/* Obtain the number of the currently executing interrupt. */
 175:..\FreeRTOS\Source\portable\GCC\ARM_CM3/portmacro.h **** 	__asm volatile( "mrs %0, ipsr" : "=r"( ulCurrentInterrupt ) :: "memory" );
 176:..\FreeRTOS\Source\portable\GCC\ARM_CM3/portmacro.h **** 
 177:..\FreeRTOS\Source\portable\GCC\ARM_CM3/portmacro.h **** 	if( ulCurrentInterrupt == 0 )
 178:..\FreeRTOS\Source\portable\GCC\ARM_CM3/portmacro.h **** 	{
 179:..\FreeRTOS\Source\portable\GCC\ARM_CM3/portmacro.h **** 		xReturn = pdFALSE;
 180:..\FreeRTOS\Source\portable\GCC\ARM_CM3/portmacro.h **** 	}
 181:..\FreeRTOS\Source\portable\GCC\ARM_CM3/portmacro.h **** 	else
 182:..\FreeRTOS\Source\portable\GCC\ARM_CM3/portmacro.h **** 	{
 183:..\FreeRTOS\Source\portable\GCC\ARM_CM3/portmacro.h **** 		xReturn = pdTRUE;
 184:..\FreeRTOS\Source\portable\GCC\ARM_CM3/portmacro.h **** 	}
 185:..\FreeRTOS\Source\portable\GCC\ARM_CM3/portmacro.h **** 
 186:..\FreeRTOS\Source\portable\GCC\ARM_CM3/portmacro.h **** 	return xReturn;
 187:..\FreeRTOS\Source\portable\GCC\ARM_CM3/portmacro.h **** }
 188:..\FreeRTOS\Source\portable\GCC\ARM_CM3/portmacro.h **** 
 189:..\FreeRTOS\Source\portable\GCC\ARM_CM3/portmacro.h **** /*-----------------------------------------------------------*/
 190:..\FreeRTOS\Source\portable\GCC\ARM_CM3/portmacro.h **** 
 191:..\FreeRTOS\Source\portable\GCC\ARM_CM3/portmacro.h **** portFORCE_INLINE static void vPortRaiseBASEPRI( void )
 192:..\FreeRTOS\Source\portable\GCC\ARM_CM3/portmacro.h **** {
 193:..\FreeRTOS\Source\portable\GCC\ARM_CM3/portmacro.h **** uint32_t ulNewBASEPRI;
 194:..\FreeRTOS\Source\portable\GCC\ARM_CM3/portmacro.h **** 
 195:..\FreeRTOS\Source\portable\GCC\ARM_CM3/portmacro.h **** 	__asm volatile
 196:..\FreeRTOS\Source\portable\GCC\ARM_CM3/portmacro.h **** 	(
 197:..\FreeRTOS\Source\portable\GCC\ARM_CM3/portmacro.h **** 		"	mov %0, %1												\n" \
 198:..\FreeRTOS\Source\portable\GCC\ARM_CM3/portmacro.h **** 		"	msr basepri, %0											\n" \
 199:..\FreeRTOS\Source\portable\GCC\ARM_CM3/portmacro.h **** 		"	isb														\n" \
 200:..\FreeRTOS\Source\portable\GCC\ARM_CM3/portmacro.h **** 		"	dsb														\n" \
 201:..\FreeRTOS\Source\portable\GCC\ARM_CM3/portmacro.h **** 		:"=r" (ulNewBASEPRI) : "i" ( configMAX_SYSCALL_INTERRUPT_PRIORITY ) : "memory"
 202:..\FreeRTOS\Source\portable\GCC\ARM_CM3/portmacro.h **** 	);
 203:..\FreeRTOS\Source\portable\GCC\ARM_CM3/portmacro.h **** }
 204:..\FreeRTOS\Source\portable\GCC\ARM_CM3/portmacro.h **** 
 205:..\FreeRTOS\Source\portable\GCC\ARM_CM3/portmacro.h **** /*-----------------------------------------------------------*/
 206:..\FreeRTOS\Source\portable\GCC\ARM_CM3/portmacro.h **** 
 207:..\FreeRTOS\Source\portable\GCC\ARM_CM3/portmacro.h **** portFORCE_INLINE static uint32_t ulPortRaiseBASEPRI( void )
 208:..\FreeRTOS\Source\portable\GCC\ARM_CM3/portmacro.h **** {
 209:..\FreeRTOS\Source\portable\GCC\ARM_CM3/portmacro.h **** uint32_t ulOriginalBASEPRI, ulNewBASEPRI;
 210:..\FreeRTOS\Source\portable\GCC\ARM_CM3/portmacro.h **** 
 211:..\FreeRTOS\Source\portable\GCC\ARM_CM3/portmacro.h **** 	__asm volatile
 940              		.loc 2 211 0
 941              		.syntax unified
 942              	@ 211 "..\FreeRTOS\Source\portable\GCC\ARM_CM3/portmacro.h" 1
 943 0040 EFF31186 			mrs r6, basepri											
 944 0044 4FF0A003 		mov r3, #160												
 945 0048 83F31188 		msr basepri, r3											
 946 004c BFF36F8F 		isb														
 947 0050 BFF34F8F 		dsb														
ARM GAS  C:\Users\samue\AppData\Local\Temp\cc6oSIFr.s 			page 44


 948              	
 949              	@ 0 "" 2
 950              	.LVL136:
 951              		.thumb
 952              		.syntax unified
 953              	.LBE22:
 954              	.LBE21:
 621:..\FreeRTOS\Source/stream_buffer.c **** 		}
 955              		.loc 1 621 0
 956 0054 2369     		ldr	r3, [r4, #16]
 957 0056 4BB1     		cbz	r3, .L66
 621:..\FreeRTOS\Source/stream_buffer.c **** 		}
 958              		.loc 1 621 0 is_stmt 0 discriminator 1
 959 0058 2069     		ldr	r0, [r4, #16]
 960 005a CDF80080 		str	r8, [sp]
 961 005e 0023     		movs	r3, #0
 962 0060 1A46     		mov	r2, r3
 963 0062 1946     		mov	r1, r3
 964 0064 FFF7FEFF 		bl	xTaskGenericNotifyFromISR
 965              	.LVL137:
 966 0068 0023     		movs	r3, #0
 967 006a 2361     		str	r3, [r4, #16]
 968              	.L66:
 969              	.LVL138:
 970              	.LBB23:
 971              	.LBB24:
 212:..\FreeRTOS\Source\portable\GCC\ARM_CM3/portmacro.h **** 	(
 213:..\FreeRTOS\Source\portable\GCC\ARM_CM3/portmacro.h **** 		"	mrs %0, basepri											\n" \
 214:..\FreeRTOS\Source\portable\GCC\ARM_CM3/portmacro.h **** 		"	mov %1, %2												\n" \
 215:..\FreeRTOS\Source\portable\GCC\ARM_CM3/portmacro.h **** 		"	msr basepri, %1											\n" \
 216:..\FreeRTOS\Source\portable\GCC\ARM_CM3/portmacro.h **** 		"	isb														\n" \
 217:..\FreeRTOS\Source\portable\GCC\ARM_CM3/portmacro.h **** 		"	dsb														\n" \
 218:..\FreeRTOS\Source\portable\GCC\ARM_CM3/portmacro.h **** 		:"=r" (ulOriginalBASEPRI), "=r" (ulNewBASEPRI) : "i" ( configMAX_SYSCALL_INTERRUPT_PRIORITY ) : "
 219:..\FreeRTOS\Source\portable\GCC\ARM_CM3/portmacro.h **** 	);
 220:..\FreeRTOS\Source\portable\GCC\ARM_CM3/portmacro.h **** 
 221:..\FreeRTOS\Source\portable\GCC\ARM_CM3/portmacro.h **** 	/* This return will not be reached but is necessary to prevent compiler
 222:..\FreeRTOS\Source\portable\GCC\ARM_CM3/portmacro.h **** 	warnings. */
 223:..\FreeRTOS\Source\portable\GCC\ARM_CM3/portmacro.h **** 	return ulOriginalBASEPRI;
 224:..\FreeRTOS\Source\portable\GCC\ARM_CM3/portmacro.h **** }
 225:..\FreeRTOS\Source\portable\GCC\ARM_CM3/portmacro.h **** /*-----------------------------------------------------------*/
 226:..\FreeRTOS\Source\portable\GCC\ARM_CM3/portmacro.h **** 
 227:..\FreeRTOS\Source\portable\GCC\ARM_CM3/portmacro.h **** portFORCE_INLINE static void vPortSetBASEPRI( uint32_t ulNewMaskValue )
 228:..\FreeRTOS\Source\portable\GCC\ARM_CM3/portmacro.h **** {
 229:..\FreeRTOS\Source\portable\GCC\ARM_CM3/portmacro.h **** 	__asm volatile
 972              		.loc 2 229 0 is_stmt 1 discriminator 3
 973              		.syntax unified
 974              	@ 229 "..\FreeRTOS\Source\portable\GCC\ARM_CM3/portmacro.h" 1
 975 006c 86F31188 			msr basepri, r6	
 976              	@ 0 "" 2
 977              	.LVL139:
 978              		.thumb
 979              		.syntax unified
 980              	.L65:
 981              	.LBE24:
 982              	.LBE23:
 983              	.LBE20:
 636:..\FreeRTOS\Source/stream_buffer.c **** /*-----------------------------------------------------------*/
ARM GAS  C:\Users\samue\AppData\Local\Temp\cc6oSIFr.s 			page 45


 984              		.loc 1 636 0
 985 0070 2846     		mov	r0, r5
 986 0072 02B0     		add	sp, sp, #8
 987              		.cfi_def_cfa_offset 24
 988              		@ sp needed
 989 0074 BDE8F081 		pop	{r4, r5, r6, r7, r8, pc}
 990              		.cfi_endproc
 991              	.LFE75:
 992              		.size	xStreamBufferSendFromISR, .-xStreamBufferSendFromISR
 993              		.section	.text.xStreamBufferReceive,"ax",%progbits
 994              		.align	2
 995              		.global	xStreamBufferReceive
 996              		.thumb
 997              		.thumb_func
 998              		.type	xStreamBufferReceive, %function
 999              	xStreamBufferReceive:
 1000              	.LFB77:
 695:..\FreeRTOS\Source/stream_buffer.c **** StreamBuffer_t * const pxStreamBuffer = ( StreamBuffer_t * ) xStreamBuffer; /*lint !e9087 !e9079 Sa
 1001              		.loc 1 695 0
 1002              		.cfi_startproc
 1003              		@ args = 0, pretend = 0, frame = 0
 1004              		@ frame_needed = 0, uses_anonymous_args = 0
 1005              	.LVL140:
 1006 0000 2DE9F043 		push	{r4, r5, r6, r7, r8, r9, lr}
 1007              		.cfi_def_cfa_offset 28
 1008              		.cfi_offset 4, -28
 1009              		.cfi_offset 5, -24
 1010              		.cfi_offset 6, -20
 1011              		.cfi_offset 7, -16
 1012              		.cfi_offset 8, -12
 1013              		.cfi_offset 9, -8
 1014              		.cfi_offset 14, -4
 1015 0004 83B0     		sub	sp, sp, #12
 1016              		.cfi_def_cfa_offset 40
 1017 0006 0446     		mov	r4, r0
 1018 0008 8846     		mov	r8, r1
 1019 000a 9146     		mov	r9, r2
 1020 000c 1F46     		mov	r7, r3
 1021              	.LVL141:
 707:..\FreeRTOS\Source/stream_buffer.c **** 	{
 1022              		.loc 1 707 0
 1023 000e 037F     		ldrb	r3, [r0, #28]	@ zero_extendqisi2
 1024              	.LVL142:
 1025 0010 13F0010F 		tst	r3, #1
 1026 0014 01D0     		beq	.L76
 709:..\FreeRTOS\Source/stream_buffer.c **** 	}
 1027              		.loc 1 709 0
 1028 0016 0426     		movs	r6, #4
 1029 0018 00E0     		b	.L70
 1030              	.L76:
 713:..\FreeRTOS\Source/stream_buffer.c **** 	}
 1031              		.loc 1 713 0
 1032 001a 0026     		movs	r6, #0
 1033              	.L70:
 1034              	.LVL143:
 716:..\FreeRTOS\Source/stream_buffer.c **** 	{
 1035              		.loc 1 716 0
ARM GAS  C:\Users\samue\AppData\Local\Temp\cc6oSIFr.s 			page 46


 1036 001c FFB1     		cbz	r7, .L71
 720:..\FreeRTOS\Source/stream_buffer.c **** 		{
 1037              		.loc 1 720 0
 1038 001e FFF7FEFF 		bl	vPortEnterCritical
 1039              	.LVL144:
 722:..\FreeRTOS\Source/stream_buffer.c **** 
 1040              		.loc 1 722 0
 1041 0022 2046     		mov	r0, r4
 1042 0024 FFF7FEFF 		bl	prvBytesInBuffer
 1043              	.LVL145:
 1044 0028 0546     		mov	r5, r0
 1045              	.LVL146:
 729:..\FreeRTOS\Source/stream_buffer.c **** 			{
 1046              		.loc 1 729 0
 1047 002a 8642     		cmp	r6, r0
 1048 002c 05D3     		bcc	.L72
 732:..\FreeRTOS\Source/stream_buffer.c **** 
 1049              		.loc 1 732 0
 1050 002e 0020     		movs	r0, #0
 1051              	.LVL147:
 1052 0030 FFF7FEFF 		bl	xTaskNotifyStateClear
 1053              	.LVL148:
 736:..\FreeRTOS\Source/stream_buffer.c **** 			}
 1054              		.loc 1 736 0
 1055 0034 FFF7FEFF 		bl	xTaskGetCurrentTaskHandle
 1056              	.LVL149:
 1057 0038 2061     		str	r0, [r4, #16]
 1058              	.L72:
 743:..\FreeRTOS\Source/stream_buffer.c **** 
 1059              		.loc 1 743 0
 1060 003a FFF7FEFF 		bl	vPortExitCritical
 1061              	.LVL150:
 745:..\FreeRTOS\Source/stream_buffer.c **** 		{
 1062              		.loc 1 745 0
 1063 003e AE42     		cmp	r6, r5
 1064 0040 11D3     		bcc	.L73
 749:..\FreeRTOS\Source/stream_buffer.c **** 			pxStreamBuffer->xTaskWaitingToReceive = NULL;
 1065              		.loc 1 749 0
 1066 0042 3B46     		mov	r3, r7
 1067 0044 0022     		movs	r2, #0
 1068 0046 4FF0FF31 		mov	r1, #-1
 1069 004a 1046     		mov	r0, r2
 1070 004c FFF7FEFF 		bl	xTaskNotifyWait
 1071              	.LVL151:
 750:..\FreeRTOS\Source/stream_buffer.c **** 
 1072              		.loc 1 750 0
 1073 0050 0023     		movs	r3, #0
 1074 0052 2361     		str	r3, [r4, #16]
 753:..\FreeRTOS\Source/stream_buffer.c **** 		}
 1075              		.loc 1 753 0
 1076 0054 2046     		mov	r0, r4
 1077 0056 FFF7FEFF 		bl	prvBytesInBuffer
 1078              	.LVL152:
 1079 005a 0546     		mov	r5, r0
 1080              	.LVL153:
 1081 005c 03E0     		b	.L73
 1082              	.LVL154:
ARM GAS  C:\Users\samue\AppData\Local\Temp\cc6oSIFr.s 			page 47


 1083              	.L71:
 762:..\FreeRTOS\Source/stream_buffer.c **** 	}
 1084              		.loc 1 762 0
 1085 005e 2046     		mov	r0, r4
 1086              	.LVL155:
 1087 0060 FFF7FEFF 		bl	prvBytesInBuffer
 1088              	.LVL156:
 1089 0064 0546     		mov	r5, r0
 1090              	.LVL157:
 1091              	.L73:
 770:..\FreeRTOS\Source/stream_buffer.c **** 	{
 1092              		.loc 1 770 0
 1093 0066 B542     		cmp	r5, r6
 1094 0068 17D9     		bls	.L77
 772:..\FreeRTOS\Source/stream_buffer.c **** 
 1095              		.loc 1 772 0
 1096 006a 0096     		str	r6, [sp]
 1097 006c 2B46     		mov	r3, r5
 1098 006e 4A46     		mov	r2, r9
 1099 0070 4146     		mov	r1, r8
 1100 0072 2046     		mov	r0, r4
 1101 0074 FFF7FEFF 		bl	prvReadMessageFromBuffer
 1102              	.LVL158:
 775:..\FreeRTOS\Source/stream_buffer.c **** 		{
 1103              		.loc 1 775 0
 1104 0078 0546     		mov	r5, r0
 1105              	.LVL159:
 1106 007a 78B1     		cbz	r0, .L74
 778:..\FreeRTOS\Source/stream_buffer.c **** 		}
 1107              		.loc 1 778 0
 1108 007c FFF7FEFF 		bl	vTaskSuspendAll
 1109              	.LVL160:
 1110 0080 6369     		ldr	r3, [r4, #20]
 1111 0082 3BB1     		cbz	r3, .L75
 778:..\FreeRTOS\Source/stream_buffer.c **** 		}
 1112              		.loc 1 778 0 is_stmt 0 discriminator 1
 1113 0084 6069     		ldr	r0, [r4, #20]
 1114 0086 0023     		movs	r3, #0
 1115 0088 1A46     		mov	r2, r3
 1116 008a 1946     		mov	r1, r3
 1117 008c FFF7FEFF 		bl	xTaskGenericNotify
 1118              	.LVL161:
 1119 0090 0023     		movs	r3, #0
 1120 0092 6361     		str	r3, [r4, #20]
 1121              	.L75:
 778:..\FreeRTOS\Source/stream_buffer.c **** 		}
 1122              		.loc 1 778 0 discriminator 3
 1123 0094 FFF7FEFF 		bl	xTaskResumeAll
 1124              	.LVL162:
 1125 0098 00E0     		b	.L74
 1126              	.LVL163:
 1127              	.L77:
 697:..\FreeRTOS\Source/stream_buffer.c **** 
 1128              		.loc 1 697 0 is_stmt 1
 1129 009a 0025     		movs	r5, #0
 1130              	.LVL164:
 1131              	.L74:
ARM GAS  C:\Users\samue\AppData\Local\Temp\cc6oSIFr.s 			page 48


 792:..\FreeRTOS\Source/stream_buffer.c **** /*-----------------------------------------------------------*/
 1132              		.loc 1 792 0
 1133 009c 2846     		mov	r0, r5
 1134 009e 03B0     		add	sp, sp, #12
 1135              		.cfi_def_cfa_offset 28
 1136              		@ sp needed
 1137 00a0 BDE8F083 		pop	{r4, r5, r6, r7, r8, r9, pc}
 1138              		.cfi_endproc
 1139              	.LFE77:
 1140              		.size	xStreamBufferReceive, .-xStreamBufferReceive
 1141              		.section	.text.xStreamBufferReceiveFromISR,"ax",%progbits
 1142              		.align	2
 1143              		.global	xStreamBufferReceiveFromISR
 1144              		.thumb
 1145              		.thumb_func
 1146              		.type	xStreamBufferReceiveFromISR, %function
 1147              	xStreamBufferReceiveFromISR:
 1148              	.LFB78:
 799:..\FreeRTOS\Source/stream_buffer.c **** StreamBuffer_t * const pxStreamBuffer = ( StreamBuffer_t * ) xStreamBuffer; /*lint !e9087 !e9079 Sa
 1149              		.loc 1 799 0
 1150              		.cfi_startproc
 1151              		@ args = 0, pretend = 0, frame = 0
 1152              		@ frame_needed = 0, uses_anonymous_args = 0
 1153              	.LVL165:
 1154 0000 2DE9F041 		push	{r4, r5, r6, r7, r8, lr}
 1155              		.cfi_def_cfa_offset 24
 1156              		.cfi_offset 4, -24
 1157              		.cfi_offset 5, -20
 1158              		.cfi_offset 6, -16
 1159              		.cfi_offset 7, -12
 1160              		.cfi_offset 8, -8
 1161              		.cfi_offset 14, -4
 1162 0004 82B0     		sub	sp, sp, #8
 1163              		.cfi_def_cfa_offset 32
 1164 0006 0446     		mov	r4, r0
 1165 0008 0E46     		mov	r6, r1
 1166 000a 1746     		mov	r7, r2
 1167 000c 9846     		mov	r8, r3
 1168              	.LVL166:
 811:..\FreeRTOS\Source/stream_buffer.c **** 	{
 1169              		.loc 1 811 0
 1170 000e 037F     		ldrb	r3, [r0, #28]	@ zero_extendqisi2
 1171              	.LVL167:
 1172 0010 13F0010F 		tst	r3, #1
 1173 0014 01D0     		beq	.L83
 813:..\FreeRTOS\Source/stream_buffer.c **** 	}
 1174              		.loc 1 813 0
 1175 0016 0425     		movs	r5, #4
 1176 0018 00E0     		b	.L80
 1177              	.L83:
 817:..\FreeRTOS\Source/stream_buffer.c **** 	}
 1178              		.loc 1 817 0
 1179 001a 0025     		movs	r5, #0
 1180              	.L80:
 1181              	.LVL168:
 820:..\FreeRTOS\Source/stream_buffer.c **** 
 1182              		.loc 1 820 0
ARM GAS  C:\Users\samue\AppData\Local\Temp\cc6oSIFr.s 			page 49


 1183 001c 2046     		mov	r0, r4
 1184              	.LVL169:
 1185 001e FFF7FEFF 		bl	prvBytesInBuffer
 1186              	.LVL170:
 827:..\FreeRTOS\Source/stream_buffer.c **** 	{
 1187              		.loc 1 827 0
 1188 0022 8542     		cmp	r5, r0
 1189 0024 21D2     		bcs	.L84
 829:..\FreeRTOS\Source/stream_buffer.c **** 
 1190              		.loc 1 829 0
 1191 0026 0095     		str	r5, [sp]
 1192 0028 0346     		mov	r3, r0
 1193 002a 3A46     		mov	r2, r7
 1194 002c 3146     		mov	r1, r6
 1195 002e 2046     		mov	r0, r4
 1196              	.LVL171:
 1197 0030 FFF7FEFF 		bl	prvReadMessageFromBuffer
 1198              	.LVL172:
 832:..\FreeRTOS\Source/stream_buffer.c **** 		{
 1199              		.loc 1 832 0
 1200 0034 0546     		mov	r5, r0
 1201              	.LVL173:
 1202 0036 C8B1     		cbz	r0, .L81
 1203              	.LBB25:
 1204              	.LBB26:
 1205              	.LBB27:
 211:..\FreeRTOS\Source\portable\GCC\ARM_CM3/portmacro.h **** 	(
 1206              		.loc 2 211 0
 1207              		.syntax unified
 1208              	@ 211 "..\FreeRTOS\Source\portable\GCC\ARM_CM3/portmacro.h" 1
 1209 0038 EFF31186 			mrs r6, basepri											
 1210 003c 4FF0A003 		mov r3, #160												
 1211 0040 83F31188 		msr basepri, r3											
 1212 0044 BFF36F8F 		isb														
 1213 0048 BFF34F8F 		dsb														
 1214              	
 1215              	@ 0 "" 2
 1216              	.LVL174:
 1217              		.thumb
 1218              		.syntax unified
 1219              	.LBE27:
 1220              	.LBE26:
 834:..\FreeRTOS\Source/stream_buffer.c **** 		}
 1221              		.loc 1 834 0
 1222 004c 6369     		ldr	r3, [r4, #20]
 1223 004e 4BB1     		cbz	r3, .L82
 834:..\FreeRTOS\Source/stream_buffer.c **** 		}
 1224              		.loc 1 834 0 is_stmt 0 discriminator 1
 1225 0050 6069     		ldr	r0, [r4, #20]
 1226              	.LVL175:
 1227 0052 CDF80080 		str	r8, [sp]
 1228 0056 0023     		movs	r3, #0
 1229 0058 1A46     		mov	r2, r3
 1230 005a 1946     		mov	r1, r3
 1231 005c FFF7FEFF 		bl	xTaskGenericNotifyFromISR
 1232              	.LVL176:
 1233 0060 0023     		movs	r3, #0
ARM GAS  C:\Users\samue\AppData\Local\Temp\cc6oSIFr.s 			page 50


 1234 0062 6361     		str	r3, [r4, #20]
 1235              	.L82:
 1236              	.LVL177:
 1237              	.LBB28:
 1238              	.LBB29:
 1239              		.loc 2 229 0 is_stmt 1 discriminator 3
 1240              		.syntax unified
 1241              	@ 229 "..\FreeRTOS\Source\portable\GCC\ARM_CM3/portmacro.h" 1
 1242 0064 86F31188 			msr basepri, r6	
 1243              	@ 0 "" 2
 1244              		.thumb
 1245              		.syntax unified
 1246 0068 00E0     		b	.L81
 1247              	.LVL178:
 1248              	.L84:
 1249              	.LBE29:
 1250              	.LBE28:
 1251              	.LBE25:
 801:..\FreeRTOS\Source/stream_buffer.c **** 
 1252              		.loc 1 801 0
 1253 006a 0025     		movs	r5, #0
 1254              	.LVL179:
 1255              	.L81:
 849:..\FreeRTOS\Source/stream_buffer.c **** /*-----------------------------------------------------------*/
 1256              		.loc 1 849 0
 1257 006c 2846     		mov	r0, r5
 1258 006e 02B0     		add	sp, sp, #8
 1259              		.cfi_def_cfa_offset 24
 1260              		@ sp needed
 1261 0070 BDE8F081 		pop	{r4, r5, r6, r7, r8, pc}
 1262              		.cfi_endproc
 1263              	.LFE78:
 1264              		.size	xStreamBufferReceiveFromISR, .-xStreamBufferReceiveFromISR
 1265              		.section	.text.xStreamBufferIsEmpty,"ax",%progbits
 1266              		.align	2
 1267              		.global	xStreamBufferIsEmpty
 1268              		.thumb
 1269              		.thumb_func
 1270              		.type	xStreamBufferIsEmpty, %function
 1271              	xStreamBufferIsEmpty:
 1272              	.LFB80:
 903:..\FreeRTOS\Source/stream_buffer.c **** const StreamBuffer_t * const pxStreamBuffer = ( StreamBuffer_t * ) xStreamBuffer; /*lint !e9087 !e9
 1273              		.loc 1 903 0
 1274              		.cfi_startproc
 1275              		@ args = 0, pretend = 0, frame = 0
 1276              		@ frame_needed = 0, uses_anonymous_args = 0
 1277              		@ link register save eliminated.
 1278              	.LVL180:
 911:..\FreeRTOS\Source/stream_buffer.c **** 	if( pxStreamBuffer->xHead == xTail )
 1279              		.loc 1 911 0
 1280 0000 0268     		ldr	r2, [r0]
 1281              	.LVL181:
 912:..\FreeRTOS\Source/stream_buffer.c **** 	{
 1282              		.loc 1 912 0
 1283 0002 4368     		ldr	r3, [r0, #4]
 1284 0004 9A42     		cmp	r2, r3
 1285 0006 01D1     		bne	.L88
ARM GAS  C:\Users\samue\AppData\Local\Temp\cc6oSIFr.s 			page 51


 914:..\FreeRTOS\Source/stream_buffer.c **** 	}
 1286              		.loc 1 914 0
 1287 0008 0120     		movs	r0, #1
 1288              	.LVL182:
 1289 000a 7047     		bx	lr
 1290              	.LVL183:
 1291              	.L88:
 918:..\FreeRTOS\Source/stream_buffer.c **** 	}
 1292              		.loc 1 918 0
 1293 000c 0020     		movs	r0, #0
 1294              	.LVL184:
 922:..\FreeRTOS\Source/stream_buffer.c **** /*-----------------------------------------------------------*/
 1295              		.loc 1 922 0
 1296 000e 7047     		bx	lr
 1297              		.cfi_endproc
 1298              	.LFE80:
 1299              		.size	xStreamBufferIsEmpty, .-xStreamBufferIsEmpty
 1300              		.section	.text.xStreamBufferIsFull,"ax",%progbits
 1301              		.align	2
 1302              		.global	xStreamBufferIsFull
 1303              		.thumb
 1304              		.thumb_func
 1305              		.type	xStreamBufferIsFull, %function
 1306              	xStreamBufferIsFull:
 1307              	.LFB81:
 926:..\FreeRTOS\Source/stream_buffer.c **** BaseType_t xReturn;
 1308              		.loc 1 926 0
 1309              		.cfi_startproc
 1310              		@ args = 0, pretend = 0, frame = 0
 1311              		@ frame_needed = 0, uses_anonymous_args = 0
 1312              	.LVL185:
 1313 0000 10B5     		push	{r4, lr}
 1314              		.cfi_def_cfa_offset 8
 1315              		.cfi_offset 4, -8
 1316              		.cfi_offset 14, -4
 1317              	.LVL186:
 937:..\FreeRTOS\Source/stream_buffer.c **** 	{
 1318              		.loc 1 937 0
 1319 0002 037F     		ldrb	r3, [r0, #28]	@ zero_extendqisi2
 1320 0004 13F0010F 		tst	r3, #1
 1321 0008 01D0     		beq	.L92
 939:..\FreeRTOS\Source/stream_buffer.c **** 	}
 1322              		.loc 1 939 0
 1323 000a 0424     		movs	r4, #4
 1324 000c 00E0     		b	.L90
 1325              	.L92:
 943:..\FreeRTOS\Source/stream_buffer.c **** 	}
 1326              		.loc 1 943 0
 1327 000e 0024     		movs	r4, #0
 1328              	.L90:
 1329              	.LVL187:
 947:..\FreeRTOS\Source/stream_buffer.c **** 	{
 1330              		.loc 1 947 0
 1331 0010 FFF7FEFF 		bl	xStreamBufferSpacesAvailable
 1332              	.LVL188:
 1333 0014 8442     		cmp	r4, r0
 1334 0016 01D3     		bcc	.L93
ARM GAS  C:\Users\samue\AppData\Local\Temp\cc6oSIFr.s 			page 52


 949:..\FreeRTOS\Source/stream_buffer.c **** 	}
 1335              		.loc 1 949 0
 1336 0018 0120     		movs	r0, #1
 1337 001a 10BD     		pop	{r4, pc}
 1338              	.LVL189:
 1339              	.L93:
 953:..\FreeRTOS\Source/stream_buffer.c **** 	}
 1340              		.loc 1 953 0
 1341 001c 0020     		movs	r0, #0
 1342              	.LVL190:
 957:..\FreeRTOS\Source/stream_buffer.c **** /*-----------------------------------------------------------*/
 1343              		.loc 1 957 0
 1344 001e 10BD     		pop	{r4, pc}
 1345              		.cfi_endproc
 1346              	.LFE81:
 1347              		.size	xStreamBufferIsFull, .-xStreamBufferIsFull
 1348              		.section	.text.xStreamBufferSendCompletedFromISR,"ax",%progbits
 1349              		.align	2
 1350              		.global	xStreamBufferSendCompletedFromISR
 1351              		.thumb
 1352              		.thumb_func
 1353              		.type	xStreamBufferSendCompletedFromISR, %function
 1354              	xStreamBufferSendCompletedFromISR:
 1355              	.LFB82:
 961:..\FreeRTOS\Source/stream_buffer.c **** StreamBuffer_t * const pxStreamBuffer = ( StreamBuffer_t * ) xStreamBuffer; /*lint !e9087 !e9079 Sa
 1356              		.loc 1 961 0
 1357              		.cfi_startproc
 1358              		@ args = 0, pretend = 0, frame = 0
 1359              		@ frame_needed = 0, uses_anonymous_args = 0
 1360              	.LVL191:
 1361 0000 30B5     		push	{r4, r5, lr}
 1362              		.cfi_def_cfa_offset 12
 1363              		.cfi_offset 4, -12
 1364              		.cfi_offset 5, -8
 1365              		.cfi_offset 14, -4
 1366 0002 83B0     		sub	sp, sp, #12
 1367              		.cfi_def_cfa_offset 24
 1368              	.LVL192:
 1369              	.LBB30:
 1370              	.LBB31:
 211:..\FreeRTOS\Source\portable\GCC\ARM_CM3/portmacro.h **** 	(
 1371              		.loc 2 211 0
 1372              		.syntax unified
 1373              	@ 211 "..\FreeRTOS\Source\portable\GCC\ARM_CM3/portmacro.h" 1
 1374 0004 EFF31185 			mrs r5, basepri											
 1375 0008 4FF0A003 		mov r3, #160												
 1376 000c 83F31188 		msr basepri, r3											
 1377 0010 BFF36F8F 		isb														
 1378 0014 BFF34F8F 		dsb														
 1379              	
 1380              	@ 0 "" 2
 1381              		.thumb
 1382              		.syntax unified
 1383              	.LBE31:
 1384              	.LBE30:
 970:..\FreeRTOS\Source/stream_buffer.c **** 		{
 1385              		.loc 1 970 0
ARM GAS  C:\Users\samue\AppData\Local\Temp\cc6oSIFr.s 			page 53


 1386 0018 0369     		ldr	r3, [r0, #16]
 1387 001a 5BB1     		cbz	r3, .L97
 1388 001c 0446     		mov	r4, r0
 972:..\FreeRTOS\Source/stream_buffer.c **** 										 ( uint32_t ) 0,
 1389              		.loc 1 972 0
 1390 001e 0069     		ldr	r0, [r0, #16]
 1391              	.LVL193:
 1392 0020 0091     		str	r1, [sp]
 1393 0022 0023     		movs	r3, #0
 1394 0024 1A46     		mov	r2, r3
 1395 0026 1946     		mov	r1, r3
 1396              	.LVL194:
 1397 0028 FFF7FEFF 		bl	xTaskGenericNotifyFromISR
 1398              	.LVL195:
 976:..\FreeRTOS\Source/stream_buffer.c **** 			xReturn = pdTRUE;
 1399              		.loc 1 976 0
 1400 002c 0023     		movs	r3, #0
 1401 002e 2361     		str	r3, [r4, #16]
 1402              	.LVL196:
 977:..\FreeRTOS\Source/stream_buffer.c **** 		}
 1403              		.loc 1 977 0
 1404 0030 0120     		movs	r0, #1
 1405 0032 00E0     		b	.L96
 1406              	.LVL197:
 1407              	.L97:
 981:..\FreeRTOS\Source/stream_buffer.c **** 		}
 1408              		.loc 1 981 0
 1409 0034 0020     		movs	r0, #0
 1410              	.LVL198:
 1411              	.L96:
 1412              	.LBB32:
 1413              	.LBB33:
 1414              		.loc 2 229 0
 1415              		.syntax unified
 1416              	@ 229 "..\FreeRTOS\Source\portable\GCC\ARM_CM3/portmacro.h" 1
 1417 0036 85F31188 			msr basepri, r5	
 1418              	@ 0 "" 2
 1419              	.LVL199:
 1420              		.thumb
 1421              		.syntax unified
 1422              	.LBE33:
 1423              	.LBE32:
 987:..\FreeRTOS\Source/stream_buffer.c **** /*-----------------------------------------------------------*/
 1424              		.loc 1 987 0
 1425 003a 03B0     		add	sp, sp, #12
 1426              		.cfi_def_cfa_offset 12
 1427              		@ sp needed
 1428 003c 30BD     		pop	{r4, r5, pc}
 1429              		.cfi_endproc
 1430              	.LFE82:
 1431              		.size	xStreamBufferSendCompletedFromISR, .-xStreamBufferSendCompletedFromISR
 1432 003e 00BF     		.section	.text.xStreamBufferReceiveCompletedFromISR,"ax",%progbits
 1433              		.align	2
 1434              		.global	xStreamBufferReceiveCompletedFromISR
 1435              		.thumb
 1436              		.thumb_func
 1437              		.type	xStreamBufferReceiveCompletedFromISR, %function
ARM GAS  C:\Users\samue\AppData\Local\Temp\cc6oSIFr.s 			page 54


 1438              	xStreamBufferReceiveCompletedFromISR:
 1439              	.LFB83:
 991:..\FreeRTOS\Source/stream_buffer.c **** StreamBuffer_t * const pxStreamBuffer = ( StreamBuffer_t * ) xStreamBuffer; /*lint !e9087 !e9079 Sa
 1440              		.loc 1 991 0
 1441              		.cfi_startproc
 1442              		@ args = 0, pretend = 0, frame = 0
 1443              		@ frame_needed = 0, uses_anonymous_args = 0
 1444              	.LVL200:
 1445 0000 30B5     		push	{r4, r5, lr}
 1446              		.cfi_def_cfa_offset 12
 1447              		.cfi_offset 4, -12
 1448              		.cfi_offset 5, -8
 1449              		.cfi_offset 14, -4
 1450 0002 83B0     		sub	sp, sp, #12
 1451              		.cfi_def_cfa_offset 24
 1452              	.LVL201:
 1453              	.LBB34:
 1454              	.LBB35:
 211:..\FreeRTOS\Source\portable\GCC\ARM_CM3/portmacro.h **** 	(
 1455              		.loc 2 211 0
 1456              		.syntax unified
 1457              	@ 211 "..\FreeRTOS\Source\portable\GCC\ARM_CM3/portmacro.h" 1
 1458 0004 EFF31185 			mrs r5, basepri											
 1459 0008 4FF0A003 		mov r3, #160												
 1460 000c 83F31188 		msr basepri, r3											
 1461 0010 BFF36F8F 		isb														
 1462 0014 BFF34F8F 		dsb														
 1463              	
 1464              	@ 0 "" 2
 1465              		.thumb
 1466              		.syntax unified
 1467              	.LBE35:
 1468              	.LBE34:
1000:..\FreeRTOS\Source/stream_buffer.c **** 		{
 1469              		.loc 1 1000 0
 1470 0018 4369     		ldr	r3, [r0, #20]
 1471 001a 5BB1     		cbz	r3, .L101
 1472 001c 0446     		mov	r4, r0
1002:..\FreeRTOS\Source/stream_buffer.c **** 										 ( uint32_t ) 0,
 1473              		.loc 1 1002 0
 1474 001e 4069     		ldr	r0, [r0, #20]
 1475              	.LVL202:
 1476 0020 0091     		str	r1, [sp]
 1477 0022 0023     		movs	r3, #0
 1478 0024 1A46     		mov	r2, r3
 1479 0026 1946     		mov	r1, r3
 1480              	.LVL203:
 1481 0028 FFF7FEFF 		bl	xTaskGenericNotifyFromISR
 1482              	.LVL204:
1006:..\FreeRTOS\Source/stream_buffer.c **** 			xReturn = pdTRUE;
 1483              		.loc 1 1006 0
 1484 002c 0023     		movs	r3, #0
 1485 002e 6361     		str	r3, [r4, #20]
 1486              	.LVL205:
1007:..\FreeRTOS\Source/stream_buffer.c **** 		}
 1487              		.loc 1 1007 0
 1488 0030 0120     		movs	r0, #1
ARM GAS  C:\Users\samue\AppData\Local\Temp\cc6oSIFr.s 			page 55


 1489 0032 00E0     		b	.L100
 1490              	.LVL206:
 1491              	.L101:
1011:..\FreeRTOS\Source/stream_buffer.c **** 		}
 1492              		.loc 1 1011 0
 1493 0034 0020     		movs	r0, #0
 1494              	.LVL207:
 1495              	.L100:
 1496              	.LBB36:
 1497              	.LBB37:
 1498              		.loc 2 229 0
 1499              		.syntax unified
 1500              	@ 229 "..\FreeRTOS\Source\portable\GCC\ARM_CM3/portmacro.h" 1
 1501 0036 85F31188 			msr basepri, r5	
 1502              	@ 0 "" 2
 1503              	.LVL208:
 1504              		.thumb
 1505              		.syntax unified
 1506              	.LBE37:
 1507              	.LBE36:
1017:..\FreeRTOS\Source/stream_buffer.c **** /*-----------------------------------------------------------*/
 1508              		.loc 1 1017 0
 1509 003a 03B0     		add	sp, sp, #12
 1510              		.cfi_def_cfa_offset 12
 1511              		@ sp needed
 1512 003c 30BD     		pop	{r4, r5, pc}
 1513              		.cfi_endproc
 1514              	.LFE83:
 1515              		.size	xStreamBufferReceiveCompletedFromISR, .-xStreamBufferReceiveCompletedFromISR
 1516 003e 00BF     		.section	.text.uxStreamBufferGetStreamBufferNumber,"ax",%progbits
 1517              		.align	2
 1518              		.global	uxStreamBufferGetStreamBufferNumber
 1519              		.thumb
 1520              		.thumb_func
 1521              		.type	uxStreamBufferGetStreamBufferNumber, %function
 1522              	uxStreamBufferGetStreamBufferNumber:
 1523              	.LFB88:
1168:..\FreeRTOS\Source/stream_buffer.c **** 	}
1169:..\FreeRTOS\Source/stream_buffer.c **** }
1170:..\FreeRTOS\Source/stream_buffer.c **** 
1171:..\FreeRTOS\Source/stream_buffer.c **** #if ( configUSE_TRACE_FACILITY == 1 )
1172:..\FreeRTOS\Source/stream_buffer.c **** 
1173:..\FreeRTOS\Source/stream_buffer.c **** 	UBaseType_t uxStreamBufferGetStreamBufferNumber( StreamBufferHandle_t xStreamBuffer )
1174:..\FreeRTOS\Source/stream_buffer.c **** 	{
 1524              		.loc 1 1174 0
 1525              		.cfi_startproc
 1526              		@ args = 0, pretend = 0, frame = 0
 1527              		@ frame_needed = 0, uses_anonymous_args = 0
 1528              		@ link register save eliminated.
 1529              	.LVL209:
1175:..\FreeRTOS\Source/stream_buffer.c **** 		return ( ( StreamBuffer_t * ) xStreamBuffer )->uxStreamBufferNumber;
1176:..\FreeRTOS\Source/stream_buffer.c **** 	}
 1530              		.loc 1 1176 0
 1531 0000 006A     		ldr	r0, [r0, #32]
 1532              	.LVL210:
 1533 0002 7047     		bx	lr
 1534              		.cfi_endproc
ARM GAS  C:\Users\samue\AppData\Local\Temp\cc6oSIFr.s 			page 56


 1535              	.LFE88:
 1536              		.size	uxStreamBufferGetStreamBufferNumber, .-uxStreamBufferGetStreamBufferNumber
 1537              		.section	.text.vStreamBufferSetStreamBufferNumber,"ax",%progbits
 1538              		.align	2
 1539              		.global	vStreamBufferSetStreamBufferNumber
 1540              		.thumb
 1541              		.thumb_func
 1542              		.type	vStreamBufferSetStreamBufferNumber, %function
 1543              	vStreamBufferSetStreamBufferNumber:
 1544              	.LFB89:
1177:..\FreeRTOS\Source/stream_buffer.c **** 
1178:..\FreeRTOS\Source/stream_buffer.c **** #endif /* configUSE_TRACE_FACILITY */
1179:..\FreeRTOS\Source/stream_buffer.c **** /*-----------------------------------------------------------*/
1180:..\FreeRTOS\Source/stream_buffer.c **** 
1181:..\FreeRTOS\Source/stream_buffer.c **** #if ( configUSE_TRACE_FACILITY == 1 )
1182:..\FreeRTOS\Source/stream_buffer.c **** 
1183:..\FreeRTOS\Source/stream_buffer.c **** 	void vStreamBufferSetStreamBufferNumber( StreamBufferHandle_t xStreamBuffer, UBaseType_t uxStreamB
1184:..\FreeRTOS\Source/stream_buffer.c **** 	{
 1545              		.loc 1 1184 0
 1546              		.cfi_startproc
 1547              		@ args = 0, pretend = 0, frame = 0
 1548              		@ frame_needed = 0, uses_anonymous_args = 0
 1549              		@ link register save eliminated.
 1550              	.LVL211:
1185:..\FreeRTOS\Source/stream_buffer.c **** 		( ( StreamBuffer_t * ) xStreamBuffer )->uxStreamBufferNumber = uxStreamBufferNumber;
 1551              		.loc 1 1185 0
 1552 0000 0162     		str	r1, [r0, #32]
 1553 0002 7047     		bx	lr
 1554              		.cfi_endproc
 1555              	.LFE89:
 1556              		.size	vStreamBufferSetStreamBufferNumber, .-vStreamBufferSetStreamBufferNumber
 1557              		.section	.text.ucStreamBufferGetStreamBufferType,"ax",%progbits
 1558              		.align	2
 1559              		.global	ucStreamBufferGetStreamBufferType
 1560              		.thumb
 1561              		.thumb_func
 1562              		.type	ucStreamBufferGetStreamBufferType, %function
 1563              	ucStreamBufferGetStreamBufferType:
 1564              	.LFB90:
1186:..\FreeRTOS\Source/stream_buffer.c **** 	}
1187:..\FreeRTOS\Source/stream_buffer.c **** 
1188:..\FreeRTOS\Source/stream_buffer.c **** #endif /* configUSE_TRACE_FACILITY */
1189:..\FreeRTOS\Source/stream_buffer.c **** /*-----------------------------------------------------------*/
1190:..\FreeRTOS\Source/stream_buffer.c **** 
1191:..\FreeRTOS\Source/stream_buffer.c **** #if ( configUSE_TRACE_FACILITY == 1 )
1192:..\FreeRTOS\Source/stream_buffer.c **** 
1193:..\FreeRTOS\Source/stream_buffer.c **** 	uint8_t ucStreamBufferGetStreamBufferType( StreamBufferHandle_t xStreamBuffer )
1194:..\FreeRTOS\Source/stream_buffer.c **** 	{
 1565              		.loc 1 1194 0
 1566              		.cfi_startproc
 1567              		@ args = 0, pretend = 0, frame = 0
 1568              		@ frame_needed = 0, uses_anonymous_args = 0
 1569              		@ link register save eliminated.
 1570              	.LVL212:
1195:..\FreeRTOS\Source/stream_buffer.c **** 		return ( ( StreamBuffer_t * )xStreamBuffer )->ucFlags | sbFLAGS_IS_MESSAGE_BUFFER;
 1571              		.loc 1 1195 0
 1572 0000 007F     		ldrb	r0, [r0, #28]	@ zero_extendqisi2
ARM GAS  C:\Users\samue\AppData\Local\Temp\cc6oSIFr.s 			page 57


 1573              	.LVL213:
1196:..\FreeRTOS\Source/stream_buffer.c **** 	}
 1574              		.loc 1 1196 0
 1575 0002 40F00100 		orr	r0, r0, #1
 1576 0006 7047     		bx	lr
 1577              		.cfi_endproc
 1578              	.LFE90:
 1579              		.size	ucStreamBufferGetStreamBufferType, .-ucStreamBufferGetStreamBufferType
 1580              		.text
 1581              	.Letext0:
 1582              		.file 3 "c:\\program files (x86)\\cypress\\psoc creator\\4.2\\psoc creator\\import\\gnu\\arm\\5.4.
 1583              		.file 4 "c:\\program files (x86)\\cypress\\psoc creator\\4.2\\psoc creator\\import\\gnu\\arm\\5.4.
 1584              		.file 5 "c:\\program files (x86)\\cypress\\psoc creator\\4.2\\psoc creator\\import\\gnu\\arm\\5.4.
 1585              		.file 6 "..\\FreeRTOS\\Source\\include/task.h"
 1586              		.file 7 "..\\FreeRTOS\\Source\\include/stream_buffer.h"
 1587              		.file 8 "..\\FreeRTOS\\Source\\include/portable.h"
 1588              		.file 9 "Generated_Source\\PSoC5/core_cm3.h"