ARM GAS  C:\Users\samue\AppData\Local\Temp\ccEfsy6u.s 			page 1


   1              		.syntax unified
   2              		.cpu cortex-m3
   3              		.fpu softvfp
   4              		.eabi_attribute 20, 1
   5              		.eabi_attribute 21, 1
   6              		.eabi_attribute 23, 3
   7              		.eabi_attribute 24, 1
   8              		.eabi_attribute 25, 1
   9              		.eabi_attribute 26, 1
  10              		.eabi_attribute 30, 1
  11              		.eabi_attribute 34, 1
  12              		.eabi_attribute 18, 4
  13              		.thumb
  14              		.syntax unified
  15              		.file	"Ultra.c"
  16              		.text
  17              	.Ltext0:
  18              		.cfi_sections	.debug_frame
  19              		.section	.text.UltraSonicTask,"ax",%progbits
  20              		.align	2
  21              		.global	UltraSonicTask
  22              		.thumb
  23              		.thumb_func
  24              		.type	UltraSonicTask, %function
  25              	UltraSonicTask:
  26              	.LFB68:
  27              		.file 1 "ZumoLibrary\\Ultra.c"
   1:ZumoLibrary/Ultra.c **** /**
   2:ZumoLibrary/Ultra.c ****  * @file    Ultra.c
   3:ZumoLibrary/Ultra.c ****  * @brief   Basic methods for operating ultrasonic sensor. For more details, please refer to Ultra.
   4:ZumoLibrary/Ultra.c ****  * @details part number: HC-SR04
   5:ZumoLibrary/Ultra.c **** */
   6:ZumoLibrary/Ultra.c **** #include "FreeRTOS.h"
   7:ZumoLibrary/Ultra.c **** #include "task.h"
   8:ZumoLibrary/Ultra.c **** 
   9:ZumoLibrary/Ultra.c **** #include "project.h"
  10:ZumoLibrary/Ultra.c **** #include <stdint.h>
  11:ZumoLibrary/Ultra.c **** #include <stdbool.h>
  12:ZumoLibrary/Ultra.c **** 
  13:ZumoLibrary/Ultra.c **** #include "Ultra.h"
  14:ZumoLibrary/Ultra.c **** 
  15:ZumoLibrary/Ultra.c **** static TaskHandle_t UltraHandle = NULL;
  16:ZumoLibrary/Ultra.c **** static volatile int distance;
  17:ZumoLibrary/Ultra.c **** 
  18:ZumoLibrary/Ultra.c **** 
  19:ZumoLibrary/Ultra.c **** /**
  20:ZumoLibrary/Ultra.c **** * @brief    Ultrasonic handler - called from FreeRTOS systick hook
  21:ZumoLibrary/Ultra.c **** * @details  Counts ticks to next activation
  22:ZumoLibrary/Ultra.c **** */
  23:ZumoLibrary/Ultra.c **** void UltraSonicTask( void *pvParameters )
  24:ZumoLibrary/Ultra.c **** {
  28              		.loc 1 24 0
  29              		.cfi_startproc
  30              		@ args = 0, pretend = 0, frame = 8
  31              		@ frame_needed = 0, uses_anonymous_args = 0
  32              	.LVL0:
  33 0000 00B5     		push	{lr}
ARM GAS  C:\Users\samue\AppData\Local\Temp\ccEfsy6u.s 			page 2


  34              		.cfi_def_cfa_offset 4
  35              		.cfi_offset 14, -4
  36 0002 83B0     		sub	sp, sp, #12
  37              		.cfi_def_cfa_offset 16
  25:ZumoLibrary/Ultra.c ****     (void) pvParameters;
  26:ZumoLibrary/Ultra.c **** 
  27:ZumoLibrary/Ultra.c ****     TickType_t prev;
  28:ZumoLibrary/Ultra.c ****     
  29:ZumoLibrary/Ultra.c ****     prev = xTaskGetTickCount();
  38              		.loc 1 29 0
  39 0004 FFF7FEFF 		bl	xTaskGetTickCount
  40              	.LVL1:
  41 0008 0190     		str	r0, [sp, #4]
  42              	.L3:
  30:ZumoLibrary/Ultra.c ****     
  31:ZumoLibrary/Ultra.c ****     // try to trigger every 25 ms
  32:ZumoLibrary/Ultra.c ****     while(1) {
  33:ZumoLibrary/Ultra.c ****         // Trigger High only if echo pulse is not active
  34:ZumoLibrary/Ultra.c ****         if(Echo_Read() == 0) {
  43              		.loc 1 34 0
  44 000a FFF7FEFF 		bl	Echo_Read
  45              	.LVL2:
  46 000e 40B9     		cbnz	r0, .L2
  35:ZumoLibrary/Ultra.c ****             Trig_Write(1);
  47              		.loc 1 35 0
  48 0010 0120     		movs	r0, #1
  49 0012 FFF7FEFF 		bl	Trig_Write
  50              	.LVL3:
  36:ZumoLibrary/Ultra.c ****             vTaskDelay(1);
  51              		.loc 1 36 0
  52 0016 0120     		movs	r0, #1
  53 0018 FFF7FEFF 		bl	vTaskDelay
  54              	.LVL4:
  37:ZumoLibrary/Ultra.c ****             Trig_Write(0);
  55              		.loc 1 37 0
  56 001c 0020     		movs	r0, #0
  57 001e FFF7FEFF 		bl	Trig_Write
  58              	.LVL5:
  59              	.L2:
  38:ZumoLibrary/Ultra.c ****         }
  39:ZumoLibrary/Ultra.c ****         vTaskDelayUntil(&prev, 25);
  60              		.loc 1 39 0
  61 0022 1921     		movs	r1, #25
  62 0024 01A8     		add	r0, sp, #4
  63 0026 FFF7FEFF 		bl	vTaskDelayUntil
  64              	.LVL6:
  40:ZumoLibrary/Ultra.c ****     }
  65              		.loc 1 40 0
  66 002a EEE7     		b	.L3
  67              		.cfi_endproc
  68              	.LFE68:
  69              		.size	UltraSonicTask, .-UltraSonicTask
  70              		.section	.text.ultra_isr_handler,"ax",%progbits
  71              		.align	2
  72              		.global	ultra_isr_handler
  73              		.thumb
  74              		.thumb_func
ARM GAS  C:\Users\samue\AppData\Local\Temp\ccEfsy6u.s 			page 3


  75              		.type	ultra_isr_handler, %function
  76              	ultra_isr_handler:
  77              	.LFB69:
  41:ZumoLibrary/Ultra.c **** }
  42:ZumoLibrary/Ultra.c **** 
  43:ZumoLibrary/Ultra.c **** 
  44:ZumoLibrary/Ultra.c **** /**
  45:ZumoLibrary/Ultra.c **** * @brief    Ultra Sonic Sensor Interrupt Handler
  46:ZumoLibrary/Ultra.c **** * @details  Measuring reflecting time to decide distance between Zumobot and obstacle
  47:ZumoLibrary/Ultra.c **** */
  48:ZumoLibrary/Ultra.c **** CY_ISR(ultra_isr_handler)
  49:ZumoLibrary/Ultra.c **** {
  78              		.loc 1 49 0
  79              		.cfi_startproc
  80              		@ args = 0, pretend = 0, frame = 0
  81              		@ frame_needed = 0, uses_anonymous_args = 0
  82 0000 70B5     		push	{r4, r5, r6, lr}
  83              		.cfi_def_cfa_offset 16
  84              		.cfi_offset 4, -16
  85              		.cfi_offset 5, -12
  86              		.cfi_offset 6, -8
  87              		.cfi_offset 14, -4
  88              	.L11:
  50:ZumoLibrary/Ultra.c ****     static uint16_t prev;
  51:ZumoLibrary/Ultra.c ****     static uint32_t ovf;
  52:ZumoLibrary/Ultra.c ****     static int echo;
  53:ZumoLibrary/Ultra.c ****     uint16_t now;
  54:ZumoLibrary/Ultra.c ****     uint32_t status;
  55:ZumoLibrary/Ultra.c ****     do {
  56:ZumoLibrary/Ultra.c ****         status = Timer_ReadStatusRegister();
  89              		.loc 1 56 0
  90 0002 FFF7FEFF 		bl	Timer_ReadStatusRegister
  91              	.LVL7:
  92 0006 0446     		mov	r4, r0
  93              	.LVL8:
  94 0008 00F00803 		and	r3, r0, #8
  57:ZumoLibrary/Ultra.c ****         if(status & Timer_STATUS_FIFONEMP) {
  95              		.loc 1 57 0
  96 000c 03F0FF05 		and	r5, r3, #255
  97 0010 0BB3     		cbz	r3, .L6
  58:ZumoLibrary/Ultra.c ****             now = Timer_ReadCapture();
  98              		.loc 1 58 0
  99 0012 FFF7FEFF 		bl	Timer_ReadCapture
 100              	.LVL9:
 101 0016 0646     		mov	r6, r0
 102              	.LVL10:
  59:ZumoLibrary/Ultra.c ****             if(Echo_Read() == 0) {
 103              		.loc 1 59 0
 104 0018 FFF7FEFF 		bl	Echo_Read
 105              	.LVL11:
 106 001c A0B9     		cbnz	r0, .L7
 107              	.LBB2:
  60:ZumoLibrary/Ultra.c ****                 uint16_t time = prev - now;
 108              		.loc 1 60 0
 109 001e 134A     		ldr	r2, .L13
 110 0020 1388     		ldrh	r3, [r2]
 111 0022 9B1B     		subs	r3, r3, r6
ARM GAS  C:\Users\samue\AppData\Local\Temp\ccEfsy6u.s 			page 4


 112 0024 9BB2     		uxth	r3, r3
 113              	.LVL12:
  61:ZumoLibrary/Ultra.c ****                 if(echo == 1 && ovf <= 1) {
 114              		.loc 1 61 0
 115 0026 5268     		ldr	r2, [r2, #4]
 116 0028 012A     		cmp	r2, #1
 117 002a 09D1     		bne	.L8
 118              		.loc 1 61 0 is_stmt 0 discriminator 1
 119 002c 0F4A     		ldr	r2, .L13
 120 002e 9268     		ldr	r2, [r2, #8]
 121 0030 012A     		cmp	r2, #1
 122 0032 05D8     		bhi	.L8
  62:ZumoLibrary/Ultra.c ****                     distance = time / 58;
 123              		.loc 1 62 0 is_stmt 1
 124 0034 0E4A     		ldr	r2, .L13+4
 125 0036 A2FB0323 		umull	r2, r3, r2, r3
 126              	.LVL13:
 127 003a 5B09     		lsrs	r3, r3, #5
 128 003c 0B4A     		ldr	r2, .L13
 129 003e D360     		str	r3, [r2, #12]
 130              	.L8:
  63:ZumoLibrary/Ultra.c ****                 }
  64:ZumoLibrary/Ultra.c ****                 echo = 0;
 131              		.loc 1 64 0
 132 0040 0022     		movs	r2, #0
 133 0042 0A4B     		ldr	r3, .L13
 134 0044 5A60     		str	r2, [r3, #4]
 135              	.LBE2:
 136 0046 02E0     		b	.L9
 137              	.LVL14:
 138              	.L7:
  65:ZumoLibrary/Ultra.c **** #if 0                
  66:ZumoLibrary/Ultra.c ****                 // for visual debugging of overly long pulse
  67:ZumoLibrary/Ultra.c ****                 if(ovf > 1) {
  68:ZumoLibrary/Ultra.c ****                     BatteryLed_Write(!BatteryLed_Read());
  69:ZumoLibrary/Ultra.c ****                 }
  70:ZumoLibrary/Ultra.c **** #endif                
  71:ZumoLibrary/Ultra.c ****             }
  72:ZumoLibrary/Ultra.c ****             else {
  73:ZumoLibrary/Ultra.c ****                 echo = 1;
 139              		.loc 1 73 0
 140 0048 0122     		movs	r2, #1
 141 004a 084B     		ldr	r3, .L13
 142 004c 5A60     		str	r2, [r3, #4]
 143              	.L9:
  74:ZumoLibrary/Ultra.c ****             }
  75:ZumoLibrary/Ultra.c ****             prev = now;
 144              		.loc 1 75 0
 145 004e 074B     		ldr	r3, .L13
 146 0050 1E80     		strh	r6, [r3]	@ movhi
  76:ZumoLibrary/Ultra.c ****             ovf = 0;
 147              		.loc 1 76 0
 148 0052 0022     		movs	r2, #0
 149 0054 9A60     		str	r2, [r3, #8]
 150              	.LVL15:
 151              	.L6:
  77:ZumoLibrary/Ultra.c ****         }
ARM GAS  C:\Users\samue\AppData\Local\Temp\ccEfsy6u.s 			page 5


  78:ZumoLibrary/Ultra.c ****         if(status & Timer_STATUS_TC) {
 152              		.loc 1 78 0
 153 0056 14F0010F 		tst	r4, #1
 154 005a 03D0     		beq	.L10
  79:ZumoLibrary/Ultra.c ****             ++ovf; // used to count overly long pulses
 155              		.loc 1 79 0
 156 005c 034A     		ldr	r2, .L13
 157 005e 9368     		ldr	r3, [r2, #8]
 158 0060 0133     		adds	r3, r3, #1
 159 0062 9360     		str	r3, [r2, #8]
 160              	.L10:
  80:ZumoLibrary/Ultra.c ****         }
  81:ZumoLibrary/Ultra.c ****     } while(status & Timer_STATUS_FIFONEMP);
 161              		.loc 1 81 0
 162 0064 002D     		cmp	r5, #0
 163 0066 CCD1     		bne	.L11
  82:ZumoLibrary/Ultra.c **** }
 164              		.loc 1 82 0
 165 0068 70BD     		pop	{r4, r5, r6, pc}
 166              	.L14:
 167 006a 00BF     		.align	2
 168              	.L13:
 169 006c 00000000 		.word	.LANCHOR0
 170 0070 09CB3D8D 		.word	-1925330167
 171              		.cfi_endproc
 172              	.LFE69:
 173              		.size	ultra_isr_handler, .-ultra_isr_handler
 174              		.section	.text.Ultra_Start,"ax",%progbits
 175              		.align	2
 176              		.global	Ultra_Start
 177              		.thumb
 178              		.thumb_func
 179              		.type	Ultra_Start, %function
 180              	Ultra_Start:
 181              	.LFB70:
  83:ZumoLibrary/Ultra.c **** 
  84:ZumoLibrary/Ultra.c **** 
  85:ZumoLibrary/Ultra.c **** /**
  86:ZumoLibrary/Ultra.c **** * @brief    Starting Ultra Sonic Sensor
  87:ZumoLibrary/Ultra.c **** * @details  
  88:ZumoLibrary/Ultra.c **** */
  89:ZumoLibrary/Ultra.c **** void Ultra_Start()
  90:ZumoLibrary/Ultra.c **** {
 182              		.loc 1 90 0
 183              		.cfi_startproc
 184              		@ args = 0, pretend = 0, frame = 0
 185              		@ frame_needed = 0, uses_anonymous_args = 0
  91:ZumoLibrary/Ultra.c ****     if(UltraHandle == NULL) {
 186              		.loc 1 91 0
 187 0000 0B4B     		ldr	r3, .L19
 188 0002 1B69     		ldr	r3, [r3, #16]
 189 0004 9BB9     		cbnz	r3, .L18
  90:ZumoLibrary/Ultra.c ****     if(UltraHandle == NULL) {
 190              		.loc 1 90 0
 191 0006 00B5     		push	{lr}
 192              		.cfi_def_cfa_offset 4
 193              		.cfi_offset 14, -4
ARM GAS  C:\Users\samue\AppData\Local\Temp\ccEfsy6u.s 			page 6


 194 0008 83B0     		sub	sp, sp, #12
 195              		.cfi_def_cfa_offset 16
  92:ZumoLibrary/Ultra.c ****         ultra_isr_StartEx(ultra_isr_handler);               // Start ultra sonic interrupt
 196              		.loc 1 92 0
 197 000a 0A48     		ldr	r0, .L19+4
 198 000c FFF7FEFF 		bl	ultra_isr_StartEx
 199              	.LVL16:
  93:ZumoLibrary/Ultra.c ****         Timer_Start();                                      // Start Echo pulse capture timer
 200              		.loc 1 93 0
 201 0010 FFF7FEFF 		bl	Timer_Start
 202              	.LVL17:
  94:ZumoLibrary/Ultra.c ****         // task runs at highest priority but sleeps most of the time
  95:ZumoLibrary/Ultra.c ****         xTaskCreate( UltraSonicTask, "Ultra", configMINIMAL_STACK_SIZE, NULL, tskIDLE_PRIORITY + 3,
 203              		.loc 1 95 0
 204 0014 084B     		ldr	r3, .L19+8
 205 0016 0193     		str	r3, [sp, #4]
 206 0018 0323     		movs	r3, #3
 207 001a 0093     		str	r3, [sp]
 208 001c 0023     		movs	r3, #0
 209 001e 6422     		movs	r2, #100
 210 0020 0649     		ldr	r1, .L19+12
 211 0022 0748     		ldr	r0, .L19+16
 212 0024 FFF7FEFF 		bl	xTaskCreate
 213              	.LVL18:
  96:ZumoLibrary/Ultra.c ****     }
  97:ZumoLibrary/Ultra.c **** }
 214              		.loc 1 97 0
 215 0028 03B0     		add	sp, sp, #12
 216              		.cfi_def_cfa_offset 4
 217              		@ sp needed
 218 002a 5DF804FB 		ldr	pc, [sp], #4
 219              	.L18:
 220              		.cfi_def_cfa_offset 0
 221              		.cfi_restore 14
 222 002e 7047     		bx	lr
 223              	.L20:
 224              		.align	2
 225              	.L19:
 226 0030 00000000 		.word	.LANCHOR0
 227 0034 00000000 		.word	ultra_isr_handler
 228 0038 10000000 		.word	.LANCHOR0+16
 229 003c 00000000 		.word	.LC0
 230 0040 00000000 		.word	UltraSonicTask
 231              		.cfi_endproc
 232              	.LFE70:
 233              		.size	Ultra_Start, .-Ultra_Start
 234              		.section	.text.Ultra_GetDistance,"ax",%progbits
 235              		.align	2
 236              		.global	Ultra_GetDistance
 237              		.thumb
 238              		.thumb_func
 239              		.type	Ultra_GetDistance, %function
 240              	Ultra_GetDistance:
 241              	.LFB71:
  98:ZumoLibrary/Ultra.c **** 
  99:ZumoLibrary/Ultra.c **** int Ultra_GetDistance(void)
 100:ZumoLibrary/Ultra.c **** {
ARM GAS  C:\Users\samue\AppData\Local\Temp\ccEfsy6u.s 			page 7


 242              		.loc 1 100 0
 243              		.cfi_startproc
 244              		@ args = 0, pretend = 0, frame = 0
 245              		@ frame_needed = 0, uses_anonymous_args = 0
 246              		@ link register save eliminated.
 101:ZumoLibrary/Ultra.c ****     return distance;       
 247              		.loc 1 101 0
 248 0000 014B     		ldr	r3, .L22
 249 0002 D868     		ldr	r0, [r3, #12]
 102:ZumoLibrary/Ultra.c **** }    
 250              		.loc 1 102 0
 251 0004 7047     		bx	lr
 252              	.L23:
 253 0006 00BF     		.align	2
 254              	.L22:
 255 0008 00000000 		.word	.LANCHOR0
 256              		.cfi_endproc
 257              	.LFE71:
 258              		.size	Ultra_GetDistance, .-Ultra_GetDistance
 259              		.section	.rodata.str1.4,"aMS",%progbits,1
 260              		.align	2
 261              	.LC0:
 262 0000 556C7472 		.ascii	"Ultra\000"
 262      6100
 263              		.bss
 264              		.align	2
 265              		.set	.LANCHOR0,. + 0
 266              		.type	prev.7509, %object
 267              		.size	prev.7509, 2
 268              	prev.7509:
 269 0000 0000     		.space	2
 270 0002 0000     		.space	2
 271              		.type	echo.7511, %object
 272              		.size	echo.7511, 4
 273              	echo.7511:
 274 0004 00000000 		.space	4
 275              		.type	ovf.7510, %object
 276              		.size	ovf.7510, 4
 277              	ovf.7510:
 278 0008 00000000 		.space	4
 279              		.type	distance, %object
 280              		.size	distance, 4
 281              	distance:
 282 000c 00000000 		.space	4
 283              		.type	UltraHandle, %object
 284              		.size	UltraHandle, 4
 285              	UltraHandle:
 286 0010 00000000 		.space	4
 287              		.text
 288              	.Letext0:
 289              		.file 2 "c:\\program files (x86)\\cypress\\psoc creator\\4.2\\psoc creator\\import\\gnu\\arm\\5.4.
 290              		.file 3 "c:\\program files (x86)\\cypress\\psoc creator\\4.2\\psoc creator\\import\\gnu\\arm\\5.4.
 291              		.file 4 "Generated_Source\\PSoC5/cytypes.h"
 292              		.file 5 "..\\FreeRTOS\\Source\\portable\\GCC\\ARM_CM3/portmacro.h"
 293              		.file 6 "..\\FreeRTOS\\Source\\include/task.h"
 294              		.file 7 "Generated_Source\\PSoC5/Echo.h"
 295              		.file 8 "Generated_Source\\PSoC5/Trig.h"
ARM GAS  C:\Users\samue\AppData\Local\Temp\ccEfsy6u.s 			page 8


 296              		.file 9 "Generated_Source\\PSoC5/Timer.h"
 297              		.file 10 "Generated_Source\\PSoC5/ultra_isr.h"
 298              		.file 11 "Generated_Source\\PSoC5/core_cm3.h"